ARM GAS  C:\Users\user\AppData\Local\Temp\cccHcfqv.s 			page 1


   1              		.syntax unified
   2              		.cpu cortex-m0
   3              		.fpu softvfp
   4              		.eabi_attribute 20, 1
   5              		.eabi_attribute 21, 1
   6              		.eabi_attribute 23, 3
   7              		.eabi_attribute 24, 1
   8              		.eabi_attribute 25, 1
   9              		.eabi_attribute 26, 1
  10              		.eabi_attribute 30, 4
  11              		.eabi_attribute 34, 0
  12              		.eabi_attribute 18, 4
  13              		.thumb
  14              		.syntax unified
  15              		.file	"BLE_dis.c"
  16              		.text
  17              	.Ltext0:
  18              		.cfi_sections	.debug_frame
  19              		.section	.text.CyBle_DisInit,"ax",%progbits
  20              		.align	1
  21              		.global	CyBle_DisInit
  22              		.code	16
  23              		.thumb_func
  24              		.type	CyBle_DisInit, %function
  25              	CyBle_DisInit:
  26              	.LFB2:
  27              		.file 1 "Generated_Source\\PSoC4\\BLE_dis.c"
   1:Generated_Source\PSoC4/BLE_dis.c **** /***************************************************************************//**
   2:Generated_Source\PSoC4/BLE_dis.c **** * \file CYBLE_dis.c
   3:Generated_Source\PSoC4/BLE_dis.c **** * \version 3.66
   4:Generated_Source\PSoC4/BLE_dis.c **** * 
   5:Generated_Source\PSoC4/BLE_dis.c **** * \brief
   6:Generated_Source\PSoC4/BLE_dis.c **** *  Contains the source code for the Device Information Service.
   7:Generated_Source\PSoC4/BLE_dis.c **** * 
   8:Generated_Source\PSoC4/BLE_dis.c **** ********************************************************************************
   9:Generated_Source\PSoC4/BLE_dis.c **** * \copyright
  10:Generated_Source\PSoC4/BLE_dis.c **** * Copyright 2014-2020, Cypress Semiconductor Corporation.  All rights reserved.
  11:Generated_Source\PSoC4/BLE_dis.c **** * You may use this file only in accordance with the license, terms, conditions,
  12:Generated_Source\PSoC4/BLE_dis.c **** * disclaimers, and limitations in the end user license agreement accompanying
  13:Generated_Source\PSoC4/BLE_dis.c **** * the software package with which this file was provided.
  14:Generated_Source\PSoC4/BLE_dis.c **** *******************************************************************************/
  15:Generated_Source\PSoC4/BLE_dis.c **** 
  16:Generated_Source\PSoC4/BLE_dis.c **** 
  17:Generated_Source\PSoC4/BLE_dis.c **** #include "BLE_eventHandler.h"
  18:Generated_Source\PSoC4/BLE_dis.c **** 
  19:Generated_Source\PSoC4/BLE_dis.c **** #ifdef CYBLE_DIS_SERVER
  20:Generated_Source\PSoC4/BLE_dis.c **** 
  21:Generated_Source\PSoC4/BLE_dis.c **** const CYBLE_DISS_T cyBle_diss =
  22:Generated_Source\PSoC4/BLE_dis.c **** {
  23:Generated_Source\PSoC4/BLE_dis.c ****     0x001Eu,    /* Handle of the DIS service */
  24:Generated_Source\PSoC4/BLE_dis.c ****     {
  25:Generated_Source\PSoC4/BLE_dis.c ****         0x0020u, /* Handle of the Manufacturer Name String characteristic */ 
  26:Generated_Source\PSoC4/BLE_dis.c ****         0x0022u, /* Handle of the Model Number String characteristic */ 
  27:Generated_Source\PSoC4/BLE_dis.c ****         0x0024u, /* Handle of the Serial Number String characteristic */ 
  28:Generated_Source\PSoC4/BLE_dis.c ****         0x0026u, /* Handle of the Hardware Revision String characteristic */ 
  29:Generated_Source\PSoC4/BLE_dis.c ****         0x0028u, /* Handle of the Firmware Revision String characteristic */ 
  30:Generated_Source\PSoC4/BLE_dis.c ****         0x002Au, /* Handle of the Software Revision String characteristic */ 
ARM GAS  C:\Users\user\AppData\Local\Temp\cccHcfqv.s 			page 2


  31:Generated_Source\PSoC4/BLE_dis.c ****         0x002Cu, /* Handle of the System ID characteristic */ 
  32:Generated_Source\PSoC4/BLE_dis.c ****         CYBLE_GATT_INVALID_ATTR_HANDLE_VALUE, /* Handle of the IEEE 11073-20601 Regulatory Certific
  33:Generated_Source\PSoC4/BLE_dis.c ****         0x002Eu, /* Handle of the PnP ID characteristic */ 
  34:Generated_Source\PSoC4/BLE_dis.c ****     },
  35:Generated_Source\PSoC4/BLE_dis.c **** };
  36:Generated_Source\PSoC4/BLE_dis.c **** 
  37:Generated_Source\PSoC4/BLE_dis.c **** #endif /* CYBLE_DIS_SERVER */
  38:Generated_Source\PSoC4/BLE_dis.c **** 
  39:Generated_Source\PSoC4/BLE_dis.c **** #ifdef CYBLE_DIS_CLIENT
  40:Generated_Source\PSoC4/BLE_dis.c **** 
  41:Generated_Source\PSoC4/BLE_dis.c **** CYBLE_DISC_T cyBle_disc;
  42:Generated_Source\PSoC4/BLE_dis.c **** static CYBLE_GATT_DB_ATTR_HANDLE_T cyBle_discReqHandle;
  43:Generated_Source\PSoC4/BLE_dis.c **** static CYBLE_CALLBACK_T CyBle_DisApplCallback = NULL;
  44:Generated_Source\PSoC4/BLE_dis.c **** 
  45:Generated_Source\PSoC4/BLE_dis.c **** #endif /* (CYBLE_DIS_CLIENT) */
  46:Generated_Source\PSoC4/BLE_dis.c **** 
  47:Generated_Source\PSoC4/BLE_dis.c **** 
  48:Generated_Source\PSoC4/BLE_dis.c **** /****************************************************************************** 
  49:Generated_Source\PSoC4/BLE_dis.c **** * Function Name: CyBle_DisInit
  50:Generated_Source\PSoC4/BLE_dis.c **** ***************************************************************************//**
  51:Generated_Source\PSoC4/BLE_dis.c **** * 
  52:Generated_Source\PSoC4/BLE_dis.c **** *  This function initializes the DIS service.
  53:Generated_Source\PSoC4/BLE_dis.c **** *  
  54:Generated_Source\PSoC4/BLE_dis.c **** ******************************************************************************/
  55:Generated_Source\PSoC4/BLE_dis.c **** void CyBle_DisInit(void)
  56:Generated_Source\PSoC4/BLE_dis.c **** {
  28              		.loc 1 56 0
  29              		.cfi_startproc
  30              		@ args = 0, pretend = 0, frame = 0
  31              		@ frame_needed = 0, uses_anonymous_args = 0
  32              		@ link register save eliminated.
  57:Generated_Source\PSoC4/BLE_dis.c **** 
  58:Generated_Source\PSoC4/BLE_dis.c **** #ifdef CYBLE_DIS_CLIENT
  59:Generated_Source\PSoC4/BLE_dis.c **** 
  60:Generated_Source\PSoC4/BLE_dis.c ****     if(cyBle_serverInfo[CYBLE_SRVI_DIS].range.startHandle == CYBLE_GATT_INVALID_ATTR_HANDLE_VALUE)
  61:Generated_Source\PSoC4/BLE_dis.c ****     {
  62:Generated_Source\PSoC4/BLE_dis.c ****         (void)memset(&cyBle_disc, 0, sizeof(cyBle_disc));
  63:Generated_Source\PSoC4/BLE_dis.c ****     }
  64:Generated_Source\PSoC4/BLE_dis.c ****     cyBle_discReqHandle = CYBLE_GATT_INVALID_ATTR_HANDLE_VALUE;
  65:Generated_Source\PSoC4/BLE_dis.c **** 
  66:Generated_Source\PSoC4/BLE_dis.c **** #endif /* CYBLE_DIS_CLIENT */
  67:Generated_Source\PSoC4/BLE_dis.c **** 
  68:Generated_Source\PSoC4/BLE_dis.c **** }
  33              		.loc 1 68 0
  34              		@ sp needed
  35 0000 7047     		bx	lr
  36              		.cfi_endproc
  37              	.LFE2:
  38              		.size	CyBle_DisInit, .-CyBle_DisInit
  39              		.section	.text.CyBle_DisRegisterAttrCallback,"ax",%progbits
  40              		.align	1
  41              		.global	CyBle_DisRegisterAttrCallback
  42              		.code	16
  43              		.thumb_func
  44              		.type	CyBle_DisRegisterAttrCallback, %function
  45              	CyBle_DisRegisterAttrCallback:
  46              	.LFB3:
ARM GAS  C:\Users\user\AppData\Local\Temp\cccHcfqv.s 			page 3


  69:Generated_Source\PSoC4/BLE_dis.c **** 
  70:Generated_Source\PSoC4/BLE_dis.c **** 
  71:Generated_Source\PSoC4/BLE_dis.c **** /****************************************************************************** 
  72:Generated_Source\PSoC4/BLE_dis.c **** * Function Name: CyBle_DisRegisterAttrCallback
  73:Generated_Source\PSoC4/BLE_dis.c **** ***************************************************************************//**
  74:Generated_Source\PSoC4/BLE_dis.c **** * 
  75:Generated_Source\PSoC4/BLE_dis.c **** *  Registers a callback function for service specific attribute operations.
  76:Generated_Source\PSoC4/BLE_dis.c **** *  Callback doesn't have events in server role.
  77:Generated_Source\PSoC4/BLE_dis.c **** * 
  78:Generated_Source\PSoC4/BLE_dis.c **** *  \param callbackFunc: An application layer event callback function to receive 
  79:Generated_Source\PSoC4/BLE_dis.c **** *                    events from the BLE Component. The definition of 
  80:Generated_Source\PSoC4/BLE_dis.c **** *                    CYBLE_CALLBACK_T for Device Information Service is:\n
  81:Generated_Source\PSoC4/BLE_dis.c **** *                    typedef void (* CYBLE_CALLBACK_T) (uint32 eventCode, 
  82:Generated_Source\PSoC4/BLE_dis.c **** *                                                       void *eventParam)
  83:Generated_Source\PSoC4/BLE_dis.c **** *                    * eventCode indicates the event that triggered this 
  84:Generated_Source\PSoC4/BLE_dis.c **** *                      callback.
  85:Generated_Source\PSoC4/BLE_dis.c **** *                    * eventParam contains the parameters corresponding to the 
  86:Generated_Source\PSoC4/BLE_dis.c **** *                      current event.
  87:Generated_Source\PSoC4/BLE_dis.c **** * 
  88:Generated_Source\PSoC4/BLE_dis.c **** ******************************************************************************/
  89:Generated_Source\PSoC4/BLE_dis.c **** void CyBle_DisRegisterAttrCallback(CYBLE_CALLBACK_T callbackFunc)
  90:Generated_Source\PSoC4/BLE_dis.c **** {
  47              		.loc 1 90 0
  48              		.cfi_startproc
  49              		@ args = 0, pretend = 0, frame = 0
  50              		@ frame_needed = 0, uses_anonymous_args = 0
  51              		@ link register save eliminated.
  52              	.LVL0:
  91:Generated_Source\PSoC4/BLE_dis.c ****     
  92:Generated_Source\PSoC4/BLE_dis.c **** #ifdef CYBLE_DIS_CLIENT
  93:Generated_Source\PSoC4/BLE_dis.c ****     CyBle_DisApplCallback = callbackFunc;
  94:Generated_Source\PSoC4/BLE_dis.c **** #else
  95:Generated_Source\PSoC4/BLE_dis.c ****     if(callbackFunc != NULL) /* Callback doesn't have events in server role */
  96:Generated_Source\PSoC4/BLE_dis.c ****     {
  97:Generated_Source\PSoC4/BLE_dis.c ****     }
  98:Generated_Source\PSoC4/BLE_dis.c **** #endif /* CYBLE_DIS_CLIENT */
  99:Generated_Source\PSoC4/BLE_dis.c ****     
 100:Generated_Source\PSoC4/BLE_dis.c **** }
  53              		.loc 1 100 0
  54              		@ sp needed
  55 0000 7047     		bx	lr
  56              		.cfi_endproc
  57              	.LFE3:
  58              		.size	CyBle_DisRegisterAttrCallback, .-CyBle_DisRegisterAttrCallback
  59              		.section	.text.CyBle_DissSetCharacteristicValue,"ax",%progbits
  60              		.align	1
  61              		.global	CyBle_DissSetCharacteristicValue
  62              		.code	16
  63              		.thumb_func
  64              		.type	CyBle_DissSetCharacteristicValue, %function
  65              	CyBle_DissSetCharacteristicValue:
  66              	.LFB4:
 101:Generated_Source\PSoC4/BLE_dis.c **** 
 102:Generated_Source\PSoC4/BLE_dis.c **** #ifdef CYBLE_DIS_SERVER
 103:Generated_Source\PSoC4/BLE_dis.c **** 
 104:Generated_Source\PSoC4/BLE_dis.c **** 
 105:Generated_Source\PSoC4/BLE_dis.c **** /******************************************************************************
ARM GAS  C:\Users\user\AppData\Local\Temp\cccHcfqv.s 			page 4


 106:Generated_Source\PSoC4/BLE_dis.c **** * Function Name: CyBle_DissSetCharacteristicValue
 107:Generated_Source\PSoC4/BLE_dis.c **** ***************************************************************************//**
 108:Generated_Source\PSoC4/BLE_dis.c **** * 
 109:Generated_Source\PSoC4/BLE_dis.c **** *  Sets a characteristic value of the service, which is identified by charIndex,
 110:Generated_Source\PSoC4/BLE_dis.c **** *  to the local database.
 111:Generated_Source\PSoC4/BLE_dis.c **** * 
 112:Generated_Source\PSoC4/BLE_dis.c **** * 
 113:Generated_Source\PSoC4/BLE_dis.c **** *  \param charIndex: The index of a service characteristic.
 114:Generated_Source\PSoC4/BLE_dis.c **** *  \param attrSize: The size of the characteristic value attribute.
 115:Generated_Source\PSoC4/BLE_dis.c **** *  \param *attrValue: The pointer to the characteristic value data that should be
 116:Generated_Source\PSoC4/BLE_dis.c **** *                   stored to the GATT database.
 117:Generated_Source\PSoC4/BLE_dis.c **** * 
 118:Generated_Source\PSoC4/BLE_dis.c **** * \return
 119:Generated_Source\PSoC4/BLE_dis.c **** *  Return value is of type CYBLE_API_RESULT_T.
 120:Generated_Source\PSoC4/BLE_dis.c **** *  * CYBLE_ERROR_OK - The request handled successfully
 121:Generated_Source\PSoC4/BLE_dis.c **** *  * CYBLE_ERROR_INVALID_PARAMETER - Validation of the input parameter failed
 122:Generated_Source\PSoC4/BLE_dis.c **** *
 123:Generated_Source\PSoC4/BLE_dis.c **** ******************************************************************************/
 124:Generated_Source\PSoC4/BLE_dis.c **** CYBLE_API_RESULT_T CyBle_DissSetCharacteristicValue(CYBLE_DIS_CHAR_INDEX_T charIndex, uint8 attrSiz
 125:Generated_Source\PSoC4/BLE_dis.c **** {
  67              		.loc 1 125 0
  68              		.cfi_startproc
  69              		@ args = 0, pretend = 0, frame = 16
  70              		@ frame_needed = 0, uses_anonymous_args = 0
  71              	.LVL1:
  72 0000 1FB5     		push	{r0, r1, r2, r3, r4, lr}
  73              		.cfi_def_cfa_offset 24
  74              		.cfi_offset 0, -24
  75              		.cfi_offset 1, -20
  76              		.cfi_offset 2, -16
  77              		.cfi_offset 3, -12
  78              		.cfi_offset 4, -8
  79              		.cfi_offset 14, -4
  80              		.loc 1 125 0
  81 0002 0300     		movs	r3, r0
 126:Generated_Source\PSoC4/BLE_dis.c ****     CYBLE_API_RESULT_T apiResult = CYBLE_ERROR_OK;
 127:Generated_Source\PSoC4/BLE_dis.c ****     CYBLE_GATT_HANDLE_VALUE_PAIR_T locHandleValuePair;
 128:Generated_Source\PSoC4/BLE_dis.c **** 
 129:Generated_Source\PSoC4/BLE_dis.c ****     if(charIndex >= CYBLE_DIS_CHAR_COUNT)
 130:Generated_Source\PSoC4/BLE_dis.c ****     {
 131:Generated_Source\PSoC4/BLE_dis.c ****         apiResult = CYBLE_ERROR_INVALID_PARAMETER;
  82              		.loc 1 131 0
  83 0004 0120     		movs	r0, #1
  84              	.LVL2:
 129:Generated_Source\PSoC4/BLE_dis.c ****     {
  85              		.loc 1 129 0
  86 0006 082B     		cmp	r3, #8
  87 0008 0FD8     		bhi	.L4
 132:Generated_Source\PSoC4/BLE_dis.c ****     }
 133:Generated_Source\PSoC4/BLE_dis.c ****     else
 134:Generated_Source\PSoC4/BLE_dis.c ****     {
 135:Generated_Source\PSoC4/BLE_dis.c ****         /* Store data in database */
 136:Generated_Source\PSoC4/BLE_dis.c ****         locHandleValuePair.attrHandle = cyBle_diss.charHandle[charIndex];
  88              		.loc 1 136 0
  89 000a 094C     		ldr	r4, .L7
  90 000c 5B00     		lsls	r3, r3, #1
  91 000e E318     		adds	r3, r4, r3
ARM GAS  C:\Users\user\AppData\Local\Temp\cccHcfqv.s 			page 5


  92 0010 5B88     		ldrh	r3, [r3, #2]
  93 0012 01A8     		add	r0, sp, #4
  94 0014 0381     		strh	r3, [r0, #8]
 137:Generated_Source\PSoC4/BLE_dis.c ****         locHandleValuePair.value.len = attrSize;
 138:Generated_Source\PSoC4/BLE_dis.c ****         locHandleValuePair.value.val = attrValue;
 139:Generated_Source\PSoC4/BLE_dis.c ****         if(CYBLE_GATT_ERR_NONE !=
 140:Generated_Source\PSoC4/BLE_dis.c ****             CyBle_GattsWriteAttributeValue(&locHandleValuePair, 0u, NULL, CYBLE_GATT_DB_LOCALLY_INI
  95              		.loc 1 140 0
  96 0016 0023     		movs	r3, #0
 137:Generated_Source\PSoC4/BLE_dis.c ****         locHandleValuePair.value.len = attrSize;
  97              		.loc 1 137 0
  98 0018 8180     		strh	r1, [r0, #4]
 138:Generated_Source\PSoC4/BLE_dis.c ****         if(CYBLE_GATT_ERR_NONE !=
  99              		.loc 1 138 0
 100 001a 0192     		str	r2, [sp, #4]
 101              		.loc 1 140 0
 102 001c 1900     		movs	r1, r3
 103              	.LVL3:
 104 001e 1A00     		movs	r2, r3
 105              	.LVL4:
 106 0020 FFF7FEFF 		bl	CyBle_GattsWriteAttributeValue
 107              	.LVL5:
 131:Generated_Source\PSoC4/BLE_dis.c ****     }
 108              		.loc 1 131 0
 109 0024 431E     		subs	r3, r0, #1
 110 0026 9841     		sbcs	r0, r0, r3
 111 0028 80B2     		uxth	r0, r0
 112              	.L4:
 113              	.LVL6:
 141:Generated_Source\PSoC4/BLE_dis.c ****         {
 142:Generated_Source\PSoC4/BLE_dis.c ****             apiResult = CYBLE_ERROR_INVALID_PARAMETER;
 143:Generated_Source\PSoC4/BLE_dis.c ****         }
 144:Generated_Source\PSoC4/BLE_dis.c ****     }
 145:Generated_Source\PSoC4/BLE_dis.c ****     return (apiResult);
 146:Generated_Source\PSoC4/BLE_dis.c **** }
 114              		.loc 1 146 0
 115 002a 04B0     		add	sp, sp, #16
 116              		@ sp needed
 117 002c 10BD     		pop	{r4, pc}
 118              	.L8:
 119 002e C046     		.align	2
 120              	.L7:
 121 0030 00000000 		.word	.LANCHOR0
 122              		.cfi_endproc
 123              	.LFE4:
 124              		.size	CyBle_DissSetCharacteristicValue, .-CyBle_DissSetCharacteristicValue
 125              		.section	.text.CyBle_DissGetCharacteristicValue,"ax",%progbits
 126              		.align	1
 127              		.global	CyBle_DissGetCharacteristicValue
 128              		.code	16
 129              		.thumb_func
 130              		.type	CyBle_DissGetCharacteristicValue, %function
 131              	CyBle_DissGetCharacteristicValue:
 132              	.LFB5:
 147:Generated_Source\PSoC4/BLE_dis.c **** 
 148:Generated_Source\PSoC4/BLE_dis.c **** 
 149:Generated_Source\PSoC4/BLE_dis.c **** /******************************************************************************
ARM GAS  C:\Users\user\AppData\Local\Temp\cccHcfqv.s 			page 6


 150:Generated_Source\PSoC4/BLE_dis.c **** * Function Name: CyBle_DissGetCharacteristicValue
 151:Generated_Source\PSoC4/BLE_dis.c **** ***************************************************************************//**
 152:Generated_Source\PSoC4/BLE_dis.c **** * 
 153:Generated_Source\PSoC4/BLE_dis.c **** *  Gets a characteristic value of the service, which is identified by charIndex,
 154:Generated_Source\PSoC4/BLE_dis.c **** *  from the GATT database.
 155:Generated_Source\PSoC4/BLE_dis.c **** * 
 156:Generated_Source\PSoC4/BLE_dis.c **** *  \param charIndex: The index of a service characteristic.
 157:Generated_Source\PSoC4/BLE_dis.c **** *  \param attrSize: The size of the characteristic value attribute.
 158:Generated_Source\PSoC4/BLE_dis.c **** *  \param *attrValue: The pointer to the location where characteristic value data
 159:Generated_Source\PSoC4/BLE_dis.c **** *               should be stored.
 160:Generated_Source\PSoC4/BLE_dis.c **** * 
 161:Generated_Source\PSoC4/BLE_dis.c **** * \return
 162:Generated_Source\PSoC4/BLE_dis.c **** *  Return value is of type CYBLE_API_RESULT_T.
 163:Generated_Source\PSoC4/BLE_dis.c **** *  Return value is of type CYBLE_API_RESULT_T.
 164:Generated_Source\PSoC4/BLE_dis.c **** *  * CYBLE_ERROR_OK - The request handled successfully
 165:Generated_Source\PSoC4/BLE_dis.c **** *  * CYBLE_ERROR_INVALID_PARAMETER - Validation of the input parameter failed
 166:Generated_Source\PSoC4/BLE_dis.c **** *
 167:Generated_Source\PSoC4/BLE_dis.c **** ******************************************************************************/
 168:Generated_Source\PSoC4/BLE_dis.c **** CYBLE_API_RESULT_T CyBle_DissGetCharacteristicValue(CYBLE_DIS_CHAR_INDEX_T charIndex, uint8 attrSiz
 169:Generated_Source\PSoC4/BLE_dis.c **** {
 133              		.loc 1 169 0
 134              		.cfi_startproc
 135              		@ args = 0, pretend = 0, frame = 16
 136              		@ frame_needed = 0, uses_anonymous_args = 0
 137              	.LVL7:
 138 0000 1FB5     		push	{r0, r1, r2, r3, r4, lr}
 139              		.cfi_def_cfa_offset 24
 140              		.cfi_offset 0, -24
 141              		.cfi_offset 1, -20
 142              		.cfi_offset 2, -16
 143              		.cfi_offset 3, -12
 144              		.cfi_offset 4, -8
 145              		.cfi_offset 14, -4
 146              		.loc 1 169 0
 147 0002 0300     		movs	r3, r0
 170:Generated_Source\PSoC4/BLE_dis.c ****     CYBLE_API_RESULT_T apiResult = CYBLE_ERROR_OK;
 171:Generated_Source\PSoC4/BLE_dis.c ****     CYBLE_GATT_HANDLE_VALUE_PAIR_T locHandleValuePair;
 172:Generated_Source\PSoC4/BLE_dis.c **** 
 173:Generated_Source\PSoC4/BLE_dis.c ****     if(charIndex >= CYBLE_DIS_CHAR_COUNT)
 174:Generated_Source\PSoC4/BLE_dis.c ****     {
 175:Generated_Source\PSoC4/BLE_dis.c ****         apiResult = CYBLE_ERROR_INVALID_PARAMETER;
 148              		.loc 1 175 0
 149 0004 0120     		movs	r0, #1
 150              	.LVL8:
 173:Generated_Source\PSoC4/BLE_dis.c ****     {
 151              		.loc 1 173 0
 152 0006 082B     		cmp	r3, #8
 153 0008 0ED8     		bhi	.L10
 176:Generated_Source\PSoC4/BLE_dis.c ****     }
 177:Generated_Source\PSoC4/BLE_dis.c ****     else
 178:Generated_Source\PSoC4/BLE_dis.c ****     {
 179:Generated_Source\PSoC4/BLE_dis.c ****         /* Read characteristic value from database */
 180:Generated_Source\PSoC4/BLE_dis.c ****         locHandleValuePair.attrHandle = cyBle_diss.charHandle[charIndex];
 181:Generated_Source\PSoC4/BLE_dis.c ****         locHandleValuePair.value.len = attrSize;
 182:Generated_Source\PSoC4/BLE_dis.c ****         locHandleValuePair.value.val = attrValue;
 154              		.loc 1 182 0
 155 000a 0192     		str	r2, [sp, #4]
ARM GAS  C:\Users\user\AppData\Local\Temp\cccHcfqv.s 			page 7


 183:Generated_Source\PSoC4/BLE_dis.c ****         if(CYBLE_GATT_ERR_NONE !=
 184:Generated_Source\PSoC4/BLE_dis.c ****             CyBle_GattsReadAttributeValue(&locHandleValuePair, NULL, CYBLE_GATT_DB_LOCALLY_INITIATE
 156              		.loc 1 184 0
 157 000c 0022     		movs	r2, #0
 158              	.LVL9:
 180:Generated_Source\PSoC4/BLE_dis.c ****         locHandleValuePair.value.len = attrSize;
 159              		.loc 1 180 0
 160 000e 074C     		ldr	r4, .L12
 161 0010 5B00     		lsls	r3, r3, #1
 162 0012 E318     		adds	r3, r4, r3
 163 0014 01A8     		add	r0, sp, #4
 164              	.LVL10:
 165 0016 5B88     		ldrh	r3, [r3, #2]
 181:Generated_Source\PSoC4/BLE_dis.c ****         locHandleValuePair.value.val = attrValue;
 166              		.loc 1 181 0
 167 0018 8180     		strh	r1, [r0, #4]
 168              		.loc 1 184 0
 169 001a 1100     		movs	r1, r2
 170              	.LVL11:
 180:Generated_Source\PSoC4/BLE_dis.c ****         locHandleValuePair.value.len = attrSize;
 171              		.loc 1 180 0
 172 001c 0381     		strh	r3, [r0, #8]
 173              		.loc 1 184 0
 174 001e FFF7FEFF 		bl	CyBle_GattsReadAttributeValue
 175              	.LVL12:
 175:Generated_Source\PSoC4/BLE_dis.c ****     }
 176              		.loc 1 175 0
 177 0022 431E     		subs	r3, r0, #1
 178 0024 9841     		sbcs	r0, r0, r3
 179 0026 80B2     		uxth	r0, r0
 180              	.L10:
 181              	.LVL13:
 185:Generated_Source\PSoC4/BLE_dis.c ****         {
 186:Generated_Source\PSoC4/BLE_dis.c ****             apiResult = CYBLE_ERROR_INVALID_PARAMETER;
 187:Generated_Source\PSoC4/BLE_dis.c ****         }
 188:Generated_Source\PSoC4/BLE_dis.c ****     }
 189:Generated_Source\PSoC4/BLE_dis.c ****     return (apiResult);
 190:Generated_Source\PSoC4/BLE_dis.c **** }
 182              		.loc 1 190 0
 183 0028 04B0     		add	sp, sp, #16
 184              		@ sp needed
 185 002a 10BD     		pop	{r4, pc}
 186              	.L13:
 187              		.align	2
 188              	.L12:
 189 002c 00000000 		.word	.LANCHOR0
 190              		.cfi_endproc
 191              	.LFE5:
 192              		.size	CyBle_DissGetCharacteristicValue, .-CyBle_DissGetCharacteristicValue
 193              		.global	cyBle_diss
 194              		.section	.rodata
 195              		.align	1
 196              		.set	.LANCHOR0,. + 0
 197              		.type	cyBle_diss, %object
 198              		.size	cyBle_diss, 20
 199              	cyBle_diss:
 200 0000 1E00     		.short	30
ARM GAS  C:\Users\user\AppData\Local\Temp\cccHcfqv.s 			page 8


 201 0002 2000     		.short	32
 202 0004 2200     		.short	34
 203 0006 2400     		.short	36
 204 0008 2600     		.short	38
 205 000a 2800     		.short	40
 206 000c 2A00     		.short	42
 207 000e 2C00     		.short	44
 208 0010 0000     		.short	0
 209 0012 2E00     		.short	46
 210              		.text
 211              	.Letext0:
 212              		.file 2 "Generated_Source\\PSoC4\\cytypes.h"
 213              		.file 3 "Generated_Source\\PSoC4\\BLE_Stack.h"
 214              		.file 4 "Generated_Source\\PSoC4\\BLE_StackGatt.h"
 215              		.file 5 "Generated_Source\\PSoC4\\BLE.h"
 216              		.file 6 "Generated_Source\\PSoC4\\BLE_bms.h"
 217              		.file 7 "Generated_Source\\PSoC4\\BLE_cgms.h"
 218              		.file 8 "Generated_Source\\PSoC4\\BLE_dis.h"
 219              		.file 9 "Generated_Source\\PSoC4\\BLE_StackGattDb.h"