ARM GAS  C:\Users\user\AppData\Local\Temp\ccK5UdOJ.s 			page 1


   1              		.syntax unified
   2              		.cpu cortex-m0
   3              		.fpu softvfp
   4              		.eabi_attribute 20, 1
   5              		.eabi_attribute 21, 1
   6              		.eabi_attribute 23, 3
   7              		.eabi_attribute 24, 1
   8              		.eabi_attribute 25, 1
   9              		.eabi_attribute 26, 1
  10              		.eabi_attribute 30, 4
  11              		.eabi_attribute 34, 0
  12              		.eabi_attribute 18, 4
  13              		.thumb
  14              		.syntax unified
  15              		.file	"main.c"
  16              		.text
  17              	.Ltext0:
  18              		.cfi_sections	.debug_frame
  19              		.section	.text.Timer_Interrupt,"ax",%progbits
  20              		.align	1
  21              		.global	Timer_Interrupt
  22              		.code	16
  23              		.thumb_func
  24              		.type	Timer_Interrupt, %function
  25              	Timer_Interrupt:
  26              	.LFB37:
  27              		.file 1 "main.c"
   1:main.c        **** /*******************************************************************************
   2:main.c        **** * File Name: main.c
   3:main.c        **** *
   4:main.c        **** * Version 1.0
   5:main.c        **** *
   6:main.c        **** * Description:
   7:main.c        **** *  This project demonstrates the operation of the CGM Profile
   8:main.c        **** *  in the GATT Server (GAP Peripheral) role.
   9:main.c        **** *
  10:main.c        **** * Note:
  11:main.c        **** *
  12:main.c        **** * Hardware Dependency:
  13:main.c        **** *  CY8CKIT-042 BLE
  14:main.c        **** *
  15:main.c        **** ********************************************************************************
  16:main.c        **** * Copyright 2016, Cypress Semiconductor Corporation.  All rights reserved.
  17:main.c        **** * You may use this file only in accordance with the license, terms, conditions,
  18:main.c        **** * disclaimers, and limitations in the end user license agreement accompanying
  19:main.c        **** * the software package with which this file was provided.
  20:main.c        **** *******************************************************************************/
  21:main.c        **** 
  22:main.c        **** #include "main.h"
  23:main.c        **** #include "project.h"
  24:main.c        **** 
  25:main.c        **** CYBLE_API_RESULT_T apiResult;
  26:main.c        **** uint16 i;
  27:main.c        **** AUTHENTICATION_STATE    authState = AUTHENTICATION_NOT_CONNECTED;
  28:main.c        **** uint32  passkeyValue;
  29:main.c        **** uint32  passkeyPow;
  30:main.c        **** uint8   passkeyCounter;
ARM GAS  C:\Users\user\AppData\Local\Temp\ccK5UdOJ.s 			page 2


  31:main.c        **** char8   command;
  32:main.c        **** uint8   customCommand = 0u;
  33:main.c        **** CYBLE_GAP_AUTH_INFO_T   peerAuthInfo;
  34:main.c        **** 
  35:main.c        **** 
  36:main.c        **** // Deklaracje funkcji
  37:main.c        **** //void PrintUUID(CYBLE_UUID_T uuid, uint8 uuidFormat);
  38:main.c        **** //void PrintCharacteristicInfo(const CYBLE_DISC_CHAR_INFO_T *charInfo);
  39:main.c        **** 
  40:main.c        **** /*******************************************************************************
  41:main.c        **** * Function Name: AppCallBack()
  42:main.c        **** ********************************************************************************
  43:main.c        **** *
  44:main.c        **** * Summary:
  45:main.c        **** *   This is an event callback function to receive events from the BLE Component.
  46:main.c        **** *
  47:main.c        **** * Parameters:
  48:main.c        **** *  event - The event code.
  49:main.c        **** *  *eventParam - The event parameters.
  50:main.c        **** *
  51:main.c        **** *******************************************************************************/
  52:main.c        **** void AppCallBack(uint32 event, void* eventParam)
  53:main.c        **** {   
  54:main.c        ****     CYBLE_GAP_CONN_PARAM_UPDATED_IN_CONTROLLER_T *connParameters;
  55:main.c        ****     
  56:main.c        ****     switch(event)
  57:main.c        ****     {
  58:main.c        ****         case CYBLE_EVT_STACK_ON:
  59:main.c        ****             DBG_PRINTF("CYBLE_EVT_STACK_ON \r\n");
  60:main.c        ****             /* Put device to discoverable mode so that remote can search it. */
  61:main.c        ****             StartAdvertisement();
  62:main.c        ****             Advertising_LED_Write(LED_OFF);
  63:main.c        **** 			break;
  64:main.c        **** 
  65:main.c        ****         case CYBLE_EVT_STACK_BUSY_STATUS:
  66:main.c        ****             DBG_PRINTF("CYBLE_EVT_STACK_BUSY_STATUS \r\n");
  67:main.c        ****             break;
  68:main.c        **** 
  69:main.c        ****         case CYBLE_EVT_TIMEOUT: /* 0x01 -> GAP limited discoverable mode timeout. */
  70:main.c        ****                                 /* 0x02 -> GAP pairing process timeout. */
  71:main.c        ****                                 /* 0x03 -> GATT response timeout. */
  72:main.c        ****             DBG_PRINTF("CYBLE_EVT_TIMEOUT: %d \r\n", *(uint8 *)eventParam);
  73:main.c        ****             break;
  74:main.c        **** 
  75:main.c        ****         case CYBLE_EVT_HARDWARE_ERROR:    /* This event indicates that some internal HW error has o
  76:main.c        ****             DBG_PRINTF("CYBLE_EVT_HARDWARE_ERROR \r\n");
  77:main.c        ****             break;
  78:main.c        **** 
  79:main.c        ****         case CYBLE_EVT_HCI_STATUS:
  80:main.c        ****             DBG_PRINTF("CYBLE_EVT_HCI_STATUS: %x \r\n", *(uint8 *)eventParam);
  81:main.c        ****             break;
  82:main.c        ****             
  83:main.c        ****         /**********************************************************
  84:main.c        ****         *                       GAP Events
  85:main.c        ****         ***********************************************************/
  86:main.c        **** 
  87:main.c        ****         case CYBLE_EVT_GAP_AUTH_REQ:
ARM GAS  C:\Users\user\AppData\Local\Temp\ccK5UdOJ.s 			page 3


  88:main.c        ****             peerAuthInfo = *(CYBLE_GAP_AUTH_INFO_T *)eventParam;
  89:main.c        ****             DBG_PRINTF("EVT_AUTH_REQ: security=%x, bonding=%x, ekeySize=%x, err=%x \r\n", 
  90:main.c        ****             peerAuthInfo.security, 
  91:main.c        ****             peerAuthInfo.bonding, 
  92:main.c        ****             peerAuthInfo.ekeySize, 
  93:main.c        ****             peerAuthInfo.authErr);
  94:main.c        ****             break;
  95:main.c        ****             
  96:main.c        **** 	    case CYBLE_EVT_GAP_PASSKEY_ENTRY_REQUEST:
  97:main.c        ****             DBG_PRINTF("CYBLE_EVT_GAP_PASSKEY_ENTRY_REQUEST\r\n");
  98:main.c        ****             DBG_PRINTF("Enter the passkey shown in the peer device: \r\n");
  99:main.c        ****             authState = AUTHENTICATION_WAITING_FOR_PASSKEY;
 100:main.c        ****             passkeyValue = 0u;
 101:main.c        ****             passkeyPow = 100000u;
 102:main.c        ****             passkeyCounter = 0u;
 103:main.c        ****             break;
 104:main.c        ****             
 105:main.c        **** 	    case CYBLE_EVT_GAP_PASSKEY_DISPLAY_REQUEST:
 106:main.c        ****             DBG_PRINTF("Enter this passkey in your peer device: %6.6ld \r\n", *(uint32 *)eventParam
 107:main.c        ****             break;
 108:main.c        ****             
 109:main.c        ****         case CYBLE_EVT_GAP_AUTH_FAILED:
 110:main.c        ****             DBG_PRINTF("CYBLE_EVT_GAP_AUTH_FAILED, reason: ");
 111:main.c        ****             switch(*(CYBLE_GAP_AUTH_FAILED_REASON_T *)eventParam)
 112:main.c        ****             {
 113:main.c        ****                 case CYBLE_GAP_AUTH_ERROR_NONE:
 114:main.c        ****                     DBG_PRINTF("NONE\r\n");
 115:main.c        ****                     break;
 116:main.c        **** 
 117:main.c        ****                 case CYBLE_GAP_AUTH_ERROR_PASSKEY_ENTRY_FAILED:
 118:main.c        ****                     DBG_PRINTF("PASSKEY_ENTRY_FAILED\r\n");
 119:main.c        ****                     break;
 120:main.c        **** 
 121:main.c        ****                 case CYBLE_GAP_AUTH_ERROR_OOB_DATA_NOT_AVAILABLE:
 122:main.c        ****                     DBG_PRINTF("OOB_DATA_NOT_AVAILABLE\r\n");
 123:main.c        ****                     break;
 124:main.c        **** 
 125:main.c        ****                 case CYBLE_GAP_AUTH_ERROR_AUTHENTICATION_REQ_NOT_MET:
 126:main.c        ****                     DBG_PRINTF("AUTHENTICATION_REQ_NOT_MET\r\n");
 127:main.c        ****                     break;
 128:main.c        **** 
 129:main.c        ****                 case CYBLE_GAP_AUTH_ERROR_CONFIRM_VALUE_NOT_MATCH:
 130:main.c        ****                     DBG_PRINTF("CONFIRM_VALUE_NOT_MATCH\r\n");
 131:main.c        ****                     break;
 132:main.c        **** 
 133:main.c        ****                 case CYBLE_GAP_AUTH_ERROR_PAIRING_NOT_SUPPORTED:
 134:main.c        ****                     DBG_PRINTF("PAIRING_NOT_SUPPORTED\r\n");
 135:main.c        ****                     break;
 136:main.c        **** 
 137:main.c        ****                 case CYBLE_GAP_AUTH_ERROR_INSUFFICIENT_ENCRYPTION_KEY_SIZE:
 138:main.c        ****                     DBG_PRINTF("INSUFFICIENT_ENCRYPTION_KEY_SIZE\r\n");
 139:main.c        ****                     break;
 140:main.c        **** 
 141:main.c        ****                 case CYBLE_GAP_AUTH_ERROR_COMMAND_NOT_SUPPORTED:
 142:main.c        ****                     DBG_PRINTF("COMMAND_NOT_SUPPORTED\r\n");
 143:main.c        ****                     break;
 144:main.c        **** 
ARM GAS  C:\Users\user\AppData\Local\Temp\ccK5UdOJ.s 			page 4


 145:main.c        ****                 case CYBLE_GAP_AUTH_ERROR_UNSPECIFIED_REASON:
 146:main.c        ****                     DBG_PRINTF("UNSPECIFIED_REASON\r\n");
 147:main.c        ****                     break;
 148:main.c        **** 
 149:main.c        ****                 case CYBLE_GAP_AUTH_ERROR_REPEATED_ATTEMPTS:
 150:main.c        ****                     DBG_PRINTF("REPEATED_ATTEMPTS\r\n");
 151:main.c        ****                     break;
 152:main.c        **** 
 153:main.c        ****                 case CYBLE_GAP_AUTH_ERROR_INVALID_PARAMETERS:
 154:main.c        ****                     DBG_PRINTF("INVALID_PARAMETERS\r\n");
 155:main.c        ****                     break;
 156:main.c        **** 
 157:main.c        ****                 case CYBLE_GAP_AUTH_ERROR_AUTHENTICATION_TIMEOUT:
 158:main.c        ****                     DBG_PRINTF("AUTHENTICATION_TIMEOUT\r\n");
 159:main.c        ****                     break;
 160:main.c        **** 	              
 161:main.c        ****                 case CYBLE_GAP_AUTH_ERROR_LINK_DISCONNECTED:
 162:main.c        ****                     DBG_PRINTF("LINK_DISCONNECTED\r\n");
 163:main.c        ****                     break;
 164:main.c        ****                     
 165:main.c        ****                 default:
 166:main.c        ****                     DBG_PRINTF("0x%x\r\n", *(CYBLE_GAP_AUTH_FAILED_REASON_T *)eventParam);
 167:main.c        ****                     break;
 168:main.c        ****             }
 169:main.c        ****             authState = AUTHENTICATION_BONDING_COMPLETE;
 170:main.c        ****             break;
 171:main.c        ****         
 172:main.c        ****         case CYBLE_EVT_GAP_NUMERIC_COMPARISON_REQUEST:
 173:main.c        ****             DBG_PRINTF("Compare this passkey with displayed in your peer device and press 'y' or 'n
 174:main.c        ****                                     *(uint32 *)eventParam);
 175:main.c        ****             authState = AUTHENTICATION_PASSKEY_YES_NO;
 176:main.c        ****             break;
 177:main.c        ****             
 178:main.c        ****         case CYBLE_EVT_GAP_SMP_NEGOTIATED_AUTH_INFO:
 179:main.c        ****             peerAuthInfo = *(CYBLE_GAP_AUTH_INFO_T *)eventParam;
 180:main.c        ****             DBG_PRINTF("CYBLE_EVT_GAP_SMP_NEGOTIATED_AUTH_INFO: security:%x, bonding:%x, ekeySize:%
 181:main.c        ****             peerAuthInfo.security, 
 182:main.c        ****             peerAuthInfo.bonding, 
 183:main.c        ****             peerAuthInfo.ekeySize, 
 184:main.c        ****             peerAuthInfo.authErr);
 185:main.c        ****             break;
 186:main.c        ****         
 187:main.c        ****         case CYBLE_EVT_GAP_DEVICE_CONNECTED:
 188:main.c        ****             DBG_PRINTF("CYBLE_EVT_GAP_DEVICE_CONNECTED: %x \r\n", cyBle_connHandle.bdHandle);
 189:main.c        ****             
 190:main.c        ****              /* Initiate pairing process */
 191:main.c        ****             if((cyBle_authInfo.security & CYBLE_GAP_SEC_LEVEL_MASK) > CYBLE_GAP_SEC_LEVEL_1)
 192:main.c        ****             {
 193:main.c        ****                 apiResult = CyBle_GapAuthReq(cyBle_connHandle.bdHandle, &cyBle_authInfo);
 194:main.c        ****                 if(apiResult != CYBLE_ERROR_OK)
 195:main.c        ****                 {
 196:main.c        ****                     DBG_PRINTF(" CyBle_GapAuthReq API Error: ");
 197:main.c        ****                     PrintApiResult();
 198:main.c        ****                 }
 199:main.c        ****             }
 200:main.c        ****             else
 201:main.c        ****             {
ARM GAS  C:\Users\user\AppData\Local\Temp\ccK5UdOJ.s 			page 5


 202:main.c        ****                 authState = AUTHENTICATION_BONDING_COMPLETE;
 203:main.c        ****             }
 204:main.c        ****             
 205:main.c        ****             Disconnect_LED_Write(LED_OFF);
 206:main.c        ****             Advertising_LED_Write(LED_OFF);
 207:main.c        ****             Connected_LED_Write(LED_ON);
 208:main.c        ****             break;
 209:main.c        **** 
 210:main.c        ****         case CYBLE_EVT_GAP_DEVICE_DISCONNECTED:
 211:main.c        ****             DBG_PRINTF("EVT_GAP_DEVICE_DISCONNECTED, reason: %x \r\n", *(uint8*)eventParam);
 212:main.c        ****             /* Put device to discoverable mode so that remote can search it. */
 213:main.c        ****             StartAdvertisement();
 214:main.c        ****             Disconnect_LED_Write(LED_ON);
 215:main.c        ****             Advertising_LED_Write(LED_OFF);
 216:main.c        ****             Connected_LED_Write(LED_OFF);
 217:main.c        ****             break;
 218:main.c        ****             
 219:main.c        ****         case CYBLE_EVT_GAPC_CONNECTION_UPDATE_COMPLETE:       
 220:main.c        ****             connParameters = (CYBLE_GAP_CONN_PARAM_UPDATED_IN_CONTROLLER_T *)eventParam;
 221:main.c        ****             DBG_PRINTF("CYBLE_EVT_GAP_DEVICE_CONNECTED: connIntv = %.2f ms.\r\n",   
 222:main.c        ****             (float)connParameters->connIntv * CYBLE_CONN_INTRV_TO_MS);
 223:main.c        ****             break;
 224:main.c        ****         
 225:main.c        ****         case CYBLE_EVT_L2CAP_CONN_PARAM_UPDATE_RSP:
 226:main.c        ****             DBG_PRINTF("CYBLE_EVT_L2CAP_CONN_PARAM_UPDATE_RSP: %s\r\n", 
 227:main.c        ****             *(uint16 *)eventParam == 0u ? "Accepted" : "Rejected");
 228:main.c        ****             break; 
 229:main.c        **** 
 230:main.c        ****         case CYBLE_EVT_GAP_AUTH_COMPLETE:
 231:main.c        ****             /* Authentication complete; initiate bonding */
 232:main.c        ****             peerAuthInfo = *(CYBLE_GAP_AUTH_INFO_T *)eventParam;
 233:main.c        ****             DBG_PRINTF("AUTH_COMPLETE: security:%x, bonding:%x, ekeySize:%x, authErr %x \r\n", 
 234:main.c        ****             peerAuthInfo.security, 
 235:main.c        ****             peerAuthInfo.bonding, 
 236:main.c        ****             peerAuthInfo.ekeySize, 
 237:main.c        ****             peerAuthInfo.authErr);
 238:main.c        ****             authState = AUTHENTICATION_COMPLETE_BONDING_REQD;
 239:main.c        ****             break;
 240:main.c        **** 
 241:main.c        ****         case CYBLE_EVT_GAP_ENCRYPT_CHANGE:
 242:main.c        ****             DBG_PRINTF("CYBLE_EVT_GAP_ENCRYPT_CHANGE: %d \r\n", *(uint8 *)eventParam);
 243:main.c        ****             break;
 244:main.c        ****             
 245:main.c        ****         case CYBLE_EVT_GAP_KEYINFO_EXCHNGE_CMPLT:
 246:main.c        ****             DBG_PRINTF("CYBLE_EVT_GAP_KEYINFO_EXCHNGE_CMPLT \r\n");
 247:main.c        ****             break;
 248:main.c        **** 			
 249:main.c        ****         case CYBLE_EVT_GAPP_ADVERTISEMENT_START_STOP:
 250:main.c        ****             DBG_PRINTF("CYBLE_EVT_GAPP_ADVERTISEMENT_START_STOP \r\n");
 251:main.c        ****             PrintState();
 252:main.c        ****             
 253:main.c        ****             if(CyBle_GetState() == CYBLE_STATE_DISCONNECTED)
 254:main.c        ****             {   
 255:main.c        ****                 /* Fast and slow advertising period complete, go to low power  
 256:main.c        ****                  * mode (Hibernate mode) and wait for external
 257:main.c        ****                  * user event to wake up device again */
 258:main.c        ****                 DBG_PRINTF("Hibernate \r\n");
ARM GAS  C:\Users\user\AppData\Local\Temp\ccK5UdOJ.s 			page 6


 259:main.c        ****                 Disconnect_LED_Write(LED_ON);
 260:main.c        ****                 Advertising_LED_Write(LED_OFF);
 261:main.c        ****                 Connected_LED_Write(LED_OFF);
 262:main.c        ****             #if (DEBUG_UART_ENABLED == ENABLED)
 263:main.c        ****                 while((UART_DEB_SpiUartGetTxBufferSize() + UART_DEB_GET_TX_FIFO_SR_VALID) != 0);
 264:main.c        ****             #endif /* (DEBUG_UART_ENABLED == ENABLED) */
 265:main.c        ****                 SW2_ClearInterrupt();
 266:main.c        ****                 Wakeup_Interrupt_ClearPending();
 267:main.c        ****                 Wakeup_Interrupt_Start();
 268:main.c        ****                 CySysPmHibernate();
 269:main.c        ****             }
 270:main.c        ****             else if(CyBle_GetState() == CYBLE_STATE_ADVERTISING)
 271:main.c        ****             {
 272:main.c        ****                 Advertising_LED_Write(LED_ON);
 273:main.c        ****                 Disconnect_LED_Write(LED_OFF);
 274:main.c        ****                 Connected_LED_Write(LED_OFF);
 275:main.c        ****             }
 276:main.c        ****             else
 277:main.c        ****             {
 278:main.c        ****                 /* Nothing else */   
 279:main.c        ****             }
 280:main.c        ****             break;
 281:main.c        **** 
 282:main.c        ****         /**********************************************************
 283:main.c        ****         *                       GATT Events
 284:main.c        ****         ***********************************************************/
 285:main.c        ****         
 286:main.c        ****         case CYBLE_EVT_GATT_CONNECT_IND:
 287:main.c        ****             DBG_PRINTF("CYBLE_EVT_GATT_CONNECT_IND: attId %x, bdHandle %x \r\n", 
 288:main.c        ****                 ((CYBLE_CONN_HANDLE_T *)eventParam)->attId, ((CYBLE_CONN_HANDLE_T *)eventParam)->bd
 289:main.c        ****             break;
 290:main.c        **** 
 291:main.c        ****         case CYBLE_EVT_GATT_DISCONNECT_IND:
 292:main.c        ****             DBG_PRINTF("CYBLE_EVT_GATT_DISCONNECT_IND \r\n");
 293:main.c        ****             break;
 294:main.c        ****     
 295:main.c        ****         case CYBLE_EVT_GATTS_WRITE_REQ:
 296:main.c        ****             DBG_PRINTF("CYBLE_EVT_GATTS_WRITE_REQ attr handle: %4.4x , value: ",((CYBLE_GATTS_WRITE
 297:main.c        ****             for(i = 0; i < ((CYBLE_GATTS_WRITE_REQ_PARAM_T *)eventParam)->handleValPair.value.len; 
 298:main.c        ****             {
 299:main.c        ****                 DBG_PRINTF("%2.2x ", ((CYBLE_GATTS_WRITE_REQ_PARAM_T *)eventParam)->handleValPair.v
 300:main.c        ****             }
 301:main.c        ****             DBG_PRINTF("\r\n");
 302:main.c        ****             break;
 303:main.c        ****             
 304:main.c        ****         case CYBLE_EVT_GATTS_XCNHG_MTU_REQ:
 305:main.c        ****             {
 306:main.c        ****             DBG_PRINTF("CYBLE_EVT_GATTS_XCNHG_MTU_REQ \r\n");
 307:main.c        ****             //CYBLE_DISC_CHAR_INFO_T *discCharInfo = (CYBLE_DISC_CHAR_INFO_T *)eventParam;
 308:main.c        ****                 //PrintCharacteristicInfo(discCharInfo);
 309:main.c        ****             }
 310:main.c        ****             break;
 311:main.c        ****             
 312:main.c        ****         case CYBLE_EVT_GATTS_HANDLE_VALUE_CNF:
 313:main.c        ****             DBG_PRINTF("CYBLE_EVT_GATTS_HANDLE_VALUE_CNF \r\n");
 314:main.c        ****             break;
 315:main.c        ****             
ARM GAS  C:\Users\user\AppData\Local\Temp\ccK5UdOJ.s 			page 7


 316:main.c        ****         case CYBLE_EVT_GATTS_PREP_WRITE_REQ:
 317:main.c        ****             DBG_PRINTF("CYBLE_EVT_GATTS_PREP_WRITE_REQ \r\n");
 318:main.c        ****             break;
 319:main.c        ****         
 320:main.c        ****         case CYBLE_EVT_GATTS_EXEC_WRITE_REQ:
 321:main.c        ****             DBG_PRINTF("CYBLE_EVT_GATTS_EXEC_WRITE_REQ \r\n");
 322:main.c        ****             break;
 323:main.c        **** 
 324:main.c        ****         case CYBLE_EVT_GATTS_READ_CHAR_VAL_ACCESS_REQ:
 325:main.c        ****             /* Triggered on server side when client sends read request and when
 326:main.c        ****             * characteristic has CYBLE_GATT_DB_ATTR_CHAR_VAL_RD_EVENT property set.
 327:main.c        ****             * This event could be ignored by application unless it need to response
 328:main.c        ****             * by error response which needs to be set in gattErrorCode field of
 329:main.c        ****             * event parameter. */
 330:main.c        ****             DBG_PRINTF("CYBLE_EVT_GATTS_READ_CHAR_VAL_ACCESS_REQ: handle: %x \r\n", 
 331:main.c        ****                 ((CYBLE_GATTS_CHAR_VAL_READ_REQ_T *)eventParam)->attrHandle);
 332:main.c        ****             //CYBLE_DISC_CHAR_INFO_T *discCharInfo = (CYBLE_DISC_CHAR_INFO_T *)eventParam;
 333:main.c        ****                 //PrintCharacteristicInfo(discCharInfo);
 334:main.c        ****             break;
 335:main.c        **** 
 336:main.c        ****         /**********************************************************
 337:main.c        ****         *                  GATT Service Events 
 338:main.c        ****         ***********************************************************/
 339:main.c        ****             
 340:main.c        ****         case CYBLE_EVT_GATTS_INDICATION_ENABLED:
 341:main.c        ****             DBG_PRINTF("CYBLE_EVT_GATTS_INDICATION_ENABLED \r\n");
 342:main.c        ****             break;
 343:main.c        ****         
 344:main.c        ****         case CYBLE_EVT_GATTS_INDICATION_DISABLED:
 345:main.c        ****             DBG_PRINTF("CYBLE_EVT_GATTS_INDICATION_DISABLED \r\n");
 346:main.c        ****             break;
 347:main.c        ****             
 348:main.c        ****         case CYBLE_EVT_GATTC_INDICATION:
 349:main.c        ****             DBG_PRINTF("CYBLE_EVT_GATTS_INDICATION \r\n");
 350:main.c        ****             break;
 351:main.c        **** 
 352:main.c        ****         /**********************************************************
 353:main.c        ****         *                       L2CAP Events 
 354:main.c        ****         ***********************************************************/    
 355:main.c        ****             
 356:main.c        ****         case CYBLE_EVT_L2CAP_CONN_PARAM_UPDATE_REQ:
 357:main.c        ****             DBG_PRINTF("CYBLE_EVT_L2CAP_CONN_PARAM_UPDATE_REQ \r\n");
 358:main.c        ****             break;
 359:main.c        **** 
 360:main.c        ****         /**********************************************************
 361:main.c        ****         *                       Other Events
 362:main.c        ****         ***********************************************************/
 363:main.c        ****         case CYBLE_EVT_PENDING_FLASH_WRITE:
 364:main.c        ****             /* Inform application that flash write is pending. Stack internal data 
 365:main.c        ****             * structures are modified and require to be stored in Flash using 
 366:main.c        ****             * CyBle_StoreBondingData() */
 367:main.c        ****             DBG_PRINTF("CYBLE_EVT_PENDING_FLASH_WRITE\r\n");
 368:main.c        ****             break;
 369:main.c        ****             
 370:main.c        ****         default:
 371:main.c        ****             DBG_PRINTF("other event: 0x%lx \r\n", event);
 372:main.c        **** 			break;
ARM GAS  C:\Users\user\AppData\Local\Temp\ccK5UdOJ.s 			page 8


 373:main.c        ****     }
 374:main.c        **** }
 375:main.c        **** 
 376:main.c        **** 
 377:main.c        **** // Funkcja konwertująca UUID do formatu string
 378:main.c        **** /*void PrintUUID(CYBLE_UUID_T uuid, uint8 uuidFormat) {
 379:main.c        ****     char uuidStr[37]; // 36 characters for 128-bit UUID + null terminator
 380:main.c        ****     if (uuidFormat == 0x01) { // 16-bit UUID
 381:main.c        ****         DBG_PRINTF("UUID format: 16-bit\r\n");
 382:main.c        ****         sprintf(uuidStr, "UUID: 0x%04X", uuid.uuid16);
 383:main.c        ****     } else if (uuidFormat == 0x02) { // 128-bit UUID
 384:main.c        ****         DBG_PRINTF("UUID format: 128-bit\r\n");
 385:main.c        ****         sprintf(uuidStr, "UUID: %08X-%04X-%04X-%04X-%08X%04X",
 386:main.c        ****                 uuid.uuid128.value[12], uuid.uuid128.value[10], uuid.uuid128.value[8],
 387:main.c        ****                 uuid.uuid128.value[6], uuid.uuid128.value[0], uuid.uuid128.value[4]);
 388:main.c        ****     } else {
 389:main.c        ****         DBG_PRINTF("Unknown UUID format: 0x%02X\r\n", uuidFormat);
 390:main.c        ****         return;
 391:main.c        ****     }
 392:main.c        ****     DBG_PRINTF("UUID string: %s\r\n", uuidStr);
 393:main.c        **** }
 394:main.c        **** 
 395:main.c        **** // Funkcja drukująca szczegóły struktury CYBLE_DISC_CHAR_INFO_T
 396:main.c        **** void PrintCharacteristicInfo(const CYBLE_DISC_CHAR_INFO_T *charInfo) {
 397:main.c        ****     char buffer[100];
 398:main.c        ****     sprintf(buffer, "Characteristic Declaration Handle: 0x%04X\r\n", charInfo->charDeclHandle);
 399:main.c        ****     DBG_PRINTF("%s", buffer);
 400:main.c        **** 
 401:main.c        ****     sprintf(buffer, "Properties: 0x%02X\r\n", charInfo->properties);
 402:main.c        ****     DBG_PRINTF("%s", buffer);
 403:main.c        **** 
 404:main.c        ****     sprintf(buffer, "Value Handle: 0x%04X\r\n", charInfo->valueHandle);
 405:main.c        ****     DBG_PRINTF("%s", buffer);
 406:main.c        **** 
 407:main.c        ****     DBG_PRINTF("UUID Format: 0x%02X\r\n", charInfo->uuidFormat); // Debugowanie formatu UUID
 408:main.c        ****     DBG_PRINTF("Printing UUID...\r\n");
 409:main.c        ****     PrintUUID(charInfo->uuid, charInfo->uuidFormat);
 410:main.c        ****     DBG_PRINTF("Finished printing UUID.\r\n");
 411:main.c        **** }*/
 412:main.c        **** 
 413:main.c        **** 
 414:main.c        **** 
 415:main.c        **** 
 416:main.c        **** /*******************************************************************************
 417:main.c        **** * Function Name: Timer_Interrupt
 418:main.c        **** ********************************************************************************
 419:main.c        **** *
 420:main.c        **** * Summary:
 421:main.c        **** *  Handles the Interrupt Service Routine for the WDT timer.
 422:main.c        **** *
 423:main.c        **** *******************************************************************************/
 424:main.c        **** CY_ISR(Timer_Interrupt)
 425:main.c        **** {
  28              		.loc 1 425 0
  29              		.cfi_startproc
  30              		@ args = 0, pretend = 0, frame = 0
  31              		@ frame_needed = 0, uses_anonymous_args = 0
ARM GAS  C:\Users\user\AppData\Local\Temp\ccK5UdOJ.s 			page 9


 426:main.c        ****     static uint8 led = LED_OFF;
 427:main.c        ****     
 428:main.c        ****     /* Blink LED to indicate that device advertises */
 429:main.c        ****     if(CYBLE_STATE_ADVERTISING == CyBle_GetState())
  32              		.loc 1 429 0
  33 0000 064B     		ldr	r3, .L4
 425:main.c        ****     static uint8 led = LED_OFF;
  34              		.loc 1 425 0
  35 0002 10B5     		push	{r4, lr}
  36              		.cfi_def_cfa_offset 8
  37              		.cfi_offset 4, -8
  38              		.cfi_offset 14, -4
  39              		.loc 1 429 0
  40 0004 1B78     		ldrb	r3, [r3]
  41 0006 032B     		cmp	r3, #3
  42 0008 06D1     		bne	.L1
  43              	.LBB4:
  44              	.LBB5:
 430:main.c        ****     {
 431:main.c        ****         led ^= LED_OFF;
  45              		.loc 1 431 0
  46 000a 0120     		movs	r0, #1
  47 000c 044A     		ldr	r2, .L4+4
  48 000e 1378     		ldrb	r3, [r2]
  49 0010 5840     		eors	r0, r3
  50 0012 1070     		strb	r0, [r2]
 432:main.c        ****         Advertising_LED_Write(led);
  51              		.loc 1 432 0
  52 0014 FFF7FEFF 		bl	Advertising_LED_Write
  53              	.LVL0:
  54              	.L1:
  55              	.LBE5:
  56              	.LBE4:
 433:main.c        ****     }
 434:main.c        **** }
  57              		.loc 1 434 0
  58              		@ sp needed
  59 0018 10BD     		pop	{r4, pc}
  60              	.L5:
  61 001a C046     		.align	2
  62              	.L4:
  63 001c 00000000 		.word	cyBle_state
  64 0020 00000000 		.word	.LANCHOR0
  65              		.cfi_endproc
  66              	.LFE37:
  67              		.size	Timer_Interrupt, .-Timer_Interrupt
  68              		.global	__aeabi_uidiv
  69              		.section	.text.AuthenticationHandler,"ax",%progbits
  70              		.align	1
  71              		.global	AuthenticationHandler
  72              		.code	16
  73              		.thumb_func
  74              		.type	AuthenticationHandler, %function
  75              	AuthenticationHandler:
  76              	.LFB39:
 435:main.c        **** 
 436:main.c        **** /*******************************************************************************
ARM GAS  C:\Users\user\AppData\Local\Temp\ccK5UdOJ.s 			page 10


 437:main.c        **** * Function Name: LowPowerImplementation()
 438:main.c        **** ********************************************************************************
 439:main.c        **** * Summary:
 440:main.c        **** * Implements low power in the project.
 441:main.c        **** *
 442:main.c        **** * Parameters:
 443:main.c        **** * None
 444:main.c        **** *
 445:main.c        **** * Return:
 446:main.c        **** * None
 447:main.c        **** *
 448:main.c        **** * Theory:
 449:main.c        **** * The function tries to enter deep sleep as much as possible - whenever the 
 450:main.c        **** * BLE is idle and the UART transmission/reception is not happening. At all other
 451:main.c        **** * times, the function tries to enter CPU sleep.
 452:main.c        **** *
 453:main.c        **** *******************************************************************************/
 454:main.c        **** static void LowPowerImplementation(void)
 455:main.c        **** {
 456:main.c        ****     CYBLE_LP_MODE_T bleMode;
 457:main.c        ****     uint8 interruptStatus;
 458:main.c        ****     
 459:main.c        ****     /* For advertising and connected states, implement deep sleep 
 460:main.c        ****      * functionality to achieve low power in the system. For more details
 461:main.c        ****      * on the low power implementation, refer to the Low Power Application 
 462:main.c        ****      * Note.
 463:main.c        ****      */
 464:main.c        ****     if((CyBle_GetState() == CYBLE_STATE_ADVERTISING) || 
 465:main.c        ****        (CyBle_GetState() == CYBLE_STATE_CONNECTED))
 466:main.c        ****     {
 467:main.c        ****         /* Request BLE subsystem to enter into Deep-Sleep mode between connection and advertising i
 468:main.c        ****         bleMode = CyBle_EnterLPM(CYBLE_BLESS_DEEPSLEEP);
 469:main.c        ****         /* Disable global interrupts */
 470:main.c        ****         interruptStatus = CyEnterCriticalSection();
 471:main.c        ****         /* When BLE subsystem has been put into Deep-Sleep mode */
 472:main.c        ****         if(bleMode == CYBLE_BLESS_DEEPSLEEP)
 473:main.c        ****         {
 474:main.c        ****             /* And it is still there or ECO is on */
 475:main.c        ****             if((CyBle_GetBleSsState() == CYBLE_BLESS_STATE_ECO_ON) || 
 476:main.c        ****                (CyBle_GetBleSsState() == CYBLE_BLESS_STATE_DEEPSLEEP))
 477:main.c        ****             {
 478:main.c        ****             #if (DEBUG_UART_ENABLED == ENABLED)
 479:main.c        ****                 /* Put the CPU into the Deep-Sleep mode when all debug information has been sent */
 480:main.c        ****                 if((UART_DEB_SpiUartGetTxBufferSize() + UART_DEB_GET_TX_FIFO_SR_VALID) == 0u)
 481:main.c        ****                 {
 482:main.c        ****                     CySysPmDeepSleep();
 483:main.c        ****                 }
 484:main.c        ****                 else /* Put the CPU into Sleep mode and let SCB to continue sending debug data */
 485:main.c        ****                 {
 486:main.c        ****                     CySysPmSleep();
 487:main.c        ****                 }
 488:main.c        ****             #else
 489:main.c        ****                 CySysPmDeepSleep();
 490:main.c        ****             #endif /* (DEBUG_UART_ENABLED == ENABLED) */
 491:main.c        ****             }
 492:main.c        ****         }
 493:main.c        ****         else /* When BLE subsystem has been put into Sleep mode or is active */
ARM GAS  C:\Users\user\AppData\Local\Temp\ccK5UdOJ.s 			page 11


 494:main.c        ****         {
 495:main.c        ****             /* And hardware doesn't finish Tx/Rx opeation - put the CPU into Sleep mode */
 496:main.c        ****             if(CyBle_GetBleSsState() != CYBLE_BLESS_STATE_EVENT_CLOSE)
 497:main.c        ****             {
 498:main.c        ****                 CySysPmSleep();
 499:main.c        ****             }
 500:main.c        ****         }
 501:main.c        ****         /* Enable global interrupt */
 502:main.c        ****         CyExitCriticalSection(interruptStatus);
 503:main.c        ****     }
 504:main.c        **** }
 505:main.c        **** 
 506:main.c        **** /*******************************************************************************
 507:main.c        **** * Function Name: AuthenticationHandler
 508:main.c        **** ********************************************************************************
 509:main.c        **** *
 510:main.c        **** * Summary:
 511:main.c        **** *   Handles entering authentication information.
 512:main.c        **** *
 513:main.c        **** * Parameters:
 514:main.c        **** *   None
 515:main.c        **** *
 516:main.c        **** * Return:
 517:main.c        **** *   None
 518:main.c        **** *
 519:main.c        **** *******************************************************************************/
 520:main.c        **** void AuthenticationHandler(void)
 521:main.c        **** {
  77              		.loc 1 521 0
  78              		.cfi_startproc
  79              		@ args = 0, pretend = 0, frame = 0
  80              		@ frame_needed = 0, uses_anonymous_args = 0
  81 0000 F8B5     		push	{r3, r4, r5, r6, r7, lr}
  82              		.cfi_def_cfa_offset 24
  83              		.cfi_offset 3, -24
  84              		.cfi_offset 4, -20
  85              		.cfi_offset 5, -16
  86              		.cfi_offset 6, -12
  87              		.cfi_offset 7, -8
  88              		.cfi_offset 14, -4
 522:main.c        ****     switch(authState)
  89              		.loc 1 522 0
  90 0002 384C     		ldr	r4, .L29
  91 0004 2378     		ldrb	r3, [r4]
  92 0006 012B     		cmp	r3, #1
  93 0008 33D0     		beq	.L8
  94 000a 032B     		cmp	r3, #3
  95 000c 68D1     		bne	.L6
 523:main.c        ****     {
 524:main.c        ****     case AUTHENTICATION_PASSKEY_YES_NO:
 525:main.c        ****         
 526:main.c        ****         if(((command = UART_DEB_GET_CHAR()) != 0u) || (customCommand != 0u))
  96              		.loc 1 526 0
  97 000e FFF7FEFF 		bl	UART_DEB_UartGetChar
  98              	.LVL1:
  99 0012 354B     		ldr	r3, .L29+4
 100 0014 C0B2     		uxtb	r0, r0
ARM GAS  C:\Users\user\AppData\Local\Temp\ccK5UdOJ.s 			page 12


 101 0016 1870     		strb	r0, [r3]
 102 0018 0028     		cmp	r0, #0
 103 001a 04D1     		bne	.L10
 104              		.loc 1 526 0 is_stmt 0 discriminator 1
 105 001c 6278     		ldrb	r2, [r4, #1]
 106 001e 002A     		cmp	r2, #0
 107 0020 5ED0     		beq	.L6
 527:main.c        ****         {
 528:main.c        ****             if((command == 0u) && (customCommand != 0u))
 529:main.c        ****             {
 530:main.c        ****                 command = customCommand;
 108              		.loc 1 530 0 is_stmt 1 discriminator 1
 109 0022 1A70     		strb	r2, [r3]
 531:main.c        ****                 customCommand = 0u;
 110              		.loc 1 531 0 discriminator 1
 111 0024 6070     		strb	r0, [r4, #1]
 112              	.L10:
 532:main.c        ****             }
 533:main.c        ****             if(command == 'y')
 113              		.loc 1 533 0
 114 0026 1B78     		ldrb	r3, [r3]
 115 0028 792B     		cmp	r3, #121
 116 002a 14D1     		bne	.L12
 534:main.c        ****             {
 535:main.c        ****                 DBG_PRINTF("Accept displayed passkey \r\n");
 117              		.loc 1 535 0
 118 002c 2F48     		ldr	r0, .L29+8
 119 002e FFF7FEFF 		bl	puts
 120              	.LVL2:
 536:main.c        ****                 apiResult = CyBle_GapAuthPassKeyReply(cyBle_connHandle.bdHandle, 0u, CYBLE_GAP_ACCE
 121              		.loc 1 536 0
 122 0032 0122     		movs	r2, #1
 123 0034 0021     		movs	r1, #0
 124 0036 2E4B     		ldr	r3, .L29+12
 125 0038 1878     		ldrb	r0, [r3]
 126              	.L27:
 127 003a FFF7FEFF 		bl	CyBle_GapAuthPassKeyReply
 128              	.LVL3:
 129 003e 2D4B     		ldr	r3, .L29+16
 130 0040 1880     		strh	r0, [r3]
 537:main.c        ****                 if(apiResult != CYBLE_ERROR_OK)
 131              		.loc 1 537 0
 132 0042 0028     		cmp	r0, #0
 133 0044 04D0     		beq	.L14
 538:main.c        ****                 {
 539:main.c        ****                     DBG_PRINTF("CyBle_GapAuthPassKeyReply API Error : ");
 134              		.loc 1 539 0
 135 0046 2C48     		ldr	r0, .L29+20
 136              	.L28:
 137 0048 FFF7FEFF 		bl	printf
 138              	.LVL4:
 540:main.c        ****                     PrintApiResult();
 139              		.loc 1 540 0
 140 004c FFF7FEFF 		bl	PrintApiResult
 141              	.LVL5:
 142              	.L14:
 541:main.c        ****                 }
ARM GAS  C:\Users\user\AppData\Local\Temp\ccK5UdOJ.s 			page 13


 542:main.c        ****                 authState = AUTHENTICATION_PASSKEY_ENTERED;
 143              		.loc 1 542 0
 144 0050 0223     		movs	r3, #2
 145 0052 2370     		strb	r3, [r4]
 146 0054 44E0     		b	.L6
 147              	.L12:
 543:main.c        ****             }
 544:main.c        ****             else if(command == 'n')
 148              		.loc 1 544 0
 149 0056 6E2B     		cmp	r3, #110
 150 0058 07D1     		bne	.L15
 545:main.c        ****             {
 546:main.c        ****                 DBG_PRINTF("Reject displayed passkey \r\n");
 151              		.loc 1 546 0
 152 005a 2848     		ldr	r0, .L29+24
 153 005c FFF7FEFF 		bl	puts
 154              	.LVL6:
 547:main.c        ****                 apiResult = CyBle_GapAuthPassKeyReply(cyBle_connHandle.bdHandle, 0u, CYBLE_GAP_REJE
 155              		.loc 1 547 0
 156 0060 0022     		movs	r2, #0
 157 0062 234B     		ldr	r3, .L29+12
 158 0064 1100     		movs	r1, r2
 159 0066 1878     		ldrb	r0, [r3]
 160 0068 E7E7     		b	.L27
 161              	.L15:
 548:main.c        ****                 if(apiResult != CYBLE_ERROR_OK)
 549:main.c        ****                 {
 550:main.c        ****                     DBG_PRINTF("CyBle_GapAuthPassKeyReply API Error : ");
 551:main.c        ****                     PrintApiResult();
 552:main.c        ****                 }
 553:main.c        ****                authState = AUTHENTICATION_PASSKEY_ENTERED;
 554:main.c        ****             }
 555:main.c        ****             else
 556:main.c        ****             {
 557:main.c        ****                 DBG_PRINTF("Wrong key entered. Press 'y' or 'n'\r\n");
 162              		.loc 1 557 0
 163 006a 2548     		ldr	r0, .L29+28
 164 006c FFF7FEFF 		bl	puts
 165              	.LVL7:
 166 0070 36E0     		b	.L6
 167              	.L8:
 558:main.c        ****             }
 559:main.c        ****         }
 560:main.c        ****         break;
 561:main.c        ****            
 562:main.c        ****     case AUTHENTICATION_WAITING_FOR_PASSKEY:
 563:main.c        ****      
 564:main.c        ****         /* Get 6 digit number from UART terminal */
 565:main.c        ****         if((command = UART_DEB_GET_CHAR()) != 0u)
 168              		.loc 1 565 0
 169 0072 FFF7FEFF 		bl	UART_DEB_UartGetChar
 170              	.LVL8:
 171 0076 1C4A     		ldr	r2, .L29+4
 172 0078 C3B2     		uxtb	r3, r0
 173 007a 1370     		strb	r3, [r2]
 174 007c 002B     		cmp	r3, #0
 175 007e 2FD0     		beq	.L6
ARM GAS  C:\Users\user\AppData\Local\Temp\ccK5UdOJ.s 			page 14


 566:main.c        ****         {   
 567:main.c        ****             /* accept the digits that are in the range of '0' to '9' */
 568:main.c        ****             if((command >= '0') && (command <= '9'))  
 176              		.loc 1 568 0
 177 0080 303B     		subs	r3, r3, #48
 178 0082 204E     		ldr	r6, .L29+32
 179 0084 092B     		cmp	r3, #9
 180 0086 15D8     		bhi	.L18
 181 0088 C5B2     		uxtb	r5, r0
 569:main.c        ****             {
 570:main.c        ****                 passkeyValue += (uint32)(command - '0') * passkeyPow;
 182              		.loc 1 570 0
 183 008a 2B00     		movs	r3, r5
 184 008c 1E4F     		ldr	r7, .L29+36
 185 008e 303B     		subs	r3, r3, #48
 186 0090 3968     		ldr	r1, [r7]
 187 0092 1E4A     		ldr	r2, .L29+40
 188 0094 4B43     		muls	r3, r1
 189 0096 1168     		ldr	r1, [r2]
 571:main.c        ****                 passkeyPow /= 10u;
 190              		.loc 1 571 0
 191 0098 3868     		ldr	r0, [r7]
 570:main.c        ****                 passkeyPow /= 10u;
 192              		.loc 1 570 0
 193 009a 5B18     		adds	r3, r3, r1
 194 009c 1360     		str	r3, [r2]
 195              		.loc 1 571 0
 196 009e 0A21     		movs	r1, #10
 197 00a0 FFF7FEFF 		bl	__aeabi_uidiv
 198              	.LVL9:
 572:main.c        ****                 passkeyCounter++;
 199              		.loc 1 572 0
 200 00a4 3378     		ldrb	r3, [r6]
 571:main.c        ****                 passkeyPow /= 10u;
 201              		.loc 1 571 0
 202 00a6 3860     		str	r0, [r7]
 203              		.loc 1 572 0
 204 00a8 0133     		adds	r3, r3, #1
 573:main.c        ****                 UART_DEB_PUT_CHAR(command); 
 205              		.loc 1 573 0
 206 00aa 2800     		movs	r0, r5
 572:main.c        ****                 passkeyCounter++;
 207              		.loc 1 572 0
 208 00ac 3370     		strb	r3, [r6]
 209              		.loc 1 573 0
 210 00ae FFF7FEFF 		bl	UART_DEB_SpiUartWriteTxData
 211              	.LVL10:
 212 00b2 02E0     		b	.L19
 213              	.L18:
 574:main.c        ****             }
 575:main.c        ****             else  /* If entered digit is not in the range of '0' to '9' */
 576:main.c        ****             {
 577:main.c        ****                DBG_PRINTF("Wrong key entered. \r\n");
 214              		.loc 1 577 0
 215 00b4 1648     		ldr	r0, .L29+44
 216 00b6 FFF7FEFF 		bl	puts
 217              	.LVL11:
ARM GAS  C:\Users\user\AppData\Local\Temp\ccK5UdOJ.s 			page 15


 218              	.L19:
 578:main.c        ****             }
 579:main.c        **** 
 580:main.c        ****             if(passkeyCounter == CYBLE_GAP_USER_PASSKEY_SIZE)
 219              		.loc 1 580 0
 220 00ba 3378     		ldrb	r3, [r6]
 221 00bc 062B     		cmp	r3, #6
 222 00be 0FD1     		bne	.L6
 581:main.c        ****             {
 582:main.c        ****                 DBG_PRINTF("\r\n");
 223              		.loc 1 582 0
 224 00c0 1448     		ldr	r0, .L29+48
 225 00c2 FFF7FEFF 		bl	puts
 226              	.LVL12:
 583:main.c        ****                 /* Send Pass key Response to create an Authenticated Link */
 584:main.c        ****                 apiResult = CyBle_GapAuthPassKeyReply(cyBle_connHandle.bdHandle, passkeyValue, CYBL
 227              		.loc 1 584 0
 228 00c6 0A4B     		ldr	r3, .L29+12
 229 00c8 0122     		movs	r2, #1
 230 00ca 1878     		ldrb	r0, [r3]
 231 00cc 0F4B     		ldr	r3, .L29+40
 232 00ce 1968     		ldr	r1, [r3]
 233 00d0 FFF7FEFF 		bl	CyBle_GapAuthPassKeyReply
 234              	.LVL13:
 235 00d4 074B     		ldr	r3, .L29+16
 236 00d6 1880     		strh	r0, [r3]
 585:main.c        ****                 if(apiResult != CYBLE_ERROR_OK)
 237              		.loc 1 585 0
 238 00d8 0028     		cmp	r0, #0
 239 00da B9D0     		beq	.L14
 586:main.c        ****                 {
 587:main.c        ****                     DBG_PRINTF("CyBle_GapAuthPassKeyReply API Error: ");
 240              		.loc 1 587 0
 241 00dc 0E48     		ldr	r0, .L29+52
 242 00de B3E7     		b	.L28
 243              	.L6:
 588:main.c        ****                     PrintApiResult();
 589:main.c        ****                 }
 590:main.c        ****                 authState = AUTHENTICATION_PASSKEY_ENTERED;
 591:main.c        ****             }
 592:main.c        ****         }
 593:main.c        ****         break;
 594:main.c        **** 
 595:main.c        ****     case AUTHENTICATION_BONDING_COMPLETE:
 596:main.c        ****         break;
 597:main.c        **** 
 598:main.c        ****     default:    /* Not supported state */
 599:main.c        ****         break;
 600:main.c        ****     }  
 601:main.c        **** }
 244              		.loc 1 601 0
 245              		@ sp needed
 246 00e0 F8BD     		pop	{r3, r4, r5, r6, r7, pc}
 247              	.L30:
 248 00e2 C046     		.align	2
 249              	.L29:
 250 00e4 00000000 		.word	.LANCHOR1
ARM GAS  C:\Users\user\AppData\Local\Temp\ccK5UdOJ.s 			page 16


 251 00e8 00000000 		.word	command
 252 00ec 00000000 		.word	.LC4
 253 00f0 00000000 		.word	cyBle_connHandle
 254 00f4 00000000 		.word	apiResult
 255 00f8 1B000000 		.word	.LC8
 256 00fc 42000000 		.word	.LC10
 257 0100 5D000000 		.word	.LC12
 258 0104 00000000 		.word	passkeyCounter
 259 0108 00000000 		.word	passkeyPow
 260 010c 00000000 		.word	passkeyValue
 261 0110 82000000 		.word	.LC17
 262 0114 97000000 		.word	.LC19
 263 0118 99000000 		.word	.LC21
 264              		.cfi_endproc
 265              	.LFE39:
 266              		.size	AuthenticationHandler, .-AuthenticationHandler
 267              		.section	.text.startup.main,"ax",%progbits
 268              		.align	1
 269              		.global	main
 270              		.code	16
 271              		.thumb_func
 272              		.type	main, %function
 273              	main:
 274              	.LFB40:
 602:main.c        **** 
 603:main.c        **** /*******************************************************************************
 604:main.c        **** * Function Name: main()
 605:main.c        **** ********************************************************************************
 606:main.c        **** * Summary:
 607:main.c        **** *  Main function for the project.
 608:main.c        **** *
 609:main.c        **** * Parameters:
 610:main.c        **** *  None
 611:main.c        **** *
 612:main.c        **** * Return:
 613:main.c        **** *  None
 614:main.c        **** *
 615:main.c        **** * Theory:
 616:main.c        **** *  The function starts BLE and UART components.
 617:main.c        **** *  This function process all BLE events and also implements the low power 
 618:main.c        **** *  functionality.
 619:main.c        **** *
 620:main.c        **** *******************************************************************************/
 621:main.c        **** int main()
 622:main.c        **** {
 275              		.loc 1 622 0
 276              		.cfi_startproc
 277              		@ Volatile: function does not return.
 278              		@ args = 0, pretend = 0, frame = 8
 279              		@ frame_needed = 0, uses_anonymous_args = 0
 280 0000 F7B5     		push	{r0, r1, r2, r4, r5, r6, r7, lr}
 281              		.cfi_def_cfa_offset 32
 282              		.cfi_offset 0, -32
 283              		.cfi_offset 1, -28
 284              		.cfi_offset 2, -24
 285              		.cfi_offset 4, -20
 286              		.cfi_offset 5, -16
ARM GAS  C:\Users\user\AppData\Local\Temp\ccK5UdOJ.s 			page 17


 287              		.cfi_offset 6, -12
 288              		.cfi_offset 7, -8
 289              		.cfi_offset 14, -4
 623:main.c        ****     CyGlobalIntEnable;
 290              		.loc 1 623 0
 291              		.syntax divided
 292              	@ 623 "main.c" 1
 293 0002 62B6     		CPSIE   i
 294              	@ 0 "" 2
 624:main.c        **** 	UART_DEB_Start();
 295              		.loc 1 624 0
 296              		.thumb
 297              		.syntax unified
 298 0004 FFF7FEFF 		bl	UART_DEB_Start
 299              	.LVL14:
 625:main.c        ****     DBG_PRINTF("\r\nContinuous Glucose Monitoring Sensor Example Project\r\n");
 300              		.loc 1 625 0
 301 0008 3D48     		ldr	r0, .L57
 302 000a FFF7FEFF 		bl	puts
 303              	.LVL15:
 626:main.c        ****     
 627:main.c        ****     Disconnect_LED_Write(LED_OFF);
 304              		.loc 1 627 0
 305 000e 0120     		movs	r0, #1
 306 0010 FFF7FEFF 		bl	Disconnect_LED_Write
 307              	.LVL16:
 628:main.c        ****     Advertising_LED_Write(LED_OFF);
 308              		.loc 1 628 0
 309 0014 0120     		movs	r0, #1
 310 0016 FFF7FEFF 		bl	Advertising_LED_Write
 311              	.LVL17:
 629:main.c        ****     Connected_LED_Write(LED_OFF);
 312              		.loc 1 629 0
 313 001a 0120     		movs	r0, #1
 314 001c FFF7FEFF 		bl	Connected_LED_Write
 315              	.LVL18:
 630:main.c        **** 
 631:main.c        ****     /* Start CYBLE component and register generic event handler */
 632:main.c        ****     apiResult = CyBle_Start(AppCallBack);
 316              		.loc 1 632 0
 317 0020 3848     		ldr	r0, .L57+4
 318 0022 FFF7FEFF 		bl	CyBle_Start
 319              	.LVL19:
 320 0026 384B     		ldr	r3, .L57+8
 321 0028 1880     		strh	r0, [r3]
 322 002a 0193     		str	r3, [sp, #4]
 633:main.c        **** 	if(apiResult != CYBLE_ERROR_OK)
 323              		.loc 1 633 0
 324 002c 0028     		cmp	r0, #0
 325 002e 04D0     		beq	.L32
 634:main.c        **** 	{
 635:main.c        **** 		DBG_PRINTF("CyBle_Start API Error: ");
 326              		.loc 1 635 0
 327 0030 3648     		ldr	r0, .L57+12
 328 0032 FFF7FEFF 		bl	printf
 329              	.LVL20:
 636:main.c        ****         PrintApiResult();
ARM GAS  C:\Users\user\AppData\Local\Temp\ccK5UdOJ.s 			page 18


 330              		.loc 1 636 0
 331 0036 FFF7FEFF 		bl	PrintApiResult
 332              	.LVL21:
 333              	.L32:
 637:main.c        **** 	}
 638:main.c        ****     
 639:main.c        ****     PrintStackVersion();
 334              		.loc 1 639 0
 335 003a FFF7FEFF 		bl	PrintStackVersion
 336              	.LVL22:
 640:main.c        ****     
 641:main.c        ****     /* Services initialization */
 642:main.c        ****     CgmsInit();
 337              		.loc 1 642 0
 338 003e FFF7FEFF 		bl	CgmsInit
 339              	.LVL23:
 643:main.c        ****     BmsInit();
 340              		.loc 1 643 0
 341 0042 FFF7FEFF 		bl	BmsInit
 342              	.LVL24:
 644:main.c        ****     
 645:main.c        ****     /* Register Timer_Interrupt() by the WDT COUNTER2 to generate interrupt every second */
 646:main.c        ****     CySysWdtSetInterruptCallback(CY_SYS_WDT_COUNTER2, Timer_Interrupt);
 343              		.loc 1 646 0
 344 0046 3249     		ldr	r1, .L57+16
 345 0048 0220     		movs	r0, #2
 346 004a FFF7FEFF 		bl	CySysWdtSetInterruptCallback
 347              	.LVL25:
 647:main.c        ****     /* Enable the COUNTER2 ISR handler. */
 648:main.c        ****     CySysWdtEnableCounterIsr(CY_SYS_WDT_COUNTER2);
 348              		.loc 1 648 0
 349 004e 0220     		movs	r0, #2
 350 0050 FFF7FEFF 		bl	CySysWdtEnableCounterIsr
 351              	.LVL26:
 352              	.LBB8:
 353              	.LBB9:
 480:main.c        ****                 {
 354              		.loc 1 480 0
 355 0054 0124     		movs	r4, #1
 356              	.L33:
 357              	.LBE9:
 358              	.LBE8:
 649:main.c        ****     
 650:main.c        ****     
 651:main.c        ****     /***************************************************************************
 652:main.c        ****     * Main polling loop
 653:main.c        ****     ***************************************************************************/
 654:main.c        ****     while(1u)
 655:main.c        ****     {
 656:main.c        ****         /*******************************************************************
 657:main.c        ****         *  To achieve low power in the device
 658:main.c        ****         *******************************************************************/
 659:main.c        ****         if(( authState != AUTHENTICATION_PASSKEY_YES_NO)
 660:main.c        ****         && ( authState != AUTHENTICATION_WAITING_FOR_PASSKEY) )
 359              		.loc 1 660 0
 360 0056 0222     		movs	r2, #2
 659:main.c        ****         && ( authState != AUTHENTICATION_WAITING_FOR_PASSKEY) )
ARM GAS  C:\Users\user\AppData\Local\Temp\ccK5UdOJ.s 			page 19


 361              		.loc 1 659 0
 362 0058 2E4B     		ldr	r3, .L57+20
 363 005a 2F4D     		ldr	r5, .L57+24
 364              		.loc 1 660 0
 365 005c 1B78     		ldrb	r3, [r3]
 366 005e 9343     		bics	r3, r2
 367 0060 012B     		cmp	r3, #1
 368 0062 2AD0     		beq	.L34
 369              	.LBB11:
 370              	.LBB10:
 464:main.c        ****        (CyBle_GetState() == CYBLE_STATE_CONNECTED))
 371              		.loc 1 464 0
 372 0064 2B78     		ldrb	r3, [r5]
 373 0066 023B     		subs	r3, r3, #2
 374 0068 012B     		cmp	r3, #1
 375 006a 26D8     		bhi	.L34
 468:main.c        ****         /* Disable global interrupts */
 376              		.loc 1 468 0
 377 006c 0320     		movs	r0, #3
 378 006e FFF7FEFF 		bl	CyBle_EnterLPM
 379              	.LVL27:
 380 0072 0700     		movs	r7, r0
 381              	.LVL28:
 470:main.c        ****         /* When BLE subsystem has been put into Deep-Sleep mode */
 382              		.loc 1 470 0
 383 0074 FFF7FEFF 		bl	CyEnterCriticalSection
 384              	.LVL29:
 385 0078 0600     		movs	r6, r0
 386              	.LVL30:
 472:main.c        ****         {
 387              		.loc 1 472 0
 388 007a 032F     		cmp	r7, #3
 389 007c 14D1     		bne	.L35
 475:main.c        ****                (CyBle_GetBleSsState() == CYBLE_BLESS_STATE_DEEPSLEEP))
 390              		.loc 1 475 0
 391 007e FFF7FEFF 		bl	CyBle_GetBleSsState
 392              	.LVL31:
 393 0082 0428     		cmp	r0, #4
 394 0084 0BD1     		bne	.L36
 395              	.L39:
 480:main.c        ****                 {
 396              		.loc 1 480 0
 397 0086 FFF7FEFF 		bl	UART_DEB_SpiUartGetTxBufferSize
 398              	.LVL32:
 399 008a 244B     		ldr	r3, .L57+28
 400 008c 1B68     		ldr	r3, [r3]
 401 008e DB0B     		lsrs	r3, r3, #15
 402 0090 2340     		ands	r3, r4
 403 0092 1B18     		adds	r3, r3, r0
 404 0094 002B     		cmp	r3, #0
 405 0096 0BD1     		bne	.L38
 482:main.c        ****                 }
 406              		.loc 1 482 0
 407 0098 FFF7FEFF 		bl	CySysPmDeepSleep
 408              	.LVL33:
 409 009c 0AE0     		b	.L40
 410              	.L36:
ARM GAS  C:\Users\user\AppData\Local\Temp\ccK5UdOJ.s 			page 20


 476:main.c        ****             {
 411              		.loc 1 476 0
 412 009e FFF7FEFF 		bl	CyBle_GetBleSsState
 413              	.LVL34:
 475:main.c        ****                (CyBle_GetBleSsState() == CYBLE_BLESS_STATE_DEEPSLEEP))
 414              		.loc 1 475 0
 415 00a2 0628     		cmp	r0, #6
 416 00a4 06D1     		bne	.L40
 417 00a6 EEE7     		b	.L39
 418              	.L35:
 496:main.c        ****             {
 419              		.loc 1 496 0
 420 00a8 FFF7FEFF 		bl	CyBle_GetBleSsState
 421              	.LVL35:
 422 00ac 0228     		cmp	r0, #2
 423 00ae 01D0     		beq	.L40
 424              	.L38:
 486:main.c        ****                 }
 425              		.loc 1 486 0
 426 00b0 FFF7FEFF 		bl	CySysPmSleep
 427              	.LVL36:
 428              	.L40:
 502:main.c        ****     }
 429              		.loc 1 502 0
 430 00b4 3000     		movs	r0, r6
 431 00b6 FFF7FEFF 		bl	CyExitCriticalSection
 432              	.LVL37:
 433              	.L34:
 434              	.LBE10:
 435              	.LBE11:
 661:main.c        ****         {   
 662:main.c        ****             LowPowerImplementation();
 663:main.c        ****         }
 664:main.c        ****         
 665:main.c        ****         /*******************************************************************
 666:main.c        ****         *  Process all pending BLE events in the stack.
 667:main.c        ****         *******************************************************************/
 668:main.c        ****         CyBle_ProcessEvents();
 436              		.loc 1 668 0
 437 00ba FFF7FEFF 		bl	CyBle_ProcessEvents
 438              	.LVL38:
 669:main.c        ****       
 670:main.c        ****         /*******************************************************************
 671:main.c        ****         *  Process GATT and service-specific tasks during connected state.
 672:main.c        ****         *******************************************************************/
 673:main.c        **** 		if(CyBle_GetState() == CYBLE_STATE_CONNECTED)
 439              		.loc 1 673 0
 440 00be 2B78     		ldrb	r3, [r5]
 441 00c0 022B     		cmp	r3, #2
 442 00c2 19D1     		bne	.L42
 674:main.c        ****         {   
 675:main.c        ****             /* Process CGMS actions when device in connection */
 676:main.c        ****             CgmsProcess();
 443              		.loc 1 676 0
 444 00c4 FFF7FEFF 		bl	CgmsProcess
 445              	.LVL39:
 677:main.c        ****             
ARM GAS  C:\Users\user\AppData\Local\Temp\ccK5UdOJ.s 			page 21


 678:main.c        **** 		/*******************************************************************
 679:main.c        ****         *  Authentication procdure handling
 680:main.c        ****         *******************************************************************/
 681:main.c        ****             AuthenticationHandler();
 446              		.loc 1 681 0
 447 00c8 FFF7FEFF 		bl	AuthenticationHandler
 448              	.LVL40:
 682:main.c        ****         
 683:main.c        ****           /* Store bonding data to flash only when all debug information has been sent */
 684:main.c        ****         #if(CYBLE_BONDING_REQUIREMENT == CYBLE_BONDING_YES)
 685:main.c        ****             if((cyBle_pendingFlashWrite != 0u) &&
 449              		.loc 1 685 0
 450 00cc 144B     		ldr	r3, .L57+32
 451 00ce 1B78     		ldrb	r3, [r3]
 452 00d0 002B     		cmp	r3, #0
 453 00d2 C0D0     		beq	.L33
 686:main.c        ****             ((UART_DEB_GET_TX_BUFF_SIZE() + UART_DEB_GET_TX_FIFO_SR_VALID) == 0u))
 454              		.loc 1 686 0
 455 00d4 FFF7FEFF 		bl	UART_DEB_SpiUartGetTxBufferSize
 456              	.LVL41:
 457 00d8 104B     		ldr	r3, .L57+28
 458 00da 1B68     		ldr	r3, [r3]
 685:main.c        ****             ((UART_DEB_GET_TX_BUFF_SIZE() + UART_DEB_GET_TX_FIFO_SR_VALID) == 0u))
 459              		.loc 1 685 0
 460 00dc DB0B     		lsrs	r3, r3, #15
 461 00de 2340     		ands	r3, r4
 462 00e0 1818     		adds	r0, r3, r0
 463 00e2 0028     		cmp	r0, #0
 464 00e4 B7D1     		bne	.L33
 687:main.c        ****             {
 688:main.c        ****                 apiResult = CyBle_StoreBondingData(0u);
 465              		.loc 1 688 0
 466 00e6 FFF7FEFF 		bl	CyBle_StoreBondingData
 467              	.LVL42:
 468 00ea 019B     		ldr	r3, [sp, #4]
 469 00ec 0100     		movs	r1, r0
 470 00ee 1880     		strh	r0, [r3]
 689:main.c        ****                 DBG_PRINTF("Store bonding data, status: %x \r\n", apiResult);
 471              		.loc 1 689 0
 472 00f0 0C48     		ldr	r0, .L57+36
 473 00f2 FFF7FEFF 		bl	printf
 474              	.LVL43:
 475 00f6 AEE7     		b	.L33
 476              	.L42:
 690:main.c        ****             }
 691:main.c        ****         #endif /* CYBLE_BONDING_REQUIREMENT == CYBLE_BONDING_YES */    
 692:main.c        ****         }
 693:main.c        ****         else
 694:main.c        ****         {
 695:main.c        ****             /* Process BMS actions when device is disconnected */
 696:main.c        **** 			BmsProcess();
 477              		.loc 1 696 0
 478 00f8 FFF7FEFF 		bl	BmsProcess
 479              	.LVL44:
 480 00fc ABE7     		b	.L33
 481              	.L58:
 482 00fe C046     		.align	2
ARM GAS  C:\Users\user\AppData\Local\Temp\ccK5UdOJ.s 			page 22


 483              	.L57:
 484 0100 BF000000 		.word	.LC23
 485 0104 00000000 		.word	AppCallBack
 486 0108 00000000 		.word	apiResult
 487 010c F7000000 		.word	.LC27
 488 0110 00000000 		.word	Timer_Interrupt
 489 0114 00000000 		.word	.LANCHOR1
 490 0118 00000000 		.word	cyBle_state
 491 011c 08022440 		.word	1076101640
 492 0120 00000000 		.word	cyBle_pendingFlashWrite
 493 0124 0F010000 		.word	.LC33
 494              		.cfi_endproc
 495              	.LFE40:
 496              		.size	main, .-main
 497              		.section	.text.StartAdvertisement,"ax",%progbits
 498              		.align	1
 499              		.global	StartAdvertisement
 500              		.code	16
 501              		.thumb_func
 502              		.type	StartAdvertisement, %function
 503              	StartAdvertisement:
 504              	.LFB41:
 697:main.c        ****         }
 698:main.c        ****     }
 699:main.c        **** }
 700:main.c        **** 
 701:main.c        **** /*******************************************************************************
 702:main.c        **** * Function Name: StartAdvertisement
 703:main.c        **** ********************************************************************************
 704:main.c        **** *
 705:main.c        **** * Summary:
 706:main.c        **** *   Initiates the advertisement procedure.
 707:main.c        **** *   Prints the Device Address.
 708:main.c        **** *
 709:main.c        **** * Parameters:
 710:main.c        **** *   None.
 711:main.c        **** *
 712:main.c        **** * Return:
 713:main.c        **** *   None.
 714:main.c        **** *
 715:main.c        **** *******************************************************************************/
 716:main.c        **** void StartAdvertisement(void)
 717:main.c        **** {
 505              		.loc 1 717 0
 506              		.cfi_startproc
 507              		@ args = 0, pretend = 0, frame = 8
 508              		@ frame_needed = 0, uses_anonymous_args = 0
 509 0000 37B5     		push	{r0, r1, r2, r4, r5, lr}
 510              		.cfi_def_cfa_offset 24
 511              		.cfi_offset 0, -24
 512              		.cfi_offset 1, -20
 513              		.cfi_offset 2, -16
 514              		.cfi_offset 4, -12
 515              		.cfi_offset 5, -8
 516              		.cfi_offset 14, -4
 718:main.c        ****     uint16 i;
 719:main.c        ****     CYBLE_GAP_BD_ADDR_T localAddr;
ARM GAS  C:\Users\user\AppData\Local\Temp\ccK5UdOJ.s 			page 23


 720:main.c        ****     apiResult = CyBle_GappStartAdvertisement(CYBLE_ADVERTISING_FAST);
 517              		.loc 1 720 0
 518 0002 0020     		movs	r0, #0
 519 0004 FFF7FEFF 		bl	CyBle_GappStartAdvertisement
 520              	.LVL45:
 521 0008 0E4B     		ldr	r3, .L64
 522 000a 1880     		strh	r0, [r3]
 721:main.c        ****     if(apiResult != CYBLE_ERROR_OK)
 523              		.loc 1 721 0
 524 000c 0028     		cmp	r0, #0
 525 000e 05D0     		beq	.L60
 526              	.LBB14:
 527              	.LBB15:
 722:main.c        ****     {
 723:main.c        ****         DBG_PRINTF("StartAdvertisement API Error: ");
 528              		.loc 1 723 0
 529 0010 0D48     		ldr	r0, .L64+4
 530 0012 FFF7FEFF 		bl	printf
 531              	.LVL46:
 724:main.c        ****         PrintApiResult();
 532              		.loc 1 724 0
 533 0016 FFF7FEFF 		bl	PrintApiResult
 534              	.LVL47:
 535 001a 12E0     		b	.L59
 536              	.L60:
 537              	.LBE15:
 538              	.LBE14:
 725:main.c        ****     }
 726:main.c        ****     else
 727:main.c        ****     {
 728:main.c        ****         DBG_PRINTF("Start Advertisement with addr: ");
 539              		.loc 1 728 0
 540 001c 0B48     		ldr	r0, .L64+8
 541 001e FFF7FEFF 		bl	printf
 542              	.LVL48:
 729:main.c        ****         CyBle_GetDeviceAddress(&localAddr);
 543              		.loc 1 729 0
 544 0022 6846     		mov	r0, sp
 545 0024 FFF7FEFF 		bl	CyBle_GetDeviceAddress
 546              	.LVL49:
 547 0028 6B46     		mov	r3, sp
 548 002a 5C1D     		adds	r4, r3, #5
 549 002c 5D1E     		subs	r5, r3, #1
 550              	.LVL50:
 551              	.L62:
 730:main.c        ****         for(i = CYBLE_GAP_BD_ADDR_SIZE; i > 0u; i--)
 731:main.c        ****         {
 732:main.c        ****             DBG_PRINTF("%2.2x", localAddr.bdAddr[i-1]);
 552              		.loc 1 732 0 discriminator 3
 553 002e 2178     		ldrb	r1, [r4]
 554 0030 0748     		ldr	r0, .L64+12
 555 0032 013C     		subs	r4, r4, #1
 556              	.LVL51:
 557 0034 FFF7FEFF 		bl	printf
 558              	.LVL52:
 730:main.c        ****         for(i = CYBLE_GAP_BD_ADDR_SIZE; i > 0u; i--)
 559              		.loc 1 730 0 discriminator 3
ARM GAS  C:\Users\user\AppData\Local\Temp\ccK5UdOJ.s 			page 24


 560 0038 AC42     		cmp	r4, r5
 561 003a F8D1     		bne	.L62
 733:main.c        ****         }
 734:main.c        ****         DBG_PRINTF("\r\n");
 562              		.loc 1 734 0
 563 003c 0548     		ldr	r0, .L64+16
 564 003e FFF7FEFF 		bl	puts
 565              	.LVL53:
 566              	.L59:
 735:main.c        ****     }
 736:main.c        **** }
 567              		.loc 1 736 0
 568              		@ sp needed
 569 0042 37BD     		pop	{r0, r1, r2, r4, r5, pc}
 570              	.L65:
 571              		.align	2
 572              	.L64:
 573 0044 00000000 		.word	apiResult
 574 0048 31010000 		.word	.LC38
 575 004c 50010000 		.word	.LC40
 576 0050 70010000 		.word	.LC42
 577 0054 97000000 		.word	.LC19
 578              		.cfi_endproc
 579              	.LFE41:
 580              		.size	StartAdvertisement, .-StartAdvertisement
 581              		.global	__aeabi_ui2f
 582              		.global	__aeabi_f2d
 583              		.global	__aeabi_dmul
 584              		.section	.text.AppCallBack,"ax",%progbits
 585              		.align	1
 586              		.global	AppCallBack
 587              		.code	16
 588              		.thumb_func
 589              		.type	AppCallBack, %function
 590              	AppCallBack:
 591              	.LFB36:
  53:main.c        ****     CYBLE_GAP_CONN_PARAM_UPDATED_IN_CONTROLLER_T *connParameters;
 592              		.loc 1 53 0
 593              		.cfi_startproc
 594              		@ args = 0, pretend = 0, frame = 0
 595              		@ frame_needed = 0, uses_anonymous_args = 0
 596              	.LVL54:
 597 0000 37B5     		push	{r0, r1, r2, r4, r5, lr}
 598              		.cfi_def_cfa_offset 24
 599              		.cfi_offset 0, -24
 600              		.cfi_offset 1, -20
 601              		.cfi_offset 2, -16
 602              		.cfi_offset 4, -12
 603              		.cfi_offset 5, -8
 604              		.cfi_offset 14, -4
  53:main.c        ****     CYBLE_GAP_CONN_PARAM_UPDATED_IN_CONTROLLER_T *connParameters;
 605              		.loc 1 53 0
 606 0002 0400     		movs	r4, r0
 607 0004 0D00     		movs	r5, r1
  56:main.c        ****     {
 608              		.loc 1 56 0
 609 0006 2C28     		cmp	r0, #44
ARM GAS  C:\Users\user\AppData\Local\Temp\ccK5UdOJ.s 			page 25


 610 0008 00D1     		bne	.LCB505
 611 000a 42E1     		b	.L68	@long jump
 612              	.LCB505:
 613 000c 51D8     		bhi	.L69
 614 000e 2328     		cmp	r0, #35
 615 0010 00D1     		bne	.LCB509
 616 0012 BBE0     		b	.L70	@long jump
 617              	.LCB509:
 618 0014 1ED8     		bhi	.L71
 619 0016 0428     		cmp	r0, #4
 620 0018 00D1     		bne	.LCB513
 621 001a 96E0     		b	.L72	@long jump
 622              	.LCB513:
 623 001c 10D8     		bhi	.L73
 624 001e 0228     		cmp	r0, #2
 625 0020 00D1     		bne	.LCB517
 626 0022 8DE0     		b	.L74	@long jump
 627              	.LCB517:
 628 0024 00D9     		bls	.LCB519
 629 0026 8EE0     		b	.L75	@long jump
 630              	.LCB519:
 631 0028 0128     		cmp	r0, #1
 632 002a 00D0     		beq	.LCB521
 633 002c 04E2     		b	.L67	@long jump
 634              	.LCB521:
  59:main.c        ****             /* Put device to discoverable mode so that remote can search it. */
 635              		.loc 1 59 0
 636 002e B848     		ldr	r0, .L149
 637              	.LVL55:
 638 0030 FFF7FEFF 		bl	puts
 639              	.LVL56:
  61:main.c        ****             Advertising_LED_Write(LED_OFF);
 640              		.loc 1 61 0
 641 0034 FFF7FEFF 		bl	StartAdvertisement
 642              	.LVL57:
  62:main.c        **** 			break;
 643              		.loc 1 62 0
 644 0038 2000     		movs	r0, r4
 645 003a FFF7FEFF 		bl	Advertising_LED_Write
 646              	.LVL58:
  63:main.c        **** 
 647              		.loc 1 63 0
 648 003e FFE1     		b	.L66
 649              	.LVL59:
 650              	.L73:
  56:main.c        ****     {
 651              		.loc 1 56 0
 652 0040 2128     		cmp	r0, #33
 653 0042 00D1     		bne	.LCB539
 654 0044 84E0     		b	.L77	@long jump
 655              	.LCB539:
 656 0046 00D9     		bls	.LCB541
 657 0048 8EE0     		b	.L78	@long jump
 658              	.LCB541:
  66:main.c        ****             break;
 659              		.loc 1 66 0
 660 004a B248     		ldr	r0, .L149+4
ARM GAS  C:\Users\user\AppData\Local\Temp\ccK5UdOJ.s 			page 26


 661              	.LVL60:
  56:main.c        ****     {
 662              		.loc 1 56 0
 663 004c 052C     		cmp	r4, #5
 664 004e 00D1     		bne	.LCB545
 665 0050 EFE1     		b	.L141	@long jump
 666              	.LCB545:
 667 0052 F1E1     		b	.L67
 668              	.LVL61:
 669              	.L71:
 670 0054 2728     		cmp	r0, #39
 671 0056 00D1     		bne	.LCB552
 672 0058 E0E0     		b	.L80	@long jump
 673              	.LCB552:
 674 005a 13D8     		bhi	.L81
 675 005c 2528     		cmp	r0, #37
 676 005e 00D1     		bne	.LCB556
 677 0060 97E0     		b	.L82	@long jump
 678              	.LCB556:
 679 0062 00D9     		bls	.LCB558
 680 0064 17E1     		b	.L147	@long jump
 681              	.LCB558:
 232:main.c        ****             DBG_PRINTF("AUTH_COMPLETE: security:%x, bonding:%x, ekeySize:%x, authErr %x \r\n", 
 682              		.loc 1 232 0
 683 0066 AC4C     		ldr	r4, .L149+8
 684 0068 0522     		movs	r2, #5
 685 006a 2000     		movs	r0, r4
 686              	.LVL62:
 687 006c FFF7FEFF 		bl	memcpy
 688              	.LVL63:
 233:main.c        ****             peerAuthInfo.security, 
 689              		.loc 1 233 0
 690 0070 E078     		ldrb	r0, [r4, #3]
 691 0072 6278     		ldrb	r2, [r4, #1]
 692 0074 A378     		ldrb	r3, [r4, #2]
 693 0076 2178     		ldrb	r1, [r4]
 694 0078 0090     		str	r0, [sp]
 695 007a A848     		ldr	r0, .L149+12
 696 007c FFF7FEFF 		bl	printf
 697              	.LVL64:
 238:main.c        ****             break;
 698              		.loc 1 238 0
 699 0080 0422     		movs	r2, #4
 700 0082 00E1     		b	.L144
 701              	.LVL65:
 702              	.L81:
  56:main.c        ****     {
 703              		.loc 1 56 0
 704 0084 2928     		cmp	r0, #41
 705 0086 00D1     		bne	.LCB582
 706 0088 00E1     		b	.L85	@long jump
 707              	.LCB582:
 708 008a 00D2     		bcs	.LCB584
 709 008c E7E0     		b	.L86	@long jump
 710              	.LCB584:
 711 008e 2A28     		cmp	r0, #42
 712 0090 00D0     		beq	.LCB586
ARM GAS  C:\Users\user\AppData\Local\Temp\ccK5UdOJ.s 			page 27


 713 0092 D1E1     		b	.L67	@long jump
 714              	.LCB586:
 715              	.LVL66:
 221:main.c        ****             (float)connParameters->connIntv * CYBLE_CONN_INTRV_TO_MS);
 716              		.loc 1 221 0
 717 0094 4888     		ldrh	r0, [r1, #2]
 718              	.LVL67:
 719 0096 FFF7FEFF 		bl	__aeabi_ui2f
 720              	.LVL68:
 721 009a FFF7FEFF 		bl	__aeabi_f2d
 722              	.LVL69:
 723 009e 0022     		movs	r2, #0
 724 00a0 9F4B     		ldr	r3, .L149+16
 725 00a2 FFF7FEFF 		bl	__aeabi_dmul
 726              	.LVL70:
 727 00a6 0200     		movs	r2, r0
 728 00a8 0B00     		movs	r3, r1
 729 00aa 9E48     		ldr	r0, .L149+20
 730 00ac FFF7FEFF 		bl	printf
 731              	.LVL71:
 223:main.c        ****         
 732              		.loc 1 223 0
 733 00b0 C6E1     		b	.L66
 734              	.LVL72:
 735              	.L69:
  56:main.c        ****     {
 736              		.loc 1 56 0
 737 00b2 5028     		cmp	r0, #80
 738 00b4 00D1     		bne	.LCB613
 739 00b6 B2E1     		b	.L88	@long jump
 740              	.LCB613:
 741 00b8 1DD8     		bhi	.L89
 742 00ba 4228     		cmp	r0, #66
 743 00bc 00D1     		bne	.LCB617
 744 00be 25E1     		b	.L90	@long jump
 745              	.LCB617:
 746 00c0 0ED8     		bhi	.L91
 747 00c2 3328     		cmp	r0, #51
 748 00c4 00D1     		bne	.LCB621
 749 00c6 9BE0     		b	.L92	@long jump
 750              	.LCB621:
 751 00c8 4128     		cmp	r0, #65
 752 00ca 00D1     		bne	.LCB623
 753 00cc 18E1     		b	.L93	@long jump
 754              	.LCB623:
 755 00ce 2D28     		cmp	r0, #45
 756 00d0 00D0     		beq	.LCB625
 757 00d2 B1E1     		b	.L67	@long jump
 758              	.LCB625:
 173:main.c        ****                                     *(uint32 *)eventParam);
 759              		.loc 1 173 0
 760 00d4 0968     		ldr	r1, [r1]
 761              	.LVL73:
 762 00d6 9448     		ldr	r0, .L149+24
 763              	.LVL74:
 764 00d8 FFF7FEFF 		bl	printf
 765              	.LVL75:
ARM GAS  C:\Users\user\AppData\Local\Temp\ccK5UdOJ.s 			page 28


 175:main.c        ****             break;
 766              		.loc 1 175 0
 767 00dc 0322     		movs	r2, #3
 768 00de D2E0     		b	.L144
 769              	.LVL76:
 770              	.L91:
  56:main.c        ****     {
 771              		.loc 1 56 0
 772 00e0 4C28     		cmp	r0, #76
 773 00e2 00D1     		bne	.LCB640
 774 00e4 84E1     		b	.L95	@long jump
 775              	.LCB640:
 776 00e6 4F28     		cmp	r0, #79
 777 00e8 00D1     		bne	.LCB642
 778 00ea 96E1     		b	.L96	@long jump
 779              	.LCB642:
 780 00ec 4328     		cmp	r0, #67
 781 00ee 00D0     		beq	.LCB644
 782 00f0 A2E1     		b	.L67	@long jump
 783              	.LCB644:
 306:main.c        ****             //CYBLE_DISC_CHAR_INFO_T *discCharInfo = (CYBLE_DISC_CHAR_INFO_T *)eventParam;
 784              		.loc 1 306 0
 785 00f2 8E48     		ldr	r0, .L149+28
 786              	.LVL77:
 787 00f4 9DE1     		b	.L141
 788              	.LVL78:
 789              	.L89:
  56:main.c        ****     {
 790              		.loc 1 56 0
 791 00f6 7128     		cmp	r0, #113
 792 00f8 00D1     		bne	.LCB653
 793 00fa BDE0     		b	.L98	@long jump
 794              	.LCB653:
 795 00fc 0AD8     		bhi	.L99
 796 00fe 5728     		cmp	r0, #87
 797 0100 00D1     		bne	.LCB657
 798 0102 8EE1     		b	.L100	@long jump
 799              	.LCB657:
 800 0104 7028     		cmp	r0, #112
 801 0106 00D1     		bne	.LCB659
 802 0108 92E1     		b	.L101	@long jump
 803              	.LCB659:
 804 010a 5428     		cmp	r0, #84
 805 010c 00D0     		beq	.LCB661
 806 010e 93E1     		b	.L67	@long jump
 807              	.LCB661:
 313:main.c        ****             break;
 808              		.loc 1 313 0
 809 0110 8748     		ldr	r0, .L149+32
 810              	.LVL79:
 811 0112 8EE1     		b	.L141
 812              	.LVL80:
 813              	.L99:
  56:main.c        ****     {
 814              		.loc 1 56 0
 815 0114 8223     		movs	r3, #130
 816 0116 5B00     		lsls	r3, r3, #1
ARM GAS  C:\Users\user\AppData\Local\Temp\ccK5UdOJ.s 			page 29


 817 0118 9842     		cmp	r0, r3
 818 011a 00D1     		bne	.LCB672
 819 011c 84E1     		b	.L103	@long jump
 820              	.LCB672:
 821 011e 04D8     		bhi	.L104
 367:main.c        ****             break;
 822              		.loc 1 367 0
 823 0120 8448     		ldr	r0, .L149+36
 824              	.LVL81:
  56:main.c        ****     {
 825              		.loc 1 56 0
 826 0122 FA2C     		cmp	r4, #250
 827 0124 00D1     		bne	.LCB678
 828 0126 84E1     		b	.L141	@long jump
 829              	.LCB678:
 830 0128 86E1     		b	.L67
 831              	.LVL82:
 832              	.L104:
 833 012a 0623     		movs	r3, #6
 834 012c FF33     		adds	r3, r3, #255
 835 012e 9842     		cmp	r0, r3
 836 0130 00D1     		bne	.LCB687
 837 0132 7BE1     		b	.L106	@long jump
 838              	.LCB687:
 839 0134 0133     		adds	r3, r3, #1
 349:main.c        ****             break;
 840              		.loc 1 349 0
 841 0136 8048     		ldr	r0, .L149+40
 842              	.LVL83:
  56:main.c        ****     {
 843              		.loc 1 56 0
 844 0138 9C42     		cmp	r4, r3
 845 013a 00D1     		bne	.LCB692
 846 013c 79E1     		b	.L141	@long jump
 847              	.LCB692:
 848 013e 7BE1     		b	.L67
 849              	.LVL84:
 850              	.L74:
  72:main.c        ****             break;
 851              		.loc 1 72 0
 852 0140 0978     		ldrb	r1, [r1]
 853              	.LVL85:
 854 0142 7E48     		ldr	r0, .L149+44
 855              	.LVL86:
 856 0144 7AE1     		b	.L142
 857              	.LVL87:
 858              	.L75:
  76:main.c        ****             break;
 859              		.loc 1 76 0
 860 0146 7E48     		ldr	r0, .L149+48
 861              	.LVL88:
 862 0148 73E1     		b	.L141
 863              	.LVL89:
 864              	.L72:
  80:main.c        ****             break;
 865              		.loc 1 80 0
 866 014a 0978     		ldrb	r1, [r1]
ARM GAS  C:\Users\user\AppData\Local\Temp\ccK5UdOJ.s 			page 30


 867              	.LVL90:
 868 014c 7D48     		ldr	r0, .L149+52
 869              	.LVL91:
 870 014e 75E1     		b	.L142
 871              	.LVL92:
 872              	.L77:
  88:main.c        ****             DBG_PRINTF("EVT_AUTH_REQ: security=%x, bonding=%x, ekeySize=%x, err=%x \r\n", 
 873              		.loc 1 88 0
 874 0150 714C     		ldr	r4, .L149+8
 875 0152 0522     		movs	r2, #5
 876 0154 2000     		movs	r0, r4
 877              	.LVL93:
 878 0156 FFF7FEFF 		bl	memcpy
 879              	.LVL94:
  89:main.c        ****             peerAuthInfo.security, 
 880              		.loc 1 89 0
 881 015a E078     		ldrb	r0, [r4, #3]
 882 015c A378     		ldrb	r3, [r4, #2]
 883 015e 6278     		ldrb	r2, [r4, #1]
 884 0160 2178     		ldrb	r1, [r4]
 885 0162 0090     		str	r0, [sp]
 886 0164 7848     		ldr	r0, .L149+56
 887 0166 56E0     		b	.L143
 888              	.LVL95:
 889              	.L78:
  97:main.c        ****             DBG_PRINTF("Enter the passkey shown in the peer device: \r\n");
 890              		.loc 1 97 0
 891 0168 7848     		ldr	r0, .L149+60
 892              	.LVL96:
 893 016a FFF7FEFF 		bl	puts
 894              	.LVL97:
  98:main.c        ****             authState = AUTHENTICATION_WAITING_FOR_PASSKEY;
 895              		.loc 1 98 0
 896 016e 7848     		ldr	r0, .L149+64
 897 0170 FFF7FEFF 		bl	puts
 898              	.LVL98:
  99:main.c        ****             passkeyValue = 0u;
 899              		.loc 1 99 0
 900 0174 0122     		movs	r2, #1
 901 0176 774B     		ldr	r3, .L149+68
 101:main.c        ****             passkeyCounter = 0u;
 902              		.loc 1 101 0
 903 0178 7749     		ldr	r1, .L149+72
  99:main.c        ****             passkeyValue = 0u;
 904              		.loc 1 99 0
 905 017a 1A70     		strb	r2, [r3]
 100:main.c        ****             passkeyPow = 100000u;
 906              		.loc 1 100 0
 907 017c 0023     		movs	r3, #0
 908 017e 774A     		ldr	r2, .L149+76
 909 0180 1360     		str	r3, [r2]
 101:main.c        ****             passkeyCounter = 0u;
 910              		.loc 1 101 0
 911 0182 774A     		ldr	r2, .L149+80
 912 0184 1160     		str	r1, [r2]
 102:main.c        ****             break;
 913              		.loc 1 102 0
ARM GAS  C:\Users\user\AppData\Local\Temp\ccK5UdOJ.s 			page 31


 914 0186 774A     		ldr	r2, .L149+84
 915 0188 1370     		strb	r3, [r2]
 103:main.c        ****             
 916              		.loc 1 103 0
 917 018a 59E1     		b	.L66
 918              	.LVL99:
 919              	.L70:
 106:main.c        ****             break;
 920              		.loc 1 106 0
 921 018c 0968     		ldr	r1, [r1]
 922              	.LVL100:
 923 018e 7648     		ldr	r0, .L149+88
 924              	.LVL101:
 925 0190 54E1     		b	.L142
 926              	.LVL102:
 927              	.L82:
 110:main.c        ****             switch(*(CYBLE_GAP_AUTH_FAILED_REASON_T *)eventParam)
 928              		.loc 1 110 0
 929 0192 7648     		ldr	r0, .L149+92
 930              	.LVL103:
 931 0194 FFF7FEFF 		bl	printf
 932              	.LVL104:
 111:main.c        ****             {
 933              		.loc 1 111 0
 934 0198 2978     		ldrb	r1, [r5]
 935 019a 1829     		cmp	r1, #24
 936 019c 2BD8     		bhi	.L109
 937 019e 0800     		movs	r0, r1
 938 01a0 FFF7FEFF 		bl	__gnu_thumb1_case_uqi
 939              	.L111:
 940 01a4 0D       		.byte	(.L110-.L111)/2
 941 01a5 0F       		.byte	(.L112-.L111)/2
 942 01a6 13       		.byte	(.L113-.L111)/2
 943 01a7 15       		.byte	(.L114-.L111)/2
 944 01a8 17       		.byte	(.L115-.L111)/2
 945 01a9 19       		.byte	(.L116-.L111)/2
 946 01aa 1B       		.byte	(.L117-.L111)/2
 947 01ab 1D       		.byte	(.L118-.L111)/2
 948 01ac 1F       		.byte	(.L119-.L111)/2
 949 01ad 21       		.byte	(.L120-.L111)/2
 950 01ae 23       		.byte	(.L121-.L111)/2
 951 01af 29       		.byte	(.L109-.L111)/2
 952 01b0 29       		.byte	(.L109-.L111)/2
 953 01b1 29       		.byte	(.L109-.L111)/2
 954 01b2 29       		.byte	(.L109-.L111)/2
 955 01b3 29       		.byte	(.L109-.L111)/2
 956 01b4 29       		.byte	(.L109-.L111)/2
 957 01b5 29       		.byte	(.L109-.L111)/2
 958 01b6 29       		.byte	(.L109-.L111)/2
 959 01b7 29       		.byte	(.L109-.L111)/2
 960 01b8 29       		.byte	(.L109-.L111)/2
 961 01b9 25       		.byte	(.L122-.L111)/2
 962 01ba 29       		.byte	(.L109-.L111)/2
 963 01bb 29       		.byte	(.L109-.L111)/2
 964 01bc 27       		.byte	(.L123-.L111)/2
 965 01bd 00       		.p2align 1
 966              	.L110:
ARM GAS  C:\Users\user\AppData\Local\Temp\ccK5UdOJ.s 			page 32


 114:main.c        ****                     break;
 967              		.loc 1 114 0
 968 01be 6C48     		ldr	r0, .L149+96
 969 01c0 00E0     		b	.L139
 970              	.L112:
 118:main.c        ****                     break;
 971              		.loc 1 118 0
 972 01c2 6C48     		ldr	r0, .L149+100
 973              	.L139:
 974 01c4 FFF7FEFF 		bl	puts
 975              	.LVL105:
 119:main.c        **** 
 976              		.loc 1 119 0
 977 01c8 18E0     		b	.L124
 978              	.L113:
 122:main.c        ****                     break;
 979              		.loc 1 122 0
 980 01ca 6B48     		ldr	r0, .L149+104
 981 01cc FAE7     		b	.L139
 982              	.L114:
 126:main.c        ****                     break;
 983              		.loc 1 126 0
 984 01ce 6B48     		ldr	r0, .L149+108
 985 01d0 F8E7     		b	.L139
 986              	.L115:
 130:main.c        ****                     break;
 987              		.loc 1 130 0
 988 01d2 6B48     		ldr	r0, .L149+112
 989 01d4 F6E7     		b	.L139
 990              	.L116:
 134:main.c        ****                     break;
 991              		.loc 1 134 0
 992 01d6 6B48     		ldr	r0, .L149+116
 993 01d8 F4E7     		b	.L139
 994              	.L117:
 138:main.c        ****                     break;
 995              		.loc 1 138 0
 996 01da 6B48     		ldr	r0, .L149+120
 997 01dc F2E7     		b	.L139
 998              	.L118:
 142:main.c        ****                     break;
 999              		.loc 1 142 0
 1000 01de 6B48     		ldr	r0, .L149+124
 1001 01e0 F0E7     		b	.L139
 1002              	.L119:
 146:main.c        ****                     break;
 1003              		.loc 1 146 0
 1004 01e2 6B48     		ldr	r0, .L149+128
 1005 01e4 EEE7     		b	.L139
 1006              	.L120:
 150:main.c        ****                     break;
 1007              		.loc 1 150 0
 1008 01e6 6B48     		ldr	r0, .L149+132
 1009 01e8 ECE7     		b	.L139
 1010              	.L121:
 154:main.c        ****                     break;
 1011              		.loc 1 154 0
ARM GAS  C:\Users\user\AppData\Local\Temp\ccK5UdOJ.s 			page 33


 1012 01ea 6B48     		ldr	r0, .L149+136
 1013 01ec EAE7     		b	.L139
 1014              	.L122:
 158:main.c        ****                     break;
 1015              		.loc 1 158 0
 1016 01ee 6B48     		ldr	r0, .L149+140
 1017 01f0 E8E7     		b	.L139
 1018              	.L123:
 162:main.c        ****                     break;
 1019              		.loc 1 162 0
 1020 01f2 6B48     		ldr	r0, .L149+144
 1021 01f4 E6E7     		b	.L139
 1022              	.L109:
 166:main.c        ****                     break;
 1023              		.loc 1 166 0
 1024 01f6 6B48     		ldr	r0, .L149+148
 1025 01f8 FFF7FEFF 		bl	printf
 1026              	.LVL106:
 1027              	.L124:
 169:main.c        ****             break;
 1028              		.loc 1 169 0
 1029 01fc 0522     		movs	r2, #5
 1030 01fe 42E0     		b	.L144
 1031              	.LVL107:
 1032              	.L92:
 179:main.c        ****             DBG_PRINTF("CYBLE_EVT_GAP_SMP_NEGOTIATED_AUTH_INFO: security:%x, bonding:%x, ekeySize:%
 1033              		.loc 1 179 0
 1034 0200 454C     		ldr	r4, .L149+8
 1035 0202 0522     		movs	r2, #5
 1036 0204 2000     		movs	r0, r4
 1037              	.LVL108:
 1038 0206 FFF7FEFF 		bl	memcpy
 1039              	.LVL109:
 180:main.c        ****             peerAuthInfo.security, 
 1040              		.loc 1 180 0
 1041 020a E078     		ldrb	r0, [r4, #3]
 1042 020c A378     		ldrb	r3, [r4, #2]
 1043 020e 6278     		ldrb	r2, [r4, #1]
 1044 0210 2178     		ldrb	r1, [r4]
 1045 0212 0090     		str	r0, [sp]
 1046 0214 6448     		ldr	r0, .L149+152
 1047              	.L143:
 1048 0216 FFF7FEFF 		bl	printf
 1049              	.LVL110:
 185:main.c        ****         
 1050              		.loc 1 185 0
 1051 021a 11E1     		b	.L66
 1052              	.LVL111:
 1053              	.L80:
 188:main.c        ****             
 1054              		.loc 1 188 0
 1055 021c 634C     		ldr	r4, .L149+156
 1056 021e 6448     		ldr	r0, .L149+160
 1057              	.LVL112:
 1058 0220 2178     		ldrb	r1, [r4]
 1059              	.LVL113:
 1060 0222 FFF7FEFF 		bl	printf
ARM GAS  C:\Users\user\AppData\Local\Temp\ccK5UdOJ.s 			page 34


 1061              	.LVL114:
 191:main.c        ****             {
 1062              		.loc 1 191 0
 1063 0226 6349     		ldr	r1, .L149+164
 1064 0228 0B78     		ldrb	r3, [r1]
 1065 022a 1B07     		lsls	r3, r3, #28
 1066 022c 0CD0     		beq	.L125
 193:main.c        ****                 if(apiResult != CYBLE_ERROR_OK)
 1067              		.loc 1 193 0
 1068 022e 2078     		ldrb	r0, [r4]
 1069 0230 FFF7FEFF 		bl	CyBle_GapAuthReq
 1070              	.LVL115:
 1071 0234 604B     		ldr	r3, .L149+168
 1072 0236 1880     		strh	r0, [r3]
 194:main.c        ****                 {
 1073              		.loc 1 194 0
 1074 0238 0028     		cmp	r0, #0
 1075 023a 08D0     		beq	.L126
 196:main.c        ****                     PrintApiResult();
 1076              		.loc 1 196 0
 1077 023c 5F48     		ldr	r0, .L149+172
 1078 023e FFF7FEFF 		bl	printf
 1079              	.LVL116:
 197:main.c        ****                 }
 1080              		.loc 1 197 0
 1081 0242 FFF7FEFF 		bl	PrintApiResult
 1082              	.LVL117:
 1083 0246 02E0     		b	.L126
 1084              	.L125:
 202:main.c        ****             }
 1085              		.loc 1 202 0
 1086 0248 0522     		movs	r2, #5
 1087 024a 424B     		ldr	r3, .L149+68
 1088 024c 1A70     		strb	r2, [r3]
 1089              	.L126:
 205:main.c        ****             Advertising_LED_Write(LED_OFF);
 1090              		.loc 1 205 0
 1091 024e 0120     		movs	r0, #1
 1092 0250 FFF7FEFF 		bl	Disconnect_LED_Write
 1093              	.LVL118:
 206:main.c        ****             Connected_LED_Write(LED_ON);
 1094              		.loc 1 206 0
 1095 0254 0120     		movs	r0, #1
 1096 0256 FFF7FEFF 		bl	Advertising_LED_Write
 1097              	.LVL119:
 207:main.c        ****             break;
 1098              		.loc 1 207 0
 1099 025a 0020     		movs	r0, #0
 1100 025c 4DE0     		b	.L146
 1101              	.LVL120:
 1102              	.L86:
 211:main.c        ****             /* Put device to discoverable mode so that remote can search it. */
 1103              		.loc 1 211 0
 1104 025e 0978     		ldrb	r1, [r1]
 1105              	.LVL121:
 1106 0260 5748     		ldr	r0, .L149+176
 1107              	.LVL122:
ARM GAS  C:\Users\user\AppData\Local\Temp\ccK5UdOJ.s 			page 35


 1108 0262 FFF7FEFF 		bl	printf
 1109              	.LVL123:
 213:main.c        ****             Disconnect_LED_Write(LED_ON);
 1110              		.loc 1 213 0
 1111 0266 FFF7FEFF 		bl	StartAdvertisement
 1112              	.LVL124:
 214:main.c        ****             Advertising_LED_Write(LED_OFF);
 1113              		.loc 1 214 0
 1114 026a 0020     		movs	r0, #0
 1115 026c FFF7FEFF 		bl	Disconnect_LED_Write
 1116              	.LVL125:
 215:main.c        ****             Connected_LED_Write(LED_OFF);
 1117              		.loc 1 215 0
 1118 0270 0120     		movs	r0, #1
 1119 0272 FFF7FEFF 		bl	Advertising_LED_Write
 1120              	.LVL126:
 1121 0276 3FE0     		b	.L145
 1122              	.LVL127:
 1123              	.L98:
 226:main.c        ****             *(uint16 *)eventParam == 0u ? "Accepted" : "Rejected");
 1124              		.loc 1 226 0
 1125 0278 0B88     		ldrh	r3, [r1]
 1126 027a 5249     		ldr	r1, .L149+180
 1127              	.LVL128:
 1128 027c 002B     		cmp	r3, #0
 1129 027e 00D0     		beq	.L127
 1130 0280 5149     		ldr	r1, .L149+184
 1131              	.L127:
 226:main.c        ****             *(uint16 *)eventParam == 0u ? "Accepted" : "Rejected");
 1132              		.loc 1 226 0 is_stmt 0 discriminator 4
 1133 0282 5248     		ldr	r0, .L149+188
 1134              	.LVL129:
 1135 0284 DAE0     		b	.L142
 1136              	.LVL130:
 1137              	.L144:
 238:main.c        ****             break;
 1138              		.loc 1 238 0 is_stmt 1
 1139 0286 334B     		ldr	r3, .L149+68
 1140 0288 1A70     		strb	r2, [r3]
 239:main.c        **** 
 1141              		.loc 1 239 0
 1142 028a D9E0     		b	.L66
 1143              	.LVL131:
 1144              	.L85:
 242:main.c        ****             break;
 1145              		.loc 1 242 0
 1146 028c 0978     		ldrb	r1, [r1]
 1147              	.LVL132:
 1148 028e 5048     		ldr	r0, .L149+192
 1149              	.LVL133:
 1150 0290 D4E0     		b	.L142
 1151              	.LVL134:
 1152              	.L68:
 246:main.c        ****             break;
 1153              		.loc 1 246 0
 1154 0292 5048     		ldr	r0, .L149+196
 1155              	.LVL135:
ARM GAS  C:\Users\user\AppData\Local\Temp\ccK5UdOJ.s 			page 36


 1156 0294 CDE0     		b	.L141
 1157              	.LVL136:
 1158              	.L147:
 250:main.c        ****             PrintState();
 1159              		.loc 1 250 0
 1160 0296 5048     		ldr	r0, .L149+200
 1161              	.LVL137:
 1162 0298 FFF7FEFF 		bl	puts
 1163              	.LVL138:
 251:main.c        ****             
 1164              		.loc 1 251 0
 1165 029c FFF7FEFF 		bl	PrintState
 1166              	.LVL139:
 253:main.c        ****             {   
 1167              		.loc 1 253 0
 1168 02a0 4E4B     		ldr	r3, .L149+204
 1169 02a2 1B78     		ldrb	r3, [r3]
 1170 02a4 042B     		cmp	r3, #4
 1171 02a6 1ED1     		bne	.L128
 258:main.c        ****                 Disconnect_LED_Write(LED_ON);
 1172              		.loc 1 258 0
 1173 02a8 4D48     		ldr	r0, .L149+208
 1174 02aa FFF7FEFF 		bl	puts
 1175              	.LVL140:
 259:main.c        ****                 Advertising_LED_Write(LED_OFF);
 1176              		.loc 1 259 0
 1177 02ae 0020     		movs	r0, #0
 1178 02b0 FFF7FEFF 		bl	Disconnect_LED_Write
 1179              	.LVL141:
 260:main.c        ****                 Connected_LED_Write(LED_OFF);
 1180              		.loc 1 260 0
 1181 02b4 0120     		movs	r0, #1
 1182 02b6 FFF7FEFF 		bl	Advertising_LED_Write
 1183              	.LVL142:
 261:main.c        ****             #if (DEBUG_UART_ENABLED == ENABLED)
 1184              		.loc 1 261 0
 1185 02ba 0120     		movs	r0, #1
 1186 02bc FFF7FEFF 		bl	Connected_LED_Write
 1187              	.LVL143:
 263:main.c        ****             #endif /* (DEBUG_UART_ENABLED == ENABLED) */
 1188              		.loc 1 263 0
 1189 02c0 0124     		movs	r4, #1
 1190              	.LVL144:
 1191              	.L129:
 263:main.c        ****             #endif /* (DEBUG_UART_ENABLED == ENABLED) */
 1192              		.loc 1 263 0 is_stmt 0 discriminator 5
 1193 02c2 FFF7FEFF 		bl	UART_DEB_SpiUartGetTxBufferSize
 1194              	.LVL145:
 1195 02c6 474B     		ldr	r3, .L149+212
 1196 02c8 1B68     		ldr	r3, [r3]
 1197 02ca DB0B     		lsrs	r3, r3, #15
 1198 02cc 2340     		ands	r3, r4
 1199 02ce 1B18     		adds	r3, r3, r0
 1200 02d0 002B     		cmp	r3, #0
 1201 02d2 F6D1     		bne	.L129
 265:main.c        ****                 Wakeup_Interrupt_ClearPending();
 1202              		.loc 1 265 0 is_stmt 1
ARM GAS  C:\Users\user\AppData\Local\Temp\ccK5UdOJ.s 			page 37


 1203 02d4 FFF7FEFF 		bl	SW2_ClearInterrupt
 1204              	.LVL146:
 266:main.c        ****                 Wakeup_Interrupt_Start();
 1205              		.loc 1 266 0
 1206 02d8 FFF7FEFF 		bl	Wakeup_Interrupt_ClearPending
 1207              	.LVL147:
 267:main.c        ****                 CySysPmHibernate();
 1208              		.loc 1 267 0
 1209 02dc FFF7FEFF 		bl	Wakeup_Interrupt_Start
 1210              	.LVL148:
 268:main.c        ****             }
 1211              		.loc 1 268 0
 1212 02e0 FFF7FEFF 		bl	CySysPmHibernate
 1213              	.LVL149:
 1214 02e4 ACE0     		b	.L66
 1215              	.LVL150:
 1216              	.L128:
 270:main.c        ****             {
 1217              		.loc 1 270 0
 1218 02e6 032B     		cmp	r3, #3
 1219 02e8 00D0     		beq	.LCB1057
 1220 02ea A9E0     		b	.L66	@long jump
 1221              	.LCB1057:
 272:main.c        ****                 Disconnect_LED_Write(LED_OFF);
 1222              		.loc 1 272 0
 1223 02ec 0020     		movs	r0, #0
 1224 02ee FFF7FEFF 		bl	Advertising_LED_Write
 1225              	.LVL151:
 273:main.c        ****                 Connected_LED_Write(LED_OFF);
 1226              		.loc 1 273 0
 1227 02f2 0120     		movs	r0, #1
 1228 02f4 FFF7FEFF 		bl	Disconnect_LED_Write
 1229              	.LVL152:
 1230              	.L145:
 274:main.c        ****             }
 1231              		.loc 1 274 0
 1232 02f8 0120     		movs	r0, #1
 1233              	.LVL153:
 1234              	.L146:
 1235 02fa FFF7FEFF 		bl	Connected_LED_Write
 1236              	.LVL154:
 1237 02fe 9FE0     		b	.L66
 1238              	.LVL155:
 1239              	.L93:
 287:main.c        ****                 ((CYBLE_CONN_HANDLE_T *)eventParam)->attId, ((CYBLE_CONN_HANDLE_T *)eventParam)->bd
 1240              		.loc 1 287 0
 1241 0300 0A78     		ldrb	r2, [r1]
 1242 0302 3948     		ldr	r0, .L149+216
 1243              	.LVL156:
 1244 0304 4978     		ldrb	r1, [r1, #1]
 1245              	.LVL157:
 1246 0306 FFF7FEFF 		bl	printf
 1247              	.LVL158:
 289:main.c        **** 
 1248              		.loc 1 289 0
 1249 030a 99E0     		b	.L66
 1250              	.LVL159:
ARM GAS  C:\Users\user\AppData\Local\Temp\ccK5UdOJ.s 			page 38


 1251              	.L90:
 292:main.c        ****             break;
 1252              		.loc 1 292 0
 1253 030c 3748     		ldr	r0, .L149+220
 1254              	.LVL160:
 1255 030e 90E0     		b	.L141
 1256              	.L150:
 1257              		.align	2
 1258              	.L149:
 1259 0310 88010000 		.word	.LC49
 1260 0314 9D010000 		.word	.LC51
 1261 0318 00000000 		.word	peerAuthInfo
 1262 031c 9D050000 		.word	.LC119
 1263 0320 0000F43F 		.word	1072955392
 1264 0324 3B050000 		.word	.LC115
 1265 0328 18040000 		.word	.LC102
 1266 032c F3060000 		.word	.LC140
 1267 0330 13070000 		.word	.LC142
 1268 0334 40080000 		.word	.LC158
 1269 0338 FB070000 		.word	.LC154
 1270 033c BB010000 		.word	.LC53
 1271 0340 D4010000 		.word	.LC55
 1272 0344 EF010000 		.word	.LC57
 1273 0348 0B020000 		.word	.LC60
 1274 034c 49020000 		.word	.LC62
 1275 0350 6E020000 		.word	.LC64
 1276 0354 00000000 		.word	.LANCHOR1
 1277 0358 A0860100 		.word	100000
 1278 035c 00000000 		.word	passkeyValue
 1279 0360 00000000 		.word	passkeyPow
 1280 0364 00000000 		.word	passkeyCounter
 1281 0368 9C020000 		.word	.LC70
 1282 036c CE020000 		.word	.LC72
 1283 0370 F2020000 		.word	.LC74
 1284 0374 F8020000 		.word	.LC76
 1285 0378 0E030000 		.word	.LC78
 1286 037c 26030000 		.word	.LC80
 1287 0380 42030000 		.word	.LC82
 1288 0384 5B030000 		.word	.LC84
 1289 0388 72030000 		.word	.LC86
 1290 038c 94030000 		.word	.LC88
 1291 0390 AB030000 		.word	.LC90
 1292 0394 BF030000 		.word	.LC92
 1293 0398 D2030000 		.word	.LC94
 1294 039c E6030000 		.word	.LC96
 1295 03a0 FE030000 		.word	.LC98
 1296 03a4 11040000 		.word	.LC100
 1297 03a8 70040000 		.word	.LC104
 1298 03ac 00000000 		.word	cyBle_connHandle
 1299 03b0 CC040000 		.word	.LC107
 1300 03b4 00000000 		.word	cyBle_authInfo
 1301 03b8 00000000 		.word	apiResult
 1302 03bc F2040000 		.word	.LC111
 1303 03c0 10050000 		.word	.LC113
 1304 03c4 76010000 		.word	.LC45
 1305 03c8 7F010000 		.word	.LC47
 1306 03cc 71050000 		.word	.LC117
ARM GAS  C:\Users\user\AppData\Local\Temp\ccK5UdOJ.s 			page 39


 1307 03d0 E0050000 		.word	.LC121
 1308 03d4 04060000 		.word	.LC123
 1309 03d8 2A060000 		.word	.LC125
 1310 03dc 00000000 		.word	cyBle_state
 1311 03e0 54060000 		.word	.LC128
 1312 03e4 08022440 		.word	1076101640
 1313 03e8 60060000 		.word	.LC130
 1314 03ec 95060000 		.word	.LC132
 1315              	.LVL161:
 1316              	.L95:
 296:main.c        ****             for(i = 0; i < ((CYBLE_GATTS_WRITE_REQ_PARAM_T *)eventParam)->handleValPair.value.len; 
 1317              		.loc 1 296 0
 1318 03f0 8989     		ldrh	r1, [r1, #12]
 1319              	.LVL162:
 1320 03f2 1448     		ldr	r0, .L151
 1321              	.LVL163:
 1322 03f4 FFF7FEFF 		bl	printf
 1323              	.LVL164:
 297:main.c        ****             {
 1324              		.loc 1 297 0
 1325 03f8 0023     		movs	r3, #0
 1326 03fa 134C     		ldr	r4, .L151+4
 1327              	.LVL165:
 1328              	.L140:
 297:main.c        ****             {
 1329              		.loc 1 297 0 is_stmt 0 discriminator 3
 1330 03fc 2380     		strh	r3, [r4]
 1331 03fe 2388     		ldrh	r3, [r4]
 1332 0400 2A89     		ldrh	r2, [r5, #8]
 1333 0402 9A42     		cmp	r2, r3
 1334 0404 07D9     		bls	.L148
 299:main.c        ****             }
 1335              		.loc 1 299 0 is_stmt 1 discriminator 3
 1336 0406 6A68     		ldr	r2, [r5, #4]
 1337 0408 1048     		ldr	r0, .L151+8
 1338 040a D15C     		ldrb	r1, [r2, r3]
 1339 040c FFF7FEFF 		bl	printf
 1340              	.LVL166:
 297:main.c        ****             {
 1341              		.loc 1 297 0 discriminator 3
 1342 0410 2388     		ldrh	r3, [r4]
 1343 0412 0133     		adds	r3, r3, #1
 1344 0414 F2E7     		b	.L140
 1345              	.L148:
 301:main.c        ****             break;
 1346              		.loc 1 301 0
 1347 0416 0E48     		ldr	r0, .L151+12
 1348 0418 0BE0     		b	.L141
 1349              	.LVL167:
 1350              	.L96:
 317:main.c        ****             break;
 1351              		.loc 1 317 0
 1352 041a 0E48     		ldr	r0, .L151+16
 1353              	.LVL168:
 1354 041c 09E0     		b	.L141
 1355              	.LVL169:
 1356              	.L88:
ARM GAS  C:\Users\user\AppData\Local\Temp\ccK5UdOJ.s 			page 40


 321:main.c        ****             break;
 1357              		.loc 1 321 0
 1358 041e 0E48     		ldr	r0, .L151+20
 1359              	.LVL170:
 1360 0420 07E0     		b	.L141
 1361              	.LVL171:
 1362              	.L100:
 330:main.c        ****                 ((CYBLE_GATTS_CHAR_VAL_READ_REQ_T *)eventParam)->attrHandle);
 1363              		.loc 1 330 0
 1364 0422 4988     		ldrh	r1, [r1, #2]
 1365              	.LVL172:
 1366 0424 0D48     		ldr	r0, .L151+24
 1367              	.LVL173:
 1368 0426 09E0     		b	.L142
 1369              	.LVL174:
 1370              	.L103:
 341:main.c        ****             break;
 1371              		.loc 1 341 0
 1372 0428 0D48     		ldr	r0, .L151+28
 1373              	.LVL175:
 1374 042a 02E0     		b	.L141
 1375              	.LVL176:
 1376              	.L106:
 345:main.c        ****             break;
 1377              		.loc 1 345 0
 1378 042c 0D48     		ldr	r0, .L151+32
 1379              	.LVL177:
 1380 042e 00E0     		b	.L141
 1381              	.LVL178:
 1382              	.L101:
 357:main.c        ****             break;
 1383              		.loc 1 357 0
 1384 0430 0D48     		ldr	r0, .L151+36
 1385              	.LVL179:
 1386              	.L141:
 367:main.c        ****             break;
 1387              		.loc 1 367 0
 1388 0432 FFF7FEFF 		bl	puts
 1389              	.LVL180:
 368:main.c        ****             
 1390              		.loc 1 368 0
 1391 0436 03E0     		b	.L66
 1392              	.LVL181:
 1393              	.L67:
 371:main.c        **** 			break;
 1394              		.loc 1 371 0
 1395 0438 2100     		movs	r1, r4
 1396              	.LVL182:
 1397 043a 0C48     		ldr	r0, .L151+40
 1398              	.L142:
 1399 043c FFF7FEFF 		bl	printf
 1400              	.LVL183:
 1401              	.L66:
 374:main.c        **** 
 1402              		.loc 1 374 0
 1403              		@ sp needed
 1404              	.LVL184:
ARM GAS  C:\Users\user\AppData\Local\Temp\ccK5UdOJ.s 			page 41


 1405 0440 37BD     		pop	{r0, r1, r2, r4, r5, pc}
 1406              	.L152:
 1407 0442 C046     		.align	2
 1408              	.L151:
 1409 0444 B5060000 		.word	.LC134
 1410 0448 00000000 		.word	i
 1411 044c EC060000 		.word	.LC137
 1412 0450 97000000 		.word	.LC19
 1413 0454 36070000 		.word	.LC144
 1414 0458 57070000 		.word	.LC146
 1415 045c 78070000 		.word	.LC148
 1416 0460 B0070000 		.word	.LC150
 1417 0464 D5070000 		.word	.LC152
 1418 0468 18080000 		.word	.LC156
 1419 046c 5F080000 		.word	.LC160
 1420              		.cfi_endproc
 1421              	.LFE36:
 1422              		.size	AppCallBack, .-AppCallBack
 1423              		.comm	peerAuthInfo,5,1
 1424              		.global	customCommand
 1425              		.comm	command,1,1
 1426              		.comm	passkeyCounter,1,1
 1427              		.comm	passkeyPow,4,4
 1428              		.comm	passkeyValue,4,4
 1429              		.global	authState
 1430              		.comm	i,2,2
 1431              		.comm	apiResult,2,2
 1432              		.section	.rodata.str1.1,"aMS",%progbits,1
 1433              	.LC4:
 1434 0000 41636365 		.ascii	"Accept displayed passkey \015\000"
 1434      70742064 
 1434      6973706C 
 1434      61796564 
 1434      20706173 
 1435              	.LC8:
 1436 001b 4379426C 		.ascii	"CyBle_GapAuthPassKeyReply API Error : \000"
 1436      655F4761 
 1436      70417574 
 1436      68506173 
 1436      734B6579 
 1437              	.LC10:
 1438 0042 52656A65 		.ascii	"Reject displayed passkey \015\000"
 1438      63742064 
 1438      6973706C 
 1438      61796564 
 1438      20706173 
 1439              	.LC12:
 1440 005d 57726F6E 		.ascii	"Wrong key entered. Press 'y' or 'n'\015\000"
 1440      67206B65 
 1440      7920656E 
 1440      74657265 
 1440      642E2050 
 1441              	.LC17:
 1442 0082 57726F6E 		.ascii	"Wrong key entered. \015\000"
 1442      67206B65 
 1442      7920656E 
 1442      74657265 
ARM GAS  C:\Users\user\AppData\Local\Temp\ccK5UdOJ.s 			page 42


 1442      642E200D 
 1443              	.LC19:
 1444 0097 0D00     		.ascii	"\015\000"
 1445              	.LC21:
 1446 0099 4379426C 		.ascii	"CyBle_GapAuthPassKeyReply API Error: \000"
 1446      655F4761 
 1446      70417574 
 1446      68506173 
 1446      734B6579 
 1447              	.LC23:
 1448 00bf 0D0A436F 		.ascii	"\015\012Continuous Glucose Monitoring Sensor Exampl"
 1448      6E74696E 
 1448      756F7573 
 1448      20476C75 
 1448      636F7365 
 1449 00ec 65205072 		.ascii	"e Project\015\000"
 1449      6F6A6563 
 1449      740D00
 1450              	.LC27:
 1451 00f7 4379426C 		.ascii	"CyBle_Start API Error: \000"
 1451      655F5374 
 1451      61727420 
 1451      41504920 
 1451      4572726F 
 1452              	.LC33:
 1453 010f 53746F72 		.ascii	"Store bonding data, status: %x \015\012\000"
 1453      6520626F 
 1453      6E64696E 
 1453      67206461 
 1453      74612C20 
 1454              	.LC38:
 1455 0131 53746172 		.ascii	"StartAdvertisement API Error: \000"
 1455      74416476 
 1455      65727469 
 1455      73656D65 
 1455      6E742041 
 1456              	.LC40:
 1457 0150 53746172 		.ascii	"Start Advertisement with addr: \000"
 1457      74204164 
 1457      76657274 
 1457      6973656D 
 1457      656E7420 
 1458              	.LC42:
 1459 0170 25322E32 		.ascii	"%2.2x\000"
 1459      7800
 1460              	.LC45:
 1461 0176 41636365 		.ascii	"Accepted\000"
 1461      70746564 
 1461      00
 1462              	.LC47:
 1463 017f 52656A65 		.ascii	"Rejected\000"
 1463      63746564 
 1463      00
 1464              	.LC49:
 1465 0188 4359424C 		.ascii	"CYBLE_EVT_STACK_ON \015\000"
 1465      455F4556 
 1465      545F5354 
ARM GAS  C:\Users\user\AppData\Local\Temp\ccK5UdOJ.s 			page 43


 1465      41434B5F 
 1465      4F4E200D 
 1466              	.LC51:
 1467 019d 4359424C 		.ascii	"CYBLE_EVT_STACK_BUSY_STATUS \015\000"
 1467      455F4556 
 1467      545F5354 
 1467      41434B5F 
 1467      42555359 
 1468              	.LC53:
 1469 01bb 4359424C 		.ascii	"CYBLE_EVT_TIMEOUT: %d \015\012\000"
 1469      455F4556 
 1469      545F5449 
 1469      4D454F55 
 1469      543A2025 
 1470              	.LC55:
 1471 01d4 4359424C 		.ascii	"CYBLE_EVT_HARDWARE_ERROR \015\000"
 1471      455F4556 
 1471      545F4841 
 1471      52445741 
 1471      52455F45 
 1472              	.LC57:
 1473 01ef 4359424C 		.ascii	"CYBLE_EVT_HCI_STATUS: %x \015\012\000"
 1473      455F4556 
 1473      545F4843 
 1473      495F5354 
 1473      41545553 
 1474              	.LC60:
 1475 020b 4556545F 		.ascii	"EVT_AUTH_REQ: security=%x, bonding=%x, ekeySize=%x,"
 1475      41555448 
 1475      5F524551 
 1475      3A207365 
 1475      63757269 
 1476 023e 20657272 		.ascii	" err=%x \015\012\000"
 1476      3D257820 
 1476      0D0A00
 1477              	.LC62:
 1478 0249 4359424C 		.ascii	"CYBLE_EVT_GAP_PASSKEY_ENTRY_REQUEST\015\000"
 1478      455F4556 
 1478      545F4741 
 1478      505F5041 
 1478      53534B45 
 1479              	.LC64:
 1480 026e 456E7465 		.ascii	"Enter the passkey shown in the peer device: \015\000"
 1480      72207468 
 1480      65207061 
 1480      73736B65 
 1480      79207368 
 1481              	.LC70:
 1482 029c 456E7465 		.ascii	"Enter this passkey in your peer device: %6.6ld \015"
 1482      72207468 
 1482      69732070 
 1482      6173736B 
 1482      65792069 
 1483 02cc 0A00     		.ascii	"\012\000"
 1484              	.LC72:
 1485 02ce 4359424C 		.ascii	"CYBLE_EVT_GAP_AUTH_FAILED, reason: \000"
 1485      455F4556 
ARM GAS  C:\Users\user\AppData\Local\Temp\ccK5UdOJ.s 			page 44


 1485      545F4741 
 1485      505F4155 
 1485      54485F46 
 1486              	.LC74:
 1487 02f2 4E4F4E45 		.ascii	"NONE\015\000"
 1487      0D00
 1488              	.LC76:
 1489 02f8 50415353 		.ascii	"PASSKEY_ENTRY_FAILED\015\000"
 1489      4B45595F 
 1489      454E5452 
 1489      595F4641 
 1489      494C4544 
 1490              	.LC78:
 1491 030e 4F4F425F 		.ascii	"OOB_DATA_NOT_AVAILABLE\015\000"
 1491      44415441 
 1491      5F4E4F54 
 1491      5F415641 
 1491      494C4142 
 1492              	.LC80:
 1493 0326 41555448 		.ascii	"AUTHENTICATION_REQ_NOT_MET\015\000"
 1493      454E5449 
 1493      43415449 
 1493      4F4E5F52 
 1493      45515F4E 
 1494              	.LC82:
 1495 0342 434F4E46 		.ascii	"CONFIRM_VALUE_NOT_MATCH\015\000"
 1495      49524D5F 
 1495      56414C55 
 1495      455F4E4F 
 1495      545F4D41 
 1496              	.LC84:
 1497 035b 50414952 		.ascii	"PAIRING_NOT_SUPPORTED\015\000"
 1497      494E475F 
 1497      4E4F545F 
 1497      53555050 
 1497      4F525445 
 1498              	.LC86:
 1499 0372 494E5355 		.ascii	"INSUFFICIENT_ENCRYPTION_KEY_SIZE\015\000"
 1499      46464943 
 1499      49454E54 
 1499      5F454E43 
 1499      52595054 
 1500              	.LC88:
 1501 0394 434F4D4D 		.ascii	"COMMAND_NOT_SUPPORTED\015\000"
 1501      414E445F 
 1501      4E4F545F 
 1501      53555050 
 1501      4F525445 
 1502              	.LC90:
 1503 03ab 554E5350 		.ascii	"UNSPECIFIED_REASON\015\000"
 1503      45434946 
 1503      4945445F 
 1503      52454153 
 1503      4F4E0D00 
 1504              	.LC92:
 1505 03bf 52455045 		.ascii	"REPEATED_ATTEMPTS\015\000"
 1505      41544544 
ARM GAS  C:\Users\user\AppData\Local\Temp\ccK5UdOJ.s 			page 45


 1505      5F415454 
 1505      454D5054 
 1505      530D00
 1506              	.LC94:
 1507 03d2 494E5641 		.ascii	"INVALID_PARAMETERS\015\000"
 1507      4C49445F 
 1507      50415241 
 1507      4D455445 
 1507      52530D00 
 1508              	.LC96:
 1509 03e6 41555448 		.ascii	"AUTHENTICATION_TIMEOUT\015\000"
 1509      454E5449 
 1509      43415449 
 1509      4F4E5F54 
 1509      494D454F 
 1510              	.LC98:
 1511 03fe 4C494E4B 		.ascii	"LINK_DISCONNECTED\015\000"
 1511      5F444953 
 1511      434F4E4E 
 1511      45435445 
 1511      440D00
 1512              	.LC100:
 1513 0411 30782578 		.ascii	"0x%x\015\012\000"
 1513      0D0A00
 1514              	.LC102:
 1515 0418 436F6D70 		.ascii	"Compare this passkey with displayed in your peer de"
 1515      61726520 
 1515      74686973 
 1515      20706173 
 1515      736B6579 
 1516 044b 76696365 		.ascii	"vice and press 'y' or 'n': %6.6ld \015\012\000"
 1516      20616E64 
 1516      20707265 
 1516      73732027 
 1516      7927206F 
 1517              	.LC104:
 1518 0470 4359424C 		.ascii	"CYBLE_EVT_GAP_SMP_NEGOTIATED_AUTH_INFO: security:%x"
 1518      455F4556 
 1518      545F4741 
 1518      505F534D 
 1518      505F4E45 
 1519 04a3 2C20626F 		.ascii	", bonding:%x, ekeySize:%x, authErr %x \015\012\000"
 1519      6E64696E 
 1519      673A2578 
 1519      2C20656B 
 1519      65795369 
 1520              	.LC107:
 1521 04cc 4359424C 		.ascii	"CYBLE_EVT_GAP_DEVICE_CONNECTED: %x \015\012\000"
 1521      455F4556 
 1521      545F4741 
 1521      505F4445 
 1521      56494345 
 1522              	.LC111:
 1523 04f2 20437942 		.ascii	" CyBle_GapAuthReq API Error: \000"
 1523      6C655F47 
 1523      61704175 
 1523      74685265 
ARM GAS  C:\Users\user\AppData\Local\Temp\ccK5UdOJ.s 			page 46


 1523      71204150 
 1524              	.LC113:
 1525 0510 4556545F 		.ascii	"EVT_GAP_DEVICE_DISCONNECTED, reason: %x \015\012\000"
 1525      4741505F 
 1525      44455649 
 1525      43455F44 
 1525      4953434F 
 1526              	.LC115:
 1527 053b 4359424C 		.ascii	"CYBLE_EVT_GAP_DEVICE_CONNECTED: connIntv = %.2f ms."
 1527      455F4556 
 1527      545F4741 
 1527      505F4445 
 1527      56494345 
 1528 056e 0D0A00   		.ascii	"\015\012\000"
 1529              	.LC117:
 1530 0571 4359424C 		.ascii	"CYBLE_EVT_L2CAP_CONN_PARAM_UPDATE_RSP: %s\015\012\000"
 1530      455F4556 
 1530      545F4C32 
 1530      4341505F 
 1530      434F4E4E 
 1531              	.LC119:
 1532 059d 41555448 		.ascii	"AUTH_COMPLETE: security:%x, bonding:%x, ekeySize:%x"
 1532      5F434F4D 
 1532      504C4554 
 1532      453A2073 
 1532      65637572 
 1533 05d0 2C206175 		.ascii	", authErr %x \015\012\000"
 1533      74684572 
 1533      72202578 
 1533      200D0A00 
 1534              	.LC121:
 1535 05e0 4359424C 		.ascii	"CYBLE_EVT_GAP_ENCRYPT_CHANGE: %d \015\012\000"
 1535      455F4556 
 1535      545F4741 
 1535      505F454E 
 1535      43525950 
 1536              	.LC123:
 1537 0604 4359424C 		.ascii	"CYBLE_EVT_GAP_KEYINFO_EXCHNGE_CMPLT \015\000"
 1537      455F4556 
 1537      545F4741 
 1537      505F4B45 
 1537      59494E46 
 1538              	.LC125:
 1539 062a 4359424C 		.ascii	"CYBLE_EVT_GAPP_ADVERTISEMENT_START_STOP \015\000"
 1539      455F4556 
 1539      545F4741 
 1539      50505F41 
 1539      44564552 
 1540              	.LC128:
 1541 0654 48696265 		.ascii	"Hibernate \015\000"
 1541      726E6174 
 1541      65200D00 
 1542              	.LC130:
 1543 0660 4359424C 		.ascii	"CYBLE_EVT_GATT_CONNECT_IND: attId %x, bdHandle %x \015"
 1543      455F4556 
 1543      545F4741 
 1543      54545F43 
ARM GAS  C:\Users\user\AppData\Local\Temp\ccK5UdOJ.s 			page 47


 1543      4F4E4E45 
 1544 0693 0A00     		.ascii	"\012\000"
 1545              	.LC132:
 1546 0695 4359424C 		.ascii	"CYBLE_EVT_GATT_DISCONNECT_IND \015\000"
 1546      455F4556 
 1546      545F4741 
 1546      54545F44 
 1546      4953434F 
 1547              	.LC134:
 1548 06b5 4359424C 		.ascii	"CYBLE_EVT_GATTS_WRITE_REQ attr handle: %4.4x , valu"
 1548      455F4556 
 1548      545F4741 
 1548      5454535F 
 1548      57524954 
 1549 06e8 653A2000 		.ascii	"e: \000"
 1550              	.LC137:
 1551 06ec 25322E32 		.ascii	"%2.2x \000"
 1551      782000
 1552              	.LC140:
 1553 06f3 4359424C 		.ascii	"CYBLE_EVT_GATTS_XCNHG_MTU_REQ \015\000"
 1553      455F4556 
 1553      545F4741 
 1553      5454535F 
 1553      58434E48 
 1554              	.LC142:
 1555 0713 4359424C 		.ascii	"CYBLE_EVT_GATTS_HANDLE_VALUE_CNF \015\000"
 1555      455F4556 
 1555      545F4741 
 1555      5454535F 
 1555      48414E44 
 1556              	.LC144:
 1557 0736 4359424C 		.ascii	"CYBLE_EVT_GATTS_PREP_WRITE_REQ \015\000"
 1557      455F4556 
 1557      545F4741 
 1557      5454535F 
 1557      50524550 
 1558              	.LC146:
 1559 0757 4359424C 		.ascii	"CYBLE_EVT_GATTS_EXEC_WRITE_REQ \015\000"
 1559      455F4556 
 1559      545F4741 
 1559      5454535F 
 1559      45584543 
 1560              	.LC148:
 1561 0778 4359424C 		.ascii	"CYBLE_EVT_GATTS_READ_CHAR_VAL_ACCESS_REQ: handle: %"
 1561      455F4556 
 1561      545F4741 
 1561      5454535F 
 1561      52454144 
 1562 07ab 78200D0A 		.ascii	"x \015\012\000"
 1562      00
 1563              	.LC150:
 1564 07b0 4359424C 		.ascii	"CYBLE_EVT_GATTS_INDICATION_ENABLED \015\000"
 1564      455F4556 
 1564      545F4741 
 1564      5454535F 
 1564      494E4449 
 1565              	.LC152:
ARM GAS  C:\Users\user\AppData\Local\Temp\ccK5UdOJ.s 			page 48


 1566 07d5 4359424C 		.ascii	"CYBLE_EVT_GATTS_INDICATION_DISABLED \015\000"
 1566      455F4556 
 1566      545F4741 
 1566      5454535F 
 1566      494E4449 
 1567              	.LC154:
 1568 07fb 4359424C 		.ascii	"CYBLE_EVT_GATTS_INDICATION \015\000"
 1568      455F4556 
 1568      545F4741 
 1568      5454535F 
 1568      494E4449 
 1569              	.LC156:
 1570 0818 4359424C 		.ascii	"CYBLE_EVT_L2CAP_CONN_PARAM_UPDATE_REQ \015\000"
 1570      455F4556 
 1570      545F4C32 
 1570      4341505F 
 1570      434F4E4E 
 1571              	.LC158:
 1572 0840 4359424C 		.ascii	"CYBLE_EVT_PENDING_FLASH_WRITE\015\000"
 1572      455F4556 
 1572      545F5045 
 1572      4E44494E 
 1572      475F464C 
 1573              	.LC160:
 1574 085f 6F746865 		.ascii	"other event: 0x%lx \015\012\000"
 1574      72206576 
 1574      656E743A 
 1574      20307825 
 1574      6C78200D 
 1575              		.data
 1576              		.set	.LANCHOR0,. + 0
 1577              		.type	led.8729, %object
 1578              		.size	led.8729, 1
 1579              	led.8729:
 1580 0000 01       		.byte	1
 1581              		.bss
 1582              		.set	.LANCHOR1,. + 0
 1583              		.type	authState, %object
 1584              		.size	authState, 1
 1585              	authState:
 1586 0000 00       		.space	1
 1587              		.type	customCommand, %object
 1588              		.size	customCommand, 1
 1589              	customCommand:
 1590 0001 00       		.space	1
 1591              		.text
 1592              	.Letext0:
 1593              		.file 2 "Generated_Source\\PSoC4/cytypes.h"
 1594              		.file 3 "Generated_Source\\PSoC4/BLE_Stack.h"
 1595              		.file 4 "Generated_Source\\PSoC4/BLE_StackGap.h"
 1596              		.file 5 "Generated_Source\\PSoC4/BLE_StackGatt.h"
 1597              		.file 6 "Generated_Source\\PSoC4/BLE_StackGattServer.h"
 1598              		.file 7 "Generated_Source\\PSoC4/BLE_cgms.h"
 1599              		.file 8 "Generated_Source\\PSoC4/BLE_dis.h"
 1600              		.file 9 "Generated_Source\\PSoC4/BLE_eventHandler.h"
 1601              		.file 10 "main.h"
 1602              		.file 11 "Generated_Source\\PSoC4/BLE.h"
ARM GAS  C:\Users\user\AppData\Local\Temp\ccK5UdOJ.s 			page 49


 1603              		.file 12 "Generated_Source\\PSoC4/Advertising_LED.h"
 1604              		.file 13 "Generated_Source\\PSoC4/UART_DEB_SPI_UART.h"
 1605              		.file 14 "c:\\program files (x86)\\cypress\\psoc creator\\4.4\\psoc creator\\import\\gnu\\arm\\5.4
 1606              		.file 15 "debug.h"
 1607              		.file 16 "Generated_Source\\PSoC4/CyLib.h"
 1608              		.file 17 "Generated_Source\\PSoC4/cyPm.h"
 1609              		.file 18 "Generated_Source\\PSoC4/UART_DEB.h"
 1610              		.file 19 "Generated_Source\\PSoC4/Disconnect_LED.h"
 1611              		.file 20 "Generated_Source\\PSoC4/Connected_LED.h"
 1612              		.file 21 "cgmss.h"
 1613              		.file 22 "bmss.h"
 1614              		.file 23 "Generated_Source\\PSoC4/CyLFClk.h"
 1615              		.file 24 "Generated_Source\\PSoC4/SW2.h"
 1616              		.file 25 "Generated_Source\\PSoC4/Wakeup_Interrupt.h"
 1617              		.file 26 "<built-in>"