ARM GAS  C:\Users\user\AppData\Local\Temp\ccfsL0T0.s 			page 1


   1              		.syntax unified
   2              		.cpu cortex-m0
   3              		.fpu softvfp
   4              		.eabi_attribute 20, 1
   5              		.eabi_attribute 21, 1
   6              		.eabi_attribute 23, 3
   7              		.eabi_attribute 24, 1
   8              		.eabi_attribute 25, 1
   9              		.eabi_attribute 26, 1
  10              		.eabi_attribute 30, 6
  11              		.eabi_attribute 34, 0
  12              		.eabi_attribute 18, 4
  13              		.thumb
  14              		.syntax unified
  15              		.file	"bmss.c"
  16              		.text
  17              	.Ltext0:
  18              		.cfi_sections	.debug_frame
  19              		.comm	bdList,29,4
  20              		.comm	peerBdAddr,7,4
  21              		.global	unbond
  22              		.bss
  23              		.type	unbond, %object
  24              		.size	unbond, 1
  25              	unbond:
  26 0000 00       		.space	1
  27              		.global	bmcp
  28              		.type	bmcp, %object
  29              		.size	bmcp, 1
  30              	bmcp:
  31 0001 00       		.space	1
  32              		.global	authCode
  33              		.section	.rodata
  34              		.align	2
  35              	.LC0:
  36 0000 30616263 		.ascii	"0abcdef\000"
  36      64656600 
  37              		.data
  38              		.align	2
  39              		.type	authCode, %object
  40              		.size	authCode, 4
  41              	authCode:
  42 0000 00000000 		.word	.LC0
  43              		.section	.text.BmsInit,"ax",%progbits
  44              		.align	2
  45              		.global	BmsInit
  46              		.code	16
  47              		.thumb_func
  48              		.type	BmsInit, %function
  49              	BmsInit:
  50              	.LFB36:
  51              		.file 1 "bmss.c"
   1:bmss.c        **** /*******************************************************************************
   2:bmss.c        **** * File Name: bmss.c
   3:bmss.c        **** *
   4:bmss.c        **** * Version 1.0
   5:bmss.c        **** *
ARM GAS  C:\Users\user\AppData\Local\Temp\ccfsL0T0.s 			page 2


   6:bmss.c        **** * Description:
   7:bmss.c        **** *  This file contains the Bond Management Service related code.
   8:bmss.c        **** *
   9:bmss.c        **** * Hardware Dependency:
  10:bmss.c        **** *  CY8CKIT-042 BLE
  11:bmss.c        **** *
  12:bmss.c        **** ********************************************************************************
  13:bmss.c        **** * Copyright 2016, Cypress Semiconductor Corporation.  All rights reserved.
  14:bmss.c        **** * You may use this file only in accordance with the license, terms, conditions,
  15:bmss.c        **** * disclaimers, and limitations in the end user license agreement accompanying
  16:bmss.c        **** * the software package with which this file was provided.
  17:bmss.c        **** *******************************************************************************/
  18:bmss.c        **** 
  19:bmss.c        **** #include "bmss.h"
  20:bmss.c        **** 
  21:bmss.c        **** CYBLE_GAP_BONDED_DEV_ADDR_LIST_T bdList;
  22:bmss.c        **** CYBLE_GAP_BD_ADDR_T peerBdAddr;
  23:bmss.c        **** uint8 unbond = 0u;
  24:bmss.c        **** uint8 bmcp = 0u;
  25:bmss.c        **** 
  26:bmss.c        **** char8 *authCode = "0abcdef";
  27:bmss.c        **** 
  28:bmss.c        **** 
  29:bmss.c        **** /******************************************************************************
  30:bmss.c        **** ##Function Name: BmsInit
  31:bmss.c        **** *******************************************************************************
  32:bmss.c        **** 
  33:bmss.c        **** Summary:
  34:bmss.c        ****   Registers the BMS CallBack.
  35:bmss.c        **** 
  36:bmss.c        **** ******************************************************************************/
  37:bmss.c        **** void BmsInit(void)
  38:bmss.c        **** {
  52              		.loc 1 38 0
  53              		.cfi_startproc
  54              		@ args = 0, pretend = 0, frame = 0
  55              		@ frame_needed = 1, uses_anonymous_args = 0
  56 0000 80B5     		push	{r7, lr}
  57              		.cfi_def_cfa_offset 8
  58              		.cfi_offset 7, -8
  59              		.cfi_offset 14, -4
  60 0002 00AF     		add	r7, sp, #0
  61              		.cfi_def_cfa_register 7
  39:bmss.c        ****     CyBle_BmsRegisterAttrCallback(BmsCallBack);
  62              		.loc 1 39 0
  63 0004 034B     		ldr	r3, .L2
  64 0006 1800     		movs	r0, r3
  65 0008 FFF7FEFF 		bl	CyBle_BmsRegisterAttrCallback
  40:bmss.c        **** }
  66              		.loc 1 40 0
  67 000c C046     		nop
  68 000e BD46     		mov	sp, r7
  69              		@ sp needed
  70 0010 80BD     		pop	{r7, pc}
  71              	.L3:
  72 0012 C046     		.align	2
  73              	.L2:
ARM GAS  C:\Users\user\AppData\Local\Temp\ccfsL0T0.s 			page 3


  74 0014 00000000 		.word	BmsCallBack
  75              		.cfi_endproc
  76              	.LFE36:
  77              		.size	BmsInit, .-BmsInit
  78              		.section	.rodata
  79              		.align	2
  80              	.LC2:
  81 0008 424D4350 		.ascii	"BMCP write request: \000"
  81      20777269 
  81      74652072 
  81      65717565 
  81      73743A20 
  82 001d 000000   		.align	2
  83              	.LC5:
  84 0020 25322E32 		.ascii	"%2.2x \000"
  84      782000
  85 0027 00       		.align	2
  86              	.LC7:
  87 0028 0D00     		.ascii	"\015\000"
  88 002a 0000     		.align	2
  89              	.LC10:
  90 002c 4F70436F 		.ascii	"OpCode: Delete bond of requesting device\015\000"
  90      64653A20 
  90      44656C65 
  90      74652062 
  90      6F6E6420 
  91 0056 0000     		.align	2
  92              	.LC12:
  93 0058 4F70436F 		.ascii	"OpCode: Delete all bonds on server\015\000"
  93      64653A20 
  93      44656C65 
  93      74652061 
  93      6C6C2062 
  94              		.align	2
  95              	.LC14:
  96 007c 4F70436F 		.ascii	"OpCode: Delete all but the active bond on server\015"
  96      64653A20 
  96      44656C65 
  96      74652061 
  96      6C6C2062 
  97 00ad 00       		.ascii	"\000"
  98 00ae 0000     		.align	2
  99              	.LC16:
 100 00b0 756E7375 		.ascii	"unsupported BMCP OpCode: 0x%x \015\012\000"
 100      70706F72 
 100      74656420 
 100      424D4350 
 100      204F7043 
 101 00d1 000000   		.align	2
 102              	.LC19:
 103 00d4 74686973 		.ascii	"this OpCode not supported\015\000"
 103      204F7043 
 103      6F646520 
 103      6E6F7420 
 103      73757070 
 104 00ef 00       		.align	2
 105              	.LC24:
ARM GAS  C:\Users\user\AppData\Local\Temp\ccfsL0T0.s 			page 4


 106 00f0 4379426C 		.ascii	"CyBle_GapGetPeerBdAddr API result: \000"
 106      655F4761 
 106      70476574 
 106      50656572 
 106      42644164 
 107              		.align	2
 108              	.LC27:
 109 0114 4379426C 		.ascii	"CyBle_GapGetBondedDevicesList API result: \000"
 109      655F4761 
 109      70476574 
 109      426F6E64 
 109      65644465 
 110 013f 00       		.align	2
 111              	.LC29:
 112 0140 47617474 		.ascii	"Gatt error: \000"
 112      20657272 
 112      6F723A20 
 112      00
 113 014d 000000   		.align	2
 114              	.LC31:
 115 0150 4F6B0D00 		.ascii	"Ok\015\000"
 116              		.align	2
 117              	.LC33:
 118 0154 4F702043 		.ascii	"Op Code Not Supported\015\000"
 118      6F646520 
 118      4E6F7420 
 118      53757070 
 118      6F727465 
 119 016b 00       		.align	2
 120              	.LC35:
 121 016c 496E7375 		.ascii	"Insufficient Authorization\015\000"
 121      66666963 
 121      69656E74 
 121      20417574 
 121      686F7269 
 122              		.align	2
 123              	.LC37:
 124 0188 756E6578 		.ascii	"unexpected 0x%2.2x\015\012\000"
 124      70656374 
 124      65642030 
 124      7825322E 
 124      32780D0A 
 125 019d 000000   		.align	2
 126              	.LC39:
 127 01a0 756E6B6E 		.ascii	"unknown BMS event: 0x%lx \015\012\000"
 127      6F776E20 
 127      424D5320 
 127      6576656E 
 127      743A2030 
 128              		.section	.text.BmsCallBack,"ax",%progbits
 129              		.align	2
 130              		.global	BmsCallBack
 131              		.code	16
 132              		.thumb_func
 133              		.type	BmsCallBack, %function
 134              	BmsCallBack:
 135              	.LFB37:
ARM GAS  C:\Users\user\AppData\Local\Temp\ccfsL0T0.s 			page 5


  41:bmss.c        **** 
  42:bmss.c        **** 
  43:bmss.c        **** /******************************************************************************
  44:bmss.c        **** ##Function Name: BmsCallBack
  45:bmss.c        **** *******************************************************************************
  46:bmss.c        **** 
  47:bmss.c        **** Summary:
  48:bmss.c        ****   A CallBack function to handle BMS specific events.
  49:bmss.c        **** 
  50:bmss.c        **** ******************************************************************************/
  51:bmss.c        **** 
  52:bmss.c        **** void BmsCallBack(uint32 event, void* eventParam)
  53:bmss.c        **** {   
 136              		.loc 1 53 0
 137              		.cfi_startproc
 138              		@ args = 0, pretend = 0, frame = 16
 139              		@ frame_needed = 1, uses_anonymous_args = 0
 140 0000 80B5     		push	{r7, lr}
 141              		.cfi_def_cfa_offset 8
 142              		.cfi_offset 7, -8
 143              		.cfi_offset 14, -4
 144 0002 84B0     		sub	sp, sp, #16
 145              		.cfi_def_cfa_offset 24
 146 0004 00AF     		add	r7, sp, #0
 147              		.cfi_def_cfa_register 7
 148 0006 7860     		str	r0, [r7, #4]
 149 0008 3960     		str	r1, [r7]
  54:bmss.c        ****     switch(event)
 150              		.loc 1 54 0
 151 000a 7A68     		ldr	r2, [r7, #4]
 152 000c A423     		movs	r3, #164
 153 000e 5B00     		lsls	r3, r3, #1
 154 0010 9A42     		cmp	r2, r3
 155 0012 00D0     		beq	.LCB45
 156 0014 29E1     		b	.L29	@long jump
 157              	.LCB45:
 158              	.LBB2:
  55:bmss.c        ****     {
  56:bmss.c        ****         case CYBLE_EVT_BMSS_WRITE_CHAR:
  57:bmss.c        ****             {
  58:bmss.c        ****                 uint8 features[3u];
  59:bmss.c        ****                 uint8 byteNumber;
  60:bmss.c        ****                 uint8 opCodeFlag;
  61:bmss.c        ****                 uint8 authCodeFlag;
  62:bmss.c        ****                 
  63:bmss.c        ****                 CYBLE_GATT_ERR_CODE_T bmsGattError = CYBLE_GATT_ERR_NONE;
 159              		.loc 1 63 0
 160 0016 0C23     		movs	r3, #12
 161 0018 FB18     		adds	r3, r7, r3
 162 001a 0022     		movs	r2, #0
 163 001c 1A70     		strb	r2, [r3]
  64:bmss.c        ****                 
  65:bmss.c        ****                 DBG_PRINTF("BMCP write request: ");
 164              		.loc 1 65 0
 165 001e 984B     		ldr	r3, .L32
 166 0020 1800     		movs	r0, r3
 167 0022 FFF7FEFF 		bl	printf
ARM GAS  C:\Users\user\AppData\Local\Temp\ccfsL0T0.s 			page 6


  66:bmss.c        ****                 for(i = 0; i < ((CYBLE_BMS_CHAR_VALUE_T*)eventParam)->value->len; i++)
 168              		.loc 1 66 0
 169 0026 974B     		ldr	r3, .L32+4
 170 0028 0022     		movs	r2, #0
 171 002a 1A80     		strh	r2, [r3]
 172 002c 12E0     		b	.L7
 173              	.L8:
  67:bmss.c        ****                 {
  68:bmss.c        ****                     DBG_PRINTF("%2.2x ", ((CYBLE_BMS_CHAR_VALUE_T*)eventParam)->value->val[i]);
 174              		.loc 1 68 0 discriminator 3
 175 002e 3B68     		ldr	r3, [r7]
 176 0030 5B68     		ldr	r3, [r3, #4]
 177 0032 1B68     		ldr	r3, [r3]
 178 0034 934A     		ldr	r2, .L32+4
 179 0036 1288     		ldrh	r2, [r2]
 180 0038 9B18     		adds	r3, r3, r2
 181 003a 1B78     		ldrb	r3, [r3]
 182 003c 1A00     		movs	r2, r3
 183 003e 924B     		ldr	r3, .L32+8
 184 0040 1100     		movs	r1, r2
 185 0042 1800     		movs	r0, r3
 186 0044 FFF7FEFF 		bl	printf
  66:bmss.c        ****                 for(i = 0; i < ((CYBLE_BMS_CHAR_VALUE_T*)eventParam)->value->len; i++)
 187              		.loc 1 66 0 discriminator 3
 188 0048 8E4B     		ldr	r3, .L32+4
 189 004a 1B88     		ldrh	r3, [r3]
 190 004c 0133     		adds	r3, r3, #1
 191 004e 9AB2     		uxth	r2, r3
 192 0050 8C4B     		ldr	r3, .L32+4
 193 0052 1A80     		strh	r2, [r3]
 194              	.L7:
  66:bmss.c        ****                 for(i = 0; i < ((CYBLE_BMS_CHAR_VALUE_T*)eventParam)->value->len; i++)
 195              		.loc 1 66 0 is_stmt 0 discriminator 1
 196 0054 3B68     		ldr	r3, [r7]
 197 0056 5B68     		ldr	r3, [r3, #4]
 198 0058 9A88     		ldrh	r2, [r3, #4]
 199 005a 8A4B     		ldr	r3, .L32+4
 200 005c 1B88     		ldrh	r3, [r3]
 201 005e 9A42     		cmp	r2, r3
 202 0060 E5D8     		bhi	.L8
  69:bmss.c        ****                 }
  70:bmss.c        ****                 DBG_PRINTF("\r\n");
 203              		.loc 1 70 0 is_stmt 1
 204 0062 8A4B     		ldr	r3, .L32+12
 205 0064 1800     		movs	r0, r3
 206 0066 FFF7FEFF 		bl	puts
  71:bmss.c        ****                 
  72:bmss.c        ****                 bmcp = ((CYBLE_BMS_CHAR_VALUE_T*)eventParam)->value->val[0];
 207              		.loc 1 72 0
 208 006a 3B68     		ldr	r3, [r7]
 209 006c 5B68     		ldr	r3, [r3, #4]
 210 006e 1B68     		ldr	r3, [r3]
 211 0070 1A78     		ldrb	r2, [r3]
 212 0072 874B     		ldr	r3, .L32+16
 213 0074 1A70     		strb	r2, [r3]
  73:bmss.c        ****                 
  74:bmss.c        ****                 switch(bmcp)
ARM GAS  C:\Users\user\AppData\Local\Temp\ccfsL0T0.s 			page 7


 214              		.loc 1 74 0
 215 0076 864B     		ldr	r3, .L32+16
 216 0078 1B78     		ldrb	r3, [r3]
 217 007a 062B     		cmp	r3, #6
 218 007c 14D0     		beq	.L10
 219 007e 092B     		cmp	r3, #9
 220 0080 23D0     		beq	.L11
 221 0082 032B     		cmp	r3, #3
 222 0084 32D1     		bne	.L30
  75:bmss.c        ****                 {
  76:bmss.c        ****                     case CYBLE_BMS_BMCP_OPC_RD:
  77:bmss.c        ****                         DBG_PRINTF("OpCode: Delete bond of requesting device\r\n");
 223              		.loc 1 77 0
 224 0086 834B     		ldr	r3, .L32+20
 225 0088 1800     		movs	r0, r3
 226 008a FFF7FEFF 		bl	puts
  78:bmss.c        ****                         byteNumber = CYBLE_BMS_BMFT_FIRST_BYTE;
 227              		.loc 1 78 0
 228 008e 0F23     		movs	r3, #15
 229 0090 FB18     		adds	r3, r7, r3
 230 0092 0022     		movs	r2, #0
 231 0094 1A70     		strb	r2, [r3]
  79:bmss.c        ****                         opCodeFlag = (uint8) CYBLE_BMS_BMFT_RD;
 232              		.loc 1 79 0
 233 0096 0E23     		movs	r3, #14
 234 0098 FB18     		adds	r3, r7, r3
 235 009a 1022     		movs	r2, #16
 236 009c 1A70     		strb	r2, [r3]
  80:bmss.c        ****                         authCodeFlag = (uint8) CYBLE_BMS_BMFT_RC;
 237              		.loc 1 80 0
 238 009e 0D23     		movs	r3, #13
 239 00a0 FB18     		adds	r3, r7, r3
 240 00a2 2022     		movs	r2, #32
 241 00a4 1A70     		strb	r2, [r3]
  81:bmss.c        ****                         break;
 242              		.loc 1 81 0
 243 00a6 30E0     		b	.L13
 244              	.L10:
  82:bmss.c        ****                         
  83:bmss.c        ****                     case CYBLE_BMS_BMCP_OPC_AB:
  84:bmss.c        ****                         DBG_PRINTF("OpCode: Delete all bonds on server\r\n");
 245              		.loc 1 84 0
 246 00a8 7B4B     		ldr	r3, .L32+24
 247 00aa 1800     		movs	r0, r3
 248 00ac FFF7FEFF 		bl	puts
  85:bmss.c        ****                         byteNumber = CYBLE_BMS_BMFT_SECOND_BYTE;
 249              		.loc 1 85 0
 250 00b0 0F23     		movs	r3, #15
 251 00b2 FB18     		adds	r3, r7, r3
 252 00b4 0122     		movs	r2, #1
 253 00b6 1A70     		strb	r2, [r3]
  86:bmss.c        ****                         opCodeFlag = (uint8) (CYBLE_BMS_BMFT_AB >> (8 * CYBLE_BMS_BMFT_SECOND_BYTE)
 254              		.loc 1 86 0
 255 00b8 0E23     		movs	r3, #14
 256 00ba FB18     		adds	r3, r7, r3
 257 00bc 0422     		movs	r2, #4
 258 00be 1A70     		strb	r2, [r3]
ARM GAS  C:\Users\user\AppData\Local\Temp\ccfsL0T0.s 			page 8


  87:bmss.c        ****                         authCodeFlag = (uint8) (CYBLE_BMS_BMFT_AC >> (8 * CYBLE_BMS_BMFT_SECOND_BYT
 259              		.loc 1 87 0
 260 00c0 0D23     		movs	r3, #13
 261 00c2 FB18     		adds	r3, r7, r3
 262 00c4 0822     		movs	r2, #8
 263 00c6 1A70     		strb	r2, [r3]
  88:bmss.c        ****                         break;
 264              		.loc 1 88 0
 265 00c8 1FE0     		b	.L13
 266              	.L11:
  89:bmss.c        ****                             
  90:bmss.c        ****                     case CYBLE_BMS_BMCP_OPC_BA:
  91:bmss.c        ****                         DBG_PRINTF("OpCode: Delete all but the active bond on server\r\n");
 267              		.loc 1 91 0
 268 00ca 744B     		ldr	r3, .L32+28
 269 00cc 1800     		movs	r0, r3
 270 00ce FFF7FEFF 		bl	puts
  92:bmss.c        ****                         byteNumber = CYBLE_BMS_BMFT_THIRD_BYTE;
 271              		.loc 1 92 0
 272 00d2 0F23     		movs	r3, #15
 273 00d4 FB18     		adds	r3, r7, r3
 274 00d6 0222     		movs	r2, #2
 275 00d8 1A70     		strb	r2, [r3]
  93:bmss.c        ****                         opCodeFlag = (uint8) (CYBLE_BMS_BMFT_BA >> (8 * CYBLE_BMS_BMFT_THIRD_BYTE))
 276              		.loc 1 93 0
 277 00da 0E23     		movs	r3, #14
 278 00dc FB18     		adds	r3, r7, r3
 279 00de 0122     		movs	r2, #1
 280 00e0 1A70     		strb	r2, [r3]
  94:bmss.c        ****                         authCodeFlag = (uint8) (CYBLE_BMS_BMFT_BC >> (8 * CYBLE_BMS_BMFT_THIRD_BYTE
 281              		.loc 1 94 0
 282 00e2 0D23     		movs	r3, #13
 283 00e4 FB18     		adds	r3, r7, r3
 284 00e6 0222     		movs	r2, #2
 285 00e8 1A70     		strb	r2, [r3]
  95:bmss.c        ****                         break;
 286              		.loc 1 95 0
 287 00ea 0EE0     		b	.L13
 288              	.L30:
  96:bmss.c        ****                     
  97:bmss.c        ****                     default:
  98:bmss.c        ****                         DBG_PRINTF("unsupported BMCP OpCode: 0x%x \r\n", ((CYBLE_CGMS_CHAR_VALUE_T*
 289              		.loc 1 98 0
 290 00ec 3B68     		ldr	r3, [r7]
 291 00ee 5B68     		ldr	r3, [r3, #4]
 292 00f0 1B68     		ldr	r3, [r3]
 293 00f2 1B78     		ldrb	r3, [r3]
 294 00f4 1A00     		movs	r2, r3
 295 00f6 6A4B     		ldr	r3, .L32+32
 296 00f8 1100     		movs	r1, r2
 297 00fa 1800     		movs	r0, r3
 298 00fc FFF7FEFF 		bl	printf
  99:bmss.c        ****                         bmsGattError = CYBLE_GATT_ERR_OP_CODE_NOT_SUPPORTED;
 299              		.loc 1 99 0
 300 0100 0C23     		movs	r3, #12
 301 0102 FB18     		adds	r3, r7, r3
 302 0104 8022     		movs	r2, #128
ARM GAS  C:\Users\user\AppData\Local\Temp\ccfsL0T0.s 			page 9


 303 0106 1A70     		strb	r2, [r3]
 100:bmss.c        ****             			break;
 304              		.loc 1 100 0
 305 0108 C046     		nop
 306              	.L13:
 101:bmss.c        ****                 }
 102:bmss.c        ****         
 103:bmss.c        ****                 if(bmsGattError == CYBLE_GATT_ERR_NONE)
 307              		.loc 1 103 0
 308 010a 0C23     		movs	r3, #12
 309 010c FB18     		adds	r3, r7, r3
 310 010e 1B78     		ldrb	r3, [r3]
 311 0110 002B     		cmp	r3, #0
 312 0112 57D1     		bne	.L14
 104:bmss.c        ****                 {
 105:bmss.c        ****                     (void) CyBle_BmssGetCharacteristicValue(CYBLE_BMS_BMFT, CYBLE_BMS_BMFT_SIZE, fe
 313              		.loc 1 105 0
 314 0114 0823     		movs	r3, #8
 315 0116 FB18     		adds	r3, r7, r3
 316 0118 1A00     		movs	r2, r3
 317 011a 0321     		movs	r1, #3
 318 011c 0120     		movs	r0, #1
 319 011e FFF7FEFF 		bl	CyBle_BmssGetCharacteristicValue
 106:bmss.c        ****                     
 107:bmss.c        ****                     if((opCodeFlag & features[byteNumber]) != 0u)
 320              		.loc 1 107 0
 321 0122 0F23     		movs	r3, #15
 322 0124 FB18     		adds	r3, r7, r3
 323 0126 1B78     		ldrb	r3, [r3]
 324 0128 0822     		movs	r2, #8
 325 012a BA18     		adds	r2, r7, r2
 326 012c D35C     		ldrb	r3, [r2, r3]
 327 012e 0E22     		movs	r2, #14
 328 0130 BA18     		adds	r2, r7, r2
 329 0132 1278     		ldrb	r2, [r2]
 330 0134 1340     		ands	r3, r2
 331 0136 DBB2     		uxtb	r3, r3
 332 0138 002B     		cmp	r3, #0
 333 013a 3BD0     		beq	.L15
 108:bmss.c        ****                     {
 109:bmss.c        ****                         if((authCodeFlag & features[byteNumber]) != 0u)
 334              		.loc 1 109 0
 335 013c 0F23     		movs	r3, #15
 336 013e FB18     		adds	r3, r7, r3
 337 0140 1B78     		ldrb	r3, [r3]
 338 0142 0822     		movs	r2, #8
 339 0144 BA18     		adds	r2, r7, r2
 340 0146 D35C     		ldrb	r3, [r2, r3]
 341 0148 0D22     		movs	r2, #13
 342 014a BA18     		adds	r2, r7, r2
 343 014c 1278     		ldrb	r2, [r2]
 344 014e 1340     		ands	r3, r2
 345 0150 DBB2     		uxtb	r3, r3
 346 0152 002B     		cmp	r3, #0
 347 0154 36D0     		beq	.L14
 110:bmss.c        ****                         {   
 111:bmss.c        ****                             if(((CYBLE_BMS_CHAR_VALUE_T*)eventParam)->value->len == (CYBLE_BMS_AUTH
ARM GAS  C:\Users\user\AppData\Local\Temp\ccfsL0T0.s 			page 10


 348              		.loc 1 111 0
 349 0156 3B68     		ldr	r3, [r7]
 350 0158 5B68     		ldr	r3, [r3, #4]
 351 015a 9B88     		ldrh	r3, [r3, #4]
 352 015c 072B     		cmp	r3, #7
 353 015e 24D1     		bne	.L17
 112:bmss.c        ****                             {
 113:bmss.c        ****                                 for(i = 1u; i < ((CYBLE_BMS_CHAR_VALUE_T*)eventParam)->value->len; 
 354              		.loc 1 113 0
 355 0160 484B     		ldr	r3, .L32+4
 356 0162 0122     		movs	r2, #1
 357 0164 1A80     		strh	r2, [r3]
 358 0166 18E0     		b	.L18
 359              	.L20:
 114:bmss.c        ****                                 {
 115:bmss.c        ****                                     if(((CYBLE_BMS_CHAR_VALUE_T*)eventParam)->value->val[i] != auth
 360              		.loc 1 115 0
 361 0168 3B68     		ldr	r3, [r7]
 362 016a 5B68     		ldr	r3, [r3, #4]
 363 016c 1B68     		ldr	r3, [r3]
 364 016e 454A     		ldr	r2, .L32+4
 365 0170 1288     		ldrh	r2, [r2]
 366 0172 9B18     		adds	r3, r3, r2
 367 0174 1A78     		ldrb	r2, [r3]
 368 0176 4B4B     		ldr	r3, .L32+36
 369 0178 1B68     		ldr	r3, [r3]
 370 017a 4249     		ldr	r1, .L32+4
 371 017c 0988     		ldrh	r1, [r1]
 372 017e 5B18     		adds	r3, r3, r1
 373 0180 1B78     		ldrb	r3, [r3]
 374 0182 9A42     		cmp	r2, r3
 375 0184 03D0     		beq	.L19
 116:bmss.c        ****                                     {
 117:bmss.c        ****                                         bmsGattError = CYBLE_GATT_ERR_INSUFFICIENT_AUTHORIZATION;
 376              		.loc 1 117 0
 377 0186 0C23     		movs	r3, #12
 378 0188 FB18     		adds	r3, r7, r3
 379 018a 0822     		movs	r2, #8
 380 018c 1A70     		strb	r2, [r3]
 381              	.L19:
 113:bmss.c        ****                                 {
 382              		.loc 1 113 0 discriminator 2
 383 018e 3D4B     		ldr	r3, .L32+4
 384 0190 1B88     		ldrh	r3, [r3]
 385 0192 0133     		adds	r3, r3, #1
 386 0194 9AB2     		uxth	r2, r3
 387 0196 3B4B     		ldr	r3, .L32+4
 388 0198 1A80     		strh	r2, [r3]
 389              	.L18:
 113:bmss.c        ****                                 {
 390              		.loc 1 113 0 is_stmt 0 discriminator 1
 391 019a 3B68     		ldr	r3, [r7]
 392 019c 5B68     		ldr	r3, [r3, #4]
 393 019e 9A88     		ldrh	r2, [r3, #4]
 394 01a0 384B     		ldr	r3, .L32+4
 395 01a2 1B88     		ldrh	r3, [r3]
 396 01a4 9A42     		cmp	r2, r3
ARM GAS  C:\Users\user\AppData\Local\Temp\ccfsL0T0.s 			page 11


 397 01a6 DFD8     		bhi	.L20
 398 01a8 0CE0     		b	.L14
 399              	.L17:
 118:bmss.c        ****                                     }
 119:bmss.c        ****                                 }
 120:bmss.c        ****                             }
 121:bmss.c        ****                             else
 122:bmss.c        ****                             {
 123:bmss.c        ****                                 bmsGattError = CYBLE_GATT_ERR_INSUFFICIENT_AUTHORIZATION;
 400              		.loc 1 123 0 is_stmt 1
 401 01aa 0C23     		movs	r3, #12
 402 01ac FB18     		adds	r3, r7, r3
 403 01ae 0822     		movs	r2, #8
 404 01b0 1A70     		strb	r2, [r3]
 405 01b2 07E0     		b	.L14
 406              	.L15:
 124:bmss.c        ****                             }
 125:bmss.c        ****                         }
 126:bmss.c        ****                     }
 127:bmss.c        ****                     else
 128:bmss.c        ****                     {
 129:bmss.c        ****                         bmsGattError = CYBLE_GATT_ERR_OP_CODE_NOT_SUPPORTED;
 407              		.loc 1 129 0
 408 01b4 0C23     		movs	r3, #12
 409 01b6 FB18     		adds	r3, r7, r3
 410 01b8 8022     		movs	r2, #128
 411 01ba 1A70     		strb	r2, [r3]
 130:bmss.c        ****                         DBG_PRINTF("this OpCode not supported\r\n");
 412              		.loc 1 130 0
 413 01bc 3A4B     		ldr	r3, .L32+40
 414 01be 1800     		movs	r0, r3
 415 01c0 FFF7FEFF 		bl	puts
 416              	.L14:
 131:bmss.c        ****                     }
 132:bmss.c        ****                 }
 133:bmss.c        ****             
 134:bmss.c        ****                 if(bmsGattError == CYBLE_GATT_ERR_NONE)
 417              		.loc 1 134 0
 418 01c4 0C23     		movs	r3, #12
 419 01c6 FB18     		adds	r3, r7, r3
 420 01c8 1B78     		ldrb	r3, [r3]
 421 01ca 002B     		cmp	r3, #0
 422 01cc 1FD1     		bne	.L21
 135:bmss.c        ****                 {
 136:bmss.c        ****                     apiResult = CyBle_GapGetPeerBdAddr(cyBle_connHandle.bdHandle, &peerBdAddr);
 423              		.loc 1 136 0
 424 01ce 374B     		ldr	r3, .L32+44
 425 01d0 1B78     		ldrb	r3, [r3]
 426 01d2 374A     		ldr	r2, .L32+48
 427 01d4 1100     		movs	r1, r2
 428 01d6 1800     		movs	r0, r3
 429 01d8 FFF7FEFF 		bl	CyBle_GapGetPeerBdAddr
 430 01dc 0300     		movs	r3, r0
 431 01de 1A00     		movs	r2, r3
 432 01e0 344B     		ldr	r3, .L32+52
 433 01e2 1A80     		strh	r2, [r3]
 137:bmss.c        ****               		DBG_PRINTF("CyBle_GapGetPeerBdAddr API result: ");
ARM GAS  C:\Users\user\AppData\Local\Temp\ccfsL0T0.s 			page 12


 434              		.loc 1 137 0
 435 01e4 344B     		ldr	r3, .L32+56
 436 01e6 1800     		movs	r0, r3
 437 01e8 FFF7FEFF 		bl	printf
 138:bmss.c        ****                     PrintApiResult();
 438              		.loc 1 138 0
 439 01ec FFF7FEFF 		bl	PrintApiResult
 139:bmss.c        ****                     
 140:bmss.c        ****                     apiResult = CyBle_GapGetBondedDevicesList(&bdList);
 440              		.loc 1 140 0
 441 01f0 324B     		ldr	r3, .L32+60
 442 01f2 1800     		movs	r0, r3
 443 01f4 FFF7FEFF 		bl	CyBle_GapGetBondedDevicesList
 444 01f8 0300     		movs	r3, r0
 445 01fa 1A00     		movs	r2, r3
 446 01fc 2D4B     		ldr	r3, .L32+52
 447 01fe 1A80     		strh	r2, [r3]
 141:bmss.c        ****             		DBG_PRINTF("CyBle_GapGetBondedDevicesList API result: ");
 448              		.loc 1 141 0
 449 0200 2F4B     		ldr	r3, .L32+64
 450 0202 1800     		movs	r0, r3
 451 0204 FFF7FEFF 		bl	printf
 142:bmss.c        ****                     PrintApiResult();
 452              		.loc 1 142 0
 453 0208 FFF7FEFF 		bl	PrintApiResult
 454 020c 02E0     		b	.L22
 455              	.L21:
 143:bmss.c        ****                 }
 144:bmss.c        ****                 else
 145:bmss.c        ****                 {
 146:bmss.c        ****                     bmcp = 0u;
 456              		.loc 1 146 0
 457 020e 204B     		ldr	r3, .L32+16
 458 0210 0022     		movs	r2, #0
 459 0212 1A70     		strb	r2, [r3]
 460              	.L22:
 147:bmss.c        ****                 }
 148:bmss.c        ****             
 149:bmss.c        ****                 DBG_PRINTF("Gatt error: ");
 461              		.loc 1 149 0
 462 0214 2B4B     		ldr	r3, .L32+68
 463 0216 1800     		movs	r0, r3
 464 0218 FFF7FEFF 		bl	printf
 150:bmss.c        ****                 switch(bmsGattError)
 465              		.loc 1 150 0
 466 021c 0C23     		movs	r3, #12
 467 021e FB18     		adds	r3, r7, r3
 468 0220 1B78     		ldrb	r3, [r3]
 469 0222 082B     		cmp	r3, #8
 470 0224 0DD0     		beq	.L24
 471 0226 802B     		cmp	r3, #128
 472 0228 06D0     		beq	.L25
 473 022a 002B     		cmp	r3, #0
 474 022c 0ED1     		bne	.L31
 151:bmss.c        ****                 {
 152:bmss.c        ****                     case CYBLE_GATT_ERR_NONE:
 153:bmss.c        ****                         DBG_PRINTF("Ok\r\n");
ARM GAS  C:\Users\user\AppData\Local\Temp\ccfsL0T0.s 			page 13


 475              		.loc 1 153 0
 476 022e 264B     		ldr	r3, .L32+72
 477 0230 1800     		movs	r0, r3
 478 0232 FFF7FEFF 		bl	puts
 154:bmss.c        ****                         break;
 479              		.loc 1 154 0
 480 0236 12E0     		b	.L27
 481              	.L25:
 155:bmss.c        ****                     
 156:bmss.c        ****                     case CYBLE_GATT_ERR_OP_CODE_NOT_SUPPORTED:
 157:bmss.c        ****                         DBG_PRINTF("Op Code Not Supported\r\n");
 482              		.loc 1 157 0
 483 0238 244B     		ldr	r3, .L32+76
 484 023a 1800     		movs	r0, r3
 485 023c FFF7FEFF 		bl	puts
 158:bmss.c        ****                         break;
 486              		.loc 1 158 0
 487 0240 0DE0     		b	.L27
 488              	.L24:
 159:bmss.c        ****                         
 160:bmss.c        ****                     case CYBLE_GATT_ERR_INSUFFICIENT_AUTHORIZATION:
 161:bmss.c        ****                         DBG_PRINTF("Insufficient Authorization\r\n");
 489              		.loc 1 161 0
 490 0242 234B     		ldr	r3, .L32+80
 491 0244 1800     		movs	r0, r3
 492 0246 FFF7FEFF 		bl	puts
 162:bmss.c        ****                         break;
 493              		.loc 1 162 0
 494 024a 08E0     		b	.L27
 495              	.L31:
 163:bmss.c        ****                     
 164:bmss.c        ****                     default:
 165:bmss.c        ****                         DBG_PRINTF("unexpected 0x%2.2x\r\n", bmsGattError);
 496              		.loc 1 165 0
 497 024c 0C23     		movs	r3, #12
 498 024e FB18     		adds	r3, r7, r3
 499 0250 1A78     		ldrb	r2, [r3]
 500 0252 204B     		ldr	r3, .L32+84
 501 0254 1100     		movs	r1, r2
 502 0256 1800     		movs	r0, r3
 503 0258 FFF7FEFF 		bl	printf
 166:bmss.c        ****                         break;
 504              		.loc 1 166 0
 505 025c C046     		nop
 506              	.L27:
 167:bmss.c        ****                 }
 168:bmss.c        ****             
 169:bmss.c        ****                 ((CYBLE_BMS_CHAR_VALUE_T*)eventParam)->gattErrorCode = bmsGattError;
 507              		.loc 1 169 0
 508 025e 3B68     		ldr	r3, [r7]
 509 0260 0C22     		movs	r2, #12
 510 0262 BA18     		adds	r2, r7, r2
 511 0264 1278     		ldrb	r2, [r2]
 512 0266 1A72     		strb	r2, [r3, #8]
 513              	.LBE2:
 170:bmss.c        ****             }
 171:bmss.c        ****             break;
ARM GAS  C:\Users\user\AppData\Local\Temp\ccfsL0T0.s 			page 14


 514              		.loc 1 171 0
 515 0268 06E0     		b	.L28
 516              	.L29:
 172:bmss.c        ****             
 173:bmss.c        **** 		default:
 174:bmss.c        ****             DBG_PRINTF("unknown BMS event: 0x%lx \r\n", event);
 517              		.loc 1 174 0
 518 026a 7A68     		ldr	r2, [r7, #4]
 519 026c 1A4B     		ldr	r3, .L32+88
 520 026e 1100     		movs	r1, r2
 521 0270 1800     		movs	r0, r3
 522 0272 FFF7FEFF 		bl	printf
 175:bmss.c        **** 			break;
 523              		.loc 1 175 0
 524 0276 C046     		nop
 525              	.L28:
 176:bmss.c        ****     }
 177:bmss.c        **** }
 526              		.loc 1 177 0
 527 0278 C046     		nop
 528 027a BD46     		mov	sp, r7
 529 027c 04B0     		add	sp, sp, #16
 530              		@ sp needed
 531 027e 80BD     		pop	{r7, pc}
 532              	.L33:
 533              		.align	2
 534              	.L32:
 535 0280 08000000 		.word	.LC2
 536 0284 00000000 		.word	i
 537 0288 20000000 		.word	.LC5
 538 028c 28000000 		.word	.LC7
 539 0290 00000000 		.word	bmcp
 540 0294 2C000000 		.word	.LC10
 541 0298 58000000 		.word	.LC12
 542 029c 7C000000 		.word	.LC14
 543 02a0 B0000000 		.word	.LC16
 544 02a4 00000000 		.word	authCode
 545 02a8 D4000000 		.word	.LC19
 546 02ac 00000000 		.word	cyBle_connHandle
 547 02b0 00000000 		.word	peerBdAddr
 548 02b4 00000000 		.word	apiResult
 549 02b8 F0000000 		.word	.LC24
 550 02bc 00000000 		.word	bdList
 551 02c0 14010000 		.word	.LC27
 552 02c4 40010000 		.word	.LC29
 553 02c8 50010000 		.word	.LC31
 554 02cc 54010000 		.word	.LC33
 555 02d0 6C010000 		.word	.LC35
 556 02d4 88010000 		.word	.LC37
 557 02d8 A0010000 		.word	.LC39
 558              		.cfi_endproc
 559              	.LFE37:
 560              		.size	BmsCallBack, .-BmsCallBack
 561              		.section	.rodata
 562              		.align	2
 563              	.LC44:
 564 01bc 4379426C 		.ascii	"CyBle_GapRemoveDeviceFromWhiteList API result: \000"
ARM GAS  C:\Users\user\AppData\Local\Temp\ccfsL0T0.s 			page 15


 564      655F4761 
 564      7052656D 
 564      6F766544 
 564      65766963 
 565              		.align	2
 566              	.LC47:
 567 01ec 4379426C 		.ascii	"CyBle_GapRemoveOldestDeviceFromBondedList API resul"
 567      655F4761 
 567      7052656D 
 567      6F76654F 
 567      6C646573 
 568 021f 743A2000 		.ascii	"t: \000"
 569              		.section	.text.BmsProcess,"ax",%progbits
 570              		.align	2
 571              		.global	BmsProcess
 572              		.code	16
 573              		.thumb_func
 574              		.type	BmsProcess, %function
 575              	BmsProcess:
 576              	.LFB38:
 178:bmss.c        **** 
 179:bmss.c        **** 
 180:bmss.c        **** /******************************************************************************
 181:bmss.c        **** ##Function Name: BmsProcess
 182:bmss.c        **** *******************************************************************************
 183:bmss.c        **** 
 184:bmss.c        **** Summary:
 185:bmss.c        ****   Processes the BM control point requests.
 186:bmss.c        **** 
 187:bmss.c        **** ******************************************************************************/
 188:bmss.c        **** void BmsProcess(void)
 189:bmss.c        **** {
 577              		.loc 1 189 0
 578              		.cfi_startproc
 579              		@ args = 0, pretend = 0, frame = 0
 580              		@ frame_needed = 1, uses_anonymous_args = 0
 581 0000 80B5     		push	{r7, lr}
 582              		.cfi_def_cfa_offset 8
 583              		.cfi_offset 7, -8
 584              		.cfi_offset 14, -4
 585 0002 00AF     		add	r7, sp, #0
 586              		.cfi_def_cfa_register 7
 190:bmss.c        ****     if(0u != bmcp)
 587              		.loc 1 190 0
 588 0004 414B     		ldr	r3, .L48
 589 0006 1B78     		ldrb	r3, [r3]
 590 0008 002B     		cmp	r3, #0
 591 000a 00D1     		bne	.LCB435
 592 000c 7AE0     		b	.L47	@long jump
 593              	.LCB435:
 191:bmss.c        ****     {
 192:bmss.c        ****         switch(bmcp)
 594              		.loc 1 192 0
 595 000e 3F4B     		ldr	r3, .L48
 596 0010 1B78     		ldrb	r3, [r3]
 597 0012 062B     		cmp	r3, #6
 598 0014 13D0     		beq	.L37
ARM GAS  C:\Users\user\AppData\Local\Temp\ccfsL0T0.s 			page 16


 599 0016 092B     		cmp	r3, #9
 600 0018 2FD0     		beq	.L38
 601 001a 032B     		cmp	r3, #3
 602 001c 00D0     		beq	.L39
 193:bmss.c        ****         {
 194:bmss.c        ****             case CYBLE_BMS_BMCP_OPC_RD:
 195:bmss.c        ****                 apiResult = CyBle_GapRemoveDeviceFromWhiteList(&peerBdAddr);
 196:bmss.c        ****                 DBG_PRINTF("CyBle_GapRemoveDeviceFromWhiteList API result: ");
 197:bmss.c        ****                 PrintApiResult();
 198:bmss.c        ****                 break;
 199:bmss.c        ****                 
 200:bmss.c        ****             case CYBLE_BMS_BMCP_OPC_AB:
 201:bmss.c        ****                 for(i = 0u; i < bdList.count; i++)
 202:bmss.c        ****                 {
 203:bmss.c        ****                     apiResult = CyBle_GapRemoveOldestDeviceFromBondedList();
 204:bmss.c        ****                     DBG_PRINTF("CyBle_GapRemoveOldestDeviceFromBondedList API result: ");
 205:bmss.c        ****                     PrintApiResult();
 206:bmss.c        ****                 }
 207:bmss.c        ****                 break;
 208:bmss.c        ****                 
 209:bmss.c        ****             case CYBLE_BMS_BMCP_OPC_BA:
 210:bmss.c        ****                 for(i = 0u; i < bdList.count; i++)
 211:bmss.c        ****                 {
 212:bmss.c        ****                     if((bdList.bdAddrList[i].bdAddr != peerBdAddr.bdAddr) ||
 213:bmss.c        ****                        (bdList.bdAddrList[i].type != peerBdAddr.type))
 214:bmss.c        ****                     {
 215:bmss.c        ****                         apiResult = CyBle_GapRemoveDeviceFromWhiteList(&bdList.bdAddrList[i]);
 216:bmss.c        ****                         DBG_PRINTF("CyBle_GapRemoveDeviceFromWhiteList API result: ");
 217:bmss.c        ****                         PrintApiResult();
 218:bmss.c        ****                     }
 219:bmss.c        ****                 }
 220:bmss.c        ****                 break;
 221:bmss.c        ****                 
 222:bmss.c        ****             default:
 223:bmss.c        ****     			break;
 603              		.loc 1 223 0
 604 001e 6EE0     		b	.L40
 605              	.L39:
 195:bmss.c        ****                 DBG_PRINTF("CyBle_GapRemoveDeviceFromWhiteList API result: ");
 606              		.loc 1 195 0
 607 0020 3B4B     		ldr	r3, .L48+4
 608 0022 1800     		movs	r0, r3
 609 0024 FFF7FEFF 		bl	CyBle_GapRemoveDeviceFromWhiteList
 610 0028 0300     		movs	r3, r0
 611 002a 1A00     		movs	r2, r3
 612 002c 394B     		ldr	r3, .L48+8
 613 002e 1A80     		strh	r2, [r3]
 196:bmss.c        ****                 PrintApiResult();
 614              		.loc 1 196 0
 615 0030 394B     		ldr	r3, .L48+12
 616 0032 1800     		movs	r0, r3
 617 0034 FFF7FEFF 		bl	printf
 197:bmss.c        ****                 break;
 618              		.loc 1 197 0
 619 0038 FFF7FEFF 		bl	PrintApiResult
 198:bmss.c        ****                 
 620              		.loc 1 198 0
ARM GAS  C:\Users\user\AppData\Local\Temp\ccfsL0T0.s 			page 17


 621 003c 5FE0     		b	.L40
 622              	.L37:
 201:bmss.c        ****                 {
 623              		.loc 1 201 0
 624 003e 374B     		ldr	r3, .L48+16
 625 0040 0022     		movs	r2, #0
 626 0042 1A80     		strh	r2, [r3]
 627 0044 11E0     		b	.L41
 628              	.L42:
 203:bmss.c        ****                     DBG_PRINTF("CyBle_GapRemoveOldestDeviceFromBondedList API result: ");
 629              		.loc 1 203 0 discriminator 3
 630 0046 FFF7FEFF 		bl	CyBle_GapRemoveOldestDeviceFromBondedList
 631 004a 0300     		movs	r3, r0
 632 004c 1A00     		movs	r2, r3
 633 004e 314B     		ldr	r3, .L48+8
 634 0050 1A80     		strh	r2, [r3]
 204:bmss.c        ****                     PrintApiResult();
 635              		.loc 1 204 0 discriminator 3
 636 0052 334B     		ldr	r3, .L48+20
 637 0054 1800     		movs	r0, r3
 638 0056 FFF7FEFF 		bl	printf
 205:bmss.c        ****                 }
 639              		.loc 1 205 0 discriminator 3
 640 005a FFF7FEFF 		bl	PrintApiResult
 201:bmss.c        ****                 {
 641              		.loc 1 201 0 discriminator 3
 642 005e 2F4B     		ldr	r3, .L48+16
 643 0060 1B88     		ldrh	r3, [r3]
 644 0062 0133     		adds	r3, r3, #1
 645 0064 9AB2     		uxth	r2, r3
 646 0066 2D4B     		ldr	r3, .L48+16
 647 0068 1A80     		strh	r2, [r3]
 648              	.L41:
 201:bmss.c        ****                 {
 649              		.loc 1 201 0 is_stmt 0 discriminator 1
 650 006a 2E4B     		ldr	r3, .L48+24
 651 006c 1B78     		ldrb	r3, [r3]
 652 006e 9AB2     		uxth	r2, r3
 653 0070 2A4B     		ldr	r3, .L48+16
 654 0072 1B88     		ldrh	r3, [r3]
 655 0074 9A42     		cmp	r2, r3
 656 0076 E6D8     		bhi	.L42
 207:bmss.c        ****                 
 657              		.loc 1 207 0 is_stmt 1
 658 0078 41E0     		b	.L40
 659              	.L38:
 210:bmss.c        ****                 {
 660              		.loc 1 210 0
 661 007a 284B     		ldr	r3, .L48+16
 662 007c 0022     		movs	r2, #0
 663 007e 1A80     		strh	r2, [r3]
 664 0080 35E0     		b	.L43
 665              	.L46:
 212:bmss.c        ****                        (bdList.bdAddrList[i].type != peerBdAddr.type))
 666              		.loc 1 212 0
 667 0082 264B     		ldr	r3, .L48+16
 668 0084 1B88     		ldrh	r3, [r3]
ARM GAS  C:\Users\user\AppData\Local\Temp\ccfsL0T0.s 			page 18


 669 0086 1A00     		movs	r2, r3
 670 0088 1300     		movs	r3, r2
 671 008a DB00     		lsls	r3, r3, #3
 672 008c 9B1A     		subs	r3, r3, r2
 673 008e 254A     		ldr	r2, .L48+24
 674 0090 9B18     		adds	r3, r3, r2
 675 0092 5A1C     		adds	r2, r3, #1
 676 0094 1E4B     		ldr	r3, .L48+4
 677 0096 9A42     		cmp	r2, r3
 678 0098 0DD1     		bne	.L44
 213:bmss.c        ****                     {
 679              		.loc 1 213 0 discriminator 1
 680 009a 204B     		ldr	r3, .L48+16
 681 009c 1B88     		ldrh	r3, [r3]
 682 009e 1900     		movs	r1, r3
 683 00a0 204A     		ldr	r2, .L48+24
 684 00a2 0B00     		movs	r3, r1
 685 00a4 DB00     		lsls	r3, r3, #3
 686 00a6 5B1A     		subs	r3, r3, r1
 687 00a8 D318     		adds	r3, r2, r3
 688 00aa 0733     		adds	r3, r3, #7
 689 00ac 1A78     		ldrb	r2, [r3]
 690 00ae 184B     		ldr	r3, .L48+4
 691 00b0 9B79     		ldrb	r3, [r3, #6]
 212:bmss.c        ****                        (bdList.bdAddrList[i].type != peerBdAddr.type))
 692              		.loc 1 212 0 discriminator 1
 693 00b2 9A42     		cmp	r2, r3
 694 00b4 15D0     		beq	.L45
 695              	.L44:
 215:bmss.c        ****                         DBG_PRINTF("CyBle_GapRemoveDeviceFromWhiteList API result: ");
 696              		.loc 1 215 0
 697 00b6 194B     		ldr	r3, .L48+16
 698 00b8 1B88     		ldrh	r3, [r3]
 699 00ba 1A00     		movs	r2, r3
 700 00bc 1300     		movs	r3, r2
 701 00be DB00     		lsls	r3, r3, #3
 702 00c0 9B1A     		subs	r3, r3, r2
 703 00c2 184A     		ldr	r2, .L48+24
 704 00c4 9B18     		adds	r3, r3, r2
 705 00c6 0133     		adds	r3, r3, #1
 706 00c8 1800     		movs	r0, r3
 707 00ca FFF7FEFF 		bl	CyBle_GapRemoveDeviceFromWhiteList
 708 00ce 0300     		movs	r3, r0
 709 00d0 1A00     		movs	r2, r3
 710 00d2 104B     		ldr	r3, .L48+8
 711 00d4 1A80     		strh	r2, [r3]
 216:bmss.c        ****                         PrintApiResult();
 712              		.loc 1 216 0
 713 00d6 104B     		ldr	r3, .L48+12
 714 00d8 1800     		movs	r0, r3
 715 00da FFF7FEFF 		bl	printf
 217:bmss.c        ****                     }
 716              		.loc 1 217 0
 717 00de FFF7FEFF 		bl	PrintApiResult
 718              	.L45:
 210:bmss.c        ****                 {
 719              		.loc 1 210 0 discriminator 2
ARM GAS  C:\Users\user\AppData\Local\Temp\ccfsL0T0.s 			page 19


 720 00e2 0E4B     		ldr	r3, .L48+16
 721 00e4 1B88     		ldrh	r3, [r3]
 722 00e6 0133     		adds	r3, r3, #1
 723 00e8 9AB2     		uxth	r2, r3
 724 00ea 0C4B     		ldr	r3, .L48+16
 725 00ec 1A80     		strh	r2, [r3]
 726              	.L43:
 210:bmss.c        ****                 {
 727              		.loc 1 210 0 is_stmt 0 discriminator 1
 728 00ee 0D4B     		ldr	r3, .L48+24
 729 00f0 1B78     		ldrb	r3, [r3]
 730 00f2 9AB2     		uxth	r2, r3
 731 00f4 094B     		ldr	r3, .L48+16
 732 00f6 1B88     		ldrh	r3, [r3]
 733 00f8 9A42     		cmp	r2, r3
 734 00fa C2D8     		bhi	.L46
 220:bmss.c        ****                 
 735              		.loc 1 220 0 is_stmt 1
 736 00fc C046     		nop
 737              	.L40:
 224:bmss.c        ****         }
 225:bmss.c        ****         
 226:bmss.c        ****         bmcp = 0u;
 738              		.loc 1 226 0
 739 00fe 034B     		ldr	r3, .L48
 740 0100 0022     		movs	r2, #0
 741 0102 1A70     		strb	r2, [r3]
 742              	.L47:
 227:bmss.c        ****     }
 228:bmss.c        **** }
 743              		.loc 1 228 0
 744 0104 C046     		nop
 745 0106 BD46     		mov	sp, r7
 746              		@ sp needed
 747 0108 80BD     		pop	{r7, pc}
 748              	.L49:
 749 010a C046     		.align	2
 750              	.L48:
 751 010c 00000000 		.word	bmcp
 752 0110 00000000 		.word	peerBdAddr
 753 0114 00000000 		.word	apiResult
 754 0118 BC010000 		.word	.LC44
 755 011c 00000000 		.word	i
 756 0120 EC010000 		.word	.LC47
 757 0124 00000000 		.word	bdList
 758              		.cfi_endproc
 759              	.LFE38:
 760              		.size	BmsProcess, .-BmsProcess
 761              		.text
 762              	.Letext0:
 763              		.file 2 "Generated_Source\\PSoC4/cytypes.h"
 764              		.file 3 "Generated_Source\\PSoC4/BLE_Stack.h"
 765              		.file 4 "Generated_Source\\PSoC4/BLE_StackGap.h"
 766              		.file 5 "Generated_Source\\PSoC4/BLE_StackGatt.h"
 767              		.file 6 "Generated_Source\\PSoC4/BLE_bms.h"
 768              		.file 7 "Generated_Source\\PSoC4/BLE_cgms.h"
 769              		.file 8 "Generated_Source\\PSoC4/BLE_dis.h"
ARM GAS  C:\Users\user\AppData\Local\Temp\ccfsL0T0.s 			page 20


 770              		.file 9 "Generated_Source\\PSoC4/BLE_eventHandler.h"
 771              		.file 10 "main.h"