ARM GAS  C:\Users\user\AppData\Local\Temp\ccJFhRn7.s 			page 1


   1              		.syntax unified
   2              		.cpu cortex-m0
   3              		.fpu softvfp
   4              		.eabi_attribute 20, 1
   5              		.eabi_attribute 21, 1
   6              		.eabi_attribute 23, 3
   7              		.eabi_attribute 24, 1
   8              		.eabi_attribute 25, 1
   9              		.eabi_attribute 26, 1
  10              		.eabi_attribute 30, 6
  11              		.eabi_attribute 34, 0
  12              		.eabi_attribute 18, 4
  13              		.thumb
  14              		.syntax unified
  15              		.file	"debug.c"
  16              		.text
  17              	.Ltext0:
  18              		.cfi_sections	.debug_frame
  19              		.section	.text._write,"ax",%progbits
  20              		.align	2
  21              		.global	_write
  22              		.code	16
  23              		.thumb_func
  24              		.type	_write, %function
  25              	_write:
  26              	.LFB36:
  27              		.file 1 "debug.c"
   1:debug.c       **** /*******************************************************************************
   2:debug.c       **** * File Name: debug.c
   3:debug.c       **** *
   4:debug.c       **** * Version 1.0
   5:debug.c       **** *
   6:debug.c       **** * Description:
   7:debug.c       **** *  Common BLE application code for printout debug messages.
   8:debug.c       **** *
   9:debug.c       **** * Hardware Dependency:
  10:debug.c       **** *  CY8CKIT-042 BLE
  11:debug.c       **** *
  12:debug.c       **** ********************************************************************************
  13:debug.c       **** * Copyright 2016, Cypress Semiconductor Corporation.  All rights reserved.
  14:debug.c       **** * You may use this file only in accordance with the license, terms, conditions,
  15:debug.c       **** * disclaimers, and limitations in the end user license agreement accompanying
  16:debug.c       **** * the software package with which this file was provided.
  17:debug.c       **** *******************************************************************************/
  18:debug.c       **** 
  19:debug.c       **** #include "main.h"
  20:debug.c       **** 
  21:debug.c       **** #if (DEBUG_UART_ENABLED == ENABLED)
  22:debug.c       **** 
  23:debug.c       **** #if defined(__ARMCC_VERSION)
  24:debug.c       **** 
  25:debug.c       **** /* For MDK/RVDS compiler, revise fputc function for printf functionality */
  26:debug.c       **** struct __FILE
  27:debug.c       **** {
  28:debug.c       ****     int handle;
  29:debug.c       **** };
  30:debug.c       **** 
ARM GAS  C:\Users\user\AppData\Local\Temp\ccJFhRn7.s 			page 2


  31:debug.c       **** enum
  32:debug.c       **** {
  33:debug.c       ****     STDIN_HANDLE,
  34:debug.c       ****     STDOUT_HANDLE,
  35:debug.c       ****     STDERR_HANDLE
  36:debug.c       **** };
  37:debug.c       **** 
  38:debug.c       **** FILE __stdin = {STDIN_HANDLE};
  39:debug.c       **** FILE __stdout = {STDOUT_HANDLE};
  40:debug.c       **** FILE __stderr = {STDERR_HANDLE};
  41:debug.c       **** 
  42:debug.c       **** int fputc(int ch, FILE *file)
  43:debug.c       **** {
  44:debug.c       ****     int ret = EOF;
  45:debug.c       **** 
  46:debug.c       ****     switch( file->handle )
  47:debug.c       ****     {
  48:debug.c       ****         case STDOUT_HANDLE:
  49:debug.c       ****             UART_DEB_UartPutChar(ch);
  50:debug.c       ****             ret = ch ;
  51:debug.c       ****             break ;
  52:debug.c       **** 
  53:debug.c       ****         case STDERR_HANDLE:
  54:debug.c       ****             ret = ch ;
  55:debug.c       ****             break ;
  56:debug.c       **** 
  57:debug.c       ****         default:
  58:debug.c       ****             file = file;
  59:debug.c       ****             break ;
  60:debug.c       ****     }
  61:debug.c       ****     return ret ;
  62:debug.c       **** }
  63:debug.c       **** 
  64:debug.c       **** #elif defined (__ICCARM__)      /* IAR */
  65:debug.c       **** 
  66:debug.c       **** /* For IAR compiler, revise __write() function for printf functionality */
  67:debug.c       **** size_t __write(int handle, const unsigned char * buffer, size_t size)
  68:debug.c       **** {
  69:debug.c       ****     size_t nChars = 0;
  70:debug.c       **** 
  71:debug.c       ****     if (buffer == 0)
  72:debug.c       ****     {
  73:debug.c       ****         /*
  74:debug.c       ****          * This means that we should flush internal buffers.  Since we
  75:debug.c       ****          * don't, we just return.  (Remember, "handle" == -1 means that all
  76:debug.c       ****          * handles should be flushed.)
  77:debug.c       ****          */
  78:debug.c       ****         return (0);
  79:debug.c       ****     }
  80:debug.c       **** 
  81:debug.c       ****     for (/* Empty */; size != 0; --size)
  82:debug.c       ****     {
  83:debug.c       ****         UART_DEB_UartPutChar(*buffer++);
  84:debug.c       ****         ++nChars;
  85:debug.c       ****     }
  86:debug.c       **** 
  87:debug.c       ****     return (nChars);
ARM GAS  C:\Users\user\AppData\Local\Temp\ccJFhRn7.s 			page 3


  88:debug.c       **** }
  89:debug.c       **** 
  90:debug.c       **** #else  /* (__GNUC__)  GCC */
  91:debug.c       **** 
  92:debug.c       **** /* For GCC compiler, revise _write() function for printf functionality */
  93:debug.c       **** int _write(int file, char *ptr, int len)
  94:debug.c       **** {
  28              		.loc 1 94 0
  29              		.cfi_startproc
  30              		@ args = 0, pretend = 0, frame = 24
  31              		@ frame_needed = 1, uses_anonymous_args = 0
  32 0000 80B5     		push	{r7, lr}
  33              		.cfi_def_cfa_offset 8
  34              		.cfi_offset 7, -8
  35              		.cfi_offset 14, -4
  36 0002 86B0     		sub	sp, sp, #24
  37              		.cfi_def_cfa_offset 32
  38 0004 00AF     		add	r7, sp, #0
  39              		.cfi_def_cfa_register 7
  40 0006 F860     		str	r0, [r7, #12]
  41 0008 B960     		str	r1, [r7, #8]
  42 000a 7A60     		str	r2, [r7, #4]
  95:debug.c       ****     int x;
  96:debug.c       ****     file = file;
  97:debug.c       ****     for (x = 0; x < len; x++)
  43              		.loc 1 97 0
  44 000c 0023     		movs	r3, #0
  45 000e 7B61     		str	r3, [r7, #20]
  46 0010 09E0     		b	.L2
  47              	.L3:
  98:debug.c       ****     {
  99:debug.c       ****         UART_DEB_UartPutChar(*ptr++);
  48              		.loc 1 99 0 discriminator 3
  49 0012 BB68     		ldr	r3, [r7, #8]
  50 0014 5A1C     		adds	r2, r3, #1
  51 0016 BA60     		str	r2, [r7, #8]
  52 0018 1B78     		ldrb	r3, [r3]
  53 001a 1800     		movs	r0, r3
  54 001c FFF7FEFF 		bl	UART_DEB_SpiUartWriteTxData
  97:debug.c       ****     {
  55              		.loc 1 97 0 discriminator 3
  56 0020 7B69     		ldr	r3, [r7, #20]
  57 0022 0133     		adds	r3, r3, #1
  58 0024 7B61     		str	r3, [r7, #20]
  59              	.L2:
  97:debug.c       ****     {
  60              		.loc 1 97 0 is_stmt 0 discriminator 1
  61 0026 7A69     		ldr	r2, [r7, #20]
  62 0028 7B68     		ldr	r3, [r7, #4]
  63 002a 9A42     		cmp	r2, r3
  64 002c F1DB     		blt	.L3
 100:debug.c       ****     }
 101:debug.c       ****     return len;
  65              		.loc 1 101 0 is_stmt 1
  66 002e 7B68     		ldr	r3, [r7, #4]
 102:debug.c       **** }
  67              		.loc 1 102 0
ARM GAS  C:\Users\user\AppData\Local\Temp\ccJFhRn7.s 			page 4


  68 0030 1800     		movs	r0, r3
  69 0032 BD46     		mov	sp, r7
  70 0034 06B0     		add	sp, sp, #24
  71              		@ sp needed
  72 0036 80BD     		pop	{r7, pc}
  73              		.cfi_endproc
  74              	.LFE36:
  75              		.size	_write, .-_write
  76              		.section	.rodata
  77              		.align	2
  78              	.LC1:
  79 0000 4379426C 		.ascii	"CyBle_GetStackLibraryVersion API Error: \000"
  79      655F4765 
  79      74537461 
  79      636B4C69 
  79      62726172 
  80 0029 000000   		.align	2
  81              	.LC3:
  82 002c 424C4520 		.ascii	"BLE Stack Version: %d.%d.%d.%d\015\012\000"
  82      53746163 
  82      6B205665 
  82      7273696F 
  82      6E3A2025 
  83              		.section	.text.PrintStackVersion,"ax",%progbits
  84              		.align	2
  85              		.global	PrintStackVersion
  86              		.code	16
  87              		.thumb_func
  88              		.type	PrintStackVersion, %function
  89              	PrintStackVersion:
  90              	.LFB37:
 103:debug.c       **** 
 104:debug.c       **** #endif  /* (__ARMCC_VERSION) */
 105:debug.c       **** 
 106:debug.c       **** #endif /* DEBUG_UART_ENABLED == ENABLED */
 107:debug.c       **** 
 108:debug.c       **** 
 109:debug.c       **** /*******************************************************************************
 110:debug.c       **** * Function Name: PrintStackVersion
 111:debug.c       **** ********************************************************************************
 112:debug.c       **** *
 113:debug.c       **** * Summary:
 114:debug.c       **** *   Prints the BLE Stack version if the PRINT_STACK_VERSION is defined.
 115:debug.c       **** *
 116:debug.c       **** * Parameters:
 117:debug.c       **** *   None.
 118:debug.c       **** *
 119:debug.c       **** * Return:
 120:debug.c       **** *   None.
 121:debug.c       **** *
 122:debug.c       **** *******************************************************************************/
 123:debug.c       **** void PrintStackVersion(void)
 124:debug.c       **** {
  91              		.loc 1 124 0
  92              		.cfi_startproc
  93              		@ args = 0, pretend = 0, frame = 8
  94              		@ frame_needed = 1, uses_anonymous_args = 0
ARM GAS  C:\Users\user\AppData\Local\Temp\ccJFhRn7.s 			page 5


  95 0000 90B5     		push	{r4, r7, lr}
  96              		.cfi_def_cfa_offset 12
  97              		.cfi_offset 4, -12
  98              		.cfi_offset 7, -8
  99              		.cfi_offset 14, -4
 100 0002 85B0     		sub	sp, sp, #20
 101              		.cfi_def_cfa_offset 32
 102 0004 02AF     		add	r7, sp, #8
 103              		.cfi_def_cfa 7, 24
 125:debug.c       ****     CYBLE_STACK_LIB_VERSION_T stackVersion;
 126:debug.c       ****     
 127:debug.c       ****     apiResult = CyBle_GetStackLibraryVersion(&stackVersion);
 104              		.loc 1 127 0
 105 0006 3B00     		movs	r3, r7
 106 0008 1800     		movs	r0, r3
 107 000a FFF7FEFF 		bl	CyBle_GetStackLibraryVersion
 108 000e 0300     		movs	r3, r0
 109 0010 1A00     		movs	r2, r3
 110 0012 104B     		ldr	r3, .L9
 111 0014 1A80     		strh	r2, [r3]
 128:debug.c       ****     if(apiResult != CYBLE_ERROR_OK)
 112              		.loc 1 128 0
 113 0016 0F4B     		ldr	r3, .L9
 114 0018 1B88     		ldrh	r3, [r3]
 115 001a 002B     		cmp	r3, #0
 116 001c 06D0     		beq	.L6
 129:debug.c       ****     {
 130:debug.c       ****         DBG_PRINTF("CyBle_GetStackLibraryVersion API Error: ");
 117              		.loc 1 130 0
 118 001e 0E4B     		ldr	r3, .L9+4
 119 0020 1800     		movs	r0, r3
 120 0022 FFF7FEFF 		bl	printf
 131:debug.c       ****         PrintApiResult();
 121              		.loc 1 131 0
 122 0026 FFF7FEFF 		bl	PrintApiResult
 132:debug.c       ****     }
 133:debug.c       ****     else
 134:debug.c       ****     {
 135:debug.c       ****         DBG_PRINTF("BLE Stack Version: %d.%d.%d.%d\r\n", stackVersion.majorVersion, 
 136:debug.c       ****                                                          stackVersion.minorVersion,
 137:debug.c       ****                                                          stackVersion.patch,
 138:debug.c       ****                                                          stackVersion.buildNumber);
 139:debug.c       ****     }
 140:debug.c       **** }
 123              		.loc 1 140 0
 124 002a 0FE0     		b	.L8
 125              	.L6:
 135:debug.c       ****                                                          stackVersion.minorVersion,
 126              		.loc 1 135 0
 127 002c 3B00     		movs	r3, r7
 128 002e 1B88     		ldrh	r3, [r3]
 129 0030 1900     		movs	r1, r3
 130 0032 3B00     		movs	r3, r7
 131 0034 5B88     		ldrh	r3, [r3, #2]
 132 0036 1A00     		movs	r2, r3
 133 0038 3B00     		movs	r3, r7
 134 003a 9B88     		ldrh	r3, [r3, #4]
ARM GAS  C:\Users\user\AppData\Local\Temp\ccJFhRn7.s 			page 6


 135 003c 1C00     		movs	r4, r3
 136 003e 3B00     		movs	r3, r7
 137 0040 DB88     		ldrh	r3, [r3, #6]
 138 0042 0648     		ldr	r0, .L9+8
 139 0044 0093     		str	r3, [sp]
 140 0046 2300     		movs	r3, r4
 141 0048 FFF7FEFF 		bl	printf
 142              	.L8:
 143              		.loc 1 140 0
 144 004c C046     		nop
 145 004e BD46     		mov	sp, r7
 146 0050 03B0     		add	sp, sp, #12
 147              		@ sp needed
 148 0052 90BD     		pop	{r4, r7, pc}
 149              	.L10:
 150              		.align	2
 151              	.L9:
 152 0054 00000000 		.word	apiResult
 153 0058 00000000 		.word	.LC1
 154 005c 2C000000 		.word	.LC3
 155              		.cfi_endproc
 156              	.LFE37:
 157              		.size	PrintStackVersion, .-PrintStackVersion
 158              		.section	.rodata
 159 004d 000000   		.align	2
 160              	.LC5:
 161 0050 73746174 		.ascii	"state: \000"
 161      653A2000 
 162              		.align	2
 163              	.LC9:
 164 0058 73746F70 		.ascii	"stopped\015\000"
 164      7065640D 
 164      00
 165 0061 000000   		.align	2
 166              	.LC11:
 167 0064 696E6974 		.ascii	"initializing\015\000"
 167      69616C69 
 167      7A696E67 
 167      0D00
 168 0072 0000     		.align	2
 169              	.LC13:
 170 0074 636F6E6E 		.ascii	"connected\015\000"
 170      65637465 
 170      640D00
 171 007f 00       		.align	2
 172              	.LC15:
 173 0080 64697363 		.ascii	"disconnected\015\000"
 173      6F6E6E65 
 173      63746564 
 173      0D00
 174 008e 0000     		.align	2
 175              	.LC17:
 176 0090 61647665 		.ascii	"advertising\015\000"
 176      72746973 
 176      696E670D 
 176      00
 177 009d 000000   		.align	2
ARM GAS  C:\Users\user\AppData\Local\Temp\ccJFhRn7.s 			page 7


 178              	.LC19:
 179 00a0 756E6B6E 		.ascii	"unknown\015\000"
 179      6F776E0D 
 179      00
 180              		.section	.text.PrintState,"ax",%progbits
 181              		.align	2
 182              		.global	PrintState
 183              		.code	16
 184              		.thumb_func
 185              		.type	PrintState, %function
 186              	PrintState:
 187              	.LFB38:
 141:debug.c       **** 
 142:debug.c       **** /*******************************************************************************
 143:debug.c       **** * Function Name: PrintState
 144:debug.c       **** ********************************************************************************
 145:debug.c       **** *
 146:debug.c       **** * Summary:
 147:debug.c       **** *   Decodes and prints the cyBle_state global variable value.
 148:debug.c       **** *
 149:debug.c       **** * Parameters:
 150:debug.c       **** *   None.
 151:debug.c       **** *
 152:debug.c       **** * Return:
 153:debug.c       **** *   None.
 154:debug.c       **** *
 155:debug.c       **** *******************************************************************************/
 156:debug.c       **** void PrintState(void)
 157:debug.c       **** {
 188              		.loc 1 157 0
 189              		.cfi_startproc
 190              		@ args = 0, pretend = 0, frame = 0
 191              		@ frame_needed = 1, uses_anonymous_args = 0
 192 0000 80B5     		push	{r7, lr}
 193              		.cfi_def_cfa_offset 8
 194              		.cfi_offset 7, -8
 195              		.cfi_offset 14, -4
 196 0002 00AF     		add	r7, sp, #0
 197              		.cfi_def_cfa_register 7
 158:debug.c       ****     DBG_PRINTF("state: ");
 198              		.loc 1 158 0
 199 0004 164B     		ldr	r3, .L20
 200 0006 1800     		movs	r0, r3
 201 0008 FFF7FEFF 		bl	printf
 159:debug.c       ****     switch(CyBle_GetState())
 202              		.loc 1 159 0
 203 000c 154B     		ldr	r3, .L20+4
 204 000e 1B78     		ldrb	r3, [r3]
 205 0010 042B     		cmp	r3, #4
 206 0012 1DD8     		bhi	.L12
 207 0014 9A00     		lsls	r2, r3, #2
 208 0016 144B     		ldr	r3, .L20+8
 209 0018 D318     		adds	r3, r2, r3
 210 001a 1B68     		ldr	r3, [r3]
 211 001c 9F46     		mov	pc, r3
 212              		.section	.rodata
 213 00a9 000000   		.align	2
ARM GAS  C:\Users\user\AppData\Local\Temp\ccJFhRn7.s 			page 8


 214              	.L14:
 215 00ac 1E000000 		.word	.L13
 216 00b0 28000000 		.word	.L15
 217 00b4 32000000 		.word	.L16
 218 00b8 46000000 		.word	.L17
 219 00bc 3C000000 		.word	.L18
 220              		.section	.text.PrintState
 221              	.L13:
 160:debug.c       ****     {
 161:debug.c       ****         case CYBLE_STATE_STOPPED:
 162:debug.c       ****             DBG_PRINTF("stopped\r\n");
 222              		.loc 1 162 0
 223 001e 134B     		ldr	r3, .L20+12
 224 0020 1800     		movs	r0, r3
 225 0022 FFF7FEFF 		bl	puts
 163:debug.c       ****             break;
 226              		.loc 1 163 0
 227 0026 18E0     		b	.L19
 228              	.L15:
 164:debug.c       ****             
 165:debug.c       ****         case CYBLE_STATE_INITIALIZING:
 166:debug.c       ****             DBG_PRINTF("initializing\r\n");
 229              		.loc 1 166 0
 230 0028 114B     		ldr	r3, .L20+16
 231 002a 1800     		movs	r0, r3
 232 002c FFF7FEFF 		bl	puts
 167:debug.c       ****             break;
 233              		.loc 1 167 0
 234 0030 13E0     		b	.L19
 235              	.L16:
 168:debug.c       ****             
 169:debug.c       ****         case CYBLE_STATE_CONNECTED:
 170:debug.c       ****             DBG_PRINTF("connected\r\n");
 236              		.loc 1 170 0
 237 0032 104B     		ldr	r3, .L20+20
 238 0034 1800     		movs	r0, r3
 239 0036 FFF7FEFF 		bl	puts
 171:debug.c       ****             break;
 240              		.loc 1 171 0
 241 003a 0EE0     		b	.L19
 242              	.L18:
 172:debug.c       ****             
 173:debug.c       ****         case CYBLE_STATE_DISCONNECTED:
 174:debug.c       ****             DBG_PRINTF("disconnected\r\n");
 243              		.loc 1 174 0
 244 003c 0E4B     		ldr	r3, .L20+24
 245 003e 1800     		movs	r0, r3
 246 0040 FFF7FEFF 		bl	puts
 175:debug.c       ****             break;
 247              		.loc 1 175 0
 248 0044 09E0     		b	.L19
 249              	.L17:
 176:debug.c       ****             
 177:debug.c       ****         case CYBLE_STATE_ADVERTISING:
 178:debug.c       ****             DBG_PRINTF("advertising\r\n");
 250              		.loc 1 178 0
 251 0046 0D4B     		ldr	r3, .L20+28
ARM GAS  C:\Users\user\AppData\Local\Temp\ccJFhRn7.s 			page 9


 252 0048 1800     		movs	r0, r3
 253 004a FFF7FEFF 		bl	puts
 179:debug.c       ****             break;
 254              		.loc 1 179 0
 255 004e 04E0     		b	.L19
 256              	.L12:
 180:debug.c       **** 
 181:debug.c       ****         default:
 182:debug.c       ****             DBG_PRINTF("unknown\r\n");
 257              		.loc 1 182 0
 258 0050 0B4B     		ldr	r3, .L20+32
 259 0052 1800     		movs	r0, r3
 260 0054 FFF7FEFF 		bl	puts
 183:debug.c       ****             break;
 261              		.loc 1 183 0
 262 0058 C046     		nop
 263              	.L19:
 184:debug.c       ****     }
 185:debug.c       **** }
 264              		.loc 1 185 0
 265 005a C046     		nop
 266 005c BD46     		mov	sp, r7
 267              		@ sp needed
 268 005e 80BD     		pop	{r7, pc}
 269              	.L21:
 270              		.align	2
 271              	.L20:
 272 0060 50000000 		.word	.LC5
 273 0064 00000000 		.word	cyBle_state
 274 0068 AC000000 		.word	.L14
 275 006c 58000000 		.word	.LC9
 276 0070 64000000 		.word	.LC11
 277 0074 74000000 		.word	.LC13
 278 0078 80000000 		.word	.LC15
 279 007c 90000000 		.word	.LC17
 280 0080 A0000000 		.word	.LC19
 281              		.cfi_endproc
 282              	.LFE38:
 283              		.size	PrintState, .-PrintState
 284              		.section	.rodata
 285              		.align	2
 286              	.LC22:
 287 00c0 30782532 		.ascii	"0x%2.2x \000"
 287      2E327820 
 287      00
 288 00c9 000000   		.align	2
 289              	.LC24:
 290 00cc 6F6B0D00 		.ascii	"ok\015\000"
 291              		.align	2
 292              	.LC26:
 293 00d0 696E7661 		.ascii	"invalid parameter\015\000"
 293      6C696420 
 293      70617261 
 293      6D657465 
 293      720D00
 294 00e3 00       		.align	2
 295              	.LC28:
ARM GAS  C:\Users\user\AppData\Local\Temp\ccJFhRn7.s 			page 10


 296 00e4 696E7661 		.ascii	"invalid operation\015\000"
 296      6C696420 
 296      6F706572 
 296      6174696F 
 296      6E0D00
 297 00f7 00       		.align	2
 298              	.LC30:
 299 00f8 6E6F2064 		.ascii	"no device entity\015\000"
 299      65766963 
 299      6520656E 
 299      74697479 
 299      0D00
 300 010a 0000     		.align	2
 301              	.LC32:
 302 010c 6E6F7469 		.ascii	"notification is disabled\015\000"
 302      66696361 
 302      74696F6E 
 302      20697320 
 302      64697361 
 303 0126 0000     		.align	2
 304              	.LC34:
 305 0128 696E6469 		.ascii	"indication is disabled\015\000"
 305      63617469 
 305      6F6E2069 
 305      73206469 
 305      7361626C 
 306              		.align	2
 307              	.LC36:
 308 0140 63686172 		.ascii	"characteristic is not discovered\015\000"
 308      61637465 
 308      72697374 
 308      69632069 
 308      73206E6F 
 309 0162 0000     		.align	2
 310              	.LC38:
 311 0164 696E7661 		.ascii	"invalid state: \000"
 311      6C696420 
 311      73746174 
 311      653A2000 
 312              		.align	2
 313              	.LC40:
 314 0174 696E7661 		.ascii	"invalid attribute handle\015\000"
 314      6C696420 
 314      61747472 
 314      69627574 
 314      65206861 
 315 018e 0000     		.align	2
 316              	.LC42:
 317 0190 666C6173 		.ascii	"flash write not permitted\015\000"
 317      68207772 
 317      69746520 
 317      6E6F7420 
 317      7065726D 
 318 01ab 00       		.align	2
 319              	.LC44:
 320 01ac 6F746865 		.ascii	"other api result\015\000"
 320      72206170 
ARM GAS  C:\Users\user\AppData\Local\Temp\ccJFhRn7.s 			page 11


 320      69207265 
 320      73756C74 
 320      0D00
 321              		.section	.text.PrintApiResult,"ax",%progbits
 322              		.align	2
 323              		.global	PrintApiResult
 324              		.code	16
 325              		.thumb_func
 326              		.type	PrintApiResult, %function
 327              	PrintApiResult:
 328              	.LFB39:
 186:debug.c       **** 
 187:debug.c       **** 
 188:debug.c       **** /*******************************************************************************
 189:debug.c       **** * Function Name: PrintApiResult
 190:debug.c       **** ********************************************************************************
 191:debug.c       **** *
 192:debug.c       **** * Summary:
 193:debug.c       **** *   Decodes and prints the apiResult global variable value.
 194:debug.c       **** *
 195:debug.c       **** * Parameters:
 196:debug.c       **** *   None.
 197:debug.c       **** *
 198:debug.c       **** * Return:
 199:debug.c       **** *   None.
 200:debug.c       **** *
 201:debug.c       **** *******************************************************************************/
 202:debug.c       **** void PrintApiResult(void)
 203:debug.c       **** {
 329              		.loc 1 203 0
 330              		.cfi_startproc
 331              		@ args = 0, pretend = 0, frame = 0
 332              		@ frame_needed = 1, uses_anonymous_args = 0
 333 0000 80B5     		push	{r7, lr}
 334              		.cfi_def_cfa_offset 8
 335              		.cfi_offset 7, -8
 336              		.cfi_offset 14, -4
 337 0002 00AF     		add	r7, sp, #0
 338              		.cfi_def_cfa_register 7
 204:debug.c       ****     DBG_PRINTF("0x%2.2x ", apiResult);
 339              		.loc 1 204 0
 340 0004 354B     		ldr	r3, .L38
 341 0006 1B88     		ldrh	r3, [r3]
 342 0008 1A00     		movs	r2, r3
 343 000a 354B     		ldr	r3, .L38+4
 344 000c 1100     		movs	r1, r2
 345 000e 1800     		movs	r0, r3
 346 0010 FFF7FEFF 		bl	printf
 205:debug.c       ****     
 206:debug.c       ****     switch(apiResult)
 347              		.loc 1 206 0
 348 0014 314B     		ldr	r3, .L38
 349 0016 1B88     		ldrh	r3, [r3]
 350 0018 132B     		cmp	r3, #19
 351 001a 4DD0     		beq	.L24
 352 001c 0ADC     		bgt	.L25
 353 001e 012B     		cmp	r3, #1
ARM GAS  C:\Users\user\AppData\Local\Temp\ccJFhRn7.s 			page 12


 354 0020 25D0     		beq	.L26
 355 0022 02DC     		bgt	.L27
 356 0024 002B     		cmp	r3, #0
 357 0026 1DD0     		beq	.L28
 358 0028 50E0     		b	.L23
 359              	.L27:
 360 002a 022B     		cmp	r3, #2
 361 002c 24D0     		beq	.L29
 362 002e 072B     		cmp	r3, #7
 363 0030 27D0     		beq	.L30
 364 0032 4BE0     		b	.L23
 365              	.L25:
 366 0034 0222     		movs	r2, #2
 367 0036 FF32     		adds	r2, r2, #255
 368 0038 9342     		cmp	r3, r2
 369 003a 2CD0     		beq	.L31
 370 003c 0222     		movs	r2, #2
 371 003e FF32     		adds	r2, r2, #255
 372 0040 9342     		cmp	r3, r2
 373 0042 06DC     		bgt	.L32
 374 0044 282B     		cmp	r3, #40
 375 0046 3CD0     		beq	.L33
 376 0048 8022     		movs	r2, #128
 377 004a 5200     		lsls	r2, r2, #1
 378 004c 9342     		cmp	r3, r2
 379 004e 1DD0     		beq	.L34
 380 0050 3CE0     		b	.L23
 381              	.L32:
 382 0052 8122     		movs	r2, #129
 383 0054 5200     		lsls	r2, r2, #1
 384 0056 9342     		cmp	r3, r2
 385 0058 22D0     		beq	.L35
 386 005a 0422     		movs	r2, #4
 387 005c FF32     		adds	r2, r2, #255
 388 005e 9342     		cmp	r3, r2
 389 0060 23D0     		beq	.L36
 390 0062 33E0     		b	.L23
 391              	.L28:
 207:debug.c       ****     {
 208:debug.c       ****         case CYBLE_ERROR_OK:
 209:debug.c       ****             DBG_PRINTF("ok\r\n");
 392              		.loc 1 209 0
 393 0064 1F4B     		ldr	r3, .L38+8
 394 0066 1800     		movs	r0, r3
 395 0068 FFF7FEFF 		bl	puts
 210:debug.c       ****             break;
 396              		.loc 1 210 0
 397 006c 33E0     		b	.L37
 398              	.L26:
 211:debug.c       ****             
 212:debug.c       ****         case CYBLE_ERROR_INVALID_PARAMETER:
 213:debug.c       ****             DBG_PRINTF("invalid parameter\r\n");
 399              		.loc 1 213 0
 400 006e 1E4B     		ldr	r3, .L38+12
 401 0070 1800     		movs	r0, r3
 402 0072 FFF7FEFF 		bl	puts
 214:debug.c       ****             break;
ARM GAS  C:\Users\user\AppData\Local\Temp\ccJFhRn7.s 			page 13


 403              		.loc 1 214 0
 404 0076 2EE0     		b	.L37
 405              	.L29:
 215:debug.c       ****             
 216:debug.c       ****         case CYBLE_ERROR_INVALID_OPERATION:
 217:debug.c       ****             DBG_PRINTF("invalid operation\r\n");
 406              		.loc 1 217 0
 407 0078 1C4B     		ldr	r3, .L38+16
 408 007a 1800     		movs	r0, r3
 409 007c FFF7FEFF 		bl	puts
 218:debug.c       ****             break;
 410              		.loc 1 218 0
 411 0080 29E0     		b	.L37
 412              	.L30:
 219:debug.c       ****             
 220:debug.c       ****         case CYBLE_ERROR_NO_DEVICE_ENTITY:
 221:debug.c       ****             DBG_PRINTF("no device entity\r\n");
 413              		.loc 1 221 0
 414 0082 1B4B     		ldr	r3, .L38+20
 415 0084 1800     		movs	r0, r3
 416 0086 FFF7FEFF 		bl	puts
 222:debug.c       ****             break;
 417              		.loc 1 222 0
 418 008a 24E0     		b	.L37
 419              	.L34:
 223:debug.c       ****             
 224:debug.c       ****         case CYBLE_ERROR_NTF_DISABLED:
 225:debug.c       ****             DBG_PRINTF("notification is disabled\r\n");
 420              		.loc 1 225 0
 421 008c 194B     		ldr	r3, .L38+24
 422 008e 1800     		movs	r0, r3
 423 0090 FFF7FEFF 		bl	puts
 226:debug.c       ****             break;
 424              		.loc 1 226 0
 425 0094 1FE0     		b	.L37
 426              	.L31:
 227:debug.c       ****             
 228:debug.c       ****         case CYBLE_ERROR_IND_DISABLED:
 229:debug.c       ****             DBG_PRINTF("indication is disabled\r\n");
 427              		.loc 1 229 0
 428 0096 184B     		ldr	r3, .L38+28
 429 0098 1800     		movs	r0, r3
 430 009a FFF7FEFF 		bl	puts
 230:debug.c       ****             break;
 431              		.loc 1 230 0
 432 009e 1AE0     		b	.L37
 433              	.L35:
 231:debug.c       ****             
 232:debug.c       ****         case CYBLE_ERROR_CHAR_IS_NOT_DISCOVERED:
 233:debug.c       ****             DBG_PRINTF("characteristic is not discovered\r\n");
 434              		.loc 1 233 0
 435 00a0 164B     		ldr	r3, .L38+32
 436 00a2 1800     		movs	r0, r3
 437 00a4 FFF7FEFF 		bl	puts
 234:debug.c       ****             break;
 438              		.loc 1 234 0
 439 00a8 15E0     		b	.L37
ARM GAS  C:\Users\user\AppData\Local\Temp\ccJFhRn7.s 			page 14


 440              	.L36:
 235:debug.c       ****             
 236:debug.c       ****         case CYBLE_ERROR_INVALID_STATE:
 237:debug.c       ****             DBG_PRINTF("invalid state: ");
 441              		.loc 1 237 0
 442 00aa 154B     		ldr	r3, .L38+36
 443 00ac 1800     		movs	r0, r3
 444 00ae FFF7FEFF 		bl	printf
 238:debug.c       ****             PrintState();
 445              		.loc 1 238 0
 446 00b2 FFF7FEFF 		bl	PrintState
 239:debug.c       ****             break;
 447              		.loc 1 239 0
 448 00b6 0EE0     		b	.L37
 449              	.L24:
 240:debug.c       ****             
 241:debug.c       ****         case CYBLE_ERROR_GATT_DB_INVALID_ATTR_HANDLE:
 242:debug.c       ****             DBG_PRINTF("invalid attribute handle\r\n");
 450              		.loc 1 242 0
 451 00b8 124B     		ldr	r3, .L38+40
 452 00ba 1800     		movs	r0, r3
 453 00bc FFF7FEFF 		bl	puts
 243:debug.c       ****             break;
 454              		.loc 1 243 0
 455 00c0 09E0     		b	.L37
 456              	.L33:
 244:debug.c       ****             
 245:debug.c       ****         case CYBLE_ERROR_FLASH_WRITE_NOT_PERMITED:
 246:debug.c       ****             DBG_PRINTF("flash write not permitted\r\n");
 457              		.loc 1 246 0
 458 00c2 114B     		ldr	r3, .L38+44
 459 00c4 1800     		movs	r0, r3
 460 00c6 FFF7FEFF 		bl	puts
 247:debug.c       ****             break;
 461              		.loc 1 247 0
 462 00ca 04E0     		b	.L37
 463              	.L23:
 248:debug.c       ****             
 249:debug.c       ****         default:
 250:debug.c       ****             DBG_PRINTF("other api result\r\n");
 464              		.loc 1 250 0
 465 00cc 0F4B     		ldr	r3, .L38+48
 466 00ce 1800     		movs	r0, r3
 467 00d0 FFF7FEFF 		bl	puts
 251:debug.c       ****             break;
 468              		.loc 1 251 0
 469 00d4 C046     		nop
 470              	.L37:
 252:debug.c       ****     }
 253:debug.c       **** }
 471              		.loc 1 253 0
 472 00d6 C046     		nop
 473 00d8 BD46     		mov	sp, r7
 474              		@ sp needed
 475 00da 80BD     		pop	{r7, pc}
 476              	.L39:
 477              		.align	2
ARM GAS  C:\Users\user\AppData\Local\Temp\ccJFhRn7.s 			page 15


 478              	.L38:
 479 00dc 00000000 		.word	apiResult
 480 00e0 C0000000 		.word	.LC22
 481 00e4 CC000000 		.word	.LC24
 482 00e8 D0000000 		.word	.LC26
 483 00ec E4000000 		.word	.LC28
 484 00f0 F8000000 		.word	.LC30
 485 00f4 0C010000 		.word	.LC32
 486 00f8 28010000 		.word	.LC34
 487 00fc 40010000 		.word	.LC36
 488 0100 64010000 		.word	.LC38
 489 0104 74010000 		.word	.LC40
 490 0108 90010000 		.word	.LC42
 491 010c AC010000 		.word	.LC44
 492              		.cfi_endproc
 493              	.LFE39:
 494              		.size	PrintApiResult, .-PrintApiResult
 495              		.text
 496              	.Letext0:
 497              		.file 2 "Generated_Source\\PSoC4/cytypes.h"
 498              		.file 3 "Generated_Source\\PSoC4/BLE_Stack.h"
 499              		.file 4 "Generated_Source\\PSoC4/BLE_eventHandler.h"
 500              		.file 5 "main.h"