ARM GAS  C:\Users\user\AppData\Local\Temp\ccRdimcD.s 			page 1


   1              		.syntax unified
   2              		.cpu cortex-m0
   3              		.fpu softvfp
   4              		.eabi_attribute 20, 1
   5              		.eabi_attribute 21, 1
   6              		.eabi_attribute 23, 3
   7              		.eabi_attribute 24, 1
   8              		.eabi_attribute 25, 1
   9              		.eabi_attribute 26, 1
  10              		.eabi_attribute 30, 6
  11              		.eabi_attribute 34, 0
  12              		.eabi_attribute 18, 4
  13              		.thumb
  14              		.syntax unified
  15              		.file	"main.c"
  16              		.text
  17              	.Ltext0:
  18              		.cfi_sections	.debug_frame
  19              		.comm	apiResult,2,2
  20              		.comm	i,2,2
  21              		.global	authState
  22              		.bss
  23              		.type	authState, %object
  24              		.size	authState, 1
  25              	authState:
  26 0000 00       		.space	1
  27              		.comm	passkeyValue,4,4
  28              		.comm	passkeyPow,4,4
  29              		.comm	passkeyCounter,1,1
  30              		.comm	command,1,1
  31              		.global	customCommand
  32              		.type	customCommand, %object
  33              		.size	customCommand, 1
  34              	customCommand:
  35 0001 00       		.space	1
  36              		.comm	peerAuthInfo,5,4
  37              		.section	.rodata
  38              		.align	2
  39              	.LC1:
  40 0000 4359424C 		.ascii	"CYBLE_EVT_STACK_ON \015\000"
  40      455F4556 
  40      545F5354 
  40      41434B5F 
  40      4F4E200D 
  41 0015 000000   		.align	2
  42              	.LC3:
  43 0018 4359424C 		.ascii	"CYBLE_EVT_STACK_BUSY_STATUS \015\000"
  43      455F4556 
  43      545F5354 
  43      41434B5F 
  43      42555359 
  44 0036 0000     		.align	2
  45              	.LC5:
  46 0038 4359424C 		.ascii	"CYBLE_EVT_TIMEOUT: %d \015\012\000"
  46      455F4556 
  46      545F5449 
  46      4D454F55 
ARM GAS  C:\Users\user\AppData\Local\Temp\ccRdimcD.s 			page 2


  46      543A2025 
  47 0051 000000   		.align	2
  48              	.LC7:
  49 0054 4359424C 		.ascii	"CYBLE_EVT_HARDWARE_ERROR \015\000"
  49      455F4556 
  49      545F4841 
  49      52445741 
  49      52455F45 
  50 006f 00       		.align	2
  51              	.LC9:
  52 0070 4359424C 		.ascii	"CYBLE_EVT_HCI_STATUS: %x \015\012\000"
  52      455F4556 
  52      545F4843 
  52      495F5354 
  52      41545553 
  53              		.align	2
  54              	.LC12:
  55 008c 4556545F 		.ascii	"EVT_AUTH_REQ: security=%x, bonding=%x, ekeySize=%x,"
  55      41555448 
  55      5F524551 
  55      3A207365 
  55      63757269 
  56 00bf 20657272 		.ascii	" err=%x \015\012\000"
  56      3D257820 
  56      0D0A00
  57 00ca 0000     		.align	2
  58              	.LC14:
  59 00cc 4359424C 		.ascii	"CYBLE_EVT_GAP_PASSKEY_ENTRY_REQUEST\015\000"
  59      455F4556 
  59      545F4741 
  59      505F5041 
  59      53534B45 
  60 00f1 000000   		.align	2
  61              	.LC16:
  62 00f4 456E7465 		.ascii	"Enter the passkey shown in the peer device: \015\000"
  62      72207468 
  62      65207061 
  62      73736B65 
  62      79207368 
  63 0122 0000     		.align	2
  64              	.LC22:
  65 0124 456E7465 		.ascii	"Enter this passkey in your peer device: %6.6ld \015"
  65      72207468 
  65      69732070 
  65      6173736B 
  65      65792069 
  66 0154 0A00     		.ascii	"\012\000"
  67 0156 0000     		.align	2
  68              	.LC24:
  69 0158 4359424C 		.ascii	"CYBLE_EVT_GAP_AUTH_FAILED, reason: \000"
  69      455F4556 
  69      545F4741 
  69      505F4155 
  69      54485F46 
  70              		.align	2
  71              	.LC27:
  72 017c 4E4F4E45 		.ascii	"NONE\015\000"
ARM GAS  C:\Users\user\AppData\Local\Temp\ccRdimcD.s 			page 3


  72      0D00
  73 0182 0000     		.align	2
  74              	.LC29:
  75 0184 50415353 		.ascii	"PASSKEY_ENTRY_FAILED\015\000"
  75      4B45595F 
  75      454E5452 
  75      595F4641 
  75      494C4544 
  76 019a 0000     		.align	2
  77              	.LC31:
  78 019c 4F4F425F 		.ascii	"OOB_DATA_NOT_AVAILABLE\015\000"
  78      44415441 
  78      5F4E4F54 
  78      5F415641 
  78      494C4142 
  79              		.align	2
  80              	.LC33:
  81 01b4 41555448 		.ascii	"AUTHENTICATION_REQ_NOT_MET\015\000"
  81      454E5449 
  81      43415449 
  81      4F4E5F52 
  81      45515F4E 
  82              		.align	2
  83              	.LC35:
  84 01d0 434F4E46 		.ascii	"CONFIRM_VALUE_NOT_MATCH\015\000"
  84      49524D5F 
  84      56414C55 
  84      455F4E4F 
  84      545F4D41 
  85 01e9 000000   		.align	2
  86              	.LC37:
  87 01ec 50414952 		.ascii	"PAIRING_NOT_SUPPORTED\015\000"
  87      494E475F 
  87      4E4F545F 
  87      53555050 
  87      4F525445 
  88 0203 00       		.align	2
  89              	.LC39:
  90 0204 494E5355 		.ascii	"INSUFFICIENT_ENCRYPTION_KEY_SIZE\015\000"
  90      46464943 
  90      49454E54 
  90      5F454E43 
  90      52595054 
  91 0226 0000     		.align	2
  92              	.LC41:
  93 0228 434F4D4D 		.ascii	"COMMAND_NOT_SUPPORTED\015\000"
  93      414E445F 
  93      4E4F545F 
  93      53555050 
  93      4F525445 
  94 023f 00       		.align	2
  95              	.LC43:
  96 0240 554E5350 		.ascii	"UNSPECIFIED_REASON\015\000"
  96      45434946 
  96      4945445F 
  96      52454153 
  96      4F4E0D00 
ARM GAS  C:\Users\user\AppData\Local\Temp\ccRdimcD.s 			page 4


  97              		.align	2
  98              	.LC45:
  99 0254 52455045 		.ascii	"REPEATED_ATTEMPTS\015\000"
  99      41544544 
  99      5F415454 
  99      454D5054 
  99      530D00
 100 0267 00       		.align	2
 101              	.LC47:
 102 0268 494E5641 		.ascii	"INVALID_PARAMETERS\015\000"
 102      4C49445F 
 102      50415241 
 102      4D455445 
 102      52530D00 
 103              		.align	2
 104              	.LC49:
 105 027c 41555448 		.ascii	"AUTHENTICATION_TIMEOUT\015\000"
 105      454E5449 
 105      43415449 
 105      4F4E5F54 
 105      494D454F 
 106              		.align	2
 107              	.LC51:
 108 0294 4C494E4B 		.ascii	"LINK_DISCONNECTED\015\000"
 108      5F444953 
 108      434F4E4E 
 108      45435445 
 108      440D00
 109 02a7 00       		.align	2
 110              	.LC53:
 111 02a8 30782578 		.ascii	"0x%x\015\012\000"
 111      0D0A00
 112 02af 00       		.align	2
 113              	.LC55:
 114 02b0 436F6D70 		.ascii	"Compare this passkey with displayed in your peer de"
 114      61726520 
 114      74686973 
 114      20706173 
 114      736B6579 
 115 02e3 76696365 		.ascii	"vice and press 'y' or 'n': %6.6ld \015\012\000"
 115      20616E64 
 115      20707265 
 115      73732027 
 115      7927206F 
 116              		.align	2
 117              	.LC57:
 118 0308 4359424C 		.ascii	"CYBLE_EVT_GAP_SMP_NEGOTIATED_AUTH_INFO: security:%x"
 118      455F4556 
 118      545F4741 
 118      505F534D 
 118      505F4E45 
 119 033b 2C20626F 		.ascii	", bonding:%x, ekeySize:%x, authErr %x \015\012\000"
 119      6E64696E 
 119      673A2578 
 119      2C20656B 
 119      65795369 
 120              		.align	2
ARM GAS  C:\Users\user\AppData\Local\Temp\ccRdimcD.s 			page 5


 121              	.LC60:
 122 0364 4359424C 		.ascii	"CYBLE_EVT_GAP_DEVICE_CONNECTED: %x \015\012\000"
 122      455F4556 
 122      545F4741 
 122      505F4445 
 122      56494345 
 123 038a 0000     		.align	2
 124              	.LC64:
 125 038c 20437942 		.ascii	" CyBle_GapAuthReq API Error: \000"
 125      6C655F47 
 125      61704175 
 125      74685265 
 125      71204150 
 126 03aa 0000     		.align	2
 127              	.LC66:
 128 03ac 4556545F 		.ascii	"EVT_GAP_DEVICE_DISCONNECTED, reason: %x \015\012\000"
 128      4741505F 
 128      44455649 
 128      43455F44 
 128      4953434F 
 129              		.global	__aeabi_ui2f
 130              		.global	__aeabi_f2d
 131              		.global	__aeabi_dmul
 132 03d7 00       		.align	2
 133              	.LC68:
 134 03d8 4359424C 		.ascii	"CYBLE_EVT_GAP_DEVICE_CONNECTED: connIntv = %.2f ms."
 134      455F4556 
 134      545F4741 
 134      505F4445 
 134      56494345 
 135 040b 0D0A00   		.ascii	"\015\012\000"
 136 040e 0000     		.align	2
 137              	.LC70:
 138 0410 41636365 		.ascii	"Accepted\000"
 138      70746564 
 138      00
 139 0419 000000   		.align	2
 140              	.LC72:
 141 041c 52656A65 		.ascii	"Rejected\000"
 141      63746564 
 141      00
 142 0425 000000   		.align	2
 143              	.LC74:
 144 0428 4359424C 		.ascii	"CYBLE_EVT_L2CAP_CONN_PARAM_UPDATE_RSP: %s\015\012\000"
 144      455F4556 
 144      545F4C32 
 144      4341505F 
 144      434F4E4E 
 145              		.align	2
 146              	.LC76:
 147 0454 41555448 		.ascii	"AUTH_COMPLETE: security:%x, bonding:%x, ekeySize:%x"
 147      5F434F4D 
 147      504C4554 
 147      453A2073 
 147      65637572 
 148 0487 2C206175 		.ascii	", authErr %x \015\012\000"
 148      74684572 
ARM GAS  C:\Users\user\AppData\Local\Temp\ccRdimcD.s 			page 6


 148      72202578 
 148      200D0A00 
 149 0497 00       		.align	2
 150              	.LC78:
 151 0498 4359424C 		.ascii	"CYBLE_EVT_GAP_ENCRYPT_CHANGE: %d \015\012\000"
 151      455F4556 
 151      545F4741 
 151      505F454E 
 151      43525950 
 152              		.align	2
 153              	.LC80:
 154 04bc 4359424C 		.ascii	"CYBLE_EVT_GAP_KEYINFO_EXCHNGE_CMPLT \015\000"
 154      455F4556 
 154      545F4741 
 154      505F4B45 
 154      59494E46 
 155 04e2 0000     		.align	2
 156              	.LC82:
 157 04e4 4359424C 		.ascii	"CYBLE_EVT_GAPP_ADVERTISEMENT_START_STOP \015\000"
 157      455F4556 
 157      545F4741 
 157      50505F41 
 157      44564552 
 158 050e 0000     		.align	2
 159              	.LC85:
 160 0510 48696265 		.ascii	"Hibernate \015\000"
 160      726E6174 
 160      65200D00 
 161              		.align	2
 162              	.LC87:
 163 051c 4359424C 		.ascii	"CYBLE_EVT_GATT_CONNECT_IND: attId %x, bdHandle %x \015"
 163      455F4556 
 163      545F4741 
 163      54545F43 
 163      4F4E4E45 
 164 054f 0A00     		.ascii	"\012\000"
 165 0551 000000   		.align	2
 166              	.LC89:
 167 0554 4359424C 		.ascii	"CYBLE_EVT_GATT_DISCONNECT_IND \015\000"
 167      455F4556 
 167      545F4741 
 167      54545F44 
 167      4953434F 
 168              		.align	2
 169              	.LC91:
 170 0574 4359424C 		.ascii	"CYBLE_EVT_GATTS_WRITE_REQ attr handle: %4.4x , valu"
 170      455F4556 
 170      545F4741 
 170      5454535F 
 170      57524954 
 171 05a7 653A2000 		.ascii	"e: \000"
 172 05ab 00       		.align	2
 173              	.LC94:
 174 05ac 25322E32 		.ascii	"%2.2x \000"
 174      782000
 175 05b3 00       		.align	2
 176              	.LC96:
ARM GAS  C:\Users\user\AppData\Local\Temp\ccRdimcD.s 			page 7


 177 05b4 0D00     		.ascii	"\015\000"
 178 05b6 0000     		.align	2
 179              	.LC98:
 180 05b8 4359424C 		.ascii	"CYBLE_EVT_GATTS_XCNHG_MTU_REQ \015\000"
 180      455F4556 
 180      545F4741 
 180      5454535F 
 180      58434E48 
 181              		.align	2
 182              	.LC100:
 183 05d8 4359424C 		.ascii	"CYBLE_EVT_GATTS_HANDLE_VALUE_CNF \015\000"
 183      455F4556 
 183      545F4741 
 183      5454535F 
 183      48414E44 
 184 05fb 00       		.align	2
 185              	.LC102:
 186 05fc 4359424C 		.ascii	"CYBLE_EVT_GATTS_PREP_WRITE_REQ \015\000"
 186      455F4556 
 186      545F4741 
 186      5454535F 
 186      50524550 
 187 061d 000000   		.align	2
 188              	.LC104:
 189 0620 4359424C 		.ascii	"CYBLE_EVT_GATTS_EXEC_WRITE_REQ \015\000"
 189      455F4556 
 189      545F4741 
 189      5454535F 
 189      45584543 
 190 0641 000000   		.align	2
 191              	.LC106:
 192 0644 4359424C 		.ascii	"CYBLE_EVT_GATTS_READ_CHAR_VAL_ACCESS_REQ: handle: %"
 192      455F4556 
 192      545F4741 
 192      5454535F 
 192      52454144 
 193 0677 78200D0A 		.ascii	"x \015\012\000"
 193      00
 194              		.align	2
 195              	.LC108:
 196 067c 4359424C 		.ascii	"CYBLE_EVT_GATTS_INDICATION_ENABLED \015\000"
 196      455F4556 
 196      545F4741 
 196      5454535F 
 196      494E4449 
 197 06a1 000000   		.align	2
 198              	.LC110:
 199 06a4 4359424C 		.ascii	"CYBLE_EVT_GATTS_INDICATION_DISABLED \015\000"
 199      455F4556 
 199      545F4741 
 199      5454535F 
 199      494E4449 
 200 06ca 0000     		.align	2
 201              	.LC112:
 202 06cc 4359424C 		.ascii	"CYBLE_EVT_GATTS_INDICATION \015\000"
 202      455F4556 
 202      545F4741 
ARM GAS  C:\Users\user\AppData\Local\Temp\ccRdimcD.s 			page 8


 202      5454535F 
 202      494E4449 
 203 06e9 000000   		.align	2
 204              	.LC114:
 205 06ec 4359424C 		.ascii	"CYBLE_EVT_L2CAP_CONN_PARAM_UPDATE_REQ \015\000"
 205      455F4556 
 205      545F4C32 
 205      4341505F 
 205      434F4E4E 
 206              		.align	2
 207              	.LC116:
 208 0714 4359424C 		.ascii	"CYBLE_EVT_PENDING_FLASH_WRITE\015\000"
 208      455F4556 
 208      545F5045 
 208      4E44494E 
 208      475F464C 
 209 0733 00       		.align	2
 210              	.LC118:
 211 0734 6F746865 		.ascii	"other event: 0x%lx \015\012\000"
 211      72206576 
 211      656E743A 
 211      20307825 
 211      6C78200D 
 212              		.section	.text.AppCallBack,"ax",%progbits
 213              		.align	2
 214              		.global	AppCallBack
 215              		.code	16
 216              		.thumb_func
 217              		.type	AppCallBack, %function
 218              	AppCallBack:
 219              	.LFB36:
 220              		.file 1 "main.c"
   1:main.c        **** /*******************************************************************************
   2:main.c        **** * File Name: main.c
   3:main.c        **** *
   4:main.c        **** * Version 1.0
   5:main.c        **** *
   6:main.c        **** * Description:
   7:main.c        **** *  This project demonstrates the operation of the CGM Profile
   8:main.c        **** *  in the GATT Server (GAP Peripheral) role.
   9:main.c        **** *
  10:main.c        **** * Note:
  11:main.c        **** *
  12:main.c        **** * Hardware Dependency:
  13:main.c        **** *  CY8CKIT-042 BLE
  14:main.c        **** *
  15:main.c        **** ********************************************************************************
  16:main.c        **** * Copyright 2016, Cypress Semiconductor Corporation.  All rights reserved.
  17:main.c        **** * You may use this file only in accordance with the license, terms, conditions,
  18:main.c        **** * disclaimers, and limitations in the end user license agreement accompanying
  19:main.c        **** * the software package with which this file was provided.
  20:main.c        **** *******************************************************************************/
  21:main.c        **** 
  22:main.c        **** #include "main.h"
  23:main.c        **** #include "project.h"
  24:main.c        **** 
  25:main.c        **** CYBLE_API_RESULT_T apiResult;
ARM GAS  C:\Users\user\AppData\Local\Temp\ccRdimcD.s 			page 9


  26:main.c        **** uint16 i;
  27:main.c        **** AUTHENTICATION_STATE    authState = AUTHENTICATION_NOT_CONNECTED;
  28:main.c        **** uint32  passkeyValue;
  29:main.c        **** uint32  passkeyPow;
  30:main.c        **** uint8   passkeyCounter;
  31:main.c        **** char8   command;
  32:main.c        **** uint8   customCommand = 0u;
  33:main.c        **** CYBLE_GAP_AUTH_INFO_T   peerAuthInfo;
  34:main.c        **** 
  35:main.c        **** 
  36:main.c        **** // Deklaracje funkcji
  37:main.c        **** void PrintUUID(CYBLE_UUID_T uuid, uint8 uuidFormat);
  38:main.c        **** void PrintCharacteristicInfo(const CYBLE_DISC_CHAR_INFO_T *charInfo);
  39:main.c        **** 
  40:main.c        **** /*******************************************************************************
  41:main.c        **** * Function Name: AppCallBack()
  42:main.c        **** ********************************************************************************
  43:main.c        **** *
  44:main.c        **** * Summary:
  45:main.c        **** *   This is an event callback function to receive events from the BLE Component.
  46:main.c        **** *
  47:main.c        **** * Parameters:
  48:main.c        **** *  event - The event code.
  49:main.c        **** *  *eventParam - The event parameters.
  50:main.c        **** *
  51:main.c        **** *******************************************************************************/
  52:main.c        **** void AppCallBack(uint32 event, void* eventParam)
  53:main.c        **** {   
 221              		.loc 1 53 0
 222              		.cfi_startproc
 223              		@ args = 0, pretend = 0, frame = 24
 224              		@ frame_needed = 1, uses_anonymous_args = 0
 225 0000 90B5     		push	{r4, r7, lr}
 226              		.cfi_def_cfa_offset 12
 227              		.cfi_offset 4, -12
 228              		.cfi_offset 7, -8
 229              		.cfi_offset 14, -4
 230 0002 89B0     		sub	sp, sp, #36
 231              		.cfi_def_cfa_offset 48
 232 0004 02AF     		add	r7, sp, #8
 233              		.cfi_def_cfa 7, 40
 234 0006 7860     		str	r0, [r7, #4]
 235 0008 3960     		str	r1, [r7]
  54:main.c        ****     CYBLE_GAP_CONN_PARAM_UPDATED_IN_CONTROLLER_T *connParameters;
  55:main.c        ****     
  56:main.c        ****     switch(event)
 236              		.loc 1 56 0
 237 000a 7A68     		ldr	r2, [r7, #4]
 238 000c 8323     		movs	r3, #131
 239 000e 5B00     		lsls	r3, r3, #1
 240 0010 9A42     		cmp	r2, r3
 241 0012 00D9     		bls	.LCB19
 242 0014 9BE2     		b	.L2	@long jump
 243              	.LCB19:
 244 0016 7B68     		ldr	r3, [r7, #4]
 245 0018 9A00     		lsls	r2, r3, #2
 246 001a E14B     		ldr	r3, .L66
ARM GAS  C:\Users\user\AppData\Local\Temp\ccRdimcD.s 			page 10


 247 001c D318     		adds	r3, r2, r3
 248 001e 1B68     		ldr	r3, [r3]
 249 0020 9F46     		mov	pc, r3
 250              		.section	.rodata
 251 074a 0000     		.align	2
 252              	.L4:
 253 074c 4E050000 		.word	.L2
 254 0750 22000000 		.word	.L3
 255 0754 40000000 		.word	.L5
 256 0758 52000000 		.word	.L6
 257 075c 5C000000 		.word	.L7
 258 0760 36000000 		.word	.L8
 259 0764 4E050000 		.word	.L2
 260 0768 4E050000 		.word	.L2
 261 076c 4E050000 		.word	.L2
 262 0770 4E050000 		.word	.L2
 263 0774 4E050000 		.word	.L2
 264 0778 4E050000 		.word	.L2
 265 077c 4E050000 		.word	.L2
 266 0780 4E050000 		.word	.L2
 267 0784 4E050000 		.word	.L2
 268 0788 4E050000 		.word	.L2
 269 078c 4E050000 		.word	.L2
 270 0790 4E050000 		.word	.L2
 271 0794 4E050000 		.word	.L2
 272 0798 4E050000 		.word	.L2
 273 079c 4E050000 		.word	.L2
 274 07a0 4E050000 		.word	.L2
 275 07a4 4E050000 		.word	.L2
 276 07a8 4E050000 		.word	.L2
 277 07ac 4E050000 		.word	.L2
 278 07b0 4E050000 		.word	.L2
 279 07b4 4E050000 		.word	.L2
 280 07b8 4E050000 		.word	.L2
 281 07bc 4E050000 		.word	.L2
 282 07c0 4E050000 		.word	.L2
 283 07c4 4E050000 		.word	.L2
 284 07c8 4E050000 		.word	.L2
 285 07cc 4E050000 		.word	.L2
 286 07d0 6E000000 		.word	.L9
 287 07d4 A0000000 		.word	.L10
 288 07d8 CA000000 		.word	.L11
 289 07dc AE020000 		.word	.L12
 290 07e0 DA000000 		.word	.L13
 291 07e4 02030000 		.word	.L14
 292 07e8 D8010000 		.word	.L15
 293 07ec 3C020000 		.word	.L16
 294 07f0 E6020000 		.word	.L17
 295 07f4 64020000 		.word	.L18
 296 07f8 4E050000 		.word	.L2
 297 07fc F8020000 		.word	.L19
 298 0800 90010000 		.word	.L20
 299 0804 4E050000 		.word	.L2
 300 0808 4E050000 		.word	.L2
 301 080c 4E050000 		.word	.L2
 302 0810 4E050000 		.word	.L2
 303 0814 4E050000 		.word	.L2
ARM GAS  C:\Users\user\AppData\Local\Temp\ccRdimcD.s 			page 11


 304 0818 A6010000 		.word	.L21
 305 081c 4E050000 		.word	.L2
 306 0820 4E050000 		.word	.L2
 307 0824 4E050000 		.word	.L2
 308 0828 4E050000 		.word	.L2
 309 082c 4E050000 		.word	.L2
 310 0830 4E050000 		.word	.L2
 311 0834 4E050000 		.word	.L2
 312 0838 4E050000 		.word	.L2
 313 083c 4E050000 		.word	.L2
 314 0840 4E050000 		.word	.L2
 315 0844 4E050000 		.word	.L2
 316 0848 4E050000 		.word	.L2
 317 084c 4E050000 		.word	.L2
 318 0850 80030000 		.word	.L22
 319 0854 96030000 		.word	.L23
 320 0858 CA040000 		.word	.L24
 321 085c 4E050000 		.word	.L2
 322 0860 4E050000 		.word	.L2
 323 0864 4E050000 		.word	.L2
 324 0868 4E050000 		.word	.L2
 325 086c 4E050000 		.word	.L2
 326 0870 4E050000 		.word	.L2
 327 0874 4E050000 		.word	.L2
 328 0878 4E050000 		.word	.L2
 329 087c 78040000 		.word	.L25
 330 0880 4E050000 		.word	.L2
 331 0884 4E050000 		.word	.L2
 332 0888 EA040000 		.word	.L26
 333 088c F4040000 		.word	.L27
 334 0890 4E050000 		.word	.L2
 335 0894 4E050000 		.word	.L2
 336 0898 4E050000 		.word	.L2
 337 089c E0040000 		.word	.L28
 338 08a0 4E050000 		.word	.L2
 339 08a4 4E050000 		.word	.L2
 340 08a8 FE040000 		.word	.L29
 341 08ac 4E050000 		.word	.L2
 342 08b0 4E050000 		.word	.L2
 343 08b4 4E050000 		.word	.L2
 344 08b8 4E050000 		.word	.L2
 345 08bc 4E050000 		.word	.L2
 346 08c0 4E050000 		.word	.L2
 347 08c4 4E050000 		.word	.L2
 348 08c8 4E050000 		.word	.L2
 349 08cc 4E050000 		.word	.L2
 350 08d0 4E050000 		.word	.L2
 351 08d4 4E050000 		.word	.L2
 352 08d8 4E050000 		.word	.L2
 353 08dc 4E050000 		.word	.L2
 354 08e0 4E050000 		.word	.L2
 355 08e4 4E050000 		.word	.L2
 356 08e8 4E050000 		.word	.L2
 357 08ec 4E050000 		.word	.L2
 358 08f0 4E050000 		.word	.L2
 359 08f4 4E050000 		.word	.L2
 360 08f8 4E050000 		.word	.L2
ARM GAS  C:\Users\user\AppData\Local\Temp\ccRdimcD.s 			page 12


 361 08fc 4E050000 		.word	.L2
 362 0900 4E050000 		.word	.L2
 363 0904 4E050000 		.word	.L2
 364 0908 4E050000 		.word	.L2
 365 090c 3A050000 		.word	.L30
 366 0910 94020000 		.word	.L31
 367 0914 4E050000 		.word	.L2
 368 0918 4E050000 		.word	.L2
 369 091c 4E050000 		.word	.L2
 370 0920 4E050000 		.word	.L2
 371 0924 4E050000 		.word	.L2
 372 0928 4E050000 		.word	.L2
 373 092c 4E050000 		.word	.L2
 374 0930 4E050000 		.word	.L2
 375 0934 4E050000 		.word	.L2
 376 0938 4E050000 		.word	.L2
 377 093c 4E050000 		.word	.L2
 378 0940 4E050000 		.word	.L2
 379 0944 4E050000 		.word	.L2
 380 0948 4E050000 		.word	.L2
 381 094c 4E050000 		.word	.L2
 382 0950 4E050000 		.word	.L2
 383 0954 4E050000 		.word	.L2
 384 0958 4E050000 		.word	.L2
 385 095c 4E050000 		.word	.L2
 386 0960 4E050000 		.word	.L2
 387 0964 4E050000 		.word	.L2
 388 0968 4E050000 		.word	.L2
 389 096c 4E050000 		.word	.L2
 390 0970 4E050000 		.word	.L2
 391 0974 4E050000 		.word	.L2
 392 0978 4E050000 		.word	.L2
 393 097c 4E050000 		.word	.L2
 394 0980 4E050000 		.word	.L2
 395 0984 4E050000 		.word	.L2
 396 0988 4E050000 		.word	.L2
 397 098c 4E050000 		.word	.L2
 398 0990 4E050000 		.word	.L2
 399 0994 4E050000 		.word	.L2
 400 0998 4E050000 		.word	.L2
 401 099c 4E050000 		.word	.L2
 402 09a0 4E050000 		.word	.L2
 403 09a4 4E050000 		.word	.L2
 404 09a8 4E050000 		.word	.L2
 405 09ac 4E050000 		.word	.L2
 406 09b0 4E050000 		.word	.L2
 407 09b4 4E050000 		.word	.L2
 408 09b8 4E050000 		.word	.L2
 409 09bc 4E050000 		.word	.L2
 410 09c0 4E050000 		.word	.L2
 411 09c4 4E050000 		.word	.L2
 412 09c8 4E050000 		.word	.L2
 413 09cc 4E050000 		.word	.L2
 414 09d0 4E050000 		.word	.L2
 415 09d4 4E050000 		.word	.L2
 416 09d8 4E050000 		.word	.L2
 417 09dc 4E050000 		.word	.L2
ARM GAS  C:\Users\user\AppData\Local\Temp\ccRdimcD.s 			page 13


 418 09e0 4E050000 		.word	.L2
 419 09e4 4E050000 		.word	.L2
 420 09e8 4E050000 		.word	.L2
 421 09ec 4E050000 		.word	.L2
 422 09f0 4E050000 		.word	.L2
 423 09f4 4E050000 		.word	.L2
 424 09f8 4E050000 		.word	.L2
 425 09fc 4E050000 		.word	.L2
 426 0a00 4E050000 		.word	.L2
 427 0a04 4E050000 		.word	.L2
 428 0a08 4E050000 		.word	.L2
 429 0a0c 4E050000 		.word	.L2
 430 0a10 4E050000 		.word	.L2
 431 0a14 4E050000 		.word	.L2
 432 0a18 4E050000 		.word	.L2
 433 0a1c 4E050000 		.word	.L2
 434 0a20 4E050000 		.word	.L2
 435 0a24 4E050000 		.word	.L2
 436 0a28 4E050000 		.word	.L2
 437 0a2c 4E050000 		.word	.L2
 438 0a30 4E050000 		.word	.L2
 439 0a34 4E050000 		.word	.L2
 440 0a38 4E050000 		.word	.L2
 441 0a3c 4E050000 		.word	.L2
 442 0a40 4E050000 		.word	.L2
 443 0a44 4E050000 		.word	.L2
 444 0a48 4E050000 		.word	.L2
 445 0a4c 4E050000 		.word	.L2
 446 0a50 4E050000 		.word	.L2
 447 0a54 4E050000 		.word	.L2
 448 0a58 4E050000 		.word	.L2
 449 0a5c 4E050000 		.word	.L2
 450 0a60 4E050000 		.word	.L2
 451 0a64 4E050000 		.word	.L2
 452 0a68 4E050000 		.word	.L2
 453 0a6c 4E050000 		.word	.L2
 454 0a70 4E050000 		.word	.L2
 455 0a74 4E050000 		.word	.L2
 456 0a78 4E050000 		.word	.L2
 457 0a7c 4E050000 		.word	.L2
 458 0a80 4E050000 		.word	.L2
 459 0a84 4E050000 		.word	.L2
 460 0a88 4E050000 		.word	.L2
 461 0a8c 4E050000 		.word	.L2
 462 0a90 4E050000 		.word	.L2
 463 0a94 4E050000 		.word	.L2
 464 0a98 4E050000 		.word	.L2
 465 0a9c 4E050000 		.word	.L2
 466 0aa0 4E050000 		.word	.L2
 467 0aa4 4E050000 		.word	.L2
 468 0aa8 4E050000 		.word	.L2
 469 0aac 4E050000 		.word	.L2
 470 0ab0 4E050000 		.word	.L2
 471 0ab4 4E050000 		.word	.L2
 472 0ab8 4E050000 		.word	.L2
 473 0abc 4E050000 		.word	.L2
 474 0ac0 4E050000 		.word	.L2
ARM GAS  C:\Users\user\AppData\Local\Temp\ccRdimcD.s 			page 14


 475 0ac4 4E050000 		.word	.L2
 476 0ac8 4E050000 		.word	.L2
 477 0acc 4E050000 		.word	.L2
 478 0ad0 4E050000 		.word	.L2
 479 0ad4 4E050000 		.word	.L2
 480 0ad8 4E050000 		.word	.L2
 481 0adc 4E050000 		.word	.L2
 482 0ae0 4E050000 		.word	.L2
 483 0ae4 4E050000 		.word	.L2
 484 0ae8 4E050000 		.word	.L2
 485 0aec 4E050000 		.word	.L2
 486 0af0 4E050000 		.word	.L2
 487 0af4 4E050000 		.word	.L2
 488 0af8 4E050000 		.word	.L2
 489 0afc 4E050000 		.word	.L2
 490 0b00 4E050000 		.word	.L2
 491 0b04 4E050000 		.word	.L2
 492 0b08 4E050000 		.word	.L2
 493 0b0c 4E050000 		.word	.L2
 494 0b10 4E050000 		.word	.L2
 495 0b14 4E050000 		.word	.L2
 496 0b18 4E050000 		.word	.L2
 497 0b1c 4E050000 		.word	.L2
 498 0b20 4E050000 		.word	.L2
 499 0b24 4E050000 		.word	.L2
 500 0b28 4E050000 		.word	.L2
 501 0b2c 4E050000 		.word	.L2
 502 0b30 4E050000 		.word	.L2
 503 0b34 44050000 		.word	.L32
 504 0b38 4E050000 		.word	.L2
 505 0b3c 4E050000 		.word	.L2
 506 0b40 4E050000 		.word	.L2
 507 0b44 4E050000 		.word	.L2
 508 0b48 4E050000 		.word	.L2
 509 0b4c 4E050000 		.word	.L2
 510 0b50 4E050000 		.word	.L2
 511 0b54 4E050000 		.word	.L2
 512 0b58 4E050000 		.word	.L2
 513 0b5c 1C050000 		.word	.L33
 514 0b60 26050000 		.word	.L34
 515 0b64 30050000 		.word	.L35
 516              		.section	.text.AppCallBack
 517              	.L3:
 518              	.LBB2:
  57:main.c        ****     {
  58:main.c        ****         case CYBLE_EVT_STACK_ON:
  59:main.c        ****             DBG_PRINTF("CYBLE_EVT_STACK_ON \r\n");
 519              		.loc 1 59 0
 520 0022 E04B     		ldr	r3, .L66+4
 521 0024 1800     		movs	r0, r3
 522 0026 FFF7FEFF 		bl	puts
  60:main.c        ****             /* Put device to discoverable mode so that remote can search it. */
  61:main.c        ****             StartAdvertisement();
 523              		.loc 1 61 0
 524 002a FFF7FEFF 		bl	StartAdvertisement
  62:main.c        ****             Advertising_LED_Write(LED_OFF);
 525              		.loc 1 62 0
ARM GAS  C:\Users\user\AppData\Local\Temp\ccRdimcD.s 			page 15


 526 002e 0120     		movs	r0, #1
 527 0030 FFF7FEFF 		bl	Advertising_LED_Write
  63:main.c        **** 			break;
 528              		.loc 1 63 0
 529 0034 93E2     		b	.L36
 530              	.L8:
  64:main.c        **** 
  65:main.c        ****         case CYBLE_EVT_STACK_BUSY_STATUS:
  66:main.c        ****             DBG_PRINTF("CYBLE_EVT_STACK_BUSY_STATUS \r\n");
 531              		.loc 1 66 0
 532 0036 DC4B     		ldr	r3, .L66+8
 533 0038 1800     		movs	r0, r3
 534 003a FFF7FEFF 		bl	puts
  67:main.c        ****             break;
 535              		.loc 1 67 0
 536 003e 8EE2     		b	.L36
 537              	.L5:
  68:main.c        **** 
  69:main.c        ****         case CYBLE_EVT_TIMEOUT: /* 0x01 -> GAP limited discoverable mode timeout. */
  70:main.c        ****                                 /* 0x02 -> GAP pairing process timeout. */
  71:main.c        ****                                 /* 0x03 -> GATT response timeout. */
  72:main.c        ****             DBG_PRINTF("CYBLE_EVT_TIMEOUT: %d \r\n", *(uint8 *)eventParam);
 538              		.loc 1 72 0
 539 0040 3B68     		ldr	r3, [r7]
 540 0042 1B78     		ldrb	r3, [r3]
 541 0044 1A00     		movs	r2, r3
 542 0046 D94B     		ldr	r3, .L66+12
 543 0048 1100     		movs	r1, r2
 544 004a 1800     		movs	r0, r3
 545 004c FFF7FEFF 		bl	printf
  73:main.c        ****             break;
 546              		.loc 1 73 0
 547 0050 85E2     		b	.L36
 548              	.L6:
  74:main.c        **** 
  75:main.c        ****         case CYBLE_EVT_HARDWARE_ERROR:    /* This event indicates that some internal HW error has o
  76:main.c        ****             DBG_PRINTF("CYBLE_EVT_HARDWARE_ERROR \r\n");
 549              		.loc 1 76 0
 550 0052 D74B     		ldr	r3, .L66+16
 551 0054 1800     		movs	r0, r3
 552 0056 FFF7FEFF 		bl	puts
  77:main.c        ****             break;
 553              		.loc 1 77 0
 554 005a 80E2     		b	.L36
 555              	.L7:
  78:main.c        **** 
  79:main.c        ****         case CYBLE_EVT_HCI_STATUS:
  80:main.c        ****             DBG_PRINTF("CYBLE_EVT_HCI_STATUS: %x \r\n", *(uint8 *)eventParam);
 556              		.loc 1 80 0
 557 005c 3B68     		ldr	r3, [r7]
 558 005e 1B78     		ldrb	r3, [r3]
 559 0060 1A00     		movs	r2, r3
 560 0062 D44B     		ldr	r3, .L66+20
 561 0064 1100     		movs	r1, r2
 562 0066 1800     		movs	r0, r3
 563 0068 FFF7FEFF 		bl	printf
  81:main.c        ****             break;
ARM GAS  C:\Users\user\AppData\Local\Temp\ccRdimcD.s 			page 16


 564              		.loc 1 81 0
 565 006c 77E2     		b	.L36
 566              	.L9:
  82:main.c        ****             
  83:main.c        ****         /**********************************************************
  84:main.c        ****         *                       GAP Events
  85:main.c        ****         ***********************************************************/
  86:main.c        **** 
  87:main.c        ****         case CYBLE_EVT_GAP_AUTH_REQ:
  88:main.c        ****             peerAuthInfo = *(CYBLE_GAP_AUTH_INFO_T *)eventParam;
 567              		.loc 1 88 0
 568 006e D24A     		ldr	r2, .L66+24
 569 0070 3B68     		ldr	r3, [r7]
 570 0072 1000     		movs	r0, r2
 571 0074 1900     		movs	r1, r3
 572 0076 0523     		movs	r3, #5
 573 0078 1A00     		movs	r2, r3
 574 007a FFF7FEFF 		bl	memcpy
  89:main.c        ****             DBG_PRINTF("EVT_AUTH_REQ: security=%x, bonding=%x, ekeySize=%x, err=%x \r\n", 
 575              		.loc 1 89 0
 576 007e CE4B     		ldr	r3, .L66+24
 577 0080 1B78     		ldrb	r3, [r3]
 578 0082 1900     		movs	r1, r3
 579 0084 CC4B     		ldr	r3, .L66+24
 580 0086 5B78     		ldrb	r3, [r3, #1]
 581 0088 1A00     		movs	r2, r3
 582 008a CB4B     		ldr	r3, .L66+24
 583 008c 9B78     		ldrb	r3, [r3, #2]
 584 008e 1C00     		movs	r4, r3
 585 0090 C94B     		ldr	r3, .L66+24
 586 0092 DB78     		ldrb	r3, [r3, #3]
 587 0094 C948     		ldr	r0, .L66+28
 588 0096 0093     		str	r3, [sp]
 589 0098 2300     		movs	r3, r4
 590 009a FFF7FEFF 		bl	printf
  90:main.c        ****             peerAuthInfo.security, 
  91:main.c        ****             peerAuthInfo.bonding, 
  92:main.c        ****             peerAuthInfo.ekeySize, 
  93:main.c        ****             peerAuthInfo.authErr);
  94:main.c        ****             break;
 591              		.loc 1 94 0
 592 009e 5EE2     		b	.L36
 593              	.L10:
  95:main.c        ****             
  96:main.c        **** 	    case CYBLE_EVT_GAP_PASSKEY_ENTRY_REQUEST:
  97:main.c        ****             DBG_PRINTF("CYBLE_EVT_GAP_PASSKEY_ENTRY_REQUEST\r\n");
 594              		.loc 1 97 0
 595 00a0 C74B     		ldr	r3, .L66+32
 596 00a2 1800     		movs	r0, r3
 597 00a4 FFF7FEFF 		bl	puts
  98:main.c        ****             DBG_PRINTF("Enter the passkey shown in the peer device: \r\n");
 598              		.loc 1 98 0
 599 00a8 C64B     		ldr	r3, .L66+36
 600 00aa 1800     		movs	r0, r3
 601 00ac FFF7FEFF 		bl	puts
  99:main.c        ****             authState = AUTHENTICATION_WAITING_FOR_PASSKEY;
 602              		.loc 1 99 0
ARM GAS  C:\Users\user\AppData\Local\Temp\ccRdimcD.s 			page 17


 603 00b0 C54B     		ldr	r3, .L66+40
 604 00b2 0122     		movs	r2, #1
 605 00b4 1A70     		strb	r2, [r3]
 100:main.c        ****             passkeyValue = 0u;
 606              		.loc 1 100 0
 607 00b6 C54B     		ldr	r3, .L66+44
 608 00b8 0022     		movs	r2, #0
 609 00ba 1A60     		str	r2, [r3]
 101:main.c        ****             passkeyPow = 100000u;
 610              		.loc 1 101 0
 611 00bc C44B     		ldr	r3, .L66+48
 612 00be C54A     		ldr	r2, .L66+52
 613 00c0 1A60     		str	r2, [r3]
 102:main.c        ****             passkeyCounter = 0u;
 614              		.loc 1 102 0
 615 00c2 C54B     		ldr	r3, .L66+56
 616 00c4 0022     		movs	r2, #0
 617 00c6 1A70     		strb	r2, [r3]
 103:main.c        ****             break;
 618              		.loc 1 103 0
 619 00c8 49E2     		b	.L36
 620              	.L11:
 104:main.c        ****             
 105:main.c        **** 	    case CYBLE_EVT_GAP_PASSKEY_DISPLAY_REQUEST:
 106:main.c        ****             DBG_PRINTF("Enter this passkey in your peer device: %6.6ld \r\n", *(uint32 *)eventParam
 621              		.loc 1 106 0
 622 00ca 3B68     		ldr	r3, [r7]
 623 00cc 1A68     		ldr	r2, [r3]
 624 00ce C34B     		ldr	r3, .L66+60
 625 00d0 1100     		movs	r1, r2
 626 00d2 1800     		movs	r0, r3
 627 00d4 FFF7FEFF 		bl	printf
 107:main.c        ****             break;
 628              		.loc 1 107 0
 629 00d8 41E2     		b	.L36
 630              	.L13:
 108:main.c        ****             
 109:main.c        ****         case CYBLE_EVT_GAP_AUTH_FAILED:
 110:main.c        ****             DBG_PRINTF("CYBLE_EVT_GAP_AUTH_FAILED, reason: ");
 631              		.loc 1 110 0
 632 00da C14B     		ldr	r3, .L66+64
 633 00dc 1800     		movs	r0, r3
 634 00de FFF7FEFF 		bl	printf
 111:main.c        ****             switch(*(CYBLE_GAP_AUTH_FAILED_REASON_T *)eventParam)
 635              		.loc 1 111 0
 636 00e2 3B68     		ldr	r3, [r7]
 637 00e4 1B78     		ldrb	r3, [r3]
 638 00e6 182B     		cmp	r3, #24
 639 00e8 45D8     		bhi	.L37
 640 00ea 9A00     		lsls	r2, r3, #2
 641 00ec BD4B     		ldr	r3, .L66+68
 642 00ee D318     		adds	r3, r2, r3
 643 00f0 1B68     		ldr	r3, [r3]
 644 00f2 9F46     		mov	pc, r3
 645              		.section	.rodata
 646              		.align	2
 647              	.L39:
ARM GAS  C:\Users\user\AppData\Local\Temp\ccRdimcD.s 			page 18


 648 0b68 F4000000 		.word	.L38
 649 0b6c FE000000 		.word	.L40
 650 0b70 08010000 		.word	.L41
 651 0b74 12010000 		.word	.L42
 652 0b78 1C010000 		.word	.L43
 653 0b7c 26010000 		.word	.L44
 654 0b80 30010000 		.word	.L45
 655 0b84 3A010000 		.word	.L46
 656 0b88 44010000 		.word	.L47
 657 0b8c 4E010000 		.word	.L48
 658 0b90 58010000 		.word	.L49
 659 0b94 76010000 		.word	.L37
 660 0b98 76010000 		.word	.L37
 661 0b9c 76010000 		.word	.L37
 662 0ba0 76010000 		.word	.L37
 663 0ba4 76010000 		.word	.L37
 664 0ba8 76010000 		.word	.L37
 665 0bac 76010000 		.word	.L37
 666 0bb0 76010000 		.word	.L37
 667 0bb4 76010000 		.word	.L37
 668 0bb8 76010000 		.word	.L37
 669 0bbc 62010000 		.word	.L50
 670 0bc0 76010000 		.word	.L37
 671 0bc4 76010000 		.word	.L37
 672 0bc8 6C010000 		.word	.L51
 673              		.section	.text.AppCallBack
 674              	.L38:
 112:main.c        ****             {
 113:main.c        ****                 case CYBLE_GAP_AUTH_ERROR_NONE:
 114:main.c        ****                     DBG_PRINTF("NONE\r\n");
 675              		.loc 1 114 0
 676 00f4 BC4B     		ldr	r3, .L66+72
 677 00f6 1800     		movs	r0, r3
 678 00f8 FFF7FEFF 		bl	puts
 115:main.c        ****                     break;
 679              		.loc 1 115 0
 680 00fc 44E0     		b	.L52
 681              	.L40:
 116:main.c        **** 
 117:main.c        ****                 case CYBLE_GAP_AUTH_ERROR_PASSKEY_ENTRY_FAILED:
 118:main.c        ****                     DBG_PRINTF("PASSKEY_ENTRY_FAILED\r\n");
 682              		.loc 1 118 0
 683 00fe BB4B     		ldr	r3, .L66+76
 684 0100 1800     		movs	r0, r3
 685 0102 FFF7FEFF 		bl	puts
 119:main.c        ****                     break;
 686              		.loc 1 119 0
 687 0106 3FE0     		b	.L52
 688              	.L41:
 120:main.c        **** 
 121:main.c        ****                 case CYBLE_GAP_AUTH_ERROR_OOB_DATA_NOT_AVAILABLE:
 122:main.c        ****                     DBG_PRINTF("OOB_DATA_NOT_AVAILABLE\r\n");
 689              		.loc 1 122 0
 690 0108 B94B     		ldr	r3, .L66+80
 691 010a 1800     		movs	r0, r3
 692 010c FFF7FEFF 		bl	puts
 123:main.c        ****                     break;
ARM GAS  C:\Users\user\AppData\Local\Temp\ccRdimcD.s 			page 19


 693              		.loc 1 123 0
 694 0110 3AE0     		b	.L52
 695              	.L42:
 124:main.c        **** 
 125:main.c        ****                 case CYBLE_GAP_AUTH_ERROR_AUTHENTICATION_REQ_NOT_MET:
 126:main.c        ****                     DBG_PRINTF("AUTHENTICATION_REQ_NOT_MET\r\n");
 696              		.loc 1 126 0
 697 0112 B84B     		ldr	r3, .L66+84
 698 0114 1800     		movs	r0, r3
 699 0116 FFF7FEFF 		bl	puts
 127:main.c        ****                     break;
 700              		.loc 1 127 0
 701 011a 35E0     		b	.L52
 702              	.L43:
 128:main.c        **** 
 129:main.c        ****                 case CYBLE_GAP_AUTH_ERROR_CONFIRM_VALUE_NOT_MATCH:
 130:main.c        ****                     DBG_PRINTF("CONFIRM_VALUE_NOT_MATCH\r\n");
 703              		.loc 1 130 0
 704 011c B64B     		ldr	r3, .L66+88
 705 011e 1800     		movs	r0, r3
 706 0120 FFF7FEFF 		bl	puts
 131:main.c        ****                     break;
 707              		.loc 1 131 0
 708 0124 30E0     		b	.L52
 709              	.L44:
 132:main.c        **** 
 133:main.c        ****                 case CYBLE_GAP_AUTH_ERROR_PAIRING_NOT_SUPPORTED:
 134:main.c        ****                     DBG_PRINTF("PAIRING_NOT_SUPPORTED\r\n");
 710              		.loc 1 134 0
 711 0126 B54B     		ldr	r3, .L66+92
 712 0128 1800     		movs	r0, r3
 713 012a FFF7FEFF 		bl	puts
 135:main.c        ****                     break;
 714              		.loc 1 135 0
 715 012e 2BE0     		b	.L52
 716              	.L45:
 136:main.c        **** 
 137:main.c        ****                 case CYBLE_GAP_AUTH_ERROR_INSUFFICIENT_ENCRYPTION_KEY_SIZE:
 138:main.c        ****                     DBG_PRINTF("INSUFFICIENT_ENCRYPTION_KEY_SIZE\r\n");
 717              		.loc 1 138 0
 718 0130 B34B     		ldr	r3, .L66+96
 719 0132 1800     		movs	r0, r3
 720 0134 FFF7FEFF 		bl	puts
 139:main.c        ****                     break;
 721              		.loc 1 139 0
 722 0138 26E0     		b	.L52
 723              	.L46:
 140:main.c        **** 
 141:main.c        ****                 case CYBLE_GAP_AUTH_ERROR_COMMAND_NOT_SUPPORTED:
 142:main.c        ****                     DBG_PRINTF("COMMAND_NOT_SUPPORTED\r\n");
 724              		.loc 1 142 0
 725 013a B24B     		ldr	r3, .L66+100
 726 013c 1800     		movs	r0, r3
 727 013e FFF7FEFF 		bl	puts
 143:main.c        ****                     break;
 728              		.loc 1 143 0
 729 0142 21E0     		b	.L52
ARM GAS  C:\Users\user\AppData\Local\Temp\ccRdimcD.s 			page 20


 730              	.L47:
 144:main.c        **** 
 145:main.c        ****                 case CYBLE_GAP_AUTH_ERROR_UNSPECIFIED_REASON:
 146:main.c        ****                     DBG_PRINTF("UNSPECIFIED_REASON\r\n");
 731              		.loc 1 146 0
 732 0144 B04B     		ldr	r3, .L66+104
 733 0146 1800     		movs	r0, r3
 734 0148 FFF7FEFF 		bl	puts
 147:main.c        ****                     break;
 735              		.loc 1 147 0
 736 014c 1CE0     		b	.L52
 737              	.L48:
 148:main.c        **** 
 149:main.c        ****                 case CYBLE_GAP_AUTH_ERROR_REPEATED_ATTEMPTS:
 150:main.c        ****                     DBG_PRINTF("REPEATED_ATTEMPTS\r\n");
 738              		.loc 1 150 0
 739 014e AF4B     		ldr	r3, .L66+108
 740 0150 1800     		movs	r0, r3
 741 0152 FFF7FEFF 		bl	puts
 151:main.c        ****                     break;
 742              		.loc 1 151 0
 743 0156 17E0     		b	.L52
 744              	.L49:
 152:main.c        **** 
 153:main.c        ****                 case CYBLE_GAP_AUTH_ERROR_INVALID_PARAMETERS:
 154:main.c        ****                     DBG_PRINTF("INVALID_PARAMETERS\r\n");
 745              		.loc 1 154 0
 746 0158 AD4B     		ldr	r3, .L66+112
 747 015a 1800     		movs	r0, r3
 748 015c FFF7FEFF 		bl	puts
 155:main.c        ****                     break;
 749              		.loc 1 155 0
 750 0160 12E0     		b	.L52
 751              	.L50:
 156:main.c        **** 
 157:main.c        ****                 case CYBLE_GAP_AUTH_ERROR_AUTHENTICATION_TIMEOUT:
 158:main.c        ****                     DBG_PRINTF("AUTHENTICATION_TIMEOUT\r\n");
 752              		.loc 1 158 0
 753 0162 AC4B     		ldr	r3, .L66+116
 754 0164 1800     		movs	r0, r3
 755 0166 FFF7FEFF 		bl	puts
 159:main.c        ****                     break;
 756              		.loc 1 159 0
 757 016a 0DE0     		b	.L52
 758              	.L51:
 160:main.c        **** 	              
 161:main.c        ****                 case CYBLE_GAP_AUTH_ERROR_LINK_DISCONNECTED:
 162:main.c        ****                     DBG_PRINTF("LINK_DISCONNECTED\r\n");
 759              		.loc 1 162 0
 760 016c AA4B     		ldr	r3, .L66+120
 761 016e 1800     		movs	r0, r3
 762 0170 FFF7FEFF 		bl	puts
 163:main.c        ****                     break;
 763              		.loc 1 163 0
 764 0174 08E0     		b	.L52
 765              	.L37:
 164:main.c        ****                     
ARM GAS  C:\Users\user\AppData\Local\Temp\ccRdimcD.s 			page 21


 165:main.c        ****                 default:
 166:main.c        ****                     DBG_PRINTF("0x%x\r\n", *(CYBLE_GAP_AUTH_FAILED_REASON_T *)eventParam);
 766              		.loc 1 166 0
 767 0176 3B68     		ldr	r3, [r7]
 768 0178 1B78     		ldrb	r3, [r3]
 769 017a 1A00     		movs	r2, r3
 770 017c A74B     		ldr	r3, .L66+124
 771 017e 1100     		movs	r1, r2
 772 0180 1800     		movs	r0, r3
 773 0182 FFF7FEFF 		bl	printf
 167:main.c        ****                     break;
 774              		.loc 1 167 0
 775 0186 C046     		nop
 776              	.L52:
 168:main.c        ****             }
 169:main.c        ****             authState = AUTHENTICATION_BONDING_COMPLETE;
 777              		.loc 1 169 0
 778 0188 8F4B     		ldr	r3, .L66+40
 779 018a 0522     		movs	r2, #5
 780 018c 1A70     		strb	r2, [r3]
 170:main.c        ****             break;
 781              		.loc 1 170 0
 782 018e E6E1     		b	.L36
 783              	.L20:
 171:main.c        ****         
 172:main.c        ****         case CYBLE_EVT_GAP_NUMERIC_COMPARISON_REQUEST:
 173:main.c        ****             DBG_PRINTF("Compare this passkey with displayed in your peer device and press 'y' or 'n
 784              		.loc 1 173 0
 785 0190 3B68     		ldr	r3, [r7]
 786 0192 1A68     		ldr	r2, [r3]
 787 0194 A24B     		ldr	r3, .L66+128
 788 0196 1100     		movs	r1, r2
 789 0198 1800     		movs	r0, r3
 790 019a FFF7FEFF 		bl	printf
 174:main.c        ****                                     *(uint32 *)eventParam);
 175:main.c        ****             authState = AUTHENTICATION_PASSKEY_YES_NO;
 791              		.loc 1 175 0
 792 019e 8A4B     		ldr	r3, .L66+40
 793 01a0 0322     		movs	r2, #3
 794 01a2 1A70     		strb	r2, [r3]
 176:main.c        ****             break;
 795              		.loc 1 176 0
 796 01a4 DBE1     		b	.L36
 797              	.L21:
 177:main.c        ****             
 178:main.c        ****         case CYBLE_EVT_GAP_SMP_NEGOTIATED_AUTH_INFO:
 179:main.c        ****             peerAuthInfo = *(CYBLE_GAP_AUTH_INFO_T *)eventParam;
 798              		.loc 1 179 0
 799 01a6 844A     		ldr	r2, .L66+24
 800 01a8 3B68     		ldr	r3, [r7]
 801 01aa 1000     		movs	r0, r2
 802 01ac 1900     		movs	r1, r3
 803 01ae 0523     		movs	r3, #5
 804 01b0 1A00     		movs	r2, r3
 805 01b2 FFF7FEFF 		bl	memcpy
 180:main.c        ****             DBG_PRINTF("CYBLE_EVT_GAP_SMP_NEGOTIATED_AUTH_INFO: security:%x, bonding:%x, ekeySize:%
 806              		.loc 1 180 0
ARM GAS  C:\Users\user\AppData\Local\Temp\ccRdimcD.s 			page 22


 807 01b6 804B     		ldr	r3, .L66+24
 808 01b8 1B78     		ldrb	r3, [r3]
 809 01ba 1900     		movs	r1, r3
 810 01bc 7E4B     		ldr	r3, .L66+24
 811 01be 5B78     		ldrb	r3, [r3, #1]
 812 01c0 1A00     		movs	r2, r3
 813 01c2 7D4B     		ldr	r3, .L66+24
 814 01c4 9B78     		ldrb	r3, [r3, #2]
 815 01c6 1C00     		movs	r4, r3
 816 01c8 7B4B     		ldr	r3, .L66+24
 817 01ca DB78     		ldrb	r3, [r3, #3]
 818 01cc 9548     		ldr	r0, .L66+132
 819 01ce 0093     		str	r3, [sp]
 820 01d0 2300     		movs	r3, r4
 821 01d2 FFF7FEFF 		bl	printf
 181:main.c        ****             peerAuthInfo.security, 
 182:main.c        ****             peerAuthInfo.bonding, 
 183:main.c        ****             peerAuthInfo.ekeySize, 
 184:main.c        ****             peerAuthInfo.authErr);
 185:main.c        ****             break;
 822              		.loc 1 185 0
 823 01d6 C2E1     		b	.L36
 824              	.L15:
 186:main.c        ****         
 187:main.c        ****         case CYBLE_EVT_GAP_DEVICE_CONNECTED:
 188:main.c        ****             DBG_PRINTF("CYBLE_EVT_GAP_DEVICE_CONNECTED: %x \r\n", cyBle_connHandle.bdHandle);
 825              		.loc 1 188 0
 826 01d8 934B     		ldr	r3, .L66+136
 827 01da 1B78     		ldrb	r3, [r3]
 828 01dc 1A00     		movs	r2, r3
 829 01de 934B     		ldr	r3, .L66+140
 830 01e0 1100     		movs	r1, r2
 831 01e2 1800     		movs	r0, r3
 832 01e4 FFF7FEFF 		bl	printf
 189:main.c        ****             
 190:main.c        ****              /* Initiate pairing process */
 191:main.c        ****             if((cyBle_authInfo.security & CYBLE_GAP_SEC_LEVEL_MASK) > CYBLE_GAP_SEC_LEVEL_1)
 833              		.loc 1 191 0
 834 01e8 914B     		ldr	r3, .L66+144
 835 01ea 1B78     		ldrb	r3, [r3]
 836 01ec 1A00     		movs	r2, r3
 837 01ee 0F23     		movs	r3, #15
 838 01f0 1340     		ands	r3, r2
 839 01f2 002B     		cmp	r3, #0
 840 01f4 15DD     		ble	.L53
 192:main.c        ****             {
 193:main.c        ****                 apiResult = CyBle_GapAuthReq(cyBle_connHandle.bdHandle, &cyBle_authInfo);
 841              		.loc 1 193 0
 842 01f6 8C4B     		ldr	r3, .L66+136
 843 01f8 1B78     		ldrb	r3, [r3]
 844 01fa 8D4A     		ldr	r2, .L66+144
 845 01fc 1100     		movs	r1, r2
 846 01fe 1800     		movs	r0, r3
 847 0200 FFF7FEFF 		bl	CyBle_GapAuthReq
 848 0204 0300     		movs	r3, r0
 849 0206 1A00     		movs	r2, r3
 850 0208 8A4B     		ldr	r3, .L66+148
ARM GAS  C:\Users\user\AppData\Local\Temp\ccRdimcD.s 			page 23


 851 020a 1A80     		strh	r2, [r3]
 194:main.c        ****                 if(apiResult != CYBLE_ERROR_OK)
 852              		.loc 1 194 0
 853 020c 894B     		ldr	r3, .L66+148
 854 020e 1B88     		ldrh	r3, [r3]
 855 0210 002B     		cmp	r3, #0
 856 0212 09D0     		beq	.L55
 195:main.c        ****                 {
 196:main.c        ****                     DBG_PRINTF(" CyBle_GapAuthReq API Error: ");
 857              		.loc 1 196 0
 858 0214 884B     		ldr	r3, .L66+152
 859 0216 1800     		movs	r0, r3
 860 0218 FFF7FEFF 		bl	printf
 197:main.c        ****                     PrintApiResult();
 861              		.loc 1 197 0
 862 021c FFF7FEFF 		bl	PrintApiResult
 863 0220 02E0     		b	.L55
 864              	.L53:
 198:main.c        ****                 }
 199:main.c        ****             }
 200:main.c        ****             else
 201:main.c        ****             {
 202:main.c        ****                 authState = AUTHENTICATION_BONDING_COMPLETE;
 865              		.loc 1 202 0
 866 0222 694B     		ldr	r3, .L66+40
 867 0224 0522     		movs	r2, #5
 868 0226 1A70     		strb	r2, [r3]
 869              	.L55:
 203:main.c        ****             }
 204:main.c        ****             
 205:main.c        ****             Disconnect_LED_Write(LED_OFF);
 870              		.loc 1 205 0
 871 0228 0120     		movs	r0, #1
 872 022a FFF7FEFF 		bl	Disconnect_LED_Write
 206:main.c        ****             Advertising_LED_Write(LED_OFF);
 873              		.loc 1 206 0
 874 022e 0120     		movs	r0, #1
 875 0230 FFF7FEFF 		bl	Advertising_LED_Write
 207:main.c        ****             Connected_LED_Write(LED_ON);
 876              		.loc 1 207 0
 877 0234 0020     		movs	r0, #0
 878 0236 FFF7FEFF 		bl	Connected_LED_Write
 208:main.c        ****             break;
 879              		.loc 1 208 0
 880 023a 90E1     		b	.L36
 881              	.L16:
 209:main.c        **** 
 210:main.c        ****         case CYBLE_EVT_GAP_DEVICE_DISCONNECTED:
 211:main.c        ****             DBG_PRINTF("EVT_GAP_DEVICE_DISCONNECTED, reason: %x \r\n", *(uint8*)eventParam);
 882              		.loc 1 211 0
 883 023c 3B68     		ldr	r3, [r7]
 884 023e 1B78     		ldrb	r3, [r3]
 885 0240 1A00     		movs	r2, r3
 886 0242 7E4B     		ldr	r3, .L66+156
 887 0244 1100     		movs	r1, r2
 888 0246 1800     		movs	r0, r3
 889 0248 FFF7FEFF 		bl	printf
ARM GAS  C:\Users\user\AppData\Local\Temp\ccRdimcD.s 			page 24


 212:main.c        ****             /* Put device to discoverable mode so that remote can search it. */
 213:main.c        ****             StartAdvertisement();
 890              		.loc 1 213 0
 891 024c FFF7FEFF 		bl	StartAdvertisement
 214:main.c        ****             Disconnect_LED_Write(LED_ON);
 892              		.loc 1 214 0
 893 0250 0020     		movs	r0, #0
 894 0252 FFF7FEFF 		bl	Disconnect_LED_Write
 215:main.c        ****             Advertising_LED_Write(LED_OFF);
 895              		.loc 1 215 0
 896 0256 0120     		movs	r0, #1
 897 0258 FFF7FEFF 		bl	Advertising_LED_Write
 216:main.c        ****             Connected_LED_Write(LED_OFF);
 898              		.loc 1 216 0
 899 025c 0120     		movs	r0, #1
 900 025e FFF7FEFF 		bl	Connected_LED_Write
 217:main.c        ****             break;
 901              		.loc 1 217 0
 902 0262 7CE1     		b	.L36
 903              	.L18:
 218:main.c        ****             
 219:main.c        ****         case CYBLE_EVT_GAPC_CONNECTION_UPDATE_COMPLETE:       
 220:main.c        ****             connParameters = (CYBLE_GAP_CONN_PARAM_UPDATED_IN_CONTROLLER_T *)eventParam;
 904              		.loc 1 220 0
 905 0264 3B68     		ldr	r3, [r7]
 906 0266 7B61     		str	r3, [r7, #20]
 221:main.c        ****             DBG_PRINTF("CYBLE_EVT_GAP_DEVICE_CONNECTED: connIntv = %.2f ms.\r\n",   
 907              		.loc 1 221 0
 908 0268 7B69     		ldr	r3, [r7, #20]
 909 026a 5B88     		ldrh	r3, [r3, #2]
 910 026c 1800     		movs	r0, r3
 911 026e FFF7FEFF 		bl	__aeabi_ui2f
 912 0272 031C     		adds	r3, r0, #0
 913 0274 181C     		adds	r0, r3, #0
 914 0276 FFF7FEFF 		bl	__aeabi_f2d
 915 027a 0022     		movs	r2, #0
 916 027c 704B     		ldr	r3, .L66+160
 917 027e FFF7FEFF 		bl	__aeabi_dmul
 918 0282 0300     		movs	r3, r0
 919 0284 0C00     		movs	r4, r1
 920 0286 6F49     		ldr	r1, .L66+164
 921 0288 1A00     		movs	r2, r3
 922 028a 2300     		movs	r3, r4
 923 028c 0800     		movs	r0, r1
 924 028e FFF7FEFF 		bl	printf
 222:main.c        ****             (float)connParameters->connIntv * CYBLE_CONN_INTRV_TO_MS);
 223:main.c        ****             break;
 925              		.loc 1 223 0
 926 0292 64E1     		b	.L36
 927              	.L31:
 224:main.c        ****         
 225:main.c        ****         case CYBLE_EVT_L2CAP_CONN_PARAM_UPDATE_RSP:
 226:main.c        ****             DBG_PRINTF("CYBLE_EVT_L2CAP_CONN_PARAM_UPDATE_RSP: %s\r\n", 
 928              		.loc 1 226 0
 929 0294 3B68     		ldr	r3, [r7]
 930 0296 1B88     		ldrh	r3, [r3]
 931 0298 002B     		cmp	r3, #0
ARM GAS  C:\Users\user\AppData\Local\Temp\ccRdimcD.s 			page 25


 932 029a 01D1     		bne	.L56
 933              		.loc 1 226 0 is_stmt 0 discriminator 1
 934 029c 6A4B     		ldr	r3, .L66+168
 935 029e 00E0     		b	.L57
 936              	.L56:
 937              		.loc 1 226 0 discriminator 2
 938 02a0 6A4B     		ldr	r3, .L66+172
 939              	.L57:
 940              		.loc 1 226 0 discriminator 4
 941 02a2 6B4A     		ldr	r2, .L66+176
 942 02a4 1900     		movs	r1, r3
 943 02a6 1000     		movs	r0, r2
 944 02a8 FFF7FEFF 		bl	printf
 227:main.c        ****             *(uint16 *)eventParam == 0u ? "Accepted" : "Rejected");
 228:main.c        ****             break; 
 945              		.loc 1 228 0 is_stmt 1 discriminator 4
 946 02ac 57E1     		b	.L36
 947              	.L12:
 229:main.c        **** 
 230:main.c        ****         case CYBLE_EVT_GAP_AUTH_COMPLETE:
 231:main.c        ****             /* Authentication complete; initiate bonding */
 232:main.c        ****             peerAuthInfo = *(CYBLE_GAP_AUTH_INFO_T *)eventParam;
 948              		.loc 1 232 0
 949 02ae 424A     		ldr	r2, .L66+24
 950 02b0 3B68     		ldr	r3, [r7]
 951 02b2 1000     		movs	r0, r2
 952 02b4 1900     		movs	r1, r3
 953 02b6 0523     		movs	r3, #5
 954 02b8 1A00     		movs	r2, r3
 955 02ba FFF7FEFF 		bl	memcpy
 233:main.c        ****             DBG_PRINTF("AUTH_COMPLETE: security:%x, bonding:%x, ekeySize:%x, authErr %x \r\n", 
 956              		.loc 1 233 0
 957 02be 3E4B     		ldr	r3, .L66+24
 958 02c0 1B78     		ldrb	r3, [r3]
 959 02c2 1900     		movs	r1, r3
 960 02c4 3C4B     		ldr	r3, .L66+24
 961 02c6 5B78     		ldrb	r3, [r3, #1]
 962 02c8 1A00     		movs	r2, r3
 963 02ca 3B4B     		ldr	r3, .L66+24
 964 02cc 9B78     		ldrb	r3, [r3, #2]
 965 02ce 1C00     		movs	r4, r3
 966 02d0 394B     		ldr	r3, .L66+24
 967 02d2 DB78     		ldrb	r3, [r3, #3]
 968 02d4 5F48     		ldr	r0, .L66+180
 969 02d6 0093     		str	r3, [sp]
 970 02d8 2300     		movs	r3, r4
 971 02da FFF7FEFF 		bl	printf
 234:main.c        ****             peerAuthInfo.security, 
 235:main.c        ****             peerAuthInfo.bonding, 
 236:main.c        ****             peerAuthInfo.ekeySize, 
 237:main.c        ****             peerAuthInfo.authErr);
 238:main.c        ****             authState = AUTHENTICATION_COMPLETE_BONDING_REQD;
 972              		.loc 1 238 0
 973 02de 3A4B     		ldr	r3, .L66+40
 974 02e0 0422     		movs	r2, #4
 975 02e2 1A70     		strb	r2, [r3]
 239:main.c        ****             break;
ARM GAS  C:\Users\user\AppData\Local\Temp\ccRdimcD.s 			page 26


 976              		.loc 1 239 0
 977 02e4 3BE1     		b	.L36
 978              	.L17:
 240:main.c        **** 
 241:main.c        ****         case CYBLE_EVT_GAP_ENCRYPT_CHANGE:
 242:main.c        ****             DBG_PRINTF("CYBLE_EVT_GAP_ENCRYPT_CHANGE: %d \r\n", *(uint8 *)eventParam);
 979              		.loc 1 242 0
 980 02e6 3B68     		ldr	r3, [r7]
 981 02e8 1B78     		ldrb	r3, [r3]
 982 02ea 1A00     		movs	r2, r3
 983 02ec 5A4B     		ldr	r3, .L66+184
 984 02ee 1100     		movs	r1, r2
 985 02f0 1800     		movs	r0, r3
 986 02f2 FFF7FEFF 		bl	printf
 243:main.c        ****             break;
 987              		.loc 1 243 0
 988 02f6 32E1     		b	.L36
 989              	.L19:
 244:main.c        ****             
 245:main.c        ****         case CYBLE_EVT_GAP_KEYINFO_EXCHNGE_CMPLT:
 246:main.c        ****             DBG_PRINTF("CYBLE_EVT_GAP_KEYINFO_EXCHNGE_CMPLT \r\n");
 990              		.loc 1 246 0
 991 02f8 584B     		ldr	r3, .L66+188
 992 02fa 1800     		movs	r0, r3
 993 02fc FFF7FEFF 		bl	puts
 247:main.c        ****             break;
 994              		.loc 1 247 0
 995 0300 2DE1     		b	.L36
 996              	.L14:
 248:main.c        **** 			
 249:main.c        ****         case CYBLE_EVT_GAPP_ADVERTISEMENT_START_STOP:
 250:main.c        ****             DBG_PRINTF("CYBLE_EVT_GAPP_ADVERTISEMENT_START_STOP \r\n");
 997              		.loc 1 250 0
 998 0302 574B     		ldr	r3, .L66+192
 999 0304 1800     		movs	r0, r3
 1000 0306 FFF7FEFF 		bl	puts
 251:main.c        ****             PrintState();
 1001              		.loc 1 251 0
 1002 030a FFF7FEFF 		bl	PrintState
 252:main.c        ****             
 253:main.c        ****             if(CyBle_GetState() == CYBLE_STATE_DISCONNECTED)
 1003              		.loc 1 253 0
 1004 030e 554B     		ldr	r3, .L66+196
 1005 0310 1B78     		ldrb	r3, [r3]
 1006 0312 042B     		cmp	r3, #4
 1007 0314 25D1     		bne	.L58
 254:main.c        ****             {   
 255:main.c        ****                 /* Fast and slow advertising period complete, go to low power  
 256:main.c        ****                  * mode (Hibernate mode) and wait for external
 257:main.c        ****                  * user event to wake up device again */
 258:main.c        ****                 DBG_PRINTF("Hibernate \r\n");
 1008              		.loc 1 258 0
 1009 0316 544B     		ldr	r3, .L66+200
 1010 0318 1800     		movs	r0, r3
 1011 031a FFF7FEFF 		bl	puts
 259:main.c        ****                 Disconnect_LED_Write(LED_ON);
 1012              		.loc 1 259 0
ARM GAS  C:\Users\user\AppData\Local\Temp\ccRdimcD.s 			page 27


 1013 031e 0020     		movs	r0, #0
 1014 0320 FFF7FEFF 		bl	Disconnect_LED_Write
 260:main.c        ****                 Advertising_LED_Write(LED_OFF);
 1015              		.loc 1 260 0
 1016 0324 0120     		movs	r0, #1
 1017 0326 FFF7FEFF 		bl	Advertising_LED_Write
 261:main.c        ****                 Connected_LED_Write(LED_OFF);
 1018              		.loc 1 261 0
 1019 032a 0120     		movs	r0, #1
 1020 032c FFF7FEFF 		bl	Connected_LED_Write
 262:main.c        ****             #if (DEBUG_UART_ENABLED == ENABLED)
 263:main.c        ****                 while((UART_DEB_SpiUartGetTxBufferSize() + UART_DEB_GET_TX_FIFO_SR_VALID) != 0);
 1021              		.loc 1 263 0
 1022 0330 C046     		nop
 1023              	.L61:
 1024              		.loc 1 263 0 is_stmt 0 discriminator 5
 1025 0332 FFF7FEFF 		bl	UART_DEB_SpiUartGetTxBufferSize
 1026 0336 0100     		movs	r1, r0
 1027 0338 4C4B     		ldr	r3, .L66+204
 1028 033a 1A68     		ldr	r2, [r3]
 1029 033c 8023     		movs	r3, #128
 1030 033e 1B02     		lsls	r3, r3, #8
 1031 0340 1340     		ands	r3, r2
 1032 0342 01D0     		beq	.L59
 1033              		.loc 1 263 0 discriminator 1
 1034 0344 0123     		movs	r3, #1
 1035 0346 00E0     		b	.L60
 1036              	.L59:
 1037              		.loc 1 263 0 discriminator 2
 1038 0348 0023     		movs	r3, #0
 1039              	.L60:
 1040              		.loc 1 263 0 discriminator 4
 1041 034a CB18     		adds	r3, r1, r3
 1042 034c 002B     		cmp	r3, #0
 1043 034e F0D1     		bne	.L61
 264:main.c        ****             #endif /* (DEBUG_UART_ENABLED == ENABLED) */
 265:main.c        ****                 SW2_ClearInterrupt();
 1044              		.loc 1 265 0 is_stmt 1
 1045 0350 FFF7FEFF 		bl	SW2_ClearInterrupt
 266:main.c        ****                 Wakeup_Interrupt_ClearPending();
 1046              		.loc 1 266 0
 1047 0354 FFF7FEFF 		bl	Wakeup_Interrupt_ClearPending
 267:main.c        ****                 Wakeup_Interrupt_Start();
 1048              		.loc 1 267 0
 1049 0358 FFF7FEFF 		bl	Wakeup_Interrupt_Start
 268:main.c        ****                 CySysPmHibernate();
 1050              		.loc 1 268 0
 1051 035c FFF7FEFF 		bl	CySysPmHibernate
 269:main.c        ****             }
 270:main.c        ****             else if(CyBle_GetState() == CYBLE_STATE_ADVERTISING)
 271:main.c        ****             {
 272:main.c        ****                 Advertising_LED_Write(LED_ON);
 273:main.c        ****                 Disconnect_LED_Write(LED_OFF);
 274:main.c        ****                 Connected_LED_Write(LED_OFF);
 275:main.c        ****             }
 276:main.c        ****             else
 277:main.c        ****             {
ARM GAS  C:\Users\user\AppData\Local\Temp\ccRdimcD.s 			page 28


 278:main.c        ****                 /* Nothing else */   
 279:main.c        ****             }
 280:main.c        ****             break;
 1052              		.loc 1 280 0
 1053 0360 FCE0     		b	.L65
 1054              	.L58:
 270:main.c        ****             {
 1055              		.loc 1 270 0
 1056 0362 404B     		ldr	r3, .L66+196
 1057 0364 1B78     		ldrb	r3, [r3]
 1058 0366 032B     		cmp	r3, #3
 1059 0368 00D0     		beq	.LCB512
 1060 036a F7E0     		b	.L65	@long jump
 1061              	.LCB512:
 272:main.c        ****                 Disconnect_LED_Write(LED_OFF);
 1062              		.loc 1 272 0
 1063 036c 0020     		movs	r0, #0
 1064 036e FFF7FEFF 		bl	Advertising_LED_Write
 273:main.c        ****                 Connected_LED_Write(LED_OFF);
 1065              		.loc 1 273 0
 1066 0372 0120     		movs	r0, #1
 1067 0374 FFF7FEFF 		bl	Disconnect_LED_Write
 274:main.c        ****             }
 1068              		.loc 1 274 0
 1069 0378 0120     		movs	r0, #1
 1070 037a FFF7FEFF 		bl	Connected_LED_Write
 1071              		.loc 1 280 0
 1072 037e EDE0     		b	.L65
 1073              	.L22:
 281:main.c        **** 
 282:main.c        ****         /**********************************************************
 283:main.c        ****         *                       GATT Events
 284:main.c        ****         ***********************************************************/
 285:main.c        ****         
 286:main.c        ****         case CYBLE_EVT_GATT_CONNECT_IND:
 287:main.c        ****             DBG_PRINTF("CYBLE_EVT_GATT_CONNECT_IND: attId %x, bdHandle %x \r\n", 
 1074              		.loc 1 287 0
 1075 0380 3B68     		ldr	r3, [r7]
 1076 0382 5B78     		ldrb	r3, [r3, #1]
 1077 0384 1900     		movs	r1, r3
 1078 0386 3B68     		ldr	r3, [r7]
 1079 0388 1B78     		ldrb	r3, [r3]
 1080 038a 1A00     		movs	r2, r3
 1081 038c 384B     		ldr	r3, .L66+208
 1082 038e 1800     		movs	r0, r3
 1083 0390 FFF7FEFF 		bl	printf
 288:main.c        ****                 ((CYBLE_CONN_HANDLE_T *)eventParam)->attId, ((CYBLE_CONN_HANDLE_T *)eventParam)->bd
 289:main.c        ****             break;
 1084              		.loc 1 289 0
 1085 0394 E3E0     		b	.L36
 1086              	.L23:
 290:main.c        **** 
 291:main.c        ****         case CYBLE_EVT_GATT_DISCONNECT_IND:
 292:main.c        ****             DBG_PRINTF("CYBLE_EVT_GATT_DISCONNECT_IND \r\n");
 1087              		.loc 1 292 0
 1088 0396 374B     		ldr	r3, .L66+212
 1089 0398 1800     		movs	r0, r3
ARM GAS  C:\Users\user\AppData\Local\Temp\ccRdimcD.s 			page 29


 1090 039a FFF7FEFF 		bl	puts
 293:main.c        ****             break;
 1091              		.loc 1 293 0
 1092 039e DEE0     		b	.L36
 1093              	.L67:
 1094              		.align	2
 1095              	.L66:
 1096 03a0 4C070000 		.word	.L4
 1097 03a4 00000000 		.word	.LC1
 1098 03a8 18000000 		.word	.LC3
 1099 03ac 38000000 		.word	.LC5
 1100 03b0 54000000 		.word	.LC7
 1101 03b4 70000000 		.word	.LC9
 1102 03b8 00000000 		.word	peerAuthInfo
 1103 03bc 8C000000 		.word	.LC12
 1104 03c0 CC000000 		.word	.LC14
 1105 03c4 F4000000 		.word	.LC16
 1106 03c8 00000000 		.word	authState
 1107 03cc 00000000 		.word	passkeyValue
 1108 03d0 00000000 		.word	passkeyPow
 1109 03d4 A0860100 		.word	100000
 1110 03d8 00000000 		.word	passkeyCounter
 1111 03dc 24010000 		.word	.LC22
 1112 03e0 58010000 		.word	.LC24
 1113 03e4 680B0000 		.word	.L39
 1114 03e8 7C010000 		.word	.LC27
 1115 03ec 84010000 		.word	.LC29
 1116 03f0 9C010000 		.word	.LC31
 1117 03f4 B4010000 		.word	.LC33
 1118 03f8 D0010000 		.word	.LC35
 1119 03fc EC010000 		.word	.LC37
 1120 0400 04020000 		.word	.LC39
 1121 0404 28020000 		.word	.LC41
 1122 0408 40020000 		.word	.LC43
 1123 040c 54020000 		.word	.LC45
 1124 0410 68020000 		.word	.LC47
 1125 0414 7C020000 		.word	.LC49
 1126 0418 94020000 		.word	.LC51
 1127 041c A8020000 		.word	.LC53
 1128 0420 B0020000 		.word	.LC55
 1129 0424 08030000 		.word	.LC57
 1130 0428 00000000 		.word	cyBle_connHandle
 1131 042c 64030000 		.word	.LC60
 1132 0430 00000000 		.word	cyBle_authInfo
 1133 0434 00000000 		.word	apiResult
 1134 0438 8C030000 		.word	.LC64
 1135 043c AC030000 		.word	.LC66
 1136 0440 0000F43F 		.word	1072955392
 1137 0444 D8030000 		.word	.LC68
 1138 0448 10040000 		.word	.LC70
 1139 044c 1C040000 		.word	.LC72
 1140 0450 28040000 		.word	.LC74
 1141 0454 54040000 		.word	.LC76
 1142 0458 98040000 		.word	.LC78
 1143 045c BC040000 		.word	.LC80
 1144 0460 E4040000 		.word	.LC82
 1145 0464 00000000 		.word	cyBle_state
ARM GAS  C:\Users\user\AppData\Local\Temp\ccRdimcD.s 			page 30


 1146 0468 10050000 		.word	.LC85
 1147 046c 08022440 		.word	1076101640
 1148 0470 1C050000 		.word	.LC87
 1149 0474 54050000 		.word	.LC89
 1150              	.L25:
 294:main.c        ****     
 295:main.c        ****         case CYBLE_EVT_GATTS_WRITE_REQ:
 296:main.c        ****             DBG_PRINTF("CYBLE_EVT_GATTS_WRITE_REQ attr handle: %4.4x , value: ",((CYBLE_GATTS_WRITE
 1151              		.loc 1 296 0
 1152 0478 3B68     		ldr	r3, [r7]
 1153 047a 9B89     		ldrh	r3, [r3, #12]
 1154 047c 1A00     		movs	r2, r3
 1155 047e 3A4B     		ldr	r3, .L68
 1156 0480 1100     		movs	r1, r2
 1157 0482 1800     		movs	r0, r3
 1158 0484 FFF7FEFF 		bl	printf
 297:main.c        ****             for(i = 0; i < ((CYBLE_GATTS_WRITE_REQ_PARAM_T *)eventParam)->handleValPair.value.len; 
 1159              		.loc 1 297 0
 1160 0488 384B     		ldr	r3, .L68+4
 1161 048a 0022     		movs	r2, #0
 1162 048c 1A80     		strh	r2, [r3]
 1163 048e 11E0     		b	.L63
 1164              	.L64:
 298:main.c        ****             {
 299:main.c        ****                 DBG_PRINTF("%2.2x ", ((CYBLE_GATTS_WRITE_REQ_PARAM_T *)eventParam)->handleValPair.v
 1165              		.loc 1 299 0 discriminator 3
 1166 0490 3B68     		ldr	r3, [r7]
 1167 0492 5B68     		ldr	r3, [r3, #4]
 1168 0494 354A     		ldr	r2, .L68+4
 1169 0496 1288     		ldrh	r2, [r2]
 1170 0498 9B18     		adds	r3, r3, r2
 1171 049a 1B78     		ldrb	r3, [r3]
 1172 049c 1A00     		movs	r2, r3
 1173 049e 344B     		ldr	r3, .L68+8
 1174 04a0 1100     		movs	r1, r2
 1175 04a2 1800     		movs	r0, r3
 1176 04a4 FFF7FEFF 		bl	printf
 297:main.c        ****             for(i = 0; i < ((CYBLE_GATTS_WRITE_REQ_PARAM_T *)eventParam)->handleValPair.value.len; 
 1177              		.loc 1 297 0 discriminator 3
 1178 04a8 304B     		ldr	r3, .L68+4
 1179 04aa 1B88     		ldrh	r3, [r3]
 1180 04ac 0133     		adds	r3, r3, #1
 1181 04ae 9AB2     		uxth	r2, r3
 1182 04b0 2E4B     		ldr	r3, .L68+4
 1183 04b2 1A80     		strh	r2, [r3]
 1184              	.L63:
 297:main.c        ****             for(i = 0; i < ((CYBLE_GATTS_WRITE_REQ_PARAM_T *)eventParam)->handleValPair.value.len; 
 1185              		.loc 1 297 0 is_stmt 0 discriminator 1
 1186 04b4 3B68     		ldr	r3, [r7]
 1187 04b6 1A89     		ldrh	r2, [r3, #8]
 1188 04b8 2C4B     		ldr	r3, .L68+4
 1189 04ba 1B88     		ldrh	r3, [r3]
 1190 04bc 9A42     		cmp	r2, r3
 1191 04be E7D8     		bhi	.L64
 300:main.c        ****             }
 301:main.c        ****             DBG_PRINTF("\r\n");
 1192              		.loc 1 301 0 is_stmt 1
ARM GAS  C:\Users\user\AppData\Local\Temp\ccRdimcD.s 			page 31


 1193 04c0 2C4B     		ldr	r3, .L68+12
 1194 04c2 1800     		movs	r0, r3
 1195 04c4 FFF7FEFF 		bl	puts
 302:main.c        ****             break;
 1196              		.loc 1 302 0
 1197 04c8 49E0     		b	.L36
 1198              	.L24:
 1199              	.LBB3:
 303:main.c        ****             
 304:main.c        ****         case CYBLE_EVT_GATTS_XCNHG_MTU_REQ:
 305:main.c        ****             {
 306:main.c        ****             DBG_PRINTF("CYBLE_EVT_GATTS_XCNHG_MTU_REQ \r\n");
 1200              		.loc 1 306 0
 1201 04ca 2B4B     		ldr	r3, .L68+16
 1202 04cc 1800     		movs	r0, r3
 1203 04ce FFF7FEFF 		bl	puts
 307:main.c        ****             CYBLE_DISC_CHAR_INFO_T *discCharInfo = (CYBLE_DISC_CHAR_INFO_T *)eventParam;
 1204              		.loc 1 307 0
 1205 04d2 3B68     		ldr	r3, [r7]
 1206 04d4 3B61     		str	r3, [r7, #16]
 308:main.c        ****                 PrintCharacteristicInfo(discCharInfo);
 1207              		.loc 1 308 0
 1208 04d6 3B69     		ldr	r3, [r7, #16]
 1209 04d8 1800     		movs	r0, r3
 1210 04da FFF7FEFF 		bl	PrintCharacteristicInfo
 1211              	.LBE3:
 309:main.c        ****             }
 310:main.c        ****             break;
 1212              		.loc 1 310 0
 1213 04de 3EE0     		b	.L36
 1214              	.L28:
 311:main.c        ****             
 312:main.c        ****         case CYBLE_EVT_GATTS_HANDLE_VALUE_CNF:
 313:main.c        ****             DBG_PRINTF("CYBLE_EVT_GATTS_HANDLE_VALUE_CNF \r\n");
 1215              		.loc 1 313 0
 1216 04e0 264B     		ldr	r3, .L68+20
 1217 04e2 1800     		movs	r0, r3
 1218 04e4 FFF7FEFF 		bl	puts
 314:main.c        ****             break;
 1219              		.loc 1 314 0
 1220 04e8 39E0     		b	.L36
 1221              	.L26:
 315:main.c        ****             
 316:main.c        ****         case CYBLE_EVT_GATTS_PREP_WRITE_REQ:
 317:main.c        ****             DBG_PRINTF("CYBLE_EVT_GATTS_PREP_WRITE_REQ \r\n");
 1222              		.loc 1 317 0
 1223 04ea 254B     		ldr	r3, .L68+24
 1224 04ec 1800     		movs	r0, r3
 1225 04ee FFF7FEFF 		bl	puts
 318:main.c        ****             break;
 1226              		.loc 1 318 0
 1227 04f2 34E0     		b	.L36
 1228              	.L27:
 319:main.c        ****         
 320:main.c        ****         case CYBLE_EVT_GATTS_EXEC_WRITE_REQ:
 321:main.c        ****             DBG_PRINTF("CYBLE_EVT_GATTS_EXEC_WRITE_REQ \r\n");
 1229              		.loc 1 321 0
ARM GAS  C:\Users\user\AppData\Local\Temp\ccRdimcD.s 			page 32


 1230 04f4 234B     		ldr	r3, .L68+28
 1231 04f6 1800     		movs	r0, r3
 1232 04f8 FFF7FEFF 		bl	puts
 322:main.c        ****             break;
 1233              		.loc 1 322 0
 1234 04fc 2FE0     		b	.L36
 1235              	.L29:
 323:main.c        **** 
 324:main.c        ****         case CYBLE_EVT_GATTS_READ_CHAR_VAL_ACCESS_REQ:
 325:main.c        ****             /* Triggered on server side when client sends read request and when
 326:main.c        ****             * characteristic has CYBLE_GATT_DB_ATTR_CHAR_VAL_RD_EVENT property set.
 327:main.c        ****             * This event could be ignored by application unless it need to response
 328:main.c        ****             * by error response which needs to be set in gattErrorCode field of
 329:main.c        ****             * event parameter. */
 330:main.c        ****             DBG_PRINTF("CYBLE_EVT_GATTS_READ_CHAR_VAL_ACCESS_REQ: handle: %x \r\n", 
 1236              		.loc 1 330 0
 1237 04fe 3B68     		ldr	r3, [r7]
 1238 0500 5B88     		ldrh	r3, [r3, #2]
 1239 0502 1A00     		movs	r2, r3
 1240 0504 204B     		ldr	r3, .L68+32
 1241 0506 1100     		movs	r1, r2
 1242 0508 1800     		movs	r0, r3
 1243 050a FFF7FEFF 		bl	printf
 331:main.c        ****                 ((CYBLE_GATTS_CHAR_VAL_READ_REQ_T *)eventParam)->attrHandle);
 332:main.c        ****             CYBLE_DISC_CHAR_INFO_T *discCharInfo = (CYBLE_DISC_CHAR_INFO_T *)eventParam;
 1244              		.loc 1 332 0
 1245 050e 3B68     		ldr	r3, [r7]
 1246 0510 FB60     		str	r3, [r7, #12]
 333:main.c        ****                 PrintCharacteristicInfo(discCharInfo);
 1247              		.loc 1 333 0
 1248 0512 FB68     		ldr	r3, [r7, #12]
 1249 0514 1800     		movs	r0, r3
 1250 0516 FFF7FEFF 		bl	PrintCharacteristicInfo
 334:main.c        ****             break;
 1251              		.loc 1 334 0
 1252 051a 20E0     		b	.L36
 1253              	.L33:
 335:main.c        **** 
 336:main.c        ****         /**********************************************************
 337:main.c        ****         *                  GATT Service Events 
 338:main.c        ****         ***********************************************************/
 339:main.c        ****             
 340:main.c        ****         case CYBLE_EVT_GATTS_INDICATION_ENABLED:
 341:main.c        ****             DBG_PRINTF("CYBLE_EVT_GATTS_INDICATION_ENABLED \r\n");
 1254              		.loc 1 341 0
 1255 051c 1B4B     		ldr	r3, .L68+36
 1256 051e 1800     		movs	r0, r3
 1257 0520 FFF7FEFF 		bl	puts
 342:main.c        ****             break;
 1258              		.loc 1 342 0
 1259 0524 1BE0     		b	.L36
 1260              	.L34:
 343:main.c        ****         
 344:main.c        ****         case CYBLE_EVT_GATTS_INDICATION_DISABLED:
 345:main.c        ****             DBG_PRINTF("CYBLE_EVT_GATTS_INDICATION_DISABLED \r\n");
 1261              		.loc 1 345 0
 1262 0526 1A4B     		ldr	r3, .L68+40
ARM GAS  C:\Users\user\AppData\Local\Temp\ccRdimcD.s 			page 33


 1263 0528 1800     		movs	r0, r3
 1264 052a FFF7FEFF 		bl	puts
 346:main.c        ****             break;
 1265              		.loc 1 346 0
 1266 052e 16E0     		b	.L36
 1267              	.L35:
 347:main.c        ****             
 348:main.c        ****         case CYBLE_EVT_GATTC_INDICATION:
 349:main.c        ****             DBG_PRINTF("CYBLE_EVT_GATTS_INDICATION \r\n");
 1268              		.loc 1 349 0
 1269 0530 184B     		ldr	r3, .L68+44
 1270 0532 1800     		movs	r0, r3
 1271 0534 FFF7FEFF 		bl	puts
 350:main.c        ****             break;
 1272              		.loc 1 350 0
 1273 0538 11E0     		b	.L36
 1274              	.L30:
 351:main.c        **** 
 352:main.c        ****         /**********************************************************
 353:main.c        ****         *                       L2CAP Events 
 354:main.c        ****         ***********************************************************/    
 355:main.c        ****             
 356:main.c        ****         case CYBLE_EVT_L2CAP_CONN_PARAM_UPDATE_REQ:
 357:main.c        ****             DBG_PRINTF("CYBLE_EVT_L2CAP_CONN_PARAM_UPDATE_REQ \r\n");
 1275              		.loc 1 357 0
 1276 053a 174B     		ldr	r3, .L68+48
 1277 053c 1800     		movs	r0, r3
 1278 053e FFF7FEFF 		bl	puts
 358:main.c        ****             break;
 1279              		.loc 1 358 0
 1280 0542 0CE0     		b	.L36
 1281              	.L32:
 359:main.c        **** 
 360:main.c        ****         /**********************************************************
 361:main.c        ****         *                       Other Events
 362:main.c        ****         ***********************************************************/
 363:main.c        ****         case CYBLE_EVT_PENDING_FLASH_WRITE:
 364:main.c        ****             /* Inform application that flash write is pending. Stack internal data 
 365:main.c        ****             * structures are modified and require to be stored in Flash using 
 366:main.c        ****             * CyBle_StoreBondingData() */
 367:main.c        ****             DBG_PRINTF("CYBLE_EVT_PENDING_FLASH_WRITE\r\n");
 1282              		.loc 1 367 0
 1283 0544 154B     		ldr	r3, .L68+52
 1284 0546 1800     		movs	r0, r3
 1285 0548 FFF7FEFF 		bl	puts
 368:main.c        ****             break;
 1286              		.loc 1 368 0
 1287 054c 07E0     		b	.L36
 1288              	.L2:
 369:main.c        ****             
 370:main.c        ****         default:
 371:main.c        ****             DBG_PRINTF("other event: 0x%lx \r\n", event);
 1289              		.loc 1 371 0
 1290 054e 7A68     		ldr	r2, [r7, #4]
 1291 0550 134B     		ldr	r3, .L68+56
 1292 0552 1100     		movs	r1, r2
 1293 0554 1800     		movs	r0, r3
ARM GAS  C:\Users\user\AppData\Local\Temp\ccRdimcD.s 			page 34


 1294 0556 FFF7FEFF 		bl	printf
 372:main.c        **** 			break;
 1295              		.loc 1 372 0
 1296 055a 00E0     		b	.L36
 1297              	.L65:
 280:main.c        **** 
 1298              		.loc 1 280 0
 1299 055c C046     		nop
 1300              	.L36:
 1301              	.LBE2:
 373:main.c        ****     }
 374:main.c        **** }
 1302              		.loc 1 374 0
 1303 055e C046     		nop
 1304 0560 BD46     		mov	sp, r7
 1305 0562 07B0     		add	sp, sp, #28
 1306              		@ sp needed
 1307 0564 90BD     		pop	{r4, r7, pc}
 1308              	.L69:
 1309 0566 C046     		.align	2
 1310              	.L68:
 1311 0568 74050000 		.word	.LC91
 1312 056c 00000000 		.word	i
 1313 0570 AC050000 		.word	.LC94
 1314 0574 B4050000 		.word	.LC96
 1315 0578 B8050000 		.word	.LC98
 1316 057c D8050000 		.word	.LC100
 1317 0580 FC050000 		.word	.LC102
 1318 0584 20060000 		.word	.LC104
 1319 0588 44060000 		.word	.LC106
 1320 058c 7C060000 		.word	.LC108
 1321 0590 A4060000 		.word	.LC110
 1322 0594 CC060000 		.word	.LC112
 1323 0598 EC060000 		.word	.LC114
 1324 059c 14070000 		.word	.LC116
 1325 05a0 34070000 		.word	.LC118
 1326              		.cfi_endproc
 1327              	.LFE36:
 1328              		.size	AppCallBack, .-AppCallBack
 1329              		.section	.rodata
 1330              		.align	2
 1331              	.LC120:
 1332 0bcc 55554944 		.ascii	"UUID format: 16-bit\015\000"
 1332      20666F72 
 1332      6D61743A 
 1332      2031362D 
 1332      6269740D 
 1333 0be1 000000   		.align	2
 1334              	.LC122:
 1335 0be4 55554944 		.ascii	"UUID: 0x%04X\000"
 1335      3A203078 
 1335      25303458 
 1335      00
 1336 0bf1 000000   		.align	2
 1337              	.LC124:
 1338 0bf4 55554944 		.ascii	"UUID format: 128-bit\015\000"
 1338      20666F72 
ARM GAS  C:\Users\user\AppData\Local\Temp\ccRdimcD.s 			page 35


 1338      6D61743A 
 1338      20313238 
 1338      2D626974 
 1339 0c0a 0000     		.align	2
 1340              	.LC126:
 1341 0c0c 55554944 		.ascii	"UUID: %08X-%04X-%04X-%04X-%08X%04X\000"
 1341      3A202530 
 1341      38582D25 
 1341      3034582D 
 1341      25303458 
 1342 0c2f 00       		.align	2
 1343              	.LC128:
 1344 0c30 556E6B6E 		.ascii	"Unknown UUID format: 0x%02X\015\012\000"
 1344      6F776E20 
 1344      55554944 
 1344      20666F72 
 1344      6D61743A 
 1345 0c4e 0000     		.align	2
 1346              	.LC130:
 1347 0c50 55554944 		.ascii	"UUID string: %s\015\012\000"
 1347      20737472 
 1347      696E673A 
 1347      2025730D 
 1347      0A00
 1348              		.section	.text.PrintUUID,"ax",%progbits
 1349              		.align	2
 1350              		.global	PrintUUID
 1351              		.code	16
 1352              		.thumb_func
 1353              		.type	PrintUUID, %function
 1354              	PrintUUID:
 1355              	.LFB37:
 375:main.c        **** 
 376:main.c        **** 
 377:main.c        **** // Funkcja konwertujca UUID do formatu string
 378:main.c        **** void PrintUUID(CYBLE_UUID_T uuid, uint8 uuidFormat) {
 1356              		.loc 1 378 0
 1357              		.cfi_startproc
 1358              		@ args = 4, pretend = 0, frame = 64
 1359              		@ frame_needed = 1, uses_anonymous_args = 0
 1360 0000 F0B5     		push	{r4, r5, r6, r7, lr}
 1361              		.cfi_def_cfa_offset 20
 1362              		.cfi_offset 4, -20
 1363              		.cfi_offset 5, -16
 1364              		.cfi_offset 6, -12
 1365              		.cfi_offset 7, -8
 1366              		.cfi_offset 14, -4
 1367 0002 4746     		mov	r7, r8
 1368 0004 80B4     		push	{r7}
 1369              		.cfi_def_cfa_offset 24
 1370              		.cfi_offset 8, -24
 1371 0006 94B0     		sub	sp, sp, #80
 1372              		.cfi_def_cfa_offset 104
 1373 0008 04AF     		add	r7, sp, #16
 1374              		.cfi_def_cfa 7, 88
 1375 000a 0824     		movs	r4, #8
 1376 000c 3C19     		adds	r4, r7, r4
ARM GAS  C:\Users\user\AppData\Local\Temp\ccRdimcD.s 			page 36


 1377 000e 2060     		str	r0, [r4]
 1378 0010 6160     		str	r1, [r4, #4]
 1379 0012 A260     		str	r2, [r4, #8]
 1380 0014 E360     		str	r3, [r4, #12]
 379:main.c        ****     char uuidStr[37]; // 36 characters for 128-bit UUID + null terminator
 380:main.c        ****     if (uuidFormat == 0x01) { // 16-bit UUID
 1381              		.loc 1 380 0
 1382 0016 5023     		movs	r3, #80
 1383 0018 0822     		movs	r2, #8
 1384 001a 9446     		mov	ip, r2
 1385 001c BC44     		add	ip, ip, r7
 1386 001e 6344     		add	r3, r3, ip
 1387 0020 1B78     		ldrb	r3, [r3]
 1388 0022 012B     		cmp	r3, #1
 1389 0024 11D1     		bne	.L71
 381:main.c        ****         DBG_PRINTF("UUID format: 16-bit\r\n");
 1390              		.loc 1 381 0
 1391 0026 304B     		ldr	r3, .L75
 1392 0028 1800     		movs	r0, r3
 1393 002a FFF7FEFF 		bl	puts
 382:main.c        ****         sprintf(uuidStr, "UUID: 0x%04X", uuid.uuid16);
 1394              		.loc 1 382 0
 1395 002e 0823     		movs	r3, #8
 1396 0030 FB18     		adds	r3, r7, r3
 1397 0032 1B88     		ldrh	r3, [r3]
 1398 0034 1A00     		movs	r2, r3
 1399 0036 2D49     		ldr	r1, .L75+4
 1400 0038 1023     		movs	r3, #16
 1401 003a 0820     		movs	r0, #8
 1402 003c 8446     		mov	ip, r0
 1403 003e BC44     		add	ip, ip, r7
 1404 0040 6344     		add	r3, r3, ip
 1405 0042 1800     		movs	r0, r3
 1406 0044 FFF7FEFF 		bl	sprintf
 1407 0048 3FE0     		b	.L72
 1408              	.L71:
 383:main.c        ****     } else if (uuidFormat == 0x02) { // 128-bit UUID
 1409              		.loc 1 383 0
 1410 004a 5023     		movs	r3, #80
 1411 004c 0822     		movs	r2, #8
 1412 004e 9446     		mov	ip, r2
 1413 0050 BC44     		add	ip, ip, r7
 1414 0052 6344     		add	r3, r3, ip
 1415 0054 1B78     		ldrb	r3, [r3]
 1416 0056 022B     		cmp	r3, #2
 1417 0058 2BD1     		bne	.L73
 384:main.c        ****         DBG_PRINTF("UUID format: 128-bit\r\n");
 1418              		.loc 1 384 0
 1419 005a 254B     		ldr	r3, .L75+8
 1420 005c 1800     		movs	r0, r3
 1421 005e FFF7FEFF 		bl	puts
 385:main.c        ****         sprintf(uuidStr, "UUID: %08X-%04X-%04X-%04X-%08X%04X",
 386:main.c        ****                 uuid.uuid128.value[12], uuid.uuid128.value[10], uuid.uuid128.value[8],
 1422              		.loc 1 386 0
 1423 0062 0823     		movs	r3, #8
 1424 0064 FB18     		adds	r3, r7, r3
 1425 0066 1B7B     		ldrb	r3, [r3, #12]
ARM GAS  C:\Users\user\AppData\Local\Temp\ccRdimcD.s 			page 37


 385:main.c        ****         sprintf(uuidStr, "UUID: %08X-%04X-%04X-%04X-%08X%04X",
 1426              		.loc 1 385 0
 1427 0068 1E00     		movs	r6, r3
 1428              		.loc 1 386 0
 1429 006a 0823     		movs	r3, #8
 1430 006c FB18     		adds	r3, r7, r3
 1431 006e 9B7A     		ldrb	r3, [r3, #10]
 385:main.c        ****         sprintf(uuidStr, "UUID: %08X-%04X-%04X-%04X-%08X%04X",
 1432              		.loc 1 385 0
 1433 0070 7B60     		str	r3, [r7, #4]
 1434              		.loc 1 386 0
 1435 0072 0823     		movs	r3, #8
 1436 0074 FB18     		adds	r3, r7, r3
 1437 0076 1B7A     		ldrb	r3, [r3, #8]
 385:main.c        ****         sprintf(uuidStr, "UUID: %08X-%04X-%04X-%04X-%08X%04X",
 1438              		.loc 1 385 0
 1439 0078 1A00     		movs	r2, r3
 387:main.c        ****                 uuid.uuid128.value[6], uuid.uuid128.value[0], uuid.uuid128.value[4]);
 1440              		.loc 1 387 0
 1441 007a 0823     		movs	r3, #8
 1442 007c FB18     		adds	r3, r7, r3
 1443 007e 9B79     		ldrb	r3, [r3, #6]
 385:main.c        ****         sprintf(uuidStr, "UUID: %08X-%04X-%04X-%04X-%08X%04X",
 1444              		.loc 1 385 0
 1445 0080 1C00     		movs	r4, r3
 1446              		.loc 1 387 0
 1447 0082 0823     		movs	r3, #8
 1448 0084 FB18     		adds	r3, r7, r3
 1449 0086 1B78     		ldrb	r3, [r3]
 385:main.c        ****         sprintf(uuidStr, "UUID: %08X-%04X-%04X-%04X-%08X%04X",
 1450              		.loc 1 385 0
 1451 0088 1D00     		movs	r5, r3
 1452              		.loc 1 387 0
 1453 008a 0823     		movs	r3, #8
 1454 008c FB18     		adds	r3, r7, r3
 1455 008e 1B79     		ldrb	r3, [r3, #4]
 385:main.c        ****         sprintf(uuidStr, "UUID: %08X-%04X-%04X-%04X-%08X%04X",
 1456              		.loc 1 385 0
 1457 0090 9846     		mov	r8, r3
 1458 0092 1849     		ldr	r1, .L75+12
 1459 0094 1020     		movs	r0, #16
 1460 0096 0823     		movs	r3, #8
 1461 0098 9C46     		mov	ip, r3
 1462 009a BC44     		add	ip, ip, r7
 1463 009c 6044     		add	r0, r0, ip
 1464 009e 4346     		mov	r3, r8
 1465 00a0 0393     		str	r3, [sp, #12]
 1466 00a2 0295     		str	r5, [sp, #8]
 1467 00a4 0194     		str	r4, [sp, #4]
 1468 00a6 0092     		str	r2, [sp]
 1469 00a8 7B68     		ldr	r3, [r7, #4]
 1470 00aa 3200     		movs	r2, r6
 1471 00ac FFF7FEFF 		bl	sprintf
 1472 00b0 0BE0     		b	.L72
 1473              	.L73:
 388:main.c        ****     } else {
 389:main.c        ****         DBG_PRINTF("Unknown UUID format: 0x%02X\r\n", uuidFormat);
ARM GAS  C:\Users\user\AppData\Local\Temp\ccRdimcD.s 			page 38


 1474              		.loc 1 389 0
 1475 00b2 5023     		movs	r3, #80
 1476 00b4 0822     		movs	r2, #8
 1477 00b6 9446     		mov	ip, r2
 1478 00b8 BC44     		add	ip, ip, r7
 1479 00ba 6344     		add	r3, r3, ip
 1480 00bc 1A78     		ldrb	r2, [r3]
 1481 00be 0E4B     		ldr	r3, .L75+16
 1482 00c0 1100     		movs	r1, r2
 1483 00c2 1800     		movs	r0, r3
 1484 00c4 FFF7FEFF 		bl	printf
 1485 00c8 08E0     		b	.L70
 1486              	.L72:
 390:main.c        ****         return;
 391:main.c        ****     }
 392:main.c        ****     DBG_PRINTF("UUID string: %s\r\n", uuidStr);
 1487              		.loc 1 392 0
 1488 00ca 1023     		movs	r3, #16
 1489 00cc 0822     		movs	r2, #8
 1490 00ce BA18     		adds	r2, r7, r2
 1491 00d0 D218     		adds	r2, r2, r3
 1492 00d2 0A4B     		ldr	r3, .L75+20
 1493 00d4 1100     		movs	r1, r2
 1494 00d6 1800     		movs	r0, r3
 1495 00d8 FFF7FEFF 		bl	printf
 1496              	.L70:
 393:main.c        **** }
 1497              		.loc 1 393 0
 1498 00dc BD46     		mov	sp, r7
 1499 00de 10B0     		add	sp, sp, #64
 1500              		@ sp needed
 1501 00e0 04BC     		pop	{r2}
 1502 00e2 9046     		mov	r8, r2
 1503 00e4 F0BD     		pop	{r4, r5, r6, r7, pc}
 1504              	.L76:
 1505 00e6 C046     		.align	2
 1506              	.L75:
 1507 00e8 CC0B0000 		.word	.LC120
 1508 00ec E40B0000 		.word	.LC122
 1509 00f0 F40B0000 		.word	.LC124
 1510 00f4 0C0C0000 		.word	.LC126
 1511 00f8 300C0000 		.word	.LC128
 1512 00fc 500C0000 		.word	.LC130
 1513              		.cfi_endproc
 1514              	.LFE37:
 1515              		.size	PrintUUID, .-PrintUUID
 1516              		.section	.rodata
 1517 0c62 0000     		.align	2
 1518              	.LC132:
 1519 0c64 43686172 		.ascii	"Characteristic Declaration Handle: 0x%04X\015\012\000"
 1519      61637465 
 1519      72697374 
 1519      69632044 
 1519      65636C61 
 1520              		.align	2
 1521              	.LC134:
 1522 0c90 257300   		.ascii	"%s\000"
ARM GAS  C:\Users\user\AppData\Local\Temp\ccRdimcD.s 			page 39


 1523 0c93 00       		.align	2
 1524              	.LC136:
 1525 0c94 50726F70 		.ascii	"Properties: 0x%02X\015\012\000"
 1525      65727469 
 1525      65733A20 
 1525      30782530 
 1525      32580D0A 
 1526 0ca9 000000   		.align	2
 1527              	.LC138:
 1528 0cac 56616C75 		.ascii	"Value Handle: 0x%04X\015\012\000"
 1528      65204861 
 1528      6E646C65 
 1528      3A203078 
 1528      25303458 
 1529 0cc3 00       		.align	2
 1530              	.LC140:
 1531 0cc4 55554944 		.ascii	"UUID Format: 0x%02X\015\012\000"
 1531      20466F72 
 1531      6D61743A 
 1531      20307825 
 1531      3032580D 
 1532 0cda 0000     		.align	2
 1533              	.LC142:
 1534 0cdc 5072696E 		.ascii	"Printing UUID...\015\000"
 1534      74696E67 
 1534      20555549 
 1534      442E2E2E 
 1534      0D00
 1535 0cee 0000     		.align	2
 1536              	.LC144:
 1537 0cf0 46696E69 		.ascii	"Finished printing UUID.\015\000"
 1537      73686564 
 1537      20707269 
 1537      6E74696E 
 1537      67205555 
 1538              		.section	.text.PrintCharacteristicInfo,"ax",%progbits
 1539              		.align	2
 1540              		.global	PrintCharacteristicInfo
 1541              		.code	16
 1542              		.thumb_func
 1543              		.type	PrintCharacteristicInfo, %function
 1544              	PrintCharacteristicInfo:
 1545              	.LFB38:
 394:main.c        **** 
 395:main.c        **** // Funkcja drukujca szczegy struktury CYBLE_DISC_CHAR_INFO_T
 396:main.c        **** void PrintCharacteristicInfo(const CYBLE_DISC_CHAR_INFO_T *charInfo) {
 1546              		.loc 1 396 0
 1547              		.cfi_startproc
 1548              		@ args = 0, pretend = 0, frame = 112
 1549              		@ frame_needed = 1, uses_anonymous_args = 0
 1550 0000 F0B5     		push	{r4, r5, r6, r7, lr}
 1551              		.cfi_def_cfa_offset 20
 1552              		.cfi_offset 4, -20
 1553              		.cfi_offset 5, -16
 1554              		.cfi_offset 6, -12
 1555              		.cfi_offset 7, -8
 1556              		.cfi_offset 14, -4
ARM GAS  C:\Users\user\AppData\Local\Temp\ccRdimcD.s 			page 40


 1557 0002 9FB0     		sub	sp, sp, #124
 1558              		.cfi_def_cfa_offset 144
 1559 0004 02AF     		add	r7, sp, #8
 1560              		.cfi_def_cfa 7, 136
 1561 0006 7860     		str	r0, [r7, #4]
 397:main.c        ****     char buffer[100];
 398:main.c        ****     sprintf(buffer, "Characteristic Declaration Handle: 0x%04X\r\n", charInfo->charDeclHandle);
 1562              		.loc 1 398 0
 1563 0008 7B68     		ldr	r3, [r7, #4]
 1564 000a 1B88     		ldrh	r3, [r3]
 1565 000c 1A00     		movs	r2, r3
 1566 000e 3249     		ldr	r1, .L78
 1567 0010 0C23     		movs	r3, #12
 1568 0012 FB18     		adds	r3, r7, r3
 1569 0014 1800     		movs	r0, r3
 1570 0016 FFF7FEFF 		bl	sprintf
 399:main.c        ****     DBG_PRINTF("%s", buffer);
 1571              		.loc 1 399 0
 1572 001a 0C23     		movs	r3, #12
 1573 001c FA18     		adds	r2, r7, r3
 1574 001e 2F4B     		ldr	r3, .L78+4
 1575 0020 1100     		movs	r1, r2
 1576 0022 1800     		movs	r0, r3
 1577 0024 FFF7FEFF 		bl	printf
 400:main.c        **** 
 401:main.c        ****     sprintf(buffer, "Properties: 0x%02X\r\n", charInfo->properties);
 1578              		.loc 1 401 0
 1579 0028 7B68     		ldr	r3, [r7, #4]
 1580 002a 9B78     		ldrb	r3, [r3, #2]
 1581 002c 1A00     		movs	r2, r3
 1582 002e 2C49     		ldr	r1, .L78+8
 1583 0030 0C23     		movs	r3, #12
 1584 0032 FB18     		adds	r3, r7, r3
 1585 0034 1800     		movs	r0, r3
 1586 0036 FFF7FEFF 		bl	sprintf
 402:main.c        ****     DBG_PRINTF("%s", buffer);
 1587              		.loc 1 402 0
 1588 003a 0C23     		movs	r3, #12
 1589 003c FA18     		adds	r2, r7, r3
 1590 003e 274B     		ldr	r3, .L78+4
 1591 0040 1100     		movs	r1, r2
 1592 0042 1800     		movs	r0, r3
 1593 0044 FFF7FEFF 		bl	printf
 403:main.c        **** 
 404:main.c        ****     sprintf(buffer, "Value Handle: 0x%04X\r\n", charInfo->valueHandle);
 1594              		.loc 1 404 0
 1595 0048 7B68     		ldr	r3, [r7, #4]
 1596 004a 9B88     		ldrh	r3, [r3, #4]
 1597 004c 1A00     		movs	r2, r3
 1598 004e 2549     		ldr	r1, .L78+12
 1599 0050 0C23     		movs	r3, #12
 1600 0052 FB18     		adds	r3, r7, r3
 1601 0054 1800     		movs	r0, r3
 1602 0056 FFF7FEFF 		bl	sprintf
 405:main.c        ****     DBG_PRINTF("%s", buffer);
 1603              		.loc 1 405 0
 1604 005a 0C23     		movs	r3, #12
ARM GAS  C:\Users\user\AppData\Local\Temp\ccRdimcD.s 			page 41


 1605 005c FA18     		adds	r2, r7, r3
 1606 005e 1F4B     		ldr	r3, .L78+4
 1607 0060 1100     		movs	r1, r2
 1608 0062 1800     		movs	r0, r3
 1609 0064 FFF7FEFF 		bl	printf
 406:main.c        **** 
 407:main.c        ****     DBG_PRINTF("UUID Format: 0x%02X\r\n", charInfo->uuidFormat); // Debugowanie formatu UUID
 1610              		.loc 1 407 0
 1611 0068 7B68     		ldr	r3, [r7, #4]
 1612 006a 9B7D     		ldrb	r3, [r3, #22]
 1613 006c 1A00     		movs	r2, r3
 1614 006e 1E4B     		ldr	r3, .L78+16
 1615 0070 1100     		movs	r1, r2
 1616 0072 1800     		movs	r0, r3
 1617 0074 FFF7FEFF 		bl	printf
 408:main.c        ****     DBG_PRINTF("Printing UUID...\r\n");
 1618              		.loc 1 408 0
 1619 0078 1C4B     		ldr	r3, .L78+20
 1620 007a 1800     		movs	r0, r3
 1621 007c FFF7FEFF 		bl	puts
 409:main.c        ****     PrintUUID(charInfo->uuid, charInfo->uuidFormat);
 1622              		.loc 1 409 0
 1623 0080 7B68     		ldr	r3, [r7, #4]
 1624 0082 997D     		ldrb	r1, [r3, #22]
 1625 0084 7B68     		ldr	r3, [r7, #4]
 1626 0086 0622     		movs	r2, #6
 1627 0088 0091     		str	r1, [sp]
 1628 008a 995A     		ldrh	r1, [r3, r2]
 1629 008c 9818     		adds	r0, r3, r2
 1630 008e 4088     		ldrh	r0, [r0, #2]
 1631 0090 0004     		lsls	r0, r0, #16
 1632 0092 0143     		orrs	r1, r0
 1633 0094 3960     		str	r1, [r7]
 1634 0096 9918     		adds	r1, r3, r2
 1635 0098 8888     		ldrh	r0, [r1, #4]
 1636 009a C988     		ldrh	r1, [r1, #6]
 1637 009c 0904     		lsls	r1, r1, #16
 1638 009e 0143     		orrs	r1, r0
 1639 00a0 0E00     		movs	r6, r1
 1640 00a2 9918     		adds	r1, r3, r2
 1641 00a4 0889     		ldrh	r0, [r1, #8]
 1642 00a6 4989     		ldrh	r1, [r1, #10]
 1643 00a8 0904     		lsls	r1, r1, #16
 1644 00aa 0143     		orrs	r1, r0
 1645 00ac 0D00     		movs	r5, r1
 1646 00ae 9B18     		adds	r3, r3, r2
 1647 00b0 9A89     		ldrh	r2, [r3, #12]
 1648 00b2 DB89     		ldrh	r3, [r3, #14]
 1649 00b4 1B04     		lsls	r3, r3, #16
 1650 00b6 1343     		orrs	r3, r2
 1651 00b8 1C00     		movs	r4, r3
 1652 00ba 3868     		ldr	r0, [r7]
 1653 00bc 3100     		movs	r1, r6
 1654 00be 2A00     		movs	r2, r5
 1655 00c0 2300     		movs	r3, r4
 1656 00c2 FFF7FEFF 		bl	PrintUUID
 410:main.c        ****     DBG_PRINTF("Finished printing UUID.\r\n");
ARM GAS  C:\Users\user\AppData\Local\Temp\ccRdimcD.s 			page 42


 1657              		.loc 1 410 0
 1658 00c6 0A4B     		ldr	r3, .L78+24
 1659 00c8 1800     		movs	r0, r3
 1660 00ca FFF7FEFF 		bl	puts
 411:main.c        **** }
 1661              		.loc 1 411 0
 1662 00ce C046     		nop
 1663 00d0 BD46     		mov	sp, r7
 1664 00d2 1DB0     		add	sp, sp, #116
 1665              		@ sp needed
 1666 00d4 F0BD     		pop	{r4, r5, r6, r7, pc}
 1667              	.L79:
 1668 00d6 C046     		.align	2
 1669              	.L78:
 1670 00d8 640C0000 		.word	.LC132
 1671 00dc 900C0000 		.word	.LC134
 1672 00e0 940C0000 		.word	.LC136
 1673 00e4 AC0C0000 		.word	.LC138
 1674 00e8 C40C0000 		.word	.LC140
 1675 00ec DC0C0000 		.word	.LC142
 1676 00f0 F00C0000 		.word	.LC144
 1677              		.cfi_endproc
 1678              	.LFE38:
 1679              		.size	PrintCharacteristicInfo, .-PrintCharacteristicInfo
 1680              		.section	.text.Timer_Interrupt,"ax",%progbits
 1681              		.align	2
 1682              		.global	Timer_Interrupt
 1683              		.code	16
 1684              		.thumb_func
 1685              		.type	Timer_Interrupt, %function
 1686              	Timer_Interrupt:
 1687              	.LFB39:
 412:main.c        **** 
 413:main.c        **** 
 414:main.c        **** 
 415:main.c        **** 
 416:main.c        **** /*******************************************************************************
 417:main.c        **** * Function Name: Timer_Interrupt
 418:main.c        **** ********************************************************************************
 419:main.c        **** *
 420:main.c        **** * Summary:
 421:main.c        **** *  Handles the Interrupt Service Routine for the WDT timer.
 422:main.c        **** *
 423:main.c        **** *******************************************************************************/
 424:main.c        **** CY_ISR(Timer_Interrupt)
 425:main.c        **** {
 1688              		.loc 1 425 0
 1689              		.cfi_startproc
 1690              		@ args = 0, pretend = 0, frame = 0
 1691              		@ frame_needed = 1, uses_anonymous_args = 0
 1692 0000 80B5     		push	{r7, lr}
 1693              		.cfi_def_cfa_offset 8
 1694              		.cfi_offset 7, -8
 1695              		.cfi_offset 14, -4
 1696 0002 00AF     		add	r7, sp, #0
 1697              		.cfi_def_cfa_register 7
 426:main.c        ****     static uint8 led = LED_OFF;
ARM GAS  C:\Users\user\AppData\Local\Temp\ccRdimcD.s 			page 43


 427:main.c        ****     
 428:main.c        ****     /* Blink LED to indicate that device advertises */
 429:main.c        ****     if(CYBLE_STATE_ADVERTISING == CyBle_GetState())
 1698              		.loc 1 429 0
 1699 0004 094B     		ldr	r3, .L83
 1700 0006 1B78     		ldrb	r3, [r3]
 1701 0008 032B     		cmp	r3, #3
 1702 000a 0BD1     		bne	.L82
 430:main.c        ****     {
 431:main.c        ****         led ^= LED_OFF;
 1703              		.loc 1 431 0
 1704 000c 084B     		ldr	r3, .L83+4
 1705 000e 1B78     		ldrb	r3, [r3]
 1706 0010 0122     		movs	r2, #1
 1707 0012 5340     		eors	r3, r2
 1708 0014 DAB2     		uxtb	r2, r3
 1709 0016 064B     		ldr	r3, .L83+4
 1710 0018 1A70     		strb	r2, [r3]
 432:main.c        ****         Advertising_LED_Write(led);
 1711              		.loc 1 432 0
 1712 001a 054B     		ldr	r3, .L83+4
 1713 001c 1B78     		ldrb	r3, [r3]
 1714 001e 1800     		movs	r0, r3
 1715 0020 FFF7FEFF 		bl	Advertising_LED_Write
 1716              	.L82:
 433:main.c        ****     }
 434:main.c        **** }
 1717              		.loc 1 434 0
 1718 0024 C046     		nop
 1719 0026 BD46     		mov	sp, r7
 1720              		@ sp needed
 1721 0028 80BD     		pop	{r7, pc}
 1722              	.L84:
 1723 002a C046     		.align	2
 1724              	.L83:
 1725 002c 00000000 		.word	cyBle_state
 1726 0030 00000000 		.word	led.8726
 1727              		.cfi_endproc
 1728              	.LFE39:
 1729              		.size	Timer_Interrupt, .-Timer_Interrupt
 1730              		.section	.text.LowPowerImplementation,"ax",%progbits
 1731              		.align	2
 1732              		.code	16
 1733              		.thumb_func
 1734              		.type	LowPowerImplementation, %function
 1735              	LowPowerImplementation:
 1736              	.LFB40:
 435:main.c        **** 
 436:main.c        **** /*******************************************************************************
 437:main.c        **** * Function Name: LowPowerImplementation()
 438:main.c        **** ********************************************************************************
 439:main.c        **** * Summary:
 440:main.c        **** * Implements low power in the project.
 441:main.c        **** *
 442:main.c        **** * Parameters:
 443:main.c        **** * None
 444:main.c        **** *
ARM GAS  C:\Users\user\AppData\Local\Temp\ccRdimcD.s 			page 44


 445:main.c        **** * Return:
 446:main.c        **** * None
 447:main.c        **** *
 448:main.c        **** * Theory:
 449:main.c        **** * The function tries to enter deep sleep as much as possible - whenever the 
 450:main.c        **** * BLE is idle and the UART transmission/reception is not happening. At all other
 451:main.c        **** * times, the function tries to enter CPU sleep.
 452:main.c        **** *
 453:main.c        **** *******************************************************************************/
 454:main.c        **** static void LowPowerImplementation(void)
 455:main.c        **** {
 1737              		.loc 1 455 0
 1738              		.cfi_startproc
 1739              		@ args = 0, pretend = 0, frame = 8
 1740              		@ frame_needed = 1, uses_anonymous_args = 0
 1741 0000 90B5     		push	{r4, r7, lr}
 1742              		.cfi_def_cfa_offset 12
 1743              		.cfi_offset 4, -12
 1744              		.cfi_offset 7, -8
 1745              		.cfi_offset 14, -4
 1746 0002 83B0     		sub	sp, sp, #12
 1747              		.cfi_def_cfa_offset 24
 1748 0004 00AF     		add	r7, sp, #0
 1749              		.cfi_def_cfa_register 7
 456:main.c        ****     CYBLE_LP_MODE_T bleMode;
 457:main.c        ****     uint8 interruptStatus;
 458:main.c        ****     
 459:main.c        ****     /* For advertising and connected states, implement deep sleep 
 460:main.c        ****      * functionality to achieve low power in the system. For more details
 461:main.c        ****      * on the low power implementation, refer to the Low Power Application 
 462:main.c        ****      * Note.
 463:main.c        ****      */
 464:main.c        ****     if((CyBle_GetState() == CYBLE_STATE_ADVERTISING) || 
 1750              		.loc 1 464 0
 1751 0006 234B     		ldr	r3, .L96
 1752 0008 1B78     		ldrb	r3, [r3]
 1753 000a 032B     		cmp	r3, #3
 1754 000c 03D0     		beq	.L86
 465:main.c        ****        (CyBle_GetState() == CYBLE_STATE_CONNECTED))
 1755              		.loc 1 465 0 discriminator 1
 1756 000e 214B     		ldr	r3, .L96
 1757 0010 1B78     		ldrb	r3, [r3]
 464:main.c        ****        (CyBle_GetState() == CYBLE_STATE_CONNECTED))
 1758              		.loc 1 464 0 discriminator 1
 1759 0012 022B     		cmp	r3, #2
 1760 0014 39D1     		bne	.L95
 1761              	.L86:
 466:main.c        ****     {
 467:main.c        ****         /* Request BLE subsystem to enter into Deep-Sleep mode between connection and advertising i
 468:main.c        ****         bleMode = CyBle_EnterLPM(CYBLE_BLESS_DEEPSLEEP);
 1762              		.loc 1 468 0
 1763 0016 FC1D     		adds	r4, r7, #7
 1764 0018 0320     		movs	r0, #3
 1765 001a FFF7FEFF 		bl	CyBle_EnterLPM
 1766 001e 0300     		movs	r3, r0
 1767 0020 2370     		strb	r3, [r4]
 469:main.c        ****         /* Disable global interrupts */
ARM GAS  C:\Users\user\AppData\Local\Temp\ccRdimcD.s 			page 45


 470:main.c        ****         interruptStatus = CyEnterCriticalSection();
 1768              		.loc 1 470 0
 1769 0022 BC1D     		adds	r4, r7, #6
 1770 0024 FFF7FEFF 		bl	CyEnterCriticalSection
 1771 0028 0300     		movs	r3, r0
 1772 002a 2370     		strb	r3, [r4]
 471:main.c        ****         /* When BLE subsystem has been put into Deep-Sleep mode */
 472:main.c        ****         if(bleMode == CYBLE_BLESS_DEEPSLEEP)
 1773              		.loc 1 472 0
 1774 002c FB1D     		adds	r3, r7, #7
 1775 002e 1B78     		ldrb	r3, [r3]
 1776 0030 032B     		cmp	r3, #3
 1777 0032 1ED1     		bne	.L88
 473:main.c        ****         {
 474:main.c        ****             /* And it is still there or ECO is on */
 475:main.c        ****             if((CyBle_GetBleSsState() == CYBLE_BLESS_STATE_ECO_ON) || 
 1778              		.loc 1 475 0
 1779 0034 FFF7FEFF 		bl	CyBle_GetBleSsState
 1780 0038 0300     		movs	r3, r0
 1781 003a 042B     		cmp	r3, #4
 1782 003c 04D0     		beq	.L89
 476:main.c        ****                (CyBle_GetBleSsState() == CYBLE_BLESS_STATE_DEEPSLEEP))
 1783              		.loc 1 476 0 discriminator 1
 1784 003e FFF7FEFF 		bl	CyBle_GetBleSsState
 1785 0042 0300     		movs	r3, r0
 475:main.c        ****                (CyBle_GetBleSsState() == CYBLE_BLESS_STATE_DEEPSLEEP))
 1786              		.loc 1 475 0 discriminator 1
 1787 0044 062B     		cmp	r3, #6
 1788 0046 1BD1     		bne	.L94
 1789              	.L89:
 477:main.c        ****             {
 478:main.c        ****             #if (DEBUG_UART_ENABLED == ENABLED)
 479:main.c        ****                 /* Put the CPU into the Deep-Sleep mode when all debug information has been sent */
 480:main.c        ****                 if((UART_DEB_SpiUartGetTxBufferSize() + UART_DEB_GET_TX_FIFO_SR_VALID) == 0u)
 1790              		.loc 1 480 0
 1791 0048 FFF7FEFF 		bl	UART_DEB_SpiUartGetTxBufferSize
 1792 004c 0100     		movs	r1, r0
 1793 004e 124B     		ldr	r3, .L96+4
 1794 0050 1A68     		ldr	r2, [r3]
 1795 0052 8023     		movs	r3, #128
 1796 0054 1B02     		lsls	r3, r3, #8
 1797 0056 1340     		ands	r3, r2
 1798 0058 01D0     		beq	.L91
 1799              		.loc 1 480 0 is_stmt 0 discriminator 1
 1800 005a 0123     		movs	r3, #1
 1801 005c 00E0     		b	.L92
 1802              	.L91:
 1803              		.loc 1 480 0 discriminator 2
 1804 005e 0023     		movs	r3, #0
 1805              	.L92:
 1806              		.loc 1 480 0 discriminator 4
 1807 0060 CB18     		adds	r3, r1, r3
 1808 0062 002B     		cmp	r3, #0
 1809 0064 02D1     		bne	.L93
 481:main.c        ****                 {
 482:main.c        ****                     CySysPmDeepSleep();
 1810              		.loc 1 482 0 is_stmt 1
ARM GAS  C:\Users\user\AppData\Local\Temp\ccRdimcD.s 			page 46


 1811 0066 FFF7FEFF 		bl	CySysPmDeepSleep
 1812 006a 09E0     		b	.L94
 1813              	.L93:
 483:main.c        ****                 }
 484:main.c        ****                 else /* Put the CPU into Sleep mode and let SCB to continue sending debug data */
 485:main.c        ****                 {
 486:main.c        ****                     CySysPmSleep();
 1814              		.loc 1 486 0
 1815 006c FFF7FEFF 		bl	CySysPmSleep
 1816 0070 06E0     		b	.L94
 1817              	.L88:
 487:main.c        ****                 }
 488:main.c        ****             #else
 489:main.c        ****                 CySysPmDeepSleep();
 490:main.c        ****             #endif /* (DEBUG_UART_ENABLED == ENABLED) */
 491:main.c        ****             }
 492:main.c        ****         }
 493:main.c        ****         else /* When BLE subsystem has been put into Sleep mode or is active */
 494:main.c        ****         {
 495:main.c        ****             /* And hardware doesn't finish Tx/Rx opeation - put the CPU into Sleep mode */
 496:main.c        ****             if(CyBle_GetBleSsState() != CYBLE_BLESS_STATE_EVENT_CLOSE)
 1818              		.loc 1 496 0
 1819 0072 FFF7FEFF 		bl	CyBle_GetBleSsState
 1820 0076 0300     		movs	r3, r0
 1821 0078 022B     		cmp	r3, #2
 1822 007a 01D0     		beq	.L94
 497:main.c        ****             {
 498:main.c        ****                 CySysPmSleep();
 1823              		.loc 1 498 0
 1824 007c FFF7FEFF 		bl	CySysPmSleep
 1825              	.L94:
 499:main.c        ****             }
 500:main.c        ****         }
 501:main.c        ****         /* Enable global interrupt */
 502:main.c        ****         CyExitCriticalSection(interruptStatus);
 1826              		.loc 1 502 0
 1827 0080 BB1D     		adds	r3, r7, #6
 1828 0082 1B78     		ldrb	r3, [r3]
 1829 0084 1800     		movs	r0, r3
 1830 0086 FFF7FEFF 		bl	CyExitCriticalSection
 1831              	.L95:
 503:main.c        ****     }
 504:main.c        **** }
 1832              		.loc 1 504 0
 1833 008a C046     		nop
 1834 008c BD46     		mov	sp, r7
 1835 008e 03B0     		add	sp, sp, #12
 1836              		@ sp needed
 1837 0090 90BD     		pop	{r4, r7, pc}
 1838              	.L97:
 1839 0092 C046     		.align	2
 1840              	.L96:
 1841 0094 00000000 		.word	cyBle_state
 1842 0098 08022440 		.word	1076101640
 1843              		.cfi_endproc
 1844              	.LFE40:
 1845              		.size	LowPowerImplementation, .-LowPowerImplementation
ARM GAS  C:\Users\user\AppData\Local\Temp\ccRdimcD.s 			page 47


 1846              		.section	.rodata
 1847 0d09 000000   		.align	2
 1848              	.LC152:
 1849 0d0c 41636365 		.ascii	"Accept displayed passkey \015\000"
 1849      70742064 
 1849      6973706C 
 1849      61796564 
 1849      20706173 
 1850 0d27 00       		.align	2
 1851              	.LC156:
 1852 0d28 4379426C 		.ascii	"CyBle_GapAuthPassKeyReply API Error : \000"
 1852      655F4761 
 1852      70417574 
 1852      68506173 
 1852      734B6579 
 1853 0d4f 00       		.align	2
 1854              	.LC158:
 1855 0d50 52656A65 		.ascii	"Reject displayed passkey \015\000"
 1855      63742064 
 1855      6973706C 
 1855      61796564 
 1855      20706173 
 1856 0d6b 00       		.align	2
 1857              	.LC160:
 1858 0d6c 57726F6E 		.ascii	"Wrong key entered. Press 'y' or 'n'\015\000"
 1858      67206B65 
 1858      7920656E 
 1858      74657265 
 1858      642E2050 
 1859              		.global	__aeabi_uidiv
 1860 0d91 000000   		.align	2
 1861              	.LC165:
 1862 0d94 57726F6E 		.ascii	"Wrong key entered. \015\000"
 1862      67206B65 
 1862      7920656E 
 1862      74657265 
 1862      642E200D 
 1863 0da9 000000   		.align	2
 1864              	.LC168:
 1865 0dac 4379426C 		.ascii	"CyBle_GapAuthPassKeyReply API Error: \000"
 1865      655F4761 
 1865      70417574 
 1865      68506173 
 1865      734B6579 
 1866              		.section	.text.AuthenticationHandler,"ax",%progbits
 1867              		.align	2
 1868              		.global	AuthenticationHandler
 1869              		.code	16
 1870              		.thumb_func
 1871              		.type	AuthenticationHandler, %function
 1872              	AuthenticationHandler:
 1873              	.LFB41:
 505:main.c        **** 
 506:main.c        **** /*******************************************************************************
 507:main.c        **** * Function Name: AuthenticationHandler
 508:main.c        **** ********************************************************************************
 509:main.c        **** *
ARM GAS  C:\Users\user\AppData\Local\Temp\ccRdimcD.s 			page 48


 510:main.c        **** * Summary:
 511:main.c        **** *   Handles entering authentication information.
 512:main.c        **** *
 513:main.c        **** * Parameters:
 514:main.c        **** *   None
 515:main.c        **** *
 516:main.c        **** * Return:
 517:main.c        **** *   None
 518:main.c        **** *
 519:main.c        **** *******************************************************************************/
 520:main.c        **** void AuthenticationHandler(void)
 521:main.c        **** {
 1874              		.loc 1 521 0
 1875              		.cfi_startproc
 1876              		@ args = 0, pretend = 0, frame = 0
 1877              		@ frame_needed = 1, uses_anonymous_args = 0
 1878 0000 80B5     		push	{r7, lr}
 1879              		.cfi_def_cfa_offset 8
 1880              		.cfi_offset 7, -8
 1881              		.cfi_offset 14, -4
 1882 0002 00AF     		add	r7, sp, #0
 1883              		.cfi_def_cfa_register 7
 522:main.c        ****     switch(authState)
 1884              		.loc 1 522 0
 1885 0004 684B     		ldr	r3, .L118
 1886 0006 1B78     		ldrb	r3, [r3]
 1887 0008 032B     		cmp	r3, #3
 1888 000a 05D0     		beq	.L100
 1889 000c 052B     		cmp	r3, #5
 1890 000e 00D1     		bne	.LCB1229
 1891 0010 C1E0     		b	.L115	@long jump
 1892              	.LCB1229:
 1893 0012 012B     		cmp	r3, #1
 1894 0014 65D0     		beq	.L102
 523:main.c        ****     {
 524:main.c        ****     case AUTHENTICATION_PASSKEY_YES_NO:
 525:main.c        ****         
 526:main.c        ****         if(((command = UART_DEB_GET_CHAR()) != 0u) || (customCommand != 0u))
 527:main.c        ****         {
 528:main.c        ****             if((command == 0u) && (customCommand != 0u))
 529:main.c        ****             {
 530:main.c        ****                 command = customCommand;
 531:main.c        ****                 customCommand = 0u;
 532:main.c        ****             }
 533:main.c        ****             if(command == 'y')
 534:main.c        ****             {
 535:main.c        ****                 DBG_PRINTF("Accept displayed passkey \r\n");
 536:main.c        ****                 apiResult = CyBle_GapAuthPassKeyReply(cyBle_connHandle.bdHandle, 0u, CYBLE_GAP_ACCE
 537:main.c        ****                 if(apiResult != CYBLE_ERROR_OK)
 538:main.c        ****                 {
 539:main.c        ****                     DBG_PRINTF("CyBle_GapAuthPassKeyReply API Error : ");
 540:main.c        ****                     PrintApiResult();
 541:main.c        ****                 }
 542:main.c        ****                 authState = AUTHENTICATION_PASSKEY_ENTERED;
 543:main.c        ****             }
 544:main.c        ****             else if(command == 'n')
 545:main.c        ****             {
ARM GAS  C:\Users\user\AppData\Local\Temp\ccRdimcD.s 			page 49


 546:main.c        ****                 DBG_PRINTF("Reject displayed passkey \r\n");
 547:main.c        ****                 apiResult = CyBle_GapAuthPassKeyReply(cyBle_connHandle.bdHandle, 0u, CYBLE_GAP_REJE
 548:main.c        ****                 if(apiResult != CYBLE_ERROR_OK)
 549:main.c        ****                 {
 550:main.c        ****                     DBG_PRINTF("CyBle_GapAuthPassKeyReply API Error : ");
 551:main.c        ****                     PrintApiResult();
 552:main.c        ****                 }
 553:main.c        ****                authState = AUTHENTICATION_PASSKEY_ENTERED;
 554:main.c        ****             }
 555:main.c        ****             else
 556:main.c        ****             {
 557:main.c        ****                 DBG_PRINTF("Wrong key entered. Press 'y' or 'n'\r\n");
 558:main.c        ****             }
 559:main.c        ****         }
 560:main.c        ****         break;
 561:main.c        ****            
 562:main.c        ****     case AUTHENTICATION_WAITING_FOR_PASSKEY:
 563:main.c        ****      
 564:main.c        ****         /* Get 6 digit number from UART terminal */
 565:main.c        ****         if((command = UART_DEB_GET_CHAR()) != 0u)
 566:main.c        ****         {   
 567:main.c        ****             /* accept the digits that are in the range of '0' to '9' */
 568:main.c        ****             if((command >= '0') && (command <= '9'))  
 569:main.c        ****             {
 570:main.c        ****                 passkeyValue += (uint32)(command - '0') * passkeyPow;
 571:main.c        ****                 passkeyPow /= 10u;
 572:main.c        ****                 passkeyCounter++;
 573:main.c        ****                 UART_DEB_PUT_CHAR(command); 
 574:main.c        ****             }
 575:main.c        ****             else  /* If entered digit is not in the range of '0' to '9' */
 576:main.c        ****             {
 577:main.c        ****                DBG_PRINTF("Wrong key entered. \r\n");
 578:main.c        ****             }
 579:main.c        **** 
 580:main.c        ****             if(passkeyCounter == CYBLE_GAP_USER_PASSKEY_SIZE)
 581:main.c        ****             {
 582:main.c        ****                 DBG_PRINTF("\r\n");
 583:main.c        ****                 /* Send Pass key Response to create an Authenticated Link */
 584:main.c        ****                 apiResult = CyBle_GapAuthPassKeyReply(cyBle_connHandle.bdHandle, passkeyValue, CYBL
 585:main.c        ****                 if(apiResult != CYBLE_ERROR_OK)
 586:main.c        ****                 {
 587:main.c        ****                     DBG_PRINTF("CyBle_GapAuthPassKeyReply API Error: ");
 588:main.c        ****                     PrintApiResult();
 589:main.c        ****                 }
 590:main.c        ****                 authState = AUTHENTICATION_PASSKEY_ENTERED;
 591:main.c        ****             }
 592:main.c        ****         }
 593:main.c        ****         break;
 594:main.c        **** 
 595:main.c        ****     case AUTHENTICATION_BONDING_COMPLETE:
 596:main.c        ****         break;
 597:main.c        **** 
 598:main.c        ****     default:    /* Not supported state */
 599:main.c        ****         break;
 1895              		.loc 1 599 0
 1896 0016 C3E0     		b	.L110
 1897              	.L100:
ARM GAS  C:\Users\user\AppData\Local\Temp\ccRdimcD.s 			page 50


 526:main.c        ****         {
 1898              		.loc 1 526 0
 1899 0018 FFF7FEFF 		bl	UART_DEB_UartGetChar
 1900 001c 0300     		movs	r3, r0
 1901 001e DAB2     		uxtb	r2, r3
 1902 0020 624B     		ldr	r3, .L118+4
 1903 0022 1A70     		strb	r2, [r3]
 1904 0024 614B     		ldr	r3, .L118+4
 1905 0026 1B78     		ldrb	r3, [r3]
 1906 0028 002B     		cmp	r3, #0
 1907 002a 04D1     		bne	.L103
 526:main.c        ****         {
 1908              		.loc 1 526 0 is_stmt 0 discriminator 1
 1909 002c 604B     		ldr	r3, .L118+8
 1910 002e 1B78     		ldrb	r3, [r3]
 1911 0030 002B     		cmp	r3, #0
 1912 0032 00D1     		bne	.LCB1248
 1913 0034 B1E0     		b	.L116	@long jump
 1914              	.LCB1248:
 1915              	.L103:
 528:main.c        ****             {
 1916              		.loc 1 528 0 is_stmt 1
 1917 0036 5D4B     		ldr	r3, .L118+4
 1918 0038 1B78     		ldrb	r3, [r3]
 1919 003a 002B     		cmp	r3, #0
 1920 003c 0AD1     		bne	.L105
 528:main.c        ****             {
 1921              		.loc 1 528 0 is_stmt 0 discriminator 1
 1922 003e 5C4B     		ldr	r3, .L118+8
 1923 0040 1B78     		ldrb	r3, [r3]
 1924 0042 002B     		cmp	r3, #0
 1925 0044 06D0     		beq	.L105
 530:main.c        ****                 customCommand = 0u;
 1926              		.loc 1 530 0 is_stmt 1
 1927 0046 5A4B     		ldr	r3, .L118+8
 1928 0048 1A78     		ldrb	r2, [r3]
 1929 004a 584B     		ldr	r3, .L118+4
 1930 004c 1A70     		strb	r2, [r3]
 531:main.c        ****             }
 1931              		.loc 1 531 0
 1932 004e 584B     		ldr	r3, .L118+8
 1933 0050 0022     		movs	r2, #0
 1934 0052 1A70     		strb	r2, [r3]
 1935              	.L105:
 533:main.c        ****             {
 1936              		.loc 1 533 0
 1937 0054 554B     		ldr	r3, .L118+4
 1938 0056 1B78     		ldrb	r3, [r3]
 1939 0058 792B     		cmp	r3, #121
 1940 005a 1CD1     		bne	.L106
 535:main.c        ****                 apiResult = CyBle_GapAuthPassKeyReply(cyBle_connHandle.bdHandle, 0u, CYBLE_GAP_ACCE
 1941              		.loc 1 535 0
 1942 005c 554B     		ldr	r3, .L118+12
 1943 005e 1800     		movs	r0, r3
 1944 0060 FFF7FEFF 		bl	puts
 536:main.c        ****                 if(apiResult != CYBLE_ERROR_OK)
 1945              		.loc 1 536 0
ARM GAS  C:\Users\user\AppData\Local\Temp\ccRdimcD.s 			page 51


 1946 0064 544B     		ldr	r3, .L118+16
 1947 0066 1B78     		ldrb	r3, [r3]
 1948 0068 0122     		movs	r2, #1
 1949 006a 0021     		movs	r1, #0
 1950 006c 1800     		movs	r0, r3
 1951 006e FFF7FEFF 		bl	CyBle_GapAuthPassKeyReply
 1952 0072 0300     		movs	r3, r0
 1953 0074 1A00     		movs	r2, r3
 1954 0076 514B     		ldr	r3, .L118+20
 1955 0078 1A80     		strh	r2, [r3]
 537:main.c        ****                 {
 1956              		.loc 1 537 0
 1957 007a 504B     		ldr	r3, .L118+20
 1958 007c 1B88     		ldrh	r3, [r3]
 1959 007e 002B     		cmp	r3, #0
 1960 0080 05D0     		beq	.L107
 539:main.c        ****                     PrintApiResult();
 1961              		.loc 1 539 0
 1962 0082 4F4B     		ldr	r3, .L118+24
 1963 0084 1800     		movs	r0, r3
 1964 0086 FFF7FEFF 		bl	printf
 540:main.c        ****                 }
 1965              		.loc 1 540 0
 1966 008a FFF7FEFF 		bl	PrintApiResult
 1967              	.L107:
 542:main.c        ****             }
 1968              		.loc 1 542 0
 1969 008e 464B     		ldr	r3, .L118
 1970 0090 0222     		movs	r2, #2
 1971 0092 1A70     		strb	r2, [r3]
 560:main.c        ****            
 1972              		.loc 1 560 0
 1973 0094 81E0     		b	.L116
 1974              	.L106:
 544:main.c        ****             {
 1975              		.loc 1 544 0
 1976 0096 454B     		ldr	r3, .L118+4
 1977 0098 1B78     		ldrb	r3, [r3]
 1978 009a 6E2B     		cmp	r3, #110
 1979 009c 1CD1     		bne	.L108
 546:main.c        ****                 apiResult = CyBle_GapAuthPassKeyReply(cyBle_connHandle.bdHandle, 0u, CYBLE_GAP_REJE
 1980              		.loc 1 546 0
 1981 009e 494B     		ldr	r3, .L118+28
 1982 00a0 1800     		movs	r0, r3
 1983 00a2 FFF7FEFF 		bl	puts
 547:main.c        ****                 if(apiResult != CYBLE_ERROR_OK)
 1984              		.loc 1 547 0
 1985 00a6 444B     		ldr	r3, .L118+16
 1986 00a8 1B78     		ldrb	r3, [r3]
 1987 00aa 0022     		movs	r2, #0
 1988 00ac 0021     		movs	r1, #0
 1989 00ae 1800     		movs	r0, r3
 1990 00b0 FFF7FEFF 		bl	CyBle_GapAuthPassKeyReply
 1991 00b4 0300     		movs	r3, r0
 1992 00b6 1A00     		movs	r2, r3
 1993 00b8 404B     		ldr	r3, .L118+20
 1994 00ba 1A80     		strh	r2, [r3]
ARM GAS  C:\Users\user\AppData\Local\Temp\ccRdimcD.s 			page 52


 548:main.c        ****                 {
 1995              		.loc 1 548 0
 1996 00bc 3F4B     		ldr	r3, .L118+20
 1997 00be 1B88     		ldrh	r3, [r3]
 1998 00c0 002B     		cmp	r3, #0
 1999 00c2 05D0     		beq	.L109
 550:main.c        ****                     PrintApiResult();
 2000              		.loc 1 550 0
 2001 00c4 3E4B     		ldr	r3, .L118+24
 2002 00c6 1800     		movs	r0, r3
 2003 00c8 FFF7FEFF 		bl	printf
 551:main.c        ****                 }
 2004              		.loc 1 551 0
 2005 00cc FFF7FEFF 		bl	PrintApiResult
 2006              	.L109:
 553:main.c        ****             }
 2007              		.loc 1 553 0
 2008 00d0 354B     		ldr	r3, .L118
 2009 00d2 0222     		movs	r2, #2
 2010 00d4 1A70     		strb	r2, [r3]
 560:main.c        ****            
 2011              		.loc 1 560 0
 2012 00d6 60E0     		b	.L116
 2013              	.L108:
 557:main.c        ****             }
 2014              		.loc 1 557 0
 2015 00d8 3B4B     		ldr	r3, .L118+32
 2016 00da 1800     		movs	r0, r3
 2017 00dc FFF7FEFF 		bl	puts
 560:main.c        ****            
 2018              		.loc 1 560 0
 2019 00e0 5BE0     		b	.L116
 2020              	.L102:
 565:main.c        ****         {   
 2021              		.loc 1 565 0
 2022 00e2 FFF7FEFF 		bl	UART_DEB_UartGetChar
 2023 00e6 0300     		movs	r3, r0
 2024 00e8 DAB2     		uxtb	r2, r3
 2025 00ea 304B     		ldr	r3, .L118+4
 2026 00ec 1A70     		strb	r2, [r3]
 2027 00ee 2F4B     		ldr	r3, .L118+4
 2028 00f0 1B78     		ldrb	r3, [r3]
 2029 00f2 002B     		cmp	r3, #0
 2030 00f4 53D0     		beq	.L117
 568:main.c        ****             {
 2031              		.loc 1 568 0
 2032 00f6 2D4B     		ldr	r3, .L118+4
 2033 00f8 1B78     		ldrb	r3, [r3]
 2034 00fa 2F2B     		cmp	r3, #47
 2035 00fc 25D9     		bls	.L112
 568:main.c        ****             {
 2036              		.loc 1 568 0 is_stmt 0 discriminator 1
 2037 00fe 2B4B     		ldr	r3, .L118+4
 2038 0100 1B78     		ldrb	r3, [r3]
 2039 0102 392B     		cmp	r3, #57
 2040 0104 21D8     		bhi	.L112
 570:main.c        ****                 passkeyPow /= 10u;
ARM GAS  C:\Users\user\AppData\Local\Temp\ccRdimcD.s 			page 53


 2041              		.loc 1 570 0 is_stmt 1
 2042 0106 294B     		ldr	r3, .L118+4
 2043 0108 1B78     		ldrb	r3, [r3]
 2044 010a 303B     		subs	r3, r3, #48
 2045 010c 1A00     		movs	r2, r3
 2046 010e 2F4B     		ldr	r3, .L118+36
 2047 0110 1B68     		ldr	r3, [r3]
 2048 0112 5A43     		muls	r2, r3
 2049 0114 2E4B     		ldr	r3, .L118+40
 2050 0116 1B68     		ldr	r3, [r3]
 2051 0118 D218     		adds	r2, r2, r3
 2052 011a 2D4B     		ldr	r3, .L118+40
 2053 011c 1A60     		str	r2, [r3]
 571:main.c        ****                 passkeyCounter++;
 2054              		.loc 1 571 0
 2055 011e 2B4B     		ldr	r3, .L118+36
 2056 0120 1B68     		ldr	r3, [r3]
 2057 0122 0A21     		movs	r1, #10
 2058 0124 1800     		movs	r0, r3
 2059 0126 FFF7FEFF 		bl	__aeabi_uidiv
 2060 012a 0300     		movs	r3, r0
 2061 012c 1A00     		movs	r2, r3
 2062 012e 274B     		ldr	r3, .L118+36
 2063 0130 1A60     		str	r2, [r3]
 572:main.c        ****                 UART_DEB_PUT_CHAR(command); 
 2064              		.loc 1 572 0
 2065 0132 284B     		ldr	r3, .L118+44
 2066 0134 1B78     		ldrb	r3, [r3]
 2067 0136 0133     		adds	r3, r3, #1
 2068 0138 DAB2     		uxtb	r2, r3
 2069 013a 264B     		ldr	r3, .L118+44
 2070 013c 1A70     		strb	r2, [r3]
 573:main.c        ****             }
 2071              		.loc 1 573 0
 2072 013e 1B4B     		ldr	r3, .L118+4
 2073 0140 1B78     		ldrb	r3, [r3]
 2074 0142 1800     		movs	r0, r3
 2075 0144 FFF7FEFF 		bl	UART_DEB_SpiUartWriteTxData
 2076 0148 03E0     		b	.L113
 2077              	.L112:
 577:main.c        ****             }
 2078              		.loc 1 577 0
 2079 014a 234B     		ldr	r3, .L118+48
 2080 014c 1800     		movs	r0, r3
 2081 014e FFF7FEFF 		bl	puts
 2082              	.L113:
 580:main.c        ****             {
 2083              		.loc 1 580 0
 2084 0152 204B     		ldr	r3, .L118+44
 2085 0154 1B78     		ldrb	r3, [r3]
 2086 0156 062B     		cmp	r3, #6
 2087 0158 21D1     		bne	.L117
 582:main.c        ****                 /* Send Pass key Response to create an Authenticated Link */
 2088              		.loc 1 582 0
 2089 015a 204B     		ldr	r3, .L118+52
 2090 015c 1800     		movs	r0, r3
 2091 015e FFF7FEFF 		bl	puts
ARM GAS  C:\Users\user\AppData\Local\Temp\ccRdimcD.s 			page 54


 584:main.c        ****                 if(apiResult != CYBLE_ERROR_OK)
 2092              		.loc 1 584 0
 2093 0162 154B     		ldr	r3, .L118+16
 2094 0164 1878     		ldrb	r0, [r3]
 2095 0166 1A4B     		ldr	r3, .L118+40
 2096 0168 1B68     		ldr	r3, [r3]
 2097 016a 0122     		movs	r2, #1
 2098 016c 1900     		movs	r1, r3
 2099 016e FFF7FEFF 		bl	CyBle_GapAuthPassKeyReply
 2100 0172 0300     		movs	r3, r0
 2101 0174 1A00     		movs	r2, r3
 2102 0176 114B     		ldr	r3, .L118+20
 2103 0178 1A80     		strh	r2, [r3]
 585:main.c        ****                 {
 2104              		.loc 1 585 0
 2105 017a 104B     		ldr	r3, .L118+20
 2106 017c 1B88     		ldrh	r3, [r3]
 2107 017e 002B     		cmp	r3, #0
 2108 0180 05D0     		beq	.L114
 587:main.c        ****                     PrintApiResult();
 2109              		.loc 1 587 0
 2110 0182 174B     		ldr	r3, .L118+56
 2111 0184 1800     		movs	r0, r3
 2112 0186 FFF7FEFF 		bl	printf
 588:main.c        ****                 }
 2113              		.loc 1 588 0
 2114 018a FFF7FEFF 		bl	PrintApiResult
 2115              	.L114:
 590:main.c        ****             }
 2116              		.loc 1 590 0
 2117 018e 064B     		ldr	r3, .L118
 2118 0190 0222     		movs	r2, #2
 2119 0192 1A70     		strb	r2, [r3]
 593:main.c        **** 
 2120              		.loc 1 593 0
 2121 0194 03E0     		b	.L117
 2122              	.L115:
 596:main.c        **** 
 2123              		.loc 1 596 0
 2124 0196 C046     		nop
 2125 0198 02E0     		b	.L110
 2126              	.L116:
 560:main.c        ****            
 2127              		.loc 1 560 0
 2128 019a C046     		nop
 2129 019c 00E0     		b	.L110
 2130              	.L117:
 593:main.c        **** 
 2131              		.loc 1 593 0
 2132 019e C046     		nop
 2133              	.L110:
 600:main.c        ****     }  
 601:main.c        **** }
 2134              		.loc 1 601 0
 2135 01a0 C046     		nop
 2136 01a2 BD46     		mov	sp, r7
 2137              		@ sp needed
ARM GAS  C:\Users\user\AppData\Local\Temp\ccRdimcD.s 			page 55


 2138 01a4 80BD     		pop	{r7, pc}
 2139              	.L119:
 2140 01a6 C046     		.align	2
 2141              	.L118:
 2142 01a8 00000000 		.word	authState
 2143 01ac 00000000 		.word	command
 2144 01b0 00000000 		.word	customCommand
 2145 01b4 0C0D0000 		.word	.LC152
 2146 01b8 00000000 		.word	cyBle_connHandle
 2147 01bc 00000000 		.word	apiResult
 2148 01c0 280D0000 		.word	.LC156
 2149 01c4 500D0000 		.word	.LC158
 2150 01c8 6C0D0000 		.word	.LC160
 2151 01cc 00000000 		.word	passkeyPow
 2152 01d0 00000000 		.word	passkeyValue
 2153 01d4 00000000 		.word	passkeyCounter
 2154 01d8 940D0000 		.word	.LC165
 2155 01dc B4050000 		.word	.LC96
 2156 01e0 AC0D0000 		.word	.LC168
 2157              		.cfi_endproc
 2158              	.LFE41:
 2159              		.size	AuthenticationHandler, .-AuthenticationHandler
 2160              		.section	.rodata
 2161 0dd2 0000     		.align	2
 2162              	.LC170:
 2163 0dd4 0D0A436F 		.ascii	"\015\012Continuous Glucose Monitoring Sensor Exampl"
 2163      6E74696E 
 2163      756F7573 
 2163      20476C75 
 2163      636F7365 
 2164 0e01 65205072 		.ascii	"e Project\015\000"
 2164      6F6A6563 
 2164      740D00
 2165              		.align	2
 2166              	.LC174:
 2167 0e0c 4379426C 		.ascii	"CyBle_Start API Error: \000"
 2167      655F5374 
 2167      61727420 
 2167      41504920 
 2167      4572726F 
 2168              		.align	2
 2169              	.LC180:
 2170 0e24 53746F72 		.ascii	"Store bonding data, status: %x \015\012\000"
 2170      6520626F 
 2170      6E64696E 
 2170      67206461 
 2170      74612C20 
 2171              		.section	.text.main,"ax",%progbits
 2172              		.align	2
 2173              		.global	main
 2174              		.code	16
 2175              		.thumb_func
 2176              		.type	main, %function
 2177              	main:
 2178              	.LFB42:
 602:main.c        **** 
 603:main.c        **** /*******************************************************************************
ARM GAS  C:\Users\user\AppData\Local\Temp\ccRdimcD.s 			page 56


 604:main.c        **** * Function Name: main()
 605:main.c        **** ********************************************************************************
 606:main.c        **** * Summary:
 607:main.c        **** *  Main function for the project.
 608:main.c        **** *
 609:main.c        **** * Parameters:
 610:main.c        **** *  None
 611:main.c        **** *
 612:main.c        **** * Return:
 613:main.c        **** *  None
 614:main.c        **** *
 615:main.c        **** * Theory:
 616:main.c        **** *  The function starts BLE and UART components.
 617:main.c        **** *  This function process all BLE events and also implements the low power 
 618:main.c        **** *  functionality.
 619:main.c        **** *
 620:main.c        **** *******************************************************************************/
 621:main.c        **** int main()
 622:main.c        **** {
 2179              		.loc 1 622 0
 2180              		.cfi_startproc
 2181              		@ args = 0, pretend = 0, frame = 0
 2182              		@ frame_needed = 1, uses_anonymous_args = 0
 2183 0000 80B5     		push	{r7, lr}
 2184              		.cfi_def_cfa_offset 8
 2185              		.cfi_offset 7, -8
 2186              		.cfi_offset 14, -4
 2187 0002 00AF     		add	r7, sp, #0
 2188              		.cfi_def_cfa_register 7
 623:main.c        ****     CyGlobalIntEnable;
 2189              		.loc 1 623 0
 2190              		.syntax divided
 2191              	@ 623 "main.c" 1
 2192 0004 62B6     		CPSIE   i
 2193              	@ 0 "" 2
 624:main.c        **** 	UART_DEB_Start();
 2194              		.loc 1 624 0
 2195              		.thumb
 2196              		.syntax unified
 2197 0006 FFF7FEFF 		bl	UART_DEB_Start
 625:main.c        ****     DBG_PRINTF("\r\nContinuous Glucose Monitoring Sensor Example Project\r\n");
 2198              		.loc 1 625 0
 2199 000a 334B     		ldr	r3, .L129
 2200 000c 1800     		movs	r0, r3
 2201 000e FFF7FEFF 		bl	puts
 626:main.c        ****     
 627:main.c        ****     Disconnect_LED_Write(LED_OFF);
 2202              		.loc 1 627 0
 2203 0012 0120     		movs	r0, #1
 2204 0014 FFF7FEFF 		bl	Disconnect_LED_Write
 628:main.c        ****     Advertising_LED_Write(LED_OFF);
 2205              		.loc 1 628 0
 2206 0018 0120     		movs	r0, #1
 2207 001a FFF7FEFF 		bl	Advertising_LED_Write
 629:main.c        ****     Connected_LED_Write(LED_OFF);
 2208              		.loc 1 629 0
 2209 001e 0120     		movs	r0, #1
ARM GAS  C:\Users\user\AppData\Local\Temp\ccRdimcD.s 			page 57


 2210 0020 FFF7FEFF 		bl	Connected_LED_Write
 630:main.c        **** 
 631:main.c        ****     /* Start CYBLE component and register generic event handler */
 632:main.c        ****     apiResult = CyBle_Start(AppCallBack);
 2211              		.loc 1 632 0
 2212 0024 2D4B     		ldr	r3, .L129+4
 2213 0026 1800     		movs	r0, r3
 2214 0028 FFF7FEFF 		bl	CyBle_Start
 2215 002c 0300     		movs	r3, r0
 2216 002e 1A00     		movs	r2, r3
 2217 0030 2B4B     		ldr	r3, .L129+8
 2218 0032 1A80     		strh	r2, [r3]
 633:main.c        **** 	if(apiResult != CYBLE_ERROR_OK)
 2219              		.loc 1 633 0
 2220 0034 2A4B     		ldr	r3, .L129+8
 2221 0036 1B88     		ldrh	r3, [r3]
 2222 0038 002B     		cmp	r3, #0
 2223 003a 05D0     		beq	.L121
 634:main.c        **** 	{
 635:main.c        **** 		DBG_PRINTF("CyBle_Start API Error: ");
 2224              		.loc 1 635 0
 2225 003c 294B     		ldr	r3, .L129+12
 2226 003e 1800     		movs	r0, r3
 2227 0040 FFF7FEFF 		bl	printf
 636:main.c        ****         PrintApiResult();
 2228              		.loc 1 636 0
 2229 0044 FFF7FEFF 		bl	PrintApiResult
 2230              	.L121:
 637:main.c        **** 	}
 638:main.c        ****     
 639:main.c        ****     PrintStackVersion();
 2231              		.loc 1 639 0
 2232 0048 FFF7FEFF 		bl	PrintStackVersion
 640:main.c        ****     
 641:main.c        ****     /* Services initialization */
 642:main.c        ****     CgmsInit();
 2233              		.loc 1 642 0
 2234 004c FFF7FEFF 		bl	CgmsInit
 643:main.c        ****     BmsInit();
 2235              		.loc 1 643 0
 2236 0050 FFF7FEFF 		bl	BmsInit
 644:main.c        ****     
 645:main.c        ****     /* Register Timer_Interrupt() by the WDT COUNTER2 to generate interrupt every second */
 646:main.c        ****     CySysWdtSetInterruptCallback(CY_SYS_WDT_COUNTER2, Timer_Interrupt);
 2237              		.loc 1 646 0
 2238 0054 244B     		ldr	r3, .L129+16
 2239 0056 1900     		movs	r1, r3
 2240 0058 0220     		movs	r0, #2
 2241 005a FFF7FEFF 		bl	CySysWdtSetInterruptCallback
 647:main.c        ****     /* Enable the COUNTER2 ISR handler. */
 648:main.c        ****     CySysWdtEnableCounterIsr(CY_SYS_WDT_COUNTER2);
 2242              		.loc 1 648 0
 2243 005e 0220     		movs	r0, #2
 2244 0060 FFF7FEFF 		bl	CySysWdtEnableCounterIsr
 2245              	.L128:
 649:main.c        ****     
 650:main.c        ****     
ARM GAS  C:\Users\user\AppData\Local\Temp\ccRdimcD.s 			page 58


 651:main.c        ****     /***************************************************************************
 652:main.c        ****     * Main polling loop
 653:main.c        ****     ***************************************************************************/
 654:main.c        ****     while(1u)
 655:main.c        ****     {
 656:main.c        ****         /*******************************************************************
 657:main.c        ****         *  To achieve low power in the device
 658:main.c        ****         *******************************************************************/
 659:main.c        ****         if(( authState != AUTHENTICATION_PASSKEY_YES_NO)
 2246              		.loc 1 659 0
 2247 0064 214B     		ldr	r3, .L129+20
 2248 0066 1B78     		ldrb	r3, [r3]
 2249 0068 032B     		cmp	r3, #3
 2250 006a 05D0     		beq	.L122
 660:main.c        ****         && ( authState != AUTHENTICATION_WAITING_FOR_PASSKEY) )
 2251              		.loc 1 660 0
 2252 006c 1F4B     		ldr	r3, .L129+20
 2253 006e 1B78     		ldrb	r3, [r3]
 2254 0070 012B     		cmp	r3, #1
 2255 0072 01D0     		beq	.L122
 661:main.c        ****         {   
 662:main.c        ****             LowPowerImplementation();
 2256              		.loc 1 662 0
 2257 0074 FFF7FEFF 		bl	LowPowerImplementation
 2258              	.L122:
 663:main.c        ****         }
 664:main.c        ****         
 665:main.c        ****         /*******************************************************************
 666:main.c        ****         *  Process all pending BLE events in the stack.
 667:main.c        ****         *******************************************************************/
 668:main.c        ****         CyBle_ProcessEvents();
 2259              		.loc 1 668 0
 2260 0078 FFF7FEFF 		bl	CyBle_ProcessEvents
 669:main.c        ****       
 670:main.c        ****         /*******************************************************************
 671:main.c        ****         *  Process GATT and service-specific tasks during connected state.
 672:main.c        ****         *******************************************************************/
 673:main.c        **** 		if(CyBle_GetState() == CYBLE_STATE_CONNECTED)
 2261              		.loc 1 673 0
 2262 007c 1C4B     		ldr	r3, .L129+24
 2263 007e 1B78     		ldrb	r3, [r3]
 2264 0080 022B     		cmp	r3, #2
 2265 0082 26D1     		bne	.L123
 674:main.c        ****         {   
 675:main.c        ****             /* Process CGMS actions when device in connection */
 676:main.c        ****             CgmsProcess();
 2266              		.loc 1 676 0
 2267 0084 FFF7FEFF 		bl	CgmsProcess
 677:main.c        ****             
 678:main.c        **** 		/*******************************************************************
 679:main.c        ****         *  Authentication procdure handling
 680:main.c        ****         *******************************************************************/
 681:main.c        ****             AuthenticationHandler();
 2268              		.loc 1 681 0
 2269 0088 FFF7FEFF 		bl	AuthenticationHandler
 682:main.c        ****         
 683:main.c        ****           /* Store bonding data to flash only when all debug information has been sent */
ARM GAS  C:\Users\user\AppData\Local\Temp\ccRdimcD.s 			page 59


 684:main.c        ****         #if(CYBLE_BONDING_REQUIREMENT == CYBLE_BONDING_YES)
 685:main.c        ****             if((cyBle_pendingFlashWrite != 0u) &&
 2270              		.loc 1 685 0
 2271 008c 194B     		ldr	r3, .L129+28
 2272 008e 1B78     		ldrb	r3, [r3]
 2273 0090 002B     		cmp	r3, #0
 2274 0092 E7D0     		beq	.L128
 686:main.c        ****             ((UART_DEB_GET_TX_BUFF_SIZE() + UART_DEB_GET_TX_FIFO_SR_VALID) == 0u))
 2275              		.loc 1 686 0
 2276 0094 FFF7FEFF 		bl	UART_DEB_SpiUartGetTxBufferSize
 2277 0098 0100     		movs	r1, r0
 2278 009a 174B     		ldr	r3, .L129+32
 2279 009c 1A68     		ldr	r2, [r3]
 2280 009e 8023     		movs	r3, #128
 2281 00a0 1B02     		lsls	r3, r3, #8
 2282 00a2 1340     		ands	r3, r2
 2283 00a4 01D0     		beq	.L125
 2284              		.loc 1 686 0 is_stmt 0 discriminator 1
 2285 00a6 0123     		movs	r3, #1
 2286 00a8 00E0     		b	.L126
 2287              	.L125:
 2288              		.loc 1 686 0 discriminator 2
 2289 00aa 0023     		movs	r3, #0
 2290              	.L126:
 2291              		.loc 1 686 0 discriminator 4
 2292 00ac CB18     		adds	r3, r1, r3
 685:main.c        ****             ((UART_DEB_GET_TX_BUFF_SIZE() + UART_DEB_GET_TX_FIFO_SR_VALID) == 0u))
 2293              		.loc 1 685 0 is_stmt 1 discriminator 4
 2294 00ae 002B     		cmp	r3, #0
 2295 00b0 D8D1     		bne	.L128
 687:main.c        ****             {
 688:main.c        ****                 apiResult = CyBle_StoreBondingData(0u);
 2296              		.loc 1 688 0
 2297 00b2 0020     		movs	r0, #0
 2298 00b4 FFF7FEFF 		bl	CyBle_StoreBondingData
 2299 00b8 0300     		movs	r3, r0
 2300 00ba 1A00     		movs	r2, r3
 2301 00bc 084B     		ldr	r3, .L129+8
 2302 00be 1A80     		strh	r2, [r3]
 689:main.c        ****                 DBG_PRINTF("Store bonding data, status: %x \r\n", apiResult);
 2303              		.loc 1 689 0
 2304 00c0 074B     		ldr	r3, .L129+8
 2305 00c2 1B88     		ldrh	r3, [r3]
 2306 00c4 1A00     		movs	r2, r3
 2307 00c6 0D4B     		ldr	r3, .L129+36
 2308 00c8 1100     		movs	r1, r2
 2309 00ca 1800     		movs	r0, r3
 2310 00cc FFF7FEFF 		bl	printf
 2311 00d0 C8E7     		b	.L128
 2312              	.L123:
 690:main.c        ****             }
 691:main.c        ****         #endif /* CYBLE_BONDING_REQUIREMENT == CYBLE_BONDING_YES */    
 692:main.c        ****         }
 693:main.c        ****         else
 694:main.c        ****         {
 695:main.c        ****             /* Process BMS actions when device is disconnected */
 696:main.c        **** 			BmsProcess();
ARM GAS  C:\Users\user\AppData\Local\Temp\ccRdimcD.s 			page 60


 2313              		.loc 1 696 0
 2314 00d2 FFF7FEFF 		bl	BmsProcess
 697:main.c        ****         }
 698:main.c        ****     }
 2315              		.loc 1 698 0
 2316 00d6 C5E7     		b	.L128
 2317              	.L130:
 2318              		.align	2
 2319              	.L129:
 2320 00d8 D40D0000 		.word	.LC170
 2321 00dc 00000000 		.word	AppCallBack
 2322 00e0 00000000 		.word	apiResult
 2323 00e4 0C0E0000 		.word	.LC174
 2324 00e8 00000000 		.word	Timer_Interrupt
 2325 00ec 00000000 		.word	authState
 2326 00f0 00000000 		.word	cyBle_state
 2327 00f4 00000000 		.word	cyBle_pendingFlashWrite
 2328 00f8 08022440 		.word	1076101640
 2329 00fc 240E0000 		.word	.LC180
 2330              		.cfi_endproc
 2331              	.LFE42:
 2332              		.size	main, .-main
 2333              		.section	.rodata
 2334 0e46 0000     		.align	2
 2335              	.LC183:
 2336 0e48 53746172 		.ascii	"StartAdvertisement API Error: \000"
 2336      74416476 
 2336      65727469 
 2336      73656D65 
 2336      6E742041 
 2337 0e67 00       		.align	2
 2338              	.LC185:
 2339 0e68 53746172 		.ascii	"Start Advertisement with addr: \000"
 2339      74204164 
 2339      76657274 
 2339      6973656D 
 2339      656E7420 
 2340              		.align	2
 2341              	.LC187:
 2342 0e88 25322E32 		.ascii	"%2.2x\000"
 2342      7800
 2343              		.section	.text.StartAdvertisement,"ax",%progbits
 2344              		.align	2
 2345              		.global	StartAdvertisement
 2346              		.code	16
 2347              		.thumb_func
 2348              		.type	StartAdvertisement, %function
 2349              	StartAdvertisement:
 2350              	.LFB43:
 699:main.c        **** }
 700:main.c        **** 
 701:main.c        **** /*******************************************************************************
 702:main.c        **** * Function Name: StartAdvertisement
 703:main.c        **** ********************************************************************************
 704:main.c        **** *
 705:main.c        **** * Summary:
 706:main.c        **** *   Initiates the advertisement procedure.
ARM GAS  C:\Users\user\AppData\Local\Temp\ccRdimcD.s 			page 61


 707:main.c        **** *   Prints the Device Address.
 708:main.c        **** *
 709:main.c        **** * Parameters:
 710:main.c        **** *   None.
 711:main.c        **** *
 712:main.c        **** * Return:
 713:main.c        **** *   None.
 714:main.c        **** *
 715:main.c        **** *******************************************************************************/
 716:main.c        **** void StartAdvertisement(void)
 717:main.c        **** {
 2351              		.loc 1 717 0
 2352              		.cfi_startproc
 2353              		@ args = 0, pretend = 0, frame = 16
 2354              		@ frame_needed = 1, uses_anonymous_args = 0
 2355 0000 80B5     		push	{r7, lr}
 2356              		.cfi_def_cfa_offset 8
 2357              		.cfi_offset 7, -8
 2358              		.cfi_offset 14, -4
 2359 0002 84B0     		sub	sp, sp, #16
 2360              		.cfi_def_cfa_offset 24
 2361 0004 00AF     		add	r7, sp, #0
 2362              		.cfi_def_cfa_register 7
 718:main.c        ****     uint16 i;
 719:main.c        ****     CYBLE_GAP_BD_ADDR_T localAddr;
 720:main.c        ****     apiResult = CyBle_GappStartAdvertisement(CYBLE_ADVERTISING_FAST);
 2363              		.loc 1 720 0
 2364 0006 0020     		movs	r0, #0
 2365 0008 FFF7FEFF 		bl	CyBle_GappStartAdvertisement
 2366 000c 0300     		movs	r3, r0
 2367 000e 1A00     		movs	r2, r3
 2368 0010 1C4B     		ldr	r3, .L137
 2369 0012 1A80     		strh	r2, [r3]
 721:main.c        ****     if(apiResult != CYBLE_ERROR_OK)
 2370              		.loc 1 721 0
 2371 0014 1B4B     		ldr	r3, .L137
 2372 0016 1B88     		ldrh	r3, [r3]
 2373 0018 002B     		cmp	r3, #0
 2374 001a 06D0     		beq	.L132
 722:main.c        ****     {
 723:main.c        ****         DBG_PRINTF("StartAdvertisement API Error: ");
 2375              		.loc 1 723 0
 2376 001c 1A4B     		ldr	r3, .L137+4
 2377 001e 1800     		movs	r0, r3
 2378 0020 FFF7FEFF 		bl	printf
 724:main.c        ****         PrintApiResult();
 2379              		.loc 1 724 0
 2380 0024 FFF7FEFF 		bl	PrintApiResult
 725:main.c        ****     }
 726:main.c        ****     else
 727:main.c        ****     {
 728:main.c        ****         DBG_PRINTF("Start Advertisement with addr: ");
 729:main.c        ****         CyBle_GetDeviceAddress(&localAddr);
 730:main.c        ****         for(i = CYBLE_GAP_BD_ADDR_SIZE; i > 0u; i--)
 731:main.c        ****         {
 732:main.c        ****             DBG_PRINTF("%2.2x", localAddr.bdAddr[i-1]);
 733:main.c        ****         }
ARM GAS  C:\Users\user\AppData\Local\Temp\ccRdimcD.s 			page 62


 734:main.c        ****         DBG_PRINTF("\r\n");
 735:main.c        ****     }
 736:main.c        **** }
 2381              		.loc 1 736 0
 2382 0028 28E0     		b	.L136
 2383              	.L132:
 728:main.c        ****         CyBle_GetDeviceAddress(&localAddr);
 2384              		.loc 1 728 0
 2385 002a 184B     		ldr	r3, .L137+8
 2386 002c 1800     		movs	r0, r3
 2387 002e FFF7FEFF 		bl	printf
 729:main.c        ****         for(i = CYBLE_GAP_BD_ADDR_SIZE; i > 0u; i--)
 2388              		.loc 1 729 0
 2389 0032 3B1D     		adds	r3, r7, #4
 2390 0034 1800     		movs	r0, r3
 2391 0036 FFF7FEFF 		bl	CyBle_GetDeviceAddress
 730:main.c        ****         {
 2392              		.loc 1 730 0
 2393 003a 0E23     		movs	r3, #14
 2394 003c FB18     		adds	r3, r7, r3
 2395 003e 0622     		movs	r2, #6
 2396 0040 1A80     		strh	r2, [r3]
 2397 0042 12E0     		b	.L134
 2398              	.L135:
 732:main.c        ****         }
 2399              		.loc 1 732 0 discriminator 3
 2400 0044 0E23     		movs	r3, #14
 2401 0046 FB18     		adds	r3, r7, r3
 2402 0048 1B88     		ldrh	r3, [r3]
 2403 004a 013B     		subs	r3, r3, #1
 2404 004c 3A1D     		adds	r2, r7, #4
 2405 004e D35C     		ldrb	r3, [r2, r3]
 2406 0050 1A00     		movs	r2, r3
 2407 0052 0F4B     		ldr	r3, .L137+12
 2408 0054 1100     		movs	r1, r2
 2409 0056 1800     		movs	r0, r3
 2410 0058 FFF7FEFF 		bl	printf
 730:main.c        ****         {
 2411              		.loc 1 730 0 discriminator 3
 2412 005c 0E23     		movs	r3, #14
 2413 005e FB18     		adds	r3, r7, r3
 2414 0060 1A88     		ldrh	r2, [r3]
 2415 0062 0E23     		movs	r3, #14
 2416 0064 FB18     		adds	r3, r7, r3
 2417 0066 013A     		subs	r2, r2, #1
 2418 0068 1A80     		strh	r2, [r3]
 2419              	.L134:
 730:main.c        ****         {
 2420              		.loc 1 730 0 is_stmt 0 discriminator 1
 2421 006a 0E23     		movs	r3, #14
 2422 006c FB18     		adds	r3, r7, r3
 2423 006e 1B88     		ldrh	r3, [r3]
 2424 0070 002B     		cmp	r3, #0
 2425 0072 E7D1     		bne	.L135
 734:main.c        ****     }
 2426              		.loc 1 734 0 is_stmt 1
 2427 0074 074B     		ldr	r3, .L137+16
ARM GAS  C:\Users\user\AppData\Local\Temp\ccRdimcD.s 			page 63


 2428 0076 1800     		movs	r0, r3
 2429 0078 FFF7FEFF 		bl	puts
 2430              	.L136:
 2431              		.loc 1 736 0
 2432 007c C046     		nop
 2433 007e BD46     		mov	sp, r7
 2434 0080 04B0     		add	sp, sp, #16
 2435              		@ sp needed
 2436 0082 80BD     		pop	{r7, pc}
 2437              	.L138:
 2438              		.align	2
 2439              	.L137:
 2440 0084 00000000 		.word	apiResult
 2441 0088 480E0000 		.word	.LC183
 2442 008c 680E0000 		.word	.LC185
 2443 0090 880E0000 		.word	.LC187
 2444 0094 B4050000 		.word	.LC96
 2445              		.cfi_endproc
 2446              	.LFE43:
 2447              		.size	StartAdvertisement, .-StartAdvertisement
 2448              		.data
 2449              		.type	led.8726, %object
 2450              		.size	led.8726, 1
 2451              	led.8726:
 2452 0000 01       		.byte	1
 2453              		.text
 2454              	.Letext0:
 2455              		.file 2 "Generated_Source\\PSoC4/cytypes.h"
 2456              		.file 3 "Generated_Source\\PSoC4/BLE_Stack.h"
 2457              		.file 4 "Generated_Source\\PSoC4/BLE_StackGap.h"
 2458              		.file 5 "Generated_Source\\PSoC4/BLE_StackGatt.h"
 2459              		.file 6 "Generated_Source\\PSoC4/BLE_StackGattServer.h"
 2460              		.file 7 "Generated_Source\\PSoC4/BLE_gatt.h"
 2461              		.file 8 "Generated_Source\\PSoC4/BLE_bms.h"
 2462              		.file 9 "Generated_Source\\PSoC4/BLE_cgms.h"
 2463              		.file 10 "Generated_Source\\PSoC4/BLE_dis.h"
 2464              		.file 11 "Generated_Source\\PSoC4/BLE_eventHandler.h"
 2465              		.file 12 "main.h"
 2466              		.file 13 "Generated_Source\\PSoC4/BLE.h"
 2467              		.section	.debug_info,"",%progbits
 2468              	.Ldebug_info0:
 2469 0000 AE140000 		.4byte	0x14ae
 2470 0004 0400     		.2byte	0x4
 2471 0006 00000000 		.4byte	.Ldebug_abbrev0
 2472 000a 04       		.byte	0x4
 2473 000b 01       		.uleb128 0x1
 2474 000c 820E0000 		.4byte	.LASF616
 2475 0010 0C       		.byte	0xc
 2476 0011 84420000 		.4byte	.LASF617
 2477 0015 16430000 		.4byte	.LASF618
 2478 0019 00000000 		.4byte	.Ldebug_ranges0+0
 2479 001d 00000000 		.4byte	0
 2480 0021 00000000 		.4byte	.Ldebug_line0
 2481 0025 02       		.uleb128 0x2
 2482 0026 01       		.byte	0x1
 2483 0027 06       		.byte	0x6
 2484 0028 98250000 		.4byte	.LASF0
ARM GAS  C:\Users\user\AppData\Local\Temp\ccRdimcD.s 			page 64


 2485 002c 02       		.uleb128 0x2
 2486 002d 01       		.byte	0x1
 2487 002e 08       		.byte	0x8
 2488 002f 3A0F0000 		.4byte	.LASF1
 2489 0033 02       		.uleb128 0x2
 2490 0034 02       		.byte	0x2
 2491 0035 05       		.byte	0x5
 2492 0036 25470000 		.4byte	.LASF2
 2493 003a 02       		.uleb128 0x2
 2494 003b 02       		.byte	0x2
 2495 003c 07       		.byte	0x7
 2496 003d 6B250000 		.4byte	.LASF3
 2497 0041 02       		.uleb128 0x2
 2498 0042 04       		.byte	0x4
 2499 0043 05       		.byte	0x5
 2500 0044 392A0000 		.4byte	.LASF4
 2501 0048 02       		.uleb128 0x2
 2502 0049 04       		.byte	0x4
 2503 004a 07       		.byte	0x7
 2504 004b 902E0000 		.4byte	.LASF5
 2505 004f 02       		.uleb128 0x2
 2506 0050 08       		.byte	0x8
 2507 0051 05       		.byte	0x5
 2508 0052 F3400000 		.4byte	.LASF6
 2509 0056 02       		.uleb128 0x2
 2510 0057 08       		.byte	0x8
 2511 0058 07       		.byte	0x7
 2512 0059 503B0000 		.4byte	.LASF7
 2513 005d 03       		.uleb128 0x3
 2514 005e 04       		.byte	0x4
 2515 005f 05       		.byte	0x5
 2516 0060 696E7400 		.ascii	"int\000"
 2517 0064 02       		.uleb128 0x2
 2518 0065 04       		.byte	0x4
 2519 0066 07       		.byte	0x7
 2520 0067 AB460000 		.4byte	.LASF8
 2521 006b 04       		.uleb128 0x4
 2522 006c 33080000 		.4byte	.LASF9
 2523 0070 02       		.byte	0x2
 2524 0071 FC01     		.2byte	0x1fc
 2525 0073 2C000000 		.4byte	0x2c
 2526 0077 04       		.uleb128 0x4
 2527 0078 162E0000 		.4byte	.LASF10
 2528 007c 02       		.byte	0x2
 2529 007d FD01     		.2byte	0x1fd
 2530 007f 3A000000 		.4byte	0x3a
 2531 0083 04       		.uleb128 0x4
 2532 0084 0A300000 		.4byte	.LASF11
 2533 0088 02       		.byte	0x2
 2534 0089 FE01     		.2byte	0x1fe
 2535 008b 48000000 		.4byte	0x48
 2536 008f 02       		.uleb128 0x2
 2537 0090 04       		.byte	0x4
 2538 0091 04       		.byte	0x4
 2539 0092 CD0F0000 		.4byte	.LASF12
 2540 0096 02       		.uleb128 0x2
 2541 0097 08       		.byte	0x8
ARM GAS  C:\Users\user\AppData\Local\Temp\ccRdimcD.s 			page 65


 2542 0098 04       		.byte	0x4
 2543 0099 84350000 		.4byte	.LASF13
 2544 009d 04       		.uleb128 0x4
 2545 009e CD120000 		.4byte	.LASF14
 2546 00a2 02       		.byte	0x2
 2547 00a3 0D02     		.2byte	0x20d
 2548 00a5 A9000000 		.4byte	0xa9
 2549 00a9 02       		.uleb128 0x2
 2550 00aa 01       		.byte	0x1
 2551 00ab 08       		.byte	0x8
 2552 00ac 422F0000 		.4byte	.LASF15
 2553 00b0 04       		.uleb128 0x4
 2554 00b1 E2240000 		.4byte	.LASF16
 2555 00b5 02       		.byte	0x2
 2556 00b6 A802     		.2byte	0x2a8
 2557 00b8 BC000000 		.4byte	0xbc
 2558 00bc 05       		.uleb128 0x5
 2559 00bd 83000000 		.4byte	0x83
 2560 00c1 02       		.uleb128 0x2
 2561 00c2 08       		.byte	0x8
 2562 00c3 04       		.byte	0x4
 2563 00c4 B42D0000 		.4byte	.LASF17
 2564 00c8 02       		.uleb128 0x2
 2565 00c9 04       		.byte	0x4
 2566 00ca 07       		.byte	0x7
 2567 00cb 9E370000 		.4byte	.LASF18
 2568 00cf 06       		.uleb128 0x6
 2569 00d0 04       		.byte	0x4
 2570 00d1 07       		.uleb128 0x7
 2571 00d2 01       		.byte	0x1
 2572 00d3 2C000000 		.4byte	0x2c
 2573 00d7 03       		.byte	0x3
 2574 00d8 3501     		.2byte	0x135
 2575 00da 8F020000 		.4byte	0x28f
 2576 00de 08       		.uleb128 0x8
 2577 00df 3A250000 		.4byte	.LASF19
 2578 00e3 00       		.byte	0
 2579 00e4 08       		.uleb128 0x8
 2580 00e5 A1040000 		.4byte	.LASF20
 2581 00e9 01       		.byte	0x1
 2582 00ea 08       		.uleb128 0x8
 2583 00eb 27150000 		.4byte	.LASF21
 2584 00ef 02       		.byte	0x2
 2585 00f0 08       		.uleb128 0x8
 2586 00f1 C2090000 		.4byte	.LASF22
 2587 00f5 03       		.byte	0x3
 2588 00f6 08       		.uleb128 0x8
 2589 00f7 53050000 		.4byte	.LASF23
 2590 00fb 04       		.byte	0x4
 2591 00fc 08       		.uleb128 0x8
 2592 00fd 402C0000 		.4byte	.LASF24
 2593 0101 05       		.byte	0x5
 2594 0102 08       		.uleb128 0x8
 2595 0103 DD1B0000 		.4byte	.LASF25
 2596 0107 06       		.byte	0x6
 2597 0108 08       		.uleb128 0x8
 2598 0109 2B140000 		.4byte	.LASF26
ARM GAS  C:\Users\user\AppData\Local\Temp\ccRdimcD.s 			page 66


 2599 010d 20       		.byte	0x20
 2600 010e 08       		.uleb128 0x8
 2601 010f B7110000 		.4byte	.LASF27
 2602 0113 21       		.byte	0x21
 2603 0114 08       		.uleb128 0x8
 2604 0115 68050000 		.4byte	.LASF28
 2605 0119 22       		.byte	0x22
 2606 011a 08       		.uleb128 0x8
 2607 011b 7C470000 		.4byte	.LASF29
 2608 011f 23       		.byte	0x23
 2609 0120 08       		.uleb128 0x8
 2610 0121 FB010000 		.4byte	.LASF30
 2611 0125 24       		.byte	0x24
 2612 0126 08       		.uleb128 0x8
 2613 0127 88390000 		.4byte	.LASF31
 2614 012b 25       		.byte	0x25
 2615 012c 08       		.uleb128 0x8
 2616 012d 580F0000 		.4byte	.LASF32
 2617 0131 26       		.byte	0x26
 2618 0132 08       		.uleb128 0x8
 2619 0133 CE230000 		.4byte	.LASF33
 2620 0137 27       		.byte	0x27
 2621 0138 08       		.uleb128 0x8
 2622 0139 2C2D0000 		.4byte	.LASF34
 2623 013d 28       		.byte	0x28
 2624 013e 08       		.uleb128 0x8
 2625 013f 98230000 		.4byte	.LASF35
 2626 0143 29       		.byte	0x29
 2627 0144 08       		.uleb128 0x8
 2628 0145 743D0000 		.4byte	.LASF36
 2629 0149 2A       		.byte	0x2a
 2630 014a 08       		.uleb128 0x8
 2631 014b 46410000 		.4byte	.LASF37
 2632 014f 2B       		.byte	0x2b
 2633 0150 08       		.uleb128 0x8
 2634 0151 312B0000 		.4byte	.LASF38
 2635 0155 2C       		.byte	0x2c
 2636 0156 08       		.uleb128 0x8
 2637 0157 48400000 		.4byte	.LASF39
 2638 015b 2D       		.byte	0x2d
 2639 015c 08       		.uleb128 0x8
 2640 015d F3280000 		.4byte	.LASF40
 2641 0161 2E       		.byte	0x2e
 2642 0162 08       		.uleb128 0x8
 2643 0163 C9440000 		.4byte	.LASF41
 2644 0167 2F       		.byte	0x2f
 2645 0168 08       		.uleb128 0x8
 2646 0169 1C1A0000 		.4byte	.LASF42
 2647 016d 30       		.byte	0x30
 2648 016e 08       		.uleb128 0x8
 2649 016f B8460000 		.4byte	.LASF43
 2650 0173 31       		.byte	0x31
 2651 0174 08       		.uleb128 0x8
 2652 0175 F0070000 		.4byte	.LASF44
 2653 0179 32       		.byte	0x32
 2654 017a 08       		.uleb128 0x8
 2655 017b 710C0000 		.4byte	.LASF45
ARM GAS  C:\Users\user\AppData\Local\Temp\ccRdimcD.s 			page 67


 2656 017f 33       		.byte	0x33
 2657 0180 08       		.uleb128 0x8
 2658 0181 37360000 		.4byte	.LASF46
 2659 0185 34       		.byte	0x34
 2660 0186 08       		.uleb128 0x8
 2661 0187 163D0000 		.4byte	.LASF47
 2662 018b 35       		.byte	0x35
 2663 018c 08       		.uleb128 0x8
 2664 018d 93400000 		.4byte	.LASF48
 2665 0191 36       		.byte	0x36
 2666 0192 08       		.uleb128 0x8
 2667 0193 95360000 		.4byte	.LASF49
 2668 0197 37       		.byte	0x37
 2669 0198 08       		.uleb128 0x8
 2670 0199 240E0000 		.4byte	.LASF50
 2671 019d 40       		.byte	0x40
 2672 019e 08       		.uleb128 0x8
 2673 019f 11360000 		.4byte	.LASF51
 2674 01a3 41       		.byte	0x41
 2675 01a4 08       		.uleb128 0x8
 2676 01a5 A01E0000 		.4byte	.LASF52
 2677 01a9 42       		.byte	0x42
 2678 01aa 08       		.uleb128 0x8
 2679 01ab AD330000 		.4byte	.LASF53
 2680 01af 43       		.byte	0x43
 2681 01b0 08       		.uleb128 0x8
 2682 01b1 1F060000 		.4byte	.LASF54
 2683 01b5 44       		.byte	0x44
 2684 01b6 08       		.uleb128 0x8
 2685 01b7 802C0000 		.4byte	.LASF55
 2686 01bb 45       		.byte	0x45
 2687 01bc 08       		.uleb128 0x8
 2688 01bd AC430000 		.4byte	.LASF56
 2689 01c1 46       		.byte	0x46
 2690 01c2 08       		.uleb128 0x8
 2691 01c3 83100000 		.4byte	.LASF57
 2692 01c7 47       		.byte	0x47
 2693 01c8 08       		.uleb128 0x8
 2694 01c9 4F290000 		.4byte	.LASF58
 2695 01cd 48       		.byte	0x48
 2696 01ce 08       		.uleb128 0x8
 2697 01cf E2060000 		.4byte	.LASF59
 2698 01d3 49       		.byte	0x49
 2699 01d4 08       		.uleb128 0x8
 2700 01d5 791B0000 		.4byte	.LASF60
 2701 01d9 4A       		.byte	0x4a
 2702 01da 08       		.uleb128 0x8
 2703 01db BF0D0000 		.4byte	.LASF61
 2704 01df 4B       		.byte	0x4b
 2705 01e0 08       		.uleb128 0x8
 2706 01e1 93420000 		.4byte	.LASF62
 2707 01e5 4C       		.byte	0x4c
 2708 01e6 08       		.uleb128 0x8
 2709 01e7 FC2D0000 		.4byte	.LASF63
 2710 01eb 4D       		.byte	0x4d
 2711 01ec 08       		.uleb128 0x8
 2712 01ed 300D0000 		.4byte	.LASF64
ARM GAS  C:\Users\user\AppData\Local\Temp\ccRdimcD.s 			page 68


 2713 01f1 4E       		.byte	0x4e
 2714 01f2 08       		.uleb128 0x8
 2715 01f3 74310000 		.4byte	.LASF65
 2716 01f7 4F       		.byte	0x4f
 2717 01f8 08       		.uleb128 0x8
 2718 01f9 1D1C0000 		.4byte	.LASF66
 2719 01fd 50       		.byte	0x50
 2720 01fe 08       		.uleb128 0x8
 2721 01ff 7D260000 		.4byte	.LASF67
 2722 0203 51       		.byte	0x51
 2723 0204 08       		.uleb128 0x8
 2724 0205 4B170000 		.4byte	.LASF68
 2725 0209 52       		.byte	0x52
 2726 020a 08       		.uleb128 0x8
 2727 020b 26350000 		.4byte	.LASF69
 2728 020f 53       		.byte	0x53
 2729 0210 08       		.uleb128 0x8
 2730 0211 90410000 		.4byte	.LASF70
 2731 0215 54       		.byte	0x54
 2732 0216 08       		.uleb128 0x8
 2733 0217 F7030000 		.4byte	.LASF71
 2734 021b 55       		.byte	0x55
 2735 021c 08       		.uleb128 0x8
 2736 021d BD2E0000 		.4byte	.LASF72
 2737 0221 56       		.byte	0x56
 2738 0222 08       		.uleb128 0x8
 2739 0223 B83A0000 		.4byte	.LASF73
 2740 0227 57       		.byte	0x57
 2741 0228 08       		.uleb128 0x8
 2742 0229 D1420000 		.4byte	.LASF74
 2743 022d 58       		.byte	0x58
 2744 022e 08       		.uleb128 0x8
 2745 022f E13A0000 		.4byte	.LASF75
 2746 0233 70       		.byte	0x70
 2747 0234 08       		.uleb128 0x8
 2748 0235 11200000 		.4byte	.LASF76
 2749 0239 71       		.byte	0x71
 2750 023a 08       		.uleb128 0x8
 2751 023b 170B0000 		.4byte	.LASF77
 2752 023f 72       		.byte	0x72
 2753 0240 08       		.uleb128 0x8
 2754 0241 C6100000 		.4byte	.LASF78
 2755 0245 73       		.byte	0x73
 2756 0246 08       		.uleb128 0x8
 2757 0247 8F2F0000 		.4byte	.LASF79
 2758 024b 74       		.byte	0x74
 2759 024c 08       		.uleb128 0x8
 2760 024d 2A110000 		.4byte	.LASF80
 2761 0251 75       		.byte	0x75
 2762 0252 08       		.uleb128 0x8
 2763 0253 77300000 		.4byte	.LASF81
 2764 0257 76       		.byte	0x76
 2765 0258 08       		.uleb128 0x8
 2766 0259 471A0000 		.4byte	.LASF82
 2767 025d 77       		.byte	0x77
 2768 025e 08       		.uleb128 0x8
 2769 025f EA430000 		.4byte	.LASF83
ARM GAS  C:\Users\user\AppData\Local\Temp\ccRdimcD.s 			page 69


 2770 0263 78       		.byte	0x78
 2771 0264 08       		.uleb128 0x8
 2772 0265 A2450000 		.4byte	.LASF84
 2773 0269 79       		.byte	0x79
 2774 026a 08       		.uleb128 0x8
 2775 026b 05170000 		.4byte	.LASF85
 2776 026f 7A       		.byte	0x7a
 2777 0270 08       		.uleb128 0x8
 2778 0271 0C250000 		.4byte	.LASF86
 2779 0275 FA       		.byte	0xfa
 2780 0276 08       		.uleb128 0x8
 2781 0277 80160000 		.4byte	.LASF87
 2782 027b FB       		.byte	0xfb
 2783 027c 08       		.uleb128 0x8
 2784 027d D90B0000 		.4byte	.LASF88
 2785 0281 FC       		.byte	0xfc
 2786 0282 08       		.uleb128 0x8
 2787 0283 9C3F0000 		.4byte	.LASF89
 2788 0287 FD       		.byte	0xfd
 2789 0288 08       		.uleb128 0x8
 2790 0289 AF000000 		.4byte	.LASF90
 2791 028d FF       		.byte	0xff
 2792 028e 00       		.byte	0
 2793 028f 07       		.uleb128 0x7
 2794 0290 02       		.byte	0x2
 2795 0291 3A000000 		.4byte	0x3a
 2796 0295 03       		.byte	0x3
 2797 0296 EA03     		.2byte	0x3ea
 2798 0298 6E030000 		.4byte	0x36e
 2799 029c 08       		.uleb128 0x8
 2800 029d A3020000 		.4byte	.LASF91
 2801 02a1 00       		.byte	0
 2802 02a2 08       		.uleb128 0x8
 2803 02a3 000A0000 		.4byte	.LASF92
 2804 02a7 01       		.byte	0x1
 2805 02a8 08       		.uleb128 0x8
 2806 02a9 EC2F0000 		.4byte	.LASF93
 2807 02ad 02       		.byte	0x2
 2808 02ae 08       		.uleb128 0x8
 2809 02af E52C0000 		.4byte	.LASF94
 2810 02b3 03       		.byte	0x3
 2811 02b4 08       		.uleb128 0x8
 2812 02b5 1D2C0000 		.4byte	.LASF95
 2813 02b9 04       		.byte	0x4
 2814 02ba 08       		.uleb128 0x8
 2815 02bb B7380000 		.4byte	.LASF96
 2816 02bf 05       		.byte	0x5
 2817 02c0 08       		.uleb128 0x8
 2818 02c1 E22D0000 		.4byte	.LASF97
 2819 02c5 06       		.byte	0x6
 2820 02c6 08       		.uleb128 0x8
 2821 02c7 5A300000 		.4byte	.LASF98
 2822 02cb 07       		.byte	0x7
 2823 02cc 08       		.uleb128 0x8
 2824 02cd C1160000 		.4byte	.LASF99
 2825 02d1 08       		.byte	0x8
 2826 02d2 08       		.uleb128 0x8
ARM GAS  C:\Users\user\AppData\Local\Temp\ccRdimcD.s 			page 70


 2827 02d3 471D0000 		.4byte	.LASF100
 2828 02d7 09       		.byte	0x9
 2829 02d8 08       		.uleb128 0x8
 2830 02d9 DB330000 		.4byte	.LASF101
 2831 02dd 0A       		.byte	0xa
 2832 02de 08       		.uleb128 0x8
 2833 02df 1D030000 		.4byte	.LASF102
 2834 02e3 0B       		.byte	0xb
 2835 02e4 08       		.uleb128 0x8
 2836 02e5 1D2E0000 		.4byte	.LASF103
 2837 02e9 0C       		.byte	0xc
 2838 02ea 08       		.uleb128 0x8
 2839 02eb D5410000 		.4byte	.LASF104
 2840 02ef 0D       		.byte	0xd
 2841 02f0 08       		.uleb128 0x8
 2842 02f1 37000000 		.4byte	.LASF105
 2843 02f5 0E       		.byte	0xe
 2844 02f6 08       		.uleb128 0x8
 2845 02f7 DC2A0000 		.4byte	.LASF106
 2846 02fb 0F       		.byte	0xf
 2847 02fc 08       		.uleb128 0x8
 2848 02fd 191D0000 		.4byte	.LASF107
 2849 0301 10       		.byte	0x10
 2850 0302 08       		.uleb128 0x8
 2851 0303 203C0000 		.4byte	.LASF108
 2852 0307 11       		.byte	0x11
 2853 0308 08       		.uleb128 0x8
 2854 0309 35130000 		.4byte	.LASF109
 2855 030d 12       		.byte	0x12
 2856 030e 08       		.uleb128 0x8
 2857 030f FE040000 		.4byte	.LASF110
 2858 0313 13       		.byte	0x13
 2859 0314 08       		.uleb128 0x8
 2860 0315 A91C0000 		.4byte	.LASF111
 2861 0319 27       		.byte	0x27
 2862 031a 08       		.uleb128 0x8
 2863 031b 333D0000 		.4byte	.LASF112
 2864 031f 28       		.byte	0x28
 2865 0320 08       		.uleb128 0x8
 2866 0321 7C1A0000 		.4byte	.LASF113
 2867 0325 29       		.byte	0x29
 2868 0326 08       		.uleb128 0x8
 2869 0327 CD430000 		.4byte	.LASF114
 2870 032b 2A       		.byte	0x2a
 2871 032c 08       		.uleb128 0x8
 2872 032d B9480000 		.4byte	.LASF115
 2873 0331 2B       		.byte	0x2b
 2874 0332 08       		.uleb128 0x8
 2875 0333 A72C0000 		.4byte	.LASF116
 2876 0337 2C       		.byte	0x2c
 2877 0338 08       		.uleb128 0x8
 2878 0339 403A0000 		.4byte	.LASF117
 2879 033d 2D       		.byte	0x2d
 2880 033e 08       		.uleb128 0x8
 2881 033f 9B0F0000 		.4byte	.LASF118
 2882 0343 FE       		.byte	0xfe
 2883 0344 08       		.uleb128 0x8
ARM GAS  C:\Users\user\AppData\Local\Temp\ccRdimcD.s 			page 71


 2884 0345 CB330000 		.4byte	.LASF119
 2885 0349 FF       		.byte	0xff
 2886 034a 09       		.uleb128 0x9
 2887 034b D7180000 		.4byte	.LASF120
 2888 034f 0001     		.2byte	0x100
 2889 0351 09       		.uleb128 0x9
 2890 0352 17020000 		.4byte	.LASF121
 2891 0356 0101     		.2byte	0x101
 2892 0358 09       		.uleb128 0x9
 2893 0359 E0080000 		.4byte	.LASF122
 2894 035d 0201     		.2byte	0x102
 2895 035f 09       		.uleb128 0x9
 2896 0360 A3290000 		.4byte	.LASF123
 2897 0364 0301     		.2byte	0x103
 2898 0366 09       		.uleb128 0x9
 2899 0367 58130000 		.4byte	.LASF124
 2900 036b 0401     		.2byte	0x104
 2901 036d 00       		.byte	0
 2902 036e 04       		.uleb128 0x4
 2903 036f 47190000 		.4byte	.LASF125
 2904 0373 03       		.byte	0x3
 2905 0374 5C04     		.2byte	0x45c
 2906 0376 8F020000 		.4byte	0x28f
 2907 037a 07       		.uleb128 0x7
 2908 037b 01       		.byte	0x1
 2909 037c 2C000000 		.4byte	0x2c
 2910 0380 03       		.byte	0x3
 2911 0381 6004     		.2byte	0x460
 2912 0383 A6030000 		.4byte	0x3a6
 2913 0387 08       		.uleb128 0x8
 2914 0388 08390000 		.4byte	.LASF126
 2915 038c 01       		.byte	0x1
 2916 038d 08       		.uleb128 0x8
 2917 038e 25000000 		.4byte	.LASF127
 2918 0392 02       		.byte	0x2
 2919 0393 08       		.uleb128 0x8
 2920 0394 661A0000 		.4byte	.LASF128
 2921 0398 03       		.byte	0x3
 2922 0399 08       		.uleb128 0x8
 2923 039a 080C0000 		.4byte	.LASF129
 2924 039e 04       		.byte	0x4
 2925 039f 08       		.uleb128 0x8
 2926 03a0 CD190000 		.4byte	.LASF130
 2927 03a4 FF       		.byte	0xff
 2928 03a5 00       		.byte	0
 2929 03a6 04       		.uleb128 0x4
 2930 03a7 EF0F0000 		.4byte	.LASF131
 2931 03ab 03       		.byte	0x3
 2932 03ac 7C04     		.2byte	0x47c
 2933 03ae 7A030000 		.4byte	0x37a
 2934 03b2 07       		.uleb128 0x7
 2935 03b3 01       		.byte	0x1
 2936 03b4 2C000000 		.4byte	0x2c
 2937 03b8 03       		.byte	0x3
 2938 03b9 8004     		.2byte	0x480
 2939 03bb F0030000 		.4byte	0x3f0
 2940 03bf 08       		.uleb128 0x8
ARM GAS  C:\Users\user\AppData\Local\Temp\ccRdimcD.s 			page 72


 2941 03c0 06060000 		.4byte	.LASF132
 2942 03c4 01       		.byte	0x1
 2943 03c5 08       		.uleb128 0x8
 2944 03c6 801D0000 		.4byte	.LASF133
 2945 03ca 02       		.byte	0x2
 2946 03cb 08       		.uleb128 0x8
 2947 03cc 27230000 		.4byte	.LASF134
 2948 03d0 03       		.byte	0x3
 2949 03d1 08       		.uleb128 0x8
 2950 03d2 B5230000 		.4byte	.LASF135
 2951 03d6 04       		.byte	0x4
 2952 03d7 08       		.uleb128 0x8
 2953 03d8 8B060000 		.4byte	.LASF136
 2954 03dc 05       		.byte	0x5
 2955 03dd 08       		.uleb128 0x8
 2956 03de B13E0000 		.4byte	.LASF137
 2957 03e2 06       		.byte	0x6
 2958 03e3 08       		.uleb128 0x8
 2959 03e4 D30F0000 		.4byte	.LASF138
 2960 03e8 07       		.byte	0x7
 2961 03e9 08       		.uleb128 0x8
 2962 03ea B4400000 		.4byte	.LASF139
 2963 03ee FF       		.byte	0xff
 2964 03ef 00       		.byte	0
 2965 03f0 0A       		.uleb128 0xa
 2966 03f1 07       		.byte	0x7
 2967 03f2 03       		.byte	0x3
 2968 03f3 2A05     		.2byte	0x52a
 2969 03f5 14040000 		.4byte	0x414
 2970 03f9 0B       		.uleb128 0xb
 2971 03fa 6C170000 		.4byte	.LASF140
 2972 03fe 03       		.byte	0x3
 2973 03ff 2D05     		.2byte	0x52d
 2974 0401 14040000 		.4byte	0x414
 2975 0405 00       		.byte	0
 2976 0406 0B       		.uleb128 0xb
 2977 0407 380C0000 		.4byte	.LASF141
 2978 040b 03       		.byte	0x3
 2979 040c 2F05     		.2byte	0x52f
 2980 040e 6B000000 		.4byte	0x6b
 2981 0412 06       		.byte	0x6
 2982 0413 00       		.byte	0
 2983 0414 0C       		.uleb128 0xc
 2984 0415 6B000000 		.4byte	0x6b
 2985 0419 24040000 		.4byte	0x424
 2986 041d 0D       		.uleb128 0xd
 2987 041e C8000000 		.4byte	0xc8
 2988 0422 05       		.byte	0x5
 2989 0423 00       		.byte	0
 2990 0424 04       		.uleb128 0x4
 2991 0425 E3360000 		.4byte	.LASF142
 2992 0429 03       		.byte	0x3
 2993 042a 3005     		.2byte	0x530
 2994 042c F0030000 		.4byte	0x3f0
 2995 0430 0E       		.uleb128 0xe
 2996 0431 04       		.byte	0x4
 2997 0432 6B000000 		.4byte	0x6b
ARM GAS  C:\Users\user\AppData\Local\Temp\ccRdimcD.s 			page 73


 2998 0436 07       		.uleb128 0x7
 2999 0437 01       		.byte	0x1
 3000 0438 2C000000 		.4byte	0x2c
 3001 043c 04       		.byte	0x4
 3002 043d 0801     		.2byte	0x108
 3003 043f 62040000 		.4byte	0x462
 3004 0443 08       		.uleb128 0x8
 3005 0444 F2450000 		.4byte	.LASF143
 3006 0448 00       		.byte	0
 3007 0449 08       		.uleb128 0x8
 3008 044a 08460000 		.4byte	.LASF144
 3009 044e 01       		.byte	0x1
 3010 044f 08       		.uleb128 0x8
 3011 0450 1E460000 		.4byte	.LASF145
 3012 0454 02       		.byte	0x2
 3013 0455 08       		.uleb128 0x8
 3014 0456 34460000 		.4byte	.LASF146
 3015 045a 03       		.byte	0x3
 3016 045b 08       		.uleb128 0x8
 3017 045c CB1F0000 		.4byte	.LASF147
 3018 0460 0F       		.byte	0xf
 3019 0461 00       		.byte	0
 3020 0462 07       		.uleb128 0x7
 3021 0463 01       		.byte	0x1
 3022 0464 2C000000 		.4byte	0x2c
 3023 0468 04       		.byte	0x4
 3024 0469 3D01     		.2byte	0x13d
 3025 046b DC040000 		.4byte	0x4dc
 3026 046f 08       		.uleb128 0x8
 3027 0470 F0180000 		.4byte	.LASF148
 3028 0474 00       		.byte	0
 3029 0475 08       		.uleb128 0x8
 3030 0476 80340000 		.4byte	.LASF149
 3031 047a 01       		.byte	0x1
 3032 047b 08       		.uleb128 0x8
 3033 047c 4A450000 		.4byte	.LASF150
 3034 0480 02       		.byte	0x2
 3035 0481 08       		.uleb128 0x8
 3036 0482 06260000 		.4byte	.LASF151
 3037 0486 03       		.byte	0x3
 3038 0487 08       		.uleb128 0x8
 3039 0488 8A270000 		.4byte	.LASF152
 3040 048c 04       		.byte	0x4
 3041 048d 08       		.uleb128 0x8
 3042 048e 65410000 		.4byte	.LASF153
 3043 0492 05       		.byte	0x5
 3044 0493 08       		.uleb128 0x8
 3045 0494 28420000 		.4byte	.LASF154
 3046 0498 06       		.byte	0x6
 3047 0499 08       		.uleb128 0x8
 3048 049a 33100000 		.4byte	.LASF155
 3049 049e 07       		.byte	0x7
 3050 049f 08       		.uleb128 0x8
 3051 04a0 2E1F0000 		.4byte	.LASF156
 3052 04a4 08       		.byte	0x8
 3053 04a5 08       		.uleb128 0x8
 3054 04a6 33300000 		.4byte	.LASF157
ARM GAS  C:\Users\user\AppData\Local\Temp\ccRdimcD.s 			page 74


 3055 04aa 09       		.byte	0x9
 3056 04ab 08       		.uleb128 0x8
 3057 04ac B5170000 		.4byte	.LASF158
 3058 04b0 0A       		.byte	0xa
 3059 04b1 08       		.uleb128 0x8
 3060 04b2 903A0000 		.4byte	.LASF159
 3061 04b6 0B       		.byte	0xb
 3062 04b7 08       		.uleb128 0x8
 3063 04b8 C21A0000 		.4byte	.LASF160
 3064 04bc 0C       		.byte	0xc
 3065 04bd 08       		.uleb128 0x8
 3066 04be 20180000 		.4byte	.LASF161
 3067 04c2 0D       		.byte	0xd
 3068 04c3 08       		.uleb128 0x8
 3069 04c4 772D0000 		.4byte	.LASF162
 3070 04c8 0E       		.byte	0xe
 3071 04c9 08       		.uleb128 0x8
 3072 04ca 3F270000 		.4byte	.LASF163
 3073 04ce 0F       		.byte	0xf
 3074 04cf 08       		.uleb128 0x8
 3075 04d0 5B150000 		.4byte	.LASF164
 3076 04d4 15       		.byte	0x15
 3077 04d5 08       		.uleb128 0x8
 3078 04d6 DA3B0000 		.4byte	.LASF165
 3079 04da 18       		.byte	0x18
 3080 04db 00       		.byte	0
 3081 04dc 04       		.uleb128 0x4
 3082 04dd F4150000 		.4byte	.LASF166
 3083 04e1 04       		.byte	0x4
 3084 04e2 7D01     		.2byte	0x17d
 3085 04e4 62040000 		.4byte	0x462
 3086 04e8 0A       		.uleb128 0xa
 3087 04e9 05       		.byte	0x5
 3088 04ea 04       		.byte	0x4
 3089 04eb C601     		.2byte	0x1c6
 3090 04ed 33050000 		.4byte	0x533
 3091 04f1 0B       		.uleb128 0xb
 3092 04f2 2F240000 		.4byte	.LASF167
 3093 04f6 04       		.byte	0x4
 3094 04f7 D001     		.2byte	0x1d0
 3095 04f9 6B000000 		.4byte	0x6b
 3096 04fd 00       		.byte	0
 3097 04fe 0B       		.uleb128 0xb
 3098 04ff 8B420000 		.4byte	.LASF168
 3099 0503 04       		.byte	0x4
 3100 0504 D601     		.2byte	0x1d6
 3101 0506 6B000000 		.4byte	0x6b
 3102 050a 01       		.byte	0x1
 3103 050b 0B       		.uleb128 0xb
 3104 050c F61B0000 		.4byte	.LASF169
 3105 0510 04       		.byte	0x4
 3106 0511 DD01     		.2byte	0x1dd
 3107 0513 6B000000 		.4byte	0x6b
 3108 0517 02       		.byte	0x2
 3109 0518 0B       		.uleb128 0xb
 3110 0519 29400000 		.4byte	.LASF170
 3111 051d 04       		.byte	0x4
ARM GAS  C:\Users\user\AppData\Local\Temp\ccRdimcD.s 			page 75


 3112 051e E101     		.2byte	0x1e1
 3113 0520 DC040000 		.4byte	0x4dc
 3114 0524 03       		.byte	0x3
 3115 0525 0B       		.uleb128 0xb
 3116 0526 63230000 		.4byte	.LASF171
 3117 052a 04       		.byte	0x4
 3118 052b EB01     		.2byte	0x1eb
 3119 052d 6B000000 		.4byte	0x6b
 3120 0531 04       		.byte	0x4
 3121 0532 00       		.byte	0
 3122 0533 04       		.uleb128 0x4
 3123 0534 012B0000 		.4byte	.LASF172
 3124 0538 04       		.byte	0x4
 3125 0539 ED01     		.2byte	0x1ed
 3126 053b E8040000 		.4byte	0x4e8
 3127 053f 0C       		.uleb128 0xc
 3128 0540 6B000000 		.4byte	0x6b
 3129 0544 4F050000 		.4byte	0x54f
 3130 0548 0D       		.uleb128 0xd
 3131 0549 C8000000 		.4byte	0xc8
 3132 054d 0F       		.byte	0xf
 3133 054e 00       		.byte	0
 3134 054f 0A       		.uleb128 0xa
 3135 0550 08       		.byte	0x8
 3136 0551 04       		.byte	0x4
 3137 0552 7203     		.2byte	0x372
 3138 0554 8D050000 		.4byte	0x58d
 3139 0558 0B       		.uleb128 0xb
 3140 0559 9C260000 		.4byte	.LASF173
 3141 055d 04       		.byte	0x4
 3142 055e 7803     		.2byte	0x378
 3143 0560 6B000000 		.4byte	0x6b
 3144 0564 00       		.byte	0
 3145 0565 0B       		.uleb128 0xb
 3146 0566 56240000 		.4byte	.LASF174
 3147 056a 04       		.byte	0x4
 3148 056b 7E03     		.2byte	0x37e
 3149 056d 77000000 		.4byte	0x77
 3150 0571 02       		.byte	0x2
 3151 0572 0B       		.uleb128 0xb
 3152 0573 61070000 		.4byte	.LASF175
 3153 0577 04       		.byte	0x4
 3154 0578 8303     		.2byte	0x383
 3155 057a 77000000 		.4byte	0x77
 3156 057e 04       		.byte	0x4
 3157 057f 0B       		.uleb128 0xb
 3158 0580 692D0000 		.4byte	.LASF176
 3159 0584 04       		.byte	0x4
 3160 0585 8903     		.2byte	0x389
 3161 0587 77000000 		.4byte	0x77
 3162 058b 06       		.byte	0x6
 3163 058c 00       		.byte	0
 3164 058d 04       		.uleb128 0x4
 3165 058e 77080000 		.4byte	.LASF177
 3166 0592 04       		.byte	0x4
 3167 0593 8B03     		.2byte	0x38b
 3168 0595 4F050000 		.4byte	0x54f
ARM GAS  C:\Users\user\AppData\Local\Temp\ccRdimcD.s 			page 76


 3169 0599 0F       		.uleb128 0xf
 3170 059a 01       		.byte	0x1
 3171 059b 2C000000 		.4byte	0x2c
 3172 059f 05       		.byte	0x5
 3173 05a0 A5       		.byte	0xa5
 3174 05a1 90060000 		.4byte	0x690
 3175 05a5 08       		.uleb128 0x8
 3176 05a6 9E1D0000 		.4byte	.LASF178
 3177 05aa 00       		.byte	0
 3178 05ab 08       		.uleb128 0x8
 3179 05ac BB300000 		.4byte	.LASF179
 3180 05b0 01       		.byte	0x1
 3181 05b1 08       		.uleb128 0x8
 3182 05b2 5A470000 		.4byte	.LASF180
 3183 05b6 02       		.byte	0x2
 3184 05b7 08       		.uleb128 0x8
 3185 05b8 652A0000 		.4byte	.LASF181
 3186 05bc 03       		.byte	0x3
 3187 05bd 08       		.uleb128 0x8
 3188 05be CE110000 		.4byte	.LASF182
 3189 05c2 04       		.byte	0x4
 3190 05c3 08       		.uleb128 0x8
 3191 05c4 AD350000 		.4byte	.LASF183
 3192 05c8 05       		.byte	0x5
 3193 05c9 08       		.uleb128 0x8
 3194 05ca 92110000 		.4byte	.LASF184
 3195 05ce 06       		.byte	0x6
 3196 05cf 08       		.uleb128 0x8
 3197 05d0 38240000 		.4byte	.LASF185
 3198 05d4 07       		.byte	0x7
 3199 05d5 08       		.uleb128 0x8
 3200 05d6 B8240000 		.4byte	.LASF186
 3201 05da 08       		.byte	0x8
 3202 05db 08       		.uleb128 0x8
 3203 05dc 8F120000 		.4byte	.LASF187
 3204 05e0 09       		.byte	0x9
 3205 05e1 08       		.uleb128 0x8
 3206 05e2 4F140000 		.4byte	.LASF188
 3207 05e6 0A       		.byte	0xa
 3208 05e7 08       		.uleb128 0x8
 3209 05e8 981A0000 		.4byte	.LASF189
 3210 05ec 0B       		.byte	0xb
 3211 05ed 08       		.uleb128 0x8
 3212 05ee E2000000 		.4byte	.LASF190
 3213 05f2 0C       		.byte	0xc
 3214 05f3 08       		.uleb128 0x8
 3215 05f4 CE400000 		.4byte	.LASF191
 3216 05f8 0D       		.byte	0xd
 3217 05f9 08       		.uleb128 0x8
 3218 05fa F11A0000 		.4byte	.LASF192
 3219 05fe 0E       		.byte	0xe
 3220 05ff 08       		.uleb128 0x8
 3221 0600 FE460000 		.4byte	.LASF193
 3222 0604 0F       		.byte	0xf
 3223 0605 08       		.uleb128 0x8
 3224 0606 BF2C0000 		.4byte	.LASF194
 3225 060a 10       		.byte	0x10
ARM GAS  C:\Users\user\AppData\Local\Temp\ccRdimcD.s 			page 77


 3226 060b 08       		.uleb128 0x8
 3227 060c CF150000 		.4byte	.LASF195
 3228 0610 11       		.byte	0x11
 3229 0611 08       		.uleb128 0x8
 3230 0612 3D0C0000 		.4byte	.LASF196
 3231 0616 80       		.byte	0x80
 3232 0617 08       		.uleb128 0x8
 3233 0618 79210000 		.4byte	.LASF197
 3234 061c 80       		.byte	0x80
 3235 061d 08       		.uleb128 0x8
 3236 061e FA410000 		.4byte	.LASF198
 3237 0622 80       		.byte	0x80
 3238 0623 08       		.uleb128 0x8
 3239 0624 560D0000 		.4byte	.LASF199
 3240 0628 80       		.byte	0x80
 3241 0629 08       		.uleb128 0x8
 3242 062a D13D0000 		.4byte	.LASF200
 3243 062e 80       		.byte	0x80
 3244 062f 08       		.uleb128 0x8
 3245 0630 EE390000 		.4byte	.LASF201
 3246 0634 80       		.byte	0x80
 3247 0635 08       		.uleb128 0x8
 3248 0636 4B380000 		.4byte	.LASF202
 3249 063a 80       		.byte	0x80
 3250 063b 08       		.uleb128 0x8
 3251 063c 2F450000 		.4byte	.LASF203
 3252 0640 80       		.byte	0x80
 3253 0641 08       		.uleb128 0x8
 3254 0642 3D060000 		.4byte	.LASF204
 3255 0646 81       		.byte	0x81
 3256 0647 08       		.uleb128 0x8
 3257 0648 030E0000 		.4byte	.LASF205
 3258 064c 81       		.byte	0x81
 3259 064d 08       		.uleb128 0x8
 3260 064e 800F0000 		.4byte	.LASF206
 3261 0652 81       		.byte	0x81
 3262 0653 08       		.uleb128 0x8
 3263 0654 851C0000 		.4byte	.LASF207
 3264 0658 81       		.byte	0x81
 3265 0659 08       		.uleb128 0x8
 3266 065a A2390000 		.4byte	.LASF208
 3267 065e 82       		.byte	0x82
 3268 065f 08       		.uleb128 0x8
 3269 0660 18330000 		.4byte	.LASF209
 3270 0664 A0       		.byte	0xa0
 3271 0665 08       		.uleb128 0x8
 3272 0666 5F240000 		.4byte	.LASF210
 3273 066a A0       		.byte	0xa0
 3274 066b 08       		.uleb128 0x8
 3275 066c EA260000 		.4byte	.LASF211
 3276 0670 A1       		.byte	0xa1
 3277 0671 08       		.uleb128 0x8
 3278 0672 BB370000 		.4byte	.LASF212
 3279 0676 A2       		.byte	0xa2
 3280 0677 08       		.uleb128 0x8
 3281 0678 22120000 		.4byte	.LASF213
 3282 067c A3       		.byte	0xa3
ARM GAS  C:\Users\user\AppData\Local\Temp\ccRdimcD.s 			page 78


 3283 067d 08       		.uleb128 0x8
 3284 067e 100F0000 		.4byte	.LASF214
 3285 0682 FD       		.byte	0xfd
 3286 0683 08       		.uleb128 0x8
 3287 0684 26050000 		.4byte	.LASF215
 3288 0688 FE       		.byte	0xfe
 3289 0689 08       		.uleb128 0x8
 3290 068a EA250000 		.4byte	.LASF216
 3291 068e FF       		.byte	0xff
 3292 068f 00       		.byte	0
 3293 0690 04       		.uleb128 0x4
 3294 0691 E1470000 		.4byte	.LASF217
 3295 0695 05       		.byte	0x5
 3296 0696 5F01     		.2byte	0x15f
 3297 0698 99050000 		.4byte	0x599
 3298 069c 04       		.uleb128 0x4
 3299 069d 9F430000 		.4byte	.LASF218
 3300 06a1 05       		.byte	0x5
 3301 06a2 6D01     		.2byte	0x16d
 3302 06a4 77000000 		.4byte	0x77
 3303 06a8 0A       		.uleb128 0xa
 3304 06a9 10       		.byte	0x10
 3305 06aa 05       		.byte	0x5
 3306 06ab 7001     		.2byte	0x170
 3307 06ad BF060000 		.4byte	0x6bf
 3308 06b1 0B       		.uleb128 0xb
 3309 06b2 B0140000 		.4byte	.LASF219
 3310 06b6 05       		.byte	0x5
 3311 06b7 7301     		.2byte	0x173
 3312 06b9 3F050000 		.4byte	0x53f
 3313 06bd 00       		.byte	0
 3314 06be 00       		.byte	0
 3315 06bf 04       		.uleb128 0x4
 3316 06c0 C5340000 		.4byte	.LASF220
 3317 06c4 05       		.byte	0x5
 3318 06c5 7401     		.2byte	0x174
 3319 06c7 A8060000 		.4byte	0x6a8
 3320 06cb 10       		.uleb128 0x10
 3321 06cc 10       		.byte	0x10
 3322 06cd 05       		.byte	0x5
 3323 06ce 7701     		.2byte	0x177
 3324 06d0 ED060000 		.4byte	0x6ed
 3325 06d4 11       		.uleb128 0x11
 3326 06d5 271F0000 		.4byte	.LASF221
 3327 06d9 05       		.byte	0x5
 3328 06da 7A01     		.2byte	0x17a
 3329 06dc 9C060000 		.4byte	0x69c
 3330 06e0 11       		.uleb128 0x11
 3331 06e1 4E0D0000 		.4byte	.LASF222
 3332 06e5 05       		.byte	0x5
 3333 06e6 7D01     		.2byte	0x17d
 3334 06e8 BF060000 		.4byte	0x6bf
 3335 06ec 00       		.byte	0
 3336 06ed 04       		.uleb128 0x4
 3337 06ee A4250000 		.4byte	.LASF223
 3338 06f2 05       		.byte	0x5
 3339 06f3 7F01     		.2byte	0x17f
ARM GAS  C:\Users\user\AppData\Local\Temp\ccRdimcD.s 			page 79


 3340 06f5 CB060000 		.4byte	0x6cb
 3341 06f9 04       		.uleb128 0x4
 3342 06fa 4A460000 		.4byte	.LASF224
 3343 06fe 05       		.byte	0x5
 3344 06ff 8901     		.2byte	0x189
 3345 0701 77000000 		.4byte	0x77
 3346 0705 0A       		.uleb128 0xa
 3347 0706 02       		.byte	0x2
 3348 0707 05       		.byte	0x5
 3349 0708 9301     		.2byte	0x193
 3350 070a 29070000 		.4byte	0x729
 3351 070e 0B       		.uleb128 0xb
 3352 070f 13160000 		.4byte	.LASF225
 3353 0713 05       		.byte	0x5
 3354 0714 9A01     		.2byte	0x19a
 3355 0716 6B000000 		.4byte	0x6b
 3356 071a 00       		.byte	0
 3357 071b 0B       		.uleb128 0xb
 3358 071c 732B0000 		.4byte	.LASF226
 3359 0720 05       		.byte	0x5
 3360 0721 A001     		.2byte	0x1a0
 3361 0723 6B000000 		.4byte	0x6b
 3362 0727 01       		.byte	0x1
 3363 0728 00       		.byte	0
 3364 0729 04       		.uleb128 0x4
 3365 072a F8340000 		.4byte	.LASF227
 3366 072e 05       		.byte	0x5
 3367 072f A201     		.2byte	0x1a2
 3368 0731 05070000 		.4byte	0x705
 3369 0735 0A       		.uleb128 0xa
 3370 0736 08       		.byte	0x8
 3371 0737 05       		.byte	0x5
 3372 0738 BE01     		.2byte	0x1be
 3373 073a 66070000 		.4byte	0x766
 3374 073e 12       		.uleb128 0x12
 3375 073f 76616C00 		.ascii	"val\000"
 3376 0743 05       		.byte	0x5
 3377 0744 C101     		.2byte	0x1c1
 3378 0746 30040000 		.4byte	0x430
 3379 074a 00       		.byte	0
 3380 074b 12       		.uleb128 0x12
 3381 074c 6C656E00 		.ascii	"len\000"
 3382 0750 05       		.byte	0x5
 3383 0751 C401     		.2byte	0x1c4
 3384 0753 77000000 		.4byte	0x77
 3385 0757 04       		.byte	0x4
 3386 0758 0B       		.uleb128 0xb
 3387 0759 C6280000 		.4byte	.LASF228
 3388 075d 05       		.byte	0x5
 3389 075e CB01     		.2byte	0x1cb
 3390 0760 77000000 		.4byte	0x77
 3391 0764 06       		.byte	0x6
 3392 0765 00       		.byte	0
 3393 0766 04       		.uleb128 0x4
 3394 0767 D60C0000 		.4byte	.LASF229
 3395 076b 05       		.byte	0x5
 3396 076c CD01     		.2byte	0x1cd
ARM GAS  C:\Users\user\AppData\Local\Temp\ccRdimcD.s 			page 80


 3397 076e 35070000 		.4byte	0x735
 3398 0772 0A       		.uleb128 0xa
 3399 0773 0C       		.byte	0xc
 3400 0774 05       		.byte	0x5
 3401 0775 D001     		.2byte	0x1d0
 3402 0777 96070000 		.4byte	0x796
 3403 077b 0B       		.uleb128 0xb
 3404 077c B0140000 		.4byte	.LASF219
 3405 0780 05       		.byte	0x5
 3406 0781 D301     		.2byte	0x1d3
 3407 0783 66070000 		.4byte	0x766
 3408 0787 00       		.byte	0
 3409 0788 0B       		.uleb128 0xb
 3410 0789 E2450000 		.4byte	.LASF230
 3411 078d 05       		.byte	0x5
 3412 078e D601     		.2byte	0x1d6
 3413 0790 F9060000 		.4byte	0x6f9
 3414 0794 08       		.byte	0x8
 3415 0795 00       		.byte	0
 3416 0796 04       		.uleb128 0x4
 3417 0797 0F1B0000 		.4byte	.LASF231
 3418 079b 05       		.byte	0x5
 3419 079c D801     		.2byte	0x1d8
 3420 079e 72070000 		.4byte	0x772
 3421 07a2 13       		.uleb128 0x13
 3422 07a3 10       		.byte	0x10
 3423 07a4 06       		.byte	0x6
 3424 07a5 8A       		.byte	0x8a
 3425 07a6 C3070000 		.4byte	0x7c3
 3426 07aa 14       		.uleb128 0x14
 3427 07ab A63E0000 		.4byte	.LASF232
 3428 07af 06       		.byte	0x6
 3429 07b0 8D       		.byte	0x8d
 3430 07b1 29070000 		.4byte	0x729
 3431 07b5 00       		.byte	0
 3432 07b6 14       		.uleb128 0x14
 3433 07b7 CB1C0000 		.4byte	.LASF233
 3434 07bb 06       		.byte	0x6
 3435 07bc 90       		.byte	0x90
 3436 07bd 96070000 		.4byte	0x796
 3437 07c1 04       		.byte	0x4
 3438 07c2 00       		.byte	0
 3439 07c3 15       		.uleb128 0x15
 3440 07c4 640E0000 		.4byte	.LASF234
 3441 07c8 06       		.byte	0x6
 3442 07c9 92       		.byte	0x92
 3443 07ca A2070000 		.4byte	0x7a2
 3444 07ce 13       		.uleb128 0x13
 3445 07cf 06       		.byte	0x6
 3446 07d0 06       		.byte	0x6
 3447 07d1 A2       		.byte	0xa2
 3448 07d2 FB070000 		.4byte	0x7fb
 3449 07d6 14       		.uleb128 0x14
 3450 07d7 A63E0000 		.4byte	.LASF232
 3451 07db 06       		.byte	0x6
 3452 07dc A5       		.byte	0xa5
 3453 07dd 29070000 		.4byte	0x729
ARM GAS  C:\Users\user\AppData\Local\Temp\ccRdimcD.s 			page 81


 3454 07e1 00       		.byte	0
 3455 07e2 14       		.uleb128 0x14
 3456 07e3 E2450000 		.4byte	.LASF230
 3457 07e7 06       		.byte	0x6
 3458 07e8 A8       		.byte	0xa8
 3459 07e9 F9060000 		.4byte	0x6f9
 3460 07ed 02       		.byte	0x2
 3461 07ee 14       		.uleb128 0x14
 3462 07ef 53010000 		.4byte	.LASF235
 3463 07f3 06       		.byte	0x6
 3464 07f4 AE       		.byte	0xae
 3465 07f5 90060000 		.4byte	0x690
 3466 07f9 04       		.byte	0x4
 3467 07fa 00       		.byte	0
 3468 07fb 15       		.uleb128 0x15
 3469 07fc A6280000 		.4byte	.LASF236
 3470 0800 06       		.byte	0x6
 3471 0801 B0       		.byte	0xb0
 3472 0802 CE070000 		.4byte	0x7ce
 3473 0806 13       		.uleb128 0x13
 3474 0807 18       		.byte	0x18
 3475 0808 07       		.byte	0x7
 3476 0809 6B       		.byte	0x6b
 3477 080a 4B080000 		.4byte	0x84b
 3478 080e 14       		.uleb128 0x14
 3479 080f 30270000 		.4byte	.LASF237
 3480 0813 07       		.byte	0x7
 3481 0814 6D       		.byte	0x6d
 3482 0815 F9060000 		.4byte	0x6f9
 3483 0819 00       		.byte	0
 3484 081a 14       		.uleb128 0x14
 3485 081b 2C360000 		.4byte	.LASF238
 3486 081f 07       		.byte	0x7
 3487 0820 6E       		.byte	0x6e
 3488 0821 6B000000 		.4byte	0x6b
 3489 0825 02       		.byte	0x2
 3490 0826 14       		.uleb128 0x14
 3491 0827 843A0000 		.4byte	.LASF239
 3492 082b 07       		.byte	0x7
 3493 082c 6F       		.byte	0x6f
 3494 082d F9060000 		.4byte	0x6f9
 3495 0831 04       		.byte	0x4
 3496 0832 14       		.uleb128 0x14
 3497 0833 330B0000 		.4byte	.LASF240
 3498 0837 07       		.byte	0x7
 3499 0838 70       		.byte	0x70
 3500 0839 ED060000 		.4byte	0x6ed
 3501 083d 06       		.byte	0x6
 3502 083e 14       		.uleb128 0x14
 3503 083f D12A0000 		.4byte	.LASF241
 3504 0843 07       		.byte	0x7
 3505 0844 71       		.byte	0x71
 3506 0845 6B000000 		.4byte	0x6b
 3507 0849 16       		.byte	0x16
 3508 084a 00       		.byte	0
 3509 084b 15       		.uleb128 0x15
 3510 084c C9080000 		.4byte	.LASF242
ARM GAS  C:\Users\user\AppData\Local\Temp\ccRdimcD.s 			page 82


 3511 0850 07       		.byte	0x7
 3512 0851 72       		.byte	0x72
 3513 0852 06080000 		.4byte	0x806
 3514 0856 0F       		.uleb128 0xf
 3515 0857 01       		.byte	0x1
 3516 0858 2C000000 		.4byte	0x2c
 3517 085c 08       		.byte	0x8
 3518 085d 22       		.byte	0x22
 3519 085e 75080000 		.4byte	0x875
 3520 0862 08       		.uleb128 0x8
 3521 0863 FF0F0000 		.4byte	.LASF243
 3522 0867 00       		.byte	0
 3523 0868 08       		.uleb128 0x8
 3524 0869 F9130000 		.4byte	.LASF244
 3525 086d 01       		.byte	0x1
 3526 086e 08       		.uleb128 0x8
 3527 086f 5A320000 		.4byte	.LASF245
 3528 0873 02       		.byte	0x2
 3529 0874 00       		.byte	0
 3530 0875 0F       		.uleb128 0xf
 3531 0876 01       		.byte	0x1
 3532 0877 2C000000 		.4byte	0x2c
 3533 087b 08       		.byte	0x8
 3534 087c 2A       		.byte	0x2a
 3535 087d 8E080000 		.4byte	0x88e
 3536 0881 08       		.uleb128 0x8
 3537 0882 420A0000 		.4byte	.LASF246
 3538 0886 00       		.byte	0
 3539 0887 08       		.uleb128 0x8
 3540 0888 DC270000 		.4byte	.LASF247
 3541 088c 01       		.byte	0x1
 3542 088d 00       		.byte	0
 3543 088e 0F       		.uleb128 0xf
 3544 088f 01       		.byte	0x1
 3545 0890 2C000000 		.4byte	0x2c
 3546 0894 09       		.byte	0x9
 3547 0895 22       		.byte	0x22
 3548 0896 CB080000 		.4byte	0x8cb
 3549 089a 08       		.uleb128 0x8
 3550 089b 2A250000 		.4byte	.LASF248
 3551 089f 00       		.byte	0
 3552 08a0 08       		.uleb128 0x8
 3553 08a1 091D0000 		.4byte	.LASF249
 3554 08a5 01       		.byte	0x1
 3555 08a6 08       		.uleb128 0x8
 3556 08a7 9D2B0000 		.4byte	.LASF250
 3557 08ab 02       		.byte	0x2
 3558 08ac 08       		.uleb128 0x8
 3559 08ad A8240000 		.4byte	.LASF251
 3560 08b1 03       		.byte	0x3
 3561 08b2 08       		.uleb128 0x8
 3562 08b3 480F0000 		.4byte	.LASF252
 3563 08b7 04       		.byte	0x4
 3564 08b8 08       		.uleb128 0x8
 3565 08b9 C7010000 		.4byte	.LASF253
 3566 08bd 05       		.byte	0x5
 3567 08be 08       		.uleb128 0x8
ARM GAS  C:\Users\user\AppData\Local\Temp\ccRdimcD.s 			page 83


 3568 08bf C13D0000 		.4byte	.LASF254
 3569 08c3 06       		.byte	0x6
 3570 08c4 08       		.uleb128 0x8
 3571 08c5 561F0000 		.4byte	.LASF255
 3572 08c9 07       		.byte	0x7
 3573 08ca 00       		.byte	0
 3574 08cb 0F       		.uleb128 0xf
 3575 08cc 01       		.byte	0x1
 3576 08cd 2C000000 		.4byte	0x2c
 3577 08d1 09       		.byte	0x9
 3578 08d2 2F       		.byte	0x2f
 3579 08d3 E4080000 		.4byte	0x8e4
 3580 08d7 08       		.uleb128 0x8
 3581 08d8 2F470000 		.4byte	.LASF256
 3582 08dc 00       		.byte	0
 3583 08dd 08       		.uleb128 0x8
 3584 08de EF050000 		.4byte	.LASF257
 3585 08e2 01       		.byte	0x1
 3586 08e3 00       		.byte	0
 3587 08e4 0F       		.uleb128 0xf
 3588 08e5 01       		.byte	0x1
 3589 08e6 2C000000 		.4byte	0x2c
 3590 08ea 0A       		.byte	0xa
 3591 08eb 22       		.byte	0x22
 3592 08ec 2D090000 		.4byte	0x92d
 3593 08f0 08       		.uleb128 0x8
 3594 08f1 342E0000 		.4byte	.LASF258
 3595 08f5 00       		.byte	0
 3596 08f6 08       		.uleb128 0x8
 3597 08f7 443C0000 		.4byte	.LASF259
 3598 08fb 01       		.byte	0x1
 3599 08fc 08       		.uleb128 0x8
 3600 08fd D2250000 		.4byte	.LASF260
 3601 0901 02       		.byte	0x2
 3602 0902 08       		.uleb128 0x8
 3603 0903 F2270000 		.4byte	.LASF261
 3604 0907 03       		.byte	0x3
 3605 0908 08       		.uleb128 0x8
 3606 0909 31400000 		.4byte	.LASF262
 3607 090d 04       		.byte	0x4
 3608 090e 08       		.uleb128 0x8
 3609 090f 40210000 		.4byte	.LASF263
 3610 0913 05       		.byte	0x5
 3611 0914 08       		.uleb128 0x8
 3612 0915 A7370000 		.4byte	.LASF264
 3613 0919 06       		.byte	0x6
 3614 091a 08       		.uleb128 0x8
 3615 091b 62090000 		.4byte	.LASF265
 3616 091f 07       		.byte	0x7
 3617 0920 08       		.uleb128 0x8
 3618 0921 A63B0000 		.4byte	.LASF266
 3619 0925 08       		.byte	0x8
 3620 0926 08       		.uleb128 0x8
 3621 0927 E9110000 		.4byte	.LASF267
 3622 092b 09       		.byte	0x9
 3623 092c 00       		.byte	0
 3624 092d 0F       		.uleb128 0xf
ARM GAS  C:\Users\user\AppData\Local\Temp\ccRdimcD.s 			page 84


 3625 092e 02       		.byte	0x2
 3626 092f 3A000000 		.4byte	0x3a
 3627 0933 0B       		.byte	0xb
 3628 0934 B4       		.byte	0xb4
 3629 0935 98110000 		.4byte	0x1198
 3630 0939 09       		.uleb128 0x9
 3631 093a 08140000 		.4byte	.LASF268
 3632 093e 0001     		.2byte	0x100
 3633 0940 09       		.uleb128 0x9
 3634 0941 80450000 		.4byte	.LASF269
 3635 0945 0101     		.2byte	0x101
 3636 0947 09       		.uleb128 0x9
 3637 0948 E11E0000 		.4byte	.LASF270
 3638 094c 0201     		.2byte	0x102
 3639 094e 09       		.uleb128 0x9
 3640 094f 3E0E0000 		.4byte	.LASF271
 3641 0953 0301     		.2byte	0x103
 3642 0955 09       		.uleb128 0x9
 3643 0956 23410000 		.4byte	.LASF272
 3644 095a 0401     		.2byte	0x104
 3645 095c 09       		.uleb128 0x9
 3646 095d B1410000 		.4byte	.LASF273
 3647 0961 0501     		.2byte	0x105
 3648 0963 09       		.uleb128 0x9
 3649 0964 CD3E0000 		.4byte	.LASF274
 3650 0968 0601     		.2byte	0x106
 3651 096a 09       		.uleb128 0x9
 3652 096b D32B0000 		.4byte	.LASF275
 3653 096f 0701     		.2byte	0x107
 3654 0971 09       		.uleb128 0x9
 3655 0972 5C3F0000 		.4byte	.LASF276
 3656 0976 0801     		.2byte	0x108
 3657 0978 09       		.uleb128 0x9
 3658 0979 3F160000 		.4byte	.LASF277
 3659 097d 0901     		.2byte	0x109
 3660 097f 09       		.uleb128 0x9
 3661 0980 F5190000 		.4byte	.LASF278
 3662 0984 0A01     		.2byte	0x10a
 3663 0986 09       		.uleb128 0x9
 3664 0987 3F220000 		.4byte	.LASF279
 3665 098b 0B01     		.2byte	0x10b
 3666 098d 09       		.uleb128 0x9
 3667 098e 1A370000 		.4byte	.LASF280
 3668 0992 0C01     		.2byte	0x10c
 3669 0994 09       		.uleb128 0x9
 3670 0995 17340000 		.4byte	.LASF281
 3671 0999 0D01     		.2byte	0x10d
 3672 099b 09       		.uleb128 0x9
 3673 099c A60A0000 		.4byte	.LASF282
 3674 09a0 0E01     		.2byte	0x10e
 3675 09a2 09       		.uleb128 0x9
 3676 09a3 C1200000 		.4byte	.LASF283
 3677 09a7 0F01     		.2byte	0x10f
 3678 09a9 09       		.uleb128 0x9
 3679 09aa 080D0000 		.4byte	.LASF284
 3680 09ae 1001     		.2byte	0x110
 3681 09b0 09       		.uleb128 0x9
ARM GAS  C:\Users\user\AppData\Local\Temp\ccRdimcD.s 			page 85


 3682 09b1 76290000 		.4byte	.LASF285
 3683 09b5 1101     		.2byte	0x111
 3684 09b7 09       		.uleb128 0x9
 3685 09b8 1C160000 		.4byte	.LASF286
 3686 09bc 1201     		.2byte	0x112
 3687 09be 09       		.uleb128 0x9
 3688 09bf F8020000 		.4byte	.LASF287
 3689 09c3 1301     		.2byte	0x113
 3690 09c5 09       		.uleb128 0x9
 3691 09c6 8E180000 		.4byte	.LASF288
 3692 09ca 1401     		.2byte	0x114
 3693 09cc 09       		.uleb128 0x9
 3694 09cd 28380000 		.4byte	.LASF289
 3695 09d1 1501     		.2byte	0x115
 3696 09d3 09       		.uleb128 0x9
 3697 09d4 1E0A0000 		.4byte	.LASF290
 3698 09d8 1601     		.2byte	0x116
 3699 09da 09       		.uleb128 0x9
 3700 09db B7270000 		.4byte	.LASF291
 3701 09df 1701     		.2byte	0x117
 3702 09e1 09       		.uleb128 0x9
 3703 09e2 61010000 		.4byte	.LASF292
 3704 09e6 1801     		.2byte	0x118
 3705 09e8 09       		.uleb128 0x9
 3706 09e9 583D0000 		.4byte	.LASF293
 3707 09ed 1901     		.2byte	0x119
 3708 09ef 09       		.uleb128 0x9
 3709 09f0 C5450000 		.4byte	.LASF294
 3710 09f4 1A01     		.2byte	0x11a
 3711 09f6 09       		.uleb128 0x9
 3712 09f7 BB0C0000 		.4byte	.LASF295
 3713 09fb 1B01     		.2byte	0x11b
 3714 09fd 09       		.uleb128 0x9
 3715 09fe 5B200000 		.4byte	.LASF296
 3716 0a02 1C01     		.2byte	0x11c
 3717 0a04 09       		.uleb128 0x9
 3718 0a05 4B110000 		.4byte	.LASF297
 3719 0a09 1D01     		.2byte	0x11d
 3720 0a0b 09       		.uleb128 0x9
 3721 0a0c 9D3D0000 		.4byte	.LASF298
 3722 0a10 1E01     		.2byte	0x11e
 3723 0a12 09       		.uleb128 0x9
 3724 0a13 41040000 		.4byte	.LASF299
 3725 0a17 1F01     		.2byte	0x11f
 3726 0a19 09       		.uleb128 0x9
 3727 0a1a 01180000 		.4byte	.LASF300
 3728 0a1e 2001     		.2byte	0x120
 3729 0a20 09       		.uleb128 0x9
 3730 0a21 73170000 		.4byte	.LASF301
 3731 0a25 2101     		.2byte	0x121
 3732 0a27 09       		.uleb128 0x9
 3733 0a28 1B040000 		.4byte	.LASF302
 3734 0a2c 2201     		.2byte	0x122
 3735 0a2e 09       		.uleb128 0x9
 3736 0a2f DF160000 		.4byte	.LASF303
 3737 0a33 2301     		.2byte	0x123
 3738 0a35 09       		.uleb128 0x9
ARM GAS  C:\Users\user\AppData\Local\Temp\ccRdimcD.s 			page 86


 3739 0a36 A8060000 		.4byte	.LASF304
 3740 0a3a 2401     		.2byte	0x124
 3741 0a3c 09       		.uleb128 0x9
 3742 0a3d E4100000 		.4byte	.LASF305
 3743 0a41 2501     		.2byte	0x125
 3744 0a43 09       		.uleb128 0x9
 3745 0a44 9B3C0000 		.4byte	.LASF306
 3746 0a48 2601     		.2byte	0x126
 3747 0a4a 09       		.uleb128 0x9
 3748 0a4b 60220000 		.4byte	.LASF307
 3749 0a4f 2701     		.2byte	0x127
 3750 0a51 09       		.uleb128 0x9
 3751 0a52 D8350000 		.4byte	.LASF308
 3752 0a56 2801     		.2byte	0x128
 3753 0a58 09       		.uleb128 0x9
 3754 0a59 401E0000 		.4byte	.LASF309
 3755 0a5d 2901     		.2byte	0x129
 3756 0a5f 09       		.uleb128 0x9
 3757 0a60 63390000 		.4byte	.LASF310
 3758 0a64 2A01     		.2byte	0x12a
 3759 0a66 09       		.uleb128 0x9
 3760 0a67 172B0000 		.4byte	.LASF311
 3761 0a6b 2B01     		.2byte	0x12b
 3762 0a6d 09       		.uleb128 0x9
 3763 0a6e 673B0000 		.4byte	.LASF312
 3764 0a72 2C01     		.2byte	0x12c
 3765 0a74 09       		.uleb128 0x9
 3766 0a75 172A0000 		.4byte	.LASF313
 3767 0a79 2D01     		.2byte	0x12d
 3768 0a7b 09       		.uleb128 0x9
 3769 0a7c EA140000 		.4byte	.LASF314
 3770 0a80 2E01     		.2byte	0x12e
 3771 0a82 09       		.uleb128 0x9
 3772 0a83 1D210000 		.4byte	.LASF315
 3773 0a87 2F01     		.2byte	0x12f
 3774 0a89 09       		.uleb128 0x9
 3775 0a8a 82280000 		.4byte	.LASF316
 3776 0a8e 3001     		.2byte	0x130
 3777 0a90 09       		.uleb128 0x9
 3778 0a91 51280000 		.4byte	.LASF317
 3779 0a95 3101     		.2byte	0x131
 3780 0a97 09       		.uleb128 0x9
 3781 0a98 FB060000 		.4byte	.LASF318
 3782 0a9c 3201     		.2byte	0x132
 3783 0a9e 09       		.uleb128 0x9
 3784 0a9f 33290000 		.4byte	.LASF319
 3785 0aa3 3301     		.2byte	0x133
 3786 0aa5 09       		.uleb128 0x9
 3787 0aa6 D6020000 		.4byte	.LASF320
 3788 0aaa 3401     		.2byte	0x134
 3789 0aac 09       		.uleb128 0x9
 3790 0aad 05380000 		.4byte	.LASF321
 3791 0ab1 3501     		.2byte	0x135
 3792 0ab3 09       		.uleb128 0x9
 3793 0ab4 3E090000 		.4byte	.LASF322
 3794 0ab8 3601     		.2byte	0x136
 3795 0aba 09       		.uleb128 0x9
ARM GAS  C:\Users\user\AppData\Local\Temp\ccRdimcD.s 			page 87


 3796 0abb 11300000 		.4byte	.LASF323
 3797 0abf 3701     		.2byte	0x137
 3798 0ac1 09       		.uleb128 0x9
 3799 0ac2 833B0000 		.4byte	.LASF324
 3800 0ac6 3801     		.2byte	0x138
 3801 0ac8 09       		.uleb128 0x9
 3802 0ac9 36260000 		.4byte	.LASF325
 3803 0acd 3901     		.2byte	0x139
 3804 0acf 09       		.uleb128 0x9
 3805 0ad0 752F0000 		.4byte	.LASF326
 3806 0ad4 3A01     		.2byte	0x13a
 3807 0ad6 09       		.uleb128 0x9
 3808 0ad7 29170000 		.4byte	.LASF327
 3809 0adb 3B01     		.2byte	0x13b
 3810 0add 09       		.uleb128 0x9
 3811 0ade 87150000 		.4byte	.LASF328
 3812 0ae2 3C01     		.2byte	0x13c
 3813 0ae4 09       		.uleb128 0x9
 3814 0ae5 D7290000 		.4byte	.LASF329
 3815 0ae9 3D01     		.2byte	0x13d
 3816 0aeb 09       		.uleb128 0x9
 3817 0aec 25190000 		.4byte	.LASF330
 3818 0af0 3E01     		.2byte	0x13e
 3819 0af2 09       		.uleb128 0x9
 3820 0af3 18320000 		.4byte	.LASF331
 3821 0af7 3F01     		.2byte	0x13f
 3822 0af9 09       		.uleb128 0x9
 3823 0afa 0D440000 		.4byte	.LASF332
 3824 0afe 4001     		.2byte	0x140
 3825 0b00 09       		.uleb128 0x9
 3826 0b01 3C1C0000 		.4byte	.LASF333
 3827 0b05 4101     		.2byte	0x141
 3828 0b07 09       		.uleb128 0x9
 3829 0b08 DE0D0000 		.4byte	.LASF334
 3830 0b0c 4201     		.2byte	0x142
 3831 0b0e 09       		.uleb128 0x9
 3832 0b0f CB220000 		.4byte	.LASF335
 3833 0b13 4301     		.2byte	0x143
 3834 0b15 09       		.uleb128 0x9
 3835 0b16 61030000 		.4byte	.LASF336
 3836 0b1a 4401     		.2byte	0x144
 3837 0b1c 09       		.uleb128 0x9
 3838 0b1d F4420000 		.4byte	.LASF337
 3839 0b21 4501     		.2byte	0x145
 3840 0b23 09       		.uleb128 0x9
 3841 0b24 522F0000 		.4byte	.LASF338
 3842 0b28 4601     		.2byte	0x146
 3843 0b2a 09       		.uleb128 0x9
 3844 0b2b 7D480000 		.4byte	.LASF339
 3845 0b2f 4701     		.2byte	0x147
 3846 0b31 09       		.uleb128 0x9
 3847 0b32 39080000 		.4byte	.LASF340
 3848 0b36 4801     		.2byte	0x148
 3849 0b38 09       		.uleb128 0x9
 3850 0b39 0A2D0000 		.4byte	.LASF341
 3851 0b3d 4901     		.2byte	0x149
 3852 0b3f 09       		.uleb128 0x9
ARM GAS  C:\Users\user\AppData\Local\Temp\ccRdimcD.s 			page 88


 3853 0b40 6C120000 		.4byte	.LASF342
 3854 0b44 4A01     		.2byte	0x14a
 3855 0b46 09       		.uleb128 0x9
 3856 0b47 1D1E0000 		.4byte	.LASF343
 3857 0b4b 4B01     		.2byte	0x14b
 3858 0b4d 09       		.uleb128 0x9
 3859 0b4e D5340000 		.4byte	.LASF344
 3860 0b52 4C01     		.2byte	0x14c
 3861 0b54 09       		.uleb128 0x9
 3862 0b55 D9300000 		.4byte	.LASF345
 3863 0b59 4D01     		.2byte	0x14d
 3864 0b5b 09       		.uleb128 0x9
 3865 0b5c DB090000 		.4byte	.LASF346
 3866 0b60 4E01     		.2byte	0x14e
 3867 0b62 09       		.uleb128 0x9
 3868 0b63 70380000 		.4byte	.LASF347
 3869 0b67 4F01     		.2byte	0x14f
 3870 0b69 09       		.uleb128 0x9
 3871 0b6a C8390000 		.4byte	.LASF348
 3872 0b6e 5001     		.2byte	0x150
 3873 0b70 09       		.uleb128 0x9
 3874 0b71 5E370000 		.4byte	.LASF349
 3875 0b75 5101     		.2byte	0x151
 3876 0b77 09       		.uleb128 0x9
 3877 0b78 E83E0000 		.4byte	.LASF350
 3878 0b7c 5201     		.2byte	0x152
 3879 0b7e 09       		.uleb128 0x9
 3880 0b7f C5060000 		.4byte	.LASF351
 3881 0b83 5301     		.2byte	0x153
 3882 0b85 09       		.uleb128 0x9
 3883 0b86 411B0000 		.4byte	.LASF352
 3884 0b8a 5401     		.2byte	0x154
 3885 0b8c 09       		.uleb128 0x9
 3886 0b8d D7010000 		.4byte	.LASF353
 3887 0b91 5501     		.2byte	0x155
 3888 0b93 09       		.uleb128 0x9
 3889 0b94 CE0A0000 		.4byte	.LASF354
 3890 0b98 5601     		.2byte	0x156
 3891 0b9a 09       		.uleb128 0x9
 3892 0b9b 882A0000 		.4byte	.LASF355
 3893 0b9f 5701     		.2byte	0x157
 3894 0ba1 09       		.uleb128 0x9
 3895 0ba2 7A090000 		.4byte	.LASF356
 3896 0ba6 5801     		.2byte	0x158
 3897 0ba8 09       		.uleb128 0x9
 3898 0ba9 9C200000 		.4byte	.LASF357
 3899 0bad 5901     		.2byte	0x159
 3900 0baf 09       		.uleb128 0x9
 3901 0bb0 01410000 		.4byte	.LASF358
 3902 0bb4 5A01     		.2byte	0x15a
 3903 0bb6 09       		.uleb128 0x9
 3904 0bb7 422A0000 		.4byte	.LASF359
 3905 0bbb 5B01     		.2byte	0x15b
 3906 0bbd 09       		.uleb128 0x9
 3907 0bbe C82F0000 		.4byte	.LASF360
 3908 0bc2 5C01     		.2byte	0x15c
 3909 0bc4 09       		.uleb128 0x9
ARM GAS  C:\Users\user\AppData\Local\Temp\ccRdimcD.s 			page 89


 3910 0bc5 B1250000 		.4byte	.LASF361
 3911 0bc9 5D01     		.2byte	0x15d
 3912 0bcb 09       		.uleb128 0x9
 3913 0bcc 95380000 		.4byte	.LASF362
 3914 0bd0 5E01     		.2byte	0x15e
 3915 0bd2 09       		.uleb128 0x9
 3916 0bd3 823F0000 		.4byte	.LASF363
 3917 0bd7 5F01     		.2byte	0x15f
 3918 0bd9 09       		.uleb128 0x9
 3919 0bda 503E0000 		.4byte	.LASF364
 3920 0bde 6001     		.2byte	0x160
 3921 0be0 09       		.uleb128 0x9
 3922 0be1 15240000 		.4byte	.LASF365
 3923 0be5 6101     		.2byte	0x161
 3924 0be7 09       		.uleb128 0x9
 3925 0be8 0E270000 		.4byte	.LASF366
 3926 0bec 6201     		.2byte	0x162
 3927 0bee 09       		.uleb128 0x9
 3928 0bef 6F110000 		.4byte	.LASF367
 3929 0bf3 6301     		.2byte	0x163
 3930 0bf5 09       		.uleb128 0x9
 3931 0bf6 F7360000 		.4byte	.LASF368
 3932 0bfa 6401     		.2byte	0x164
 3933 0bfc 09       		.uleb128 0x9
 3934 0bfd 5C340000 		.4byte	.LASF369
 3935 0c01 6501     		.2byte	0x165
 3936 0c03 09       		.uleb128 0x9
 3937 0c04 8C140000 		.4byte	.LASF370
 3938 0c08 6601     		.2byte	0x166
 3939 0c0a 09       		.uleb128 0x9
 3940 0c0b 1D2F0000 		.4byte	.LASF371
 3941 0c0f 6701     		.2byte	0x167
 3942 0c11 09       		.uleb128 0x9
 3943 0c12 60000000 		.4byte	.LASF372
 3944 0c16 6801     		.2byte	0x168
 3945 0c18 09       		.uleb128 0x9
 3946 0c19 DB040000 		.4byte	.LASF373
 3947 0c1d 6901     		.2byte	0x169
 3948 0c1f 09       		.uleb128 0x9
 3949 0c20 53080000 		.4byte	.LASF374
 3950 0c24 6A01     		.2byte	0x16a
 3951 0c26 09       		.uleb128 0x9
 3952 0c27 9F010000 		.4byte	.LASF375
 3953 0c2b 6B01     		.2byte	0x16b
 3954 0c2d 09       		.uleb128 0x9
 3955 0c2e 0A190000 		.4byte	.LASF376
 3956 0c32 6C01     		.2byte	0x16c
 3957 0c34 09       		.uleb128 0x9
 3958 0c35 0E3E0000 		.4byte	.LASF377
 3959 0c39 6D01     		.2byte	0x16d
 3960 0c3b 09       		.uleb128 0x9
 3961 0c3c 3F470000 		.4byte	.LASF378
 3962 0c40 6E01     		.2byte	0x16e
 3963 0c42 09       		.uleb128 0x9
 3964 0c43 CB320000 		.4byte	.LASF379
 3965 0c47 6F01     		.2byte	0x16f
 3966 0c49 09       		.uleb128 0x9
ARM GAS  C:\Users\user\AppData\Local\Temp\ccRdimcD.s 			page 90


 3967 0c4a 38020000 		.4byte	.LASF380
 3968 0c4e 7001     		.2byte	0x170
 3969 0c50 09       		.uleb128 0x9
 3970 0c51 780B0000 		.4byte	.LASF381
 3971 0c55 7101     		.2byte	0x171
 3972 0c57 09       		.uleb128 0x9
 3973 0c58 0E100000 		.4byte	.LASF382
 3974 0c5c 7201     		.2byte	0x172
 3975 0c5e 09       		.uleb128 0x9
 3976 0c5f 3F230000 		.4byte	.LASF383
 3977 0c63 7301     		.2byte	0x173
 3978 0c65 09       		.uleb128 0x9
 3979 0c66 79370000 		.4byte	.LASF384
 3980 0c6a 7401     		.2byte	0x174
 3981 0c6c 09       		.uleb128 0x9
 3982 0c6d F7350000 		.4byte	.LASF385
 3983 0c71 7501     		.2byte	0x175
 3984 0c73 09       		.uleb128 0x9
 3985 0c74 B6140000 		.4byte	.LASF386
 3986 0c78 7601     		.2byte	0x176
 3987 0c7a 09       		.uleb128 0x9
 3988 0c7b 3F480000 		.4byte	.LASF387
 3989 0c7f 7701     		.2byte	0x177
 3990 0c81 09       		.uleb128 0x9
 3991 0c82 BE1E0000 		.4byte	.LASF388
 3992 0c86 7801     		.2byte	0x178
 3993 0c88 09       		.uleb128 0x9
 3994 0c89 5C2C0000 		.4byte	.LASF389
 3995 0c8d 7901     		.2byte	0x179
 3996 0c8f 09       		.uleb128 0x9
 3997 0c90 12130000 		.4byte	.LASF390
 3998 0c94 7A01     		.2byte	0x17a
 3999 0c96 09       		.uleb128 0x9
 4000 0c97 41330000 		.4byte	.LASF391
 4001 0c9b 7B01     		.2byte	0x17b
 4002 0c9d 09       		.uleb128 0x9
 4003 0c9e 3D030000 		.4byte	.LASF392
 4004 0ca2 7C01     		.2byte	0x17c
 4005 0ca4 09       		.uleb128 0x9
 4006 0ca5 83240000 		.4byte	.LASF393
 4007 0ca9 7D01     		.2byte	0x17d
 4008 0cab 09       		.uleb128 0x9
 4009 0cac 11080000 		.4byte	.LASF394
 4010 0cb0 7E01     		.2byte	0x17e
 4011 0cb2 09       		.uleb128 0x9
 4012 0cb3 68060000 		.4byte	.LASF395
 4013 0cb7 7F01     		.2byte	0x17f
 4014 0cb9 09       		.uleb128 0x9
 4015 0cba B4040000 		.4byte	.LASF396
 4016 0cbe 8001     		.2byte	0x180
 4017 0cc0 09       		.uleb128 0x9
 4018 0cc1 B43F0000 		.4byte	.LASF397
 4019 0cc5 8101     		.2byte	0x181
 4020 0cc7 09       		.uleb128 0x9
 4021 0cc8 AA340000 		.4byte	.LASF398
 4022 0ccc 8201     		.2byte	0x182
 4023 0cce 09       		.uleb128 0x9
ARM GAS  C:\Users\user\AppData\Local\Temp\ccRdimcD.s 			page 91


 4024 0ccf 61480000 		.4byte	.LASF399
 4025 0cd3 8301     		.2byte	0x183
 4026 0cd5 09       		.uleb128 0x9
 4027 0cd6 B0050000 		.4byte	.LASF400
 4028 0cda 8401     		.2byte	0x184
 4029 0cdc 09       		.uleb128 0x9
 4030 0cdd 73360000 		.4byte	.LASF401
 4031 0ce1 8501     		.2byte	0x185
 4032 0ce3 09       		.uleb128 0x9
 4033 0ce4 BE470000 		.4byte	.LASF402
 4034 0ce8 8601     		.2byte	0x186
 4035 0cea 09       		.uleb128 0x9
 4036 0ceb 09280000 		.4byte	.LASF403
 4037 0cef 8701     		.2byte	0x187
 4038 0cf1 09       		.uleb128 0x9
 4039 0cf2 792B0000 		.4byte	.LASF404
 4040 0cf6 8801     		.2byte	0x188
 4041 0cf8 09       		.uleb128 0x9
 4042 0cf9 D5030000 		.4byte	.LASF405
 4043 0cfd 8901     		.2byte	0x189
 4044 0cff 09       		.uleb128 0x9
 4045 0d00 98300000 		.4byte	.LASF406
 4046 0d04 8A01     		.2byte	0x18a
 4047 0d06 09       		.uleb128 0x9
 4048 0d07 DD170000 		.4byte	.LASF407
 4049 0d0b 8B01     		.2byte	0x18b
 4050 0d0d 09       		.uleb128 0x9
 4051 0d0e 1C3A0000 		.4byte	.LASF408
 4052 0d12 8C01     		.2byte	0x18c
 4053 0d14 09       		.uleb128 0x9
 4054 0d15 47350000 		.4byte	.LASF409
 4055 0d19 8D01     		.2byte	0x18d
 4056 0d1b 09       		.uleb128 0x9
 4057 0d1c F23F0000 		.4byte	.LASF410
 4058 0d20 8E01     		.2byte	0x18e
 4059 0d22 09       		.uleb128 0x9
 4060 0d23 7E250000 		.4byte	.LASF411
 4061 0d27 8F01     		.2byte	0x18f
 4062 0d29 09       		.uleb128 0x9
 4063 0d2a 7F3C0000 		.4byte	.LASF412
 4064 0d2e 9001     		.2byte	0x190
 4065 0d30 09       		.uleb128 0x9
 4066 0d31 AE310000 		.4byte	.LASF413
 4067 0d35 9101     		.2byte	0x191
 4068 0d37 09       		.uleb128 0x9
 4069 0d38 D0280000 		.4byte	.LASF414
 4070 0d3c 9201     		.2byte	0x192
 4071 0d3e 09       		.uleb128 0x9
 4072 0d3f 39340000 		.4byte	.LASF415
 4073 0d43 9301     		.2byte	0x193
 4074 0d45 09       		.uleb128 0x9
 4075 0d46 971B0000 		.4byte	.LASF416
 4076 0d4a 9401     		.2byte	0x194
 4077 0d4c 09       		.uleb128 0x9
 4078 0d4d 3C070000 		.4byte	.LASF417
 4079 0d51 9501     		.2byte	0x195
 4080 0d53 09       		.uleb128 0x9
ARM GAS  C:\Users\user\AppData\Local\Temp\ccRdimcD.s 			page 92


 4081 0d54 5E420000 		.4byte	.LASF418
 4082 0d58 9601     		.2byte	0x196
 4083 0d5a 09       		.uleb128 0x9
 4084 0d5b 31440000 		.4byte	.LASF419
 4085 0d5f 9701     		.2byte	0x197
 4086 0d61 09       		.uleb128 0x9
 4087 0d62 57210000 		.4byte	.LASF420
 4088 0d66 9801     		.2byte	0x198
 4089 0d68 09       		.uleb128 0x9
 4090 0d69 6C350000 		.4byte	.LASF421
 4091 0d6d 9901     		.2byte	0x199
 4092 0d6f 09       		.uleb128 0x9
 4093 0d70 6C1F0000 		.4byte	.LASF422
 4094 0d74 9A01     		.2byte	0x19a
 4095 0d76 09       		.uleb128 0x9
 4096 0d77 68270000 		.4byte	.LASF423
 4097 0d7b 9B01     		.2byte	0x19b
 4098 0d7d 09       		.uleb128 0x9
 4099 0d7e 732E0000 		.4byte	.LASF424
 4100 0d82 9C01     		.2byte	0x19c
 4101 0d84 09       		.uleb128 0x9
 4102 0d85 A6440000 		.4byte	.LASF425
 4103 0d89 9D01     		.2byte	0x19d
 4104 0d8b 09       		.uleb128 0x9
 4105 0d8c E8240000 		.4byte	.LASF426
 4106 0d90 9E01     		.2byte	0x19e
 4107 0d92 09       		.uleb128 0x9
 4108 0d93 FE110000 		.4byte	.LASF427
 4109 0d97 9F01     		.2byte	0x19f
 4110 0d99 09       		.uleb128 0x9
 4111 0d9a 5E100000 		.4byte	.LASF428
 4112 0d9e A001     		.2byte	0x1a0
 4113 0da0 09       		.uleb128 0x9
 4114 0da1 0B010000 		.4byte	.LASF429
 4115 0da5 A101     		.2byte	0x1a1
 4116 0da7 09       		.uleb128 0x9
 4117 0da8 00000000 		.4byte	.LASF430
 4118 0dac A201     		.2byte	0x1a2
 4119 0dae 09       		.uleb128 0x9
 4120 0daf F2440000 		.4byte	.LASF431
 4121 0db3 A301     		.2byte	0x1a3
 4122 0db5 09       		.uleb128 0x9
 4123 0db6 012F0000 		.4byte	.LASF432
 4124 0dba A401     		.2byte	0x1a4
 4125 0dbc 09       		.uleb128 0x9
 4126 0dbd 71400000 		.4byte	.LASF433
 4127 0dc1 A501     		.2byte	0x1a5
 4128 0dc3 09       		.uleb128 0x9
 4129 0dc4 1C220000 		.4byte	.LASF434
 4130 0dc8 A601     		.2byte	0x1a6
 4131 0dca 09       		.uleb128 0x9
 4132 0dcb 03090000 		.4byte	.LASF435
 4133 0dcf A701     		.2byte	0x1a7
 4134 0dd1 09       		.uleb128 0x9
 4135 0dd2 D91C0000 		.4byte	.LASF436
 4136 0dd6 A801     		.2byte	0x1a8
 4137 0dd8 09       		.uleb128 0x9
ARM GAS  C:\Users\user\AppData\Local\Temp\ccRdimcD.s 			page 93


 4138 0dd9 601C0000 		.4byte	.LASF437
 4139 0ddd A901     		.2byte	0x1a9
 4140 0ddf 09       		.uleb128 0x9
 4141 0de0 37200000 		.4byte	.LASF438
 4142 0de4 AA01     		.2byte	0x1aa
 4143 0de6 09       		.uleb128 0x9
 4144 0de7 95320000 		.4byte	.LASF439
 4145 0deb AB01     		.2byte	0x1ab
 4146 0ded 09       		.uleb128 0x9
 4147 0dee FB290000 		.4byte	.LASF440
 4148 0df2 AC01     		.2byte	0x1ac
 4149 0df4 09       		.uleb128 0x9
 4150 0df5 9F160000 		.4byte	.LASF441
 4151 0df9 AD01     		.2byte	0x1ad
 4152 0dfb 09       		.uleb128 0x9
 4153 0dfc B73B0000 		.4byte	.LASF442
 4154 0e00 AE01     		.2byte	0x1ae
 4155 0e02 09       		.uleb128 0x9
 4156 0e03 1C480000 		.4byte	.LASF443
 4157 0e07 AF01     		.2byte	0x1af
 4158 0e09 09       		.uleb128 0x9
 4159 0e0a 7F020000 		.4byte	.LASF444
 4160 0e0e B001     		.2byte	0x1b0
 4161 0e10 09       		.uleb128 0x9
 4162 0e11 891F0000 		.4byte	.LASF445
 4163 0e15 B101     		.2byte	0x1b1
 4164 0e17 09       		.uleb128 0x9
 4165 0e18 F7470000 		.4byte	.LASF446
 4166 0e1c B201     		.2byte	0x1b2
 4167 0e1e 09       		.uleb128 0x9
 4168 0e1f 6D070000 		.4byte	.LASF447
 4169 0e23 B301     		.2byte	0x1b3
 4170 0e25 09       		.uleb128 0x9
 4171 0e26 E41F0000 		.4byte	.LASF448
 4172 0e2a B401     		.2byte	0x1b4
 4173 0e2c 09       		.uleb128 0x9
 4174 0e2d 5C1D0000 		.4byte	.LASF449
 4175 0e31 B501     		.2byte	0x1b5
 4176 0e33 09       		.uleb128 0x9
 4177 0e34 8F070000 		.4byte	.LASF450
 4178 0e38 B601     		.2byte	0x1b6
 4179 0e3a 09       		.uleb128 0x9
 4180 0e3b 20070000 		.4byte	.LASF451
 4181 0e3f B701     		.2byte	0x1b7
 4182 0e41 09       		.uleb128 0x9
 4183 0e42 0D150000 		.4byte	.LASF452
 4184 0e46 B801     		.2byte	0x1b8
 4185 0e48 09       		.uleb128 0x9
 4186 0e49 8B350000 		.4byte	.LASF453
 4187 0e4d B901     		.2byte	0x1b9
 4188 0e4f 09       		.uleb128 0x9
 4189 0e50 B4180000 		.4byte	.LASF454
 4190 0e54 BA01     		.2byte	0x1ba
 4191 0e56 09       		.uleb128 0x9
 4192 0e57 75230000 		.4byte	.LASF455
 4193 0e5b BB01     		.2byte	0x1bb
 4194 0e5d 09       		.uleb128 0x9
ARM GAS  C:\Users\user\AppData\Local\Temp\ccRdimcD.s 			page 94


 4195 0e5e E5220000 		.4byte	.LASF456
 4196 0e62 BC01     		.2byte	0x1bc
 4197 0e64 09       		.uleb128 0x9
 4198 0e65 AD1F0000 		.4byte	.LASF457
 4199 0e69 BD01     		.2byte	0x1bd
 4200 0e6b 09       		.uleb128 0x9
 4201 0e6c 0C350000 		.4byte	.LASF458
 4202 0e70 BE01     		.2byte	0x1be
 4203 0e72 09       		.uleb128 0x9
 4204 0e73 C02D0000 		.4byte	.LASF459
 4205 0e77 BF01     		.2byte	0x1bf
 4206 0e79 09       		.uleb128 0x9
 4207 0e7a 5A190000 		.4byte	.LASF460
 4208 0e7e C001     		.2byte	0x1c0
 4209 0e80 09       		.uleb128 0x9
 4210 0e81 B2030000 		.4byte	.LASF461
 4211 0e85 C101     		.2byte	0x1c1
 4212 0e87 09       		.uleb128 0x9
 4213 0e88 980C0000 		.4byte	.LASF462
 4214 0e8c C201     		.2byte	0x1c2
 4215 0e8e 09       		.uleb128 0x9
 4216 0e8f 2F010000 		.4byte	.LASF463
 4217 0e93 C301     		.2byte	0x1c3
 4218 0e95 09       		.uleb128 0x9
 4219 0e96 7E200000 		.4byte	.LASF464
 4220 0e9a C401     		.2byte	0x1c4
 4221 0e9c 09       		.uleb128 0x9
 4222 0e9d 84040000 		.4byte	.LASF465
 4223 0ea1 C501     		.2byte	0x1c5
 4224 0ea3 09       		.uleb128 0x9
 4225 0ea4 66040000 		.4byte	.LASF466
 4226 0ea8 C601     		.2byte	0x1c6
 4227 0eaa 09       		.uleb128 0x9
 4228 0eab FA210000 		.4byte	.LASF467
 4229 0eaf C701     		.2byte	0x1c7
 4230 0eb1 09       		.uleb128 0x9
 4231 0eb2 0C450000 		.4byte	.LASF468
 4232 0eb6 C801     		.2byte	0x1c8
 4233 0eb8 09       		.uleb128 0x9
 4234 0eb9 08110000 		.4byte	.LASF469
 4235 0ebd C901     		.2byte	0x1c9
 4236 0ebf 09       		.uleb128 0x9
 4237 0ec0 1B390000 		.4byte	.LASF470
 4238 0ec4 CA01     		.2byte	0x1ca
 4239 0ec6 09       		.uleb128 0x9
 4240 0ec7 F92B0000 		.4byte	.LASF471
 4241 0ecb CB01     		.2byte	0x1cb
 4242 0ecd 09       		.uleb128 0x9
 4243 0ece 9E090000 		.4byte	.LASF472
 4244 0ed2 CC01     		.2byte	0x1cc
 4245 0ed4 09       		.uleb128 0x9
 4246 0ed5 2C280000 		.4byte	.LASF473
 4247 0ed9 CD01     		.2byte	0x1cd
 4248 0edb 09       		.uleb128 0x9
 4249 0edc 51250000 		.4byte	.LASF474
 4250 0ee0 CE01     		.2byte	0x1ce
 4251 0ee2 09       		.uleb128 0x9
ARM GAS  C:\Users\user\AppData\Local\Temp\ccRdimcD.s 			page 95


 4252 0ee3 5E0B0000 		.4byte	.LASF475
 4253 0ee7 CF01     		.2byte	0x1cf
 4254 0ee9 09       		.uleb128 0x9
 4255 0eea 17290000 		.4byte	.LASF476
 4256 0eee D001     		.2byte	0x1d0
 4257 0ef0 09       		.uleb128 0x9
 4258 0ef1 843E0000 		.4byte	.LASF477
 4259 0ef5 D101     		.2byte	0x1d1
 4260 0ef7 09       		.uleb128 0x9
 4261 0ef8 EE320000 		.4byte	.LASF478
 4262 0efc D201     		.2byte	0x1d2
 4263 0efe 09       		.uleb128 0x9
 4264 0eff 94130000 		.4byte	.LASF479
 4265 0f03 D301     		.2byte	0x1d3
 4266 0f05 09       		.uleb128 0x9
 4267 0f06 760A0000 		.4byte	.LASF480
 4268 0f0a D401     		.2byte	0x1d4
 4269 0f0c 09       		.uleb128 0x9
 4270 0f0d 8D0D0000 		.4byte	.LASF481
 4271 0f11 D501     		.2byte	0x1d5
 4272 0f13 09       		.uleb128 0x9
 4273 0f14 BB1B0000 		.4byte	.LASF482
 4274 0f18 D601     		.2byte	0x1d6
 4275 0f1a 09       		.uleb128 0x9
 4276 0f1b 88460000 		.4byte	.LASF483
 4277 0f1f D701     		.2byte	0x1d7
 4278 0f21 09       		.uleb128 0x9
 4279 0f22 C6260000 		.4byte	.LASF484
 4280 0f26 D801     		.2byte	0x1d8
 4281 0f28 09       		.uleb128 0x9
 4282 0f29 6A3A0000 		.4byte	.LASF485
 4283 0f2d D901     		.2byte	0x1d9
 4284 0f2f 09       		.uleb128 0x9
 4285 0f30 93310000 		.4byte	.LASF486
 4286 0f34 DA01     		.2byte	0x1da
 4287 0f36 09       		.uleb128 0x9
 4288 0f37 AF210000 		.4byte	.LASF487
 4289 0f3b DB01     		.2byte	0x1db
 4290 0f3d 09       		.uleb128 0x9
 4291 0f3e 90030000 		.4byte	.LASF488
 4292 0f42 DC01     		.2byte	0x1dc
 4293 0f44 09       		.uleb128 0x9
 4294 0f45 EB0B0000 		.4byte	.LASF489
 4295 0f49 DD01     		.2byte	0x1dd
 4296 0f4b 09       		.uleb128 0x9
 4297 0f4c E43C0000 		.4byte	.LASF490
 4298 0f50 DE01     		.2byte	0x1de
 4299 0f52 09       		.uleb128 0x9
 4300 0f53 86000000 		.4byte	.LASF491
 4301 0f57 DF01     		.2byte	0x1df
 4302 0f59 09       		.uleb128 0x9
 4303 0f5a AD2A0000 		.4byte	.LASF492
 4304 0f5e E001     		.2byte	0x1e0
 4305 0f60 09       		.uleb128 0x9
 4306 0f61 FF1B0000 		.4byte	.LASF493
 4307 0f65 E101     		.2byte	0x1e1
 4308 0f67 09       		.uleb128 0x9
ARM GAS  C:\Users\user\AppData\Local\Temp\ccRdimcD.s 			page 96


 4309 0f68 BD000000 		.4byte	.LASF494
 4310 0f6c E201     		.2byte	0x1e2
 4311 0f6e 09       		.uleb128 0x9
 4312 0f6f E9200000 		.4byte	.LASF495
 4313 0f73 E301     		.2byte	0x1e3
 4314 0f75 09       		.uleb128 0x9
 4315 0f76 A22E0000 		.4byte	.LASF496
 4316 0f7a E401     		.2byte	0x1e4
 4317 0f7c 09       		.uleb128 0x9
 4318 0f7d 18310000 		.4byte	.LASF497
 4319 0f81 E501     		.2byte	0x1e5
 4320 0f83 09       		.uleb128 0x9
 4321 0f84 7C010000 		.4byte	.LASF498
 4322 0f88 E601     		.2byte	0x1e6
 4323 0f8a 09       		.uleb128 0x9
 4324 0f8b D0310000 		.4byte	.LASF499
 4325 0f8f E701     		.2byte	0x1e7
 4326 0f91 09       		.uleb128 0x9
 4327 0f92 510A0000 		.4byte	.LASF500
 4328 0f96 E801     		.2byte	0x1e8
 4329 0f98 09       		.uleb128 0x9
 4330 0f99 4E2D0000 		.4byte	.LASF501
 4331 0f9d E901     		.2byte	0x1e9
 4332 0f9f 09       		.uleb128 0x9
 4333 0fa0 F20A0000 		.4byte	.LASF502
 4334 0fa4 EA01     		.2byte	0x1ea
 4335 0fa6 09       		.uleb128 0x9
 4336 0fa7 AD2B0000 		.4byte	.LASF503
 4337 0fab EB01     		.2byte	0x1eb
 4338 0fad 09       		.uleb128 0x9
 4339 0fae 073B0000 		.4byte	.LASF504
 4340 0fb2 EC01     		.2byte	0x1ec
 4341 0fb4 09       		.uleb128 0x9
 4342 0fb5 031F0000 		.4byte	.LASF505
 4343 0fb9 ED01     		.2byte	0x1ed
 4344 0fbb 09       		.uleb128 0x9
 4345 0fbc A1100000 		.4byte	.LASF506
 4346 0fc0 EE01     		.2byte	0x1ee
 4347 0fc2 09       		.uleb128 0x9
 4348 0fc3 F13D0000 		.4byte	.LASF507
 4349 0fc7 EF01     		.2byte	0x1ef
 4350 0fc9 09       		.uleb128 0x9
 4351 0fca F7120000 		.4byte	.LASF508
 4352 0fce F001     		.2byte	0x1f0
 4353 0fd0 09       		.uleb128 0x9
 4354 0fd1 85220000 		.4byte	.LASF509
 4355 0fd5 F101     		.2byte	0x1f1
 4356 0fd7 09       		.uleb128 0x9
 4357 0fd8 50180000 		.4byte	.LASF510
 4358 0fdc F201     		.2byte	0x1f2
 4359 0fde 09       		.uleb128 0x9
 4360 0fdf 75440000 		.4byte	.LASF511
 4361 0fe3 F301     		.2byte	0x1f3
 4362 0fe5 09       		.uleb128 0x9
 4363 0fe6 AA150000 		.4byte	.LASF512
 4364 0fea F401     		.2byte	0x1f4
 4365 0fec 09       		.uleb128 0x9
ARM GAS  C:\Users\user\AppData\Local\Temp\ccRdimcD.s 			page 97


 4366 0fed D2140000 		.4byte	.LASF513
 4367 0ff1 F501     		.2byte	0x1f5
 4368 0ff3 09       		.uleb128 0x9
 4369 0ff4 88330000 		.4byte	.LASF514
 4370 0ff8 F601     		.2byte	0x1f6
 4371 0ffa 09       		.uleb128 0x9
 4372 0ffb 2A3B0000 		.4byte	.LASF515
 4373 0fff F701     		.2byte	0x1f7
 4374 1001 09       		.uleb128 0x9
 4375 1002 3B370000 		.4byte	.LASF516
 4376 1006 F801     		.2byte	0x1f8
 4377 1008 09       		.uleb128 0x9
 4378 1009 E1370000 		.4byte	.LASF517
 4379 100d F901     		.2byte	0x1f9
 4380 100f 09       		.uleb128 0x9
 4381 1010 ED230000 		.4byte	.LASF518
 4382 1014 FA01     		.2byte	0x1fa
 4383 1016 09       		.uleb128 0x9
 4384 1017 FD300000 		.4byte	.LASF519
 4385 101b FB01     		.2byte	0x1fb
 4386 101d 09       		.uleb128 0x9
 4387 101e 98170000 		.4byte	.LASF520
 4388 1022 FC01     		.2byte	0x1fc
 4389 1024 09       		.uleb128 0x9
 4390 1025 283F0000 		.4byte	.LASF521
 4391 1029 FD01     		.2byte	0x1fd
 4392 102b 09       		.uleb128 0x9
 4393 102c 7D1E0000 		.4byte	.LASF522
 4394 1030 FE01     		.2byte	0x1fe
 4395 1032 09       		.uleb128 0x9
 4396 1033 F4310000 		.4byte	.LASF523
 4397 1037 FF01     		.2byte	0x1ff
 4398 1039 09       		.uleb128 0x9
 4399 103a D3120000 		.4byte	.LASF524
 4400 103e 0002     		.2byte	0x200
 4401 1040 09       		.uleb128 0x9
 4402 1041 2B3E0000 		.4byte	.LASF525
 4403 1045 0102     		.2byte	0x201
 4404 1047 09       		.uleb128 0x9
 4405 1048 E90C0000 		.4byte	.LASF526
 4406 104c 0202     		.2byte	0x202
 4407 104e 09       		.uleb128 0x9
 4408 104f D5380000 		.4byte	.LASF527
 4409 1053 0302     		.2byte	0x203
 4410 1055 09       		.uleb128 0x9
 4411 1056 63330000 		.4byte	.LASF528
 4412 105a 0402     		.2byte	0x204
 4413 105c 09       		.uleb128 0x9
 4414 105d 6F320000 		.4byte	.LASF529
 4415 1061 0502     		.2byte	0x205
 4416 1063 09       		.uleb128 0x9
 4417 1064 44120000 		.4byte	.LASF530
 4418 1068 0602     		.2byte	0x206
 4419 106a 09       		.uleb128 0x9
 4420 106b B7130000 		.4byte	.LASF531
 4421 106f 0702     		.2byte	0x207
 4422 1071 09       		.uleb128 0x9
ARM GAS  C:\Users\user\AppData\Local\Temp\ccRdimcD.s 			page 98


 4423 1072 8C050000 		.4byte	.LASF532
 4424 1076 0802     		.2byte	0x208
 4425 1078 09       		.uleb128 0x9
 4426 1079 D4130000 		.4byte	.LASF533
 4427 107d 0902     		.2byte	0x209
 4428 107f 09       		.uleb128 0x9
 4429 1080 AD420000 		.4byte	.LASF534
 4430 1084 0A02     		.2byte	0x20a
 4431 1086 09       		.uleb128 0x9
 4432 1087 CA050000 		.4byte	.LASF535
 4433 108b 0B02     		.2byte	0x20b
 4434 108d 09       		.uleb128 0x9
 4435 108e 35310000 		.4byte	.LASF536
 4436 1092 0C02     		.2byte	0x20c
 4437 1094 09       		.uleb128 0x9
 4438 1095 66460000 		.4byte	.LASF537
 4439 1099 0D02     		.2byte	0x20d
 4440 109b 09       		.uleb128 0x9
 4441 109c 5C020000 		.4byte	.LASF538
 4442 10a0 0E02     		.2byte	0x20e
 4443 10a2 09       		.uleb128 0x9
 4444 10a3 A9070000 		.4byte	.LASF539
 4445 10a7 0F02     		.2byte	0x20f
 4446 10a9 09       		.uleb128 0x9
 4447 10aa 39150000 		.4byte	.LASF540
 4448 10ae 1002     		.2byte	0x210
 4449 10b0 09       		.uleb128 0x9
 4450 10b1 502E0000 		.4byte	.LASF541
 4451 10b5 1102     		.2byte	0x211
 4452 10b7 09       		.uleb128 0x9
 4453 10b8 85190000 		.4byte	.LASF542
 4454 10bc 1202     		.2byte	0x212
 4455 10be 09       		.uleb128 0x9
 4456 10bf 5B3C0000 		.4byte	.LASF543
 4457 10c3 1302     		.2byte	0x213
 4458 10c5 09       		.uleb128 0x9
 4459 10c6 A4080000 		.4byte	.LASF544
 4460 10ca 1402     		.2byte	0x214
 4461 10cc 09       		.uleb128 0x9
 4462 10cd CA360000 		.4byte	.LASF545
 4463 10d1 1502     		.2byte	0x215
 4464 10d3 09       		.uleb128 0x9
 4465 10d4 74180000 		.4byte	.LASF546
 4466 10d8 1602     		.2byte	0x216
 4467 10da 09       		.uleb128 0x9
 4468 10db 72140000 		.4byte	.LASF547
 4469 10df 1702     		.2byte	0x217
 4470 10e1 09       		.uleb128 0x9
 4471 10e2 A2470000 		.4byte	.LASF548
 4472 10e6 1802     		.2byte	0x218
 4473 10e8 09       		.uleb128 0x9
 4474 10e9 DC460000 		.4byte	.LASF549
 4475 10ed 1902     		.2byte	0x219
 4476 10ef 09       		.uleb128 0x9
 4477 10f0 A3260000 		.4byte	.LASF550
 4478 10f4 1A02     		.2byte	0x21a
 4479 10f6 09       		.uleb128 0x9
ARM GAS  C:\Users\user\AppData\Local\Temp\ccRdimcD.s 			page 99


 4480 10f7 51310000 		.4byte	.LASF551
 4481 10fb 1B02     		.2byte	0x21b
 4482 10fd 09       		.uleb128 0x9
 4483 10fe B21D0000 		.4byte	.LASF552
 4484 1102 1C02     		.2byte	0x21c
 4485 1104 09       		.uleb128 0x9
 4486 1105 09230000 		.4byte	.LASF553
 4487 1109 1D02     		.2byte	0x21d
 4488 110b 09       		.uleb128 0x9
 4489 110c 6F130000 		.4byte	.LASF554
 4490 1110 1E02     		.2byte	0x21e
 4491 1112 09       		.uleb128 0x9
 4492 1113 380B0000 		.4byte	.LASF555
 4493 1117 1F02     		.2byte	0x21f
 4494 1119 09       		.uleb128 0x9
 4495 111a A8220000 		.4byte	.LASF556
 4496 111e 2002     		.2byte	0x220
 4497 1120 09       		.uleb128 0x9
 4498 1121 CE3F0000 		.4byte	.LASF557
 4499 1125 2102     		.2byte	0x221
 4500 1127 09       		.uleb128 0x9
 4501 1128 3E390000 		.4byte	.LASF558
 4502 112c 2202     		.2byte	0x222
 4503 112e 09       		.uleb128 0x9
 4504 112f AD2F0000 		.4byte	.LASF559
 4505 1133 2302     		.2byte	0x223
 4506 1135 09       		.uleb128 0x9
 4507 1136 0C400000 		.4byte	.LASF560
 4508 113a 2402     		.2byte	0x224
 4509 113c 09       		.uleb128 0x9
 4510 113d 65160000 		.4byte	.LASF561
 4511 1141 2502     		.2byte	0x225
 4512 1143 09       		.uleb128 0x9
 4513 1144 4F360000 		.4byte	.LASF562
 4514 1148 2602     		.2byte	0x226
 4515 114a 09       		.uleb128 0x9
 4516 114b CD070000 		.4byte	.LASF563
 4517 114f 2702     		.2byte	0x227
 4518 1151 09       		.uleb128 0x9
 4519 1152 51440000 		.4byte	.LASF564
 4520 1156 2802     		.2byte	0x228
 4521 1158 09       		.uleb128 0x9
 4522 1159 033F0000 		.4byte	.LASF565
 4523 115d 2902     		.2byte	0x229
 4524 115f 09       		.uleb128 0x9
 4525 1160 F5330000 		.4byte	.LASF566
 4526 1164 2A02     		.2byte	0x22a
 4527 1166 09       		.uleb128 0x9
 4528 1167 D61D0000 		.4byte	.LASF567
 4529 116b 2B02     		.2byte	0x22b
 4530 116d 09       		.uleb128 0x9
 4531 116e A9190000 		.4byte	.LASF568
 4532 1172 2C02     		.2byte	0x22c
 4533 1174 09       		.uleb128 0x9
 4534 1175 BD290000 		.4byte	.LASF569
 4535 1179 2D02     		.2byte	0x22d
 4536 117b 09       		.uleb128 0x9
ARM GAS  C:\Users\user\AppData\Local\Temp\ccRdimcD.s 			page 100


 4537 117c DF2E0000 		.4byte	.LASF570
 4538 1180 2E02     		.2byte	0x22e
 4539 1182 09       		.uleb128 0x9
 4540 1183 C9210000 		.4byte	.LASF571
 4541 1187 2F02     		.2byte	0x22f
 4542 1189 09       		.uleb128 0x9
 4543 118a F91D0000 		.4byte	.LASF572
 4544 118e 3002     		.2byte	0x230
 4545 1190 09       		.uleb128 0x9
 4546 1191 1E0C0000 		.4byte	.LASF573
 4547 1195 00E0     		.2byte	0xe000
 4548 1197 00       		.byte	0
 4549 1198 07       		.uleb128 0x7
 4550 1199 01       		.byte	0x1
 4551 119a 2C000000 		.4byte	0x2c
 4552 119e 0B       		.byte	0xb
 4553 119f A808     		.2byte	0x8a8
 4554 11a1 C4110000 		.4byte	0x11c4
 4555 11a5 08       		.uleb128 0x8
 4556 11a6 E1190000 		.4byte	.LASF574
 4557 11aa 00       		.byte	0
 4558 11ab 08       		.uleb128 0x8
 4559 11ac 433F0000 		.4byte	.LASF575
 4560 11b0 01       		.byte	0x1
 4561 11b1 08       		.uleb128 0x8
 4562 11b2 B7120000 		.4byte	.LASF576
 4563 11b6 02       		.byte	0x2
 4564 11b7 08       		.uleb128 0x8
 4565 11b8 BE020000 		.4byte	.LASF577
 4566 11bc 03       		.byte	0x3
 4567 11bd 08       		.uleb128 0x8
 4568 11be 641E0000 		.4byte	.LASF578
 4569 11c2 04       		.byte	0x4
 4570 11c3 00       		.byte	0
 4571 11c4 04       		.uleb128 0x4
 4572 11c5 EC210000 		.4byte	.LASF579
 4573 11c9 0B       		.byte	0xb
 4574 11ca B608     		.2byte	0x8b6
 4575 11cc 98110000 		.4byte	0x1198
 4576 11d0 0F       		.uleb128 0xf
 4577 11d1 01       		.byte	0x1
 4578 11d2 2C000000 		.4byte	0x2c
 4579 11d6 0C       		.byte	0xc
 4580 11d7 21       		.byte	0x21
 4581 11d8 01120000 		.4byte	0x1201
 4582 11dc 08       		.uleb128 0x8
 4583 11dd 9C0B0000 		.4byte	.LASF580
 4584 11e1 00       		.byte	0
 4585 11e2 08       		.uleb128 0x8
 4586 11e3 5A260000 		.4byte	.LASF581
 4587 11e7 01       		.byte	0x1
 4588 11e8 08       		.uleb128 0x8
 4589 11e9 013C0000 		.4byte	.LASF582
 4590 11ed 02       		.byte	0x2
 4591 11ee 08       		.uleb128 0x8
 4592 11ef 552B0000 		.4byte	.LASF583
 4593 11f3 03       		.byte	0x3
ARM GAS  C:\Users\user\AppData\Local\Temp\ccRdimcD.s 			page 101


 4594 11f4 08       		.uleb128 0x8
 4595 11f5 BF3C0000 		.4byte	.LASF584
 4596 11f9 04       		.byte	0x4
 4597 11fa 08       		.uleb128 0x8
 4598 11fb B90B0000 		.4byte	.LASF585
 4599 11ff 05       		.byte	0x5
 4600 1200 00       		.byte	0
 4601 1201 15       		.uleb128 0x15
 4602 1202 641B0000 		.4byte	.LASF586
 4603 1206 0C       		.byte	0xc
 4604 1207 28       		.byte	0x28
 4605 1208 D0110000 		.4byte	0x11d0
 4606 120c 16       		.uleb128 0x16
 4607 120d 9A0A0000 		.4byte	.LASF591
 4608 1211 01       		.byte	0x1
 4609 1212 34       		.byte	0x34
 4610 1213 00000000 		.4byte	.LFB36
 4611 1217 A4050000 		.4byte	.LFE36-.LFB36
 4612 121b 01       		.uleb128 0x1
 4613 121c 9C       		.byte	0x9c
 4614 121d 7E120000 		.4byte	0x127e
 4615 1221 17       		.uleb128 0x17
 4616 1222 A9000000 		.4byte	.LASF587
 4617 1226 01       		.byte	0x1
 4618 1227 34       		.byte	0x34
 4619 1228 83000000 		.4byte	0x83
 4620 122c 02       		.uleb128 0x2
 4621 122d 91       		.byte	0x91
 4622 122e 5C       		.sleb128 -36
 4623 122f 17       		.uleb128 0x17
 4624 1230 472F0000 		.4byte	.LASF588
 4625 1234 01       		.byte	0x1
 4626 1235 34       		.byte	0x34
 4627 1236 CF000000 		.4byte	0xcf
 4628 123a 02       		.uleb128 0x2
 4629 123b 91       		.byte	0x91
 4630 123c 58       		.sleb128 -40
 4631 123d 18       		.uleb128 0x18
 4632 123e 3B320000 		.4byte	.LASF589
 4633 1242 01       		.byte	0x1
 4634 1243 36       		.byte	0x36
 4635 1244 7E120000 		.4byte	0x127e
 4636 1248 02       		.uleb128 0x2
 4637 1249 91       		.byte	0x91
 4638 124a 6C       		.sleb128 -20
 4639 124b 19       		.uleb128 0x19
 4640 124c 22000000 		.4byte	.LBB2
 4641 1250 3C050000 		.4byte	.LBE2-.LBB2
 4642 1254 1A       		.uleb128 0x1a
 4643 1255 75280000 		.4byte	.LASF590
 4644 1259 01       		.byte	0x1
 4645 125a 4C01     		.2byte	0x14c
 4646 125c 84120000 		.4byte	0x1284
 4647 1260 02       		.uleb128 0x2
 4648 1261 91       		.byte	0x91
 4649 1262 64       		.sleb128 -28
 4650 1263 19       		.uleb128 0x19
ARM GAS  C:\Users\user\AppData\Local\Temp\ccRdimcD.s 			page 102


 4651 1264 CA040000 		.4byte	.LBB3
 4652 1268 14000000 		.4byte	.LBE3-.LBB3
 4653 126c 1A       		.uleb128 0x1a
 4654 126d 75280000 		.4byte	.LASF590
 4655 1271 01       		.byte	0x1
 4656 1272 3301     		.2byte	0x133
 4657 1274 84120000 		.4byte	0x1284
 4658 1278 02       		.uleb128 0x2
 4659 1279 91       		.byte	0x91
 4660 127a 68       		.sleb128 -24
 4661 127b 00       		.byte	0
 4662 127c 00       		.byte	0
 4663 127d 00       		.byte	0
 4664 127e 0E       		.uleb128 0xe
 4665 127f 04       		.byte	0x4
 4666 1280 8D050000 		.4byte	0x58d
 4667 1284 0E       		.uleb128 0xe
 4668 1285 04       		.byte	0x4
 4669 1286 4B080000 		.4byte	0x84b
 4670 128a 1B       		.uleb128 0x1b
 4671 128b 07200000 		.4byte	.LASF592
 4672 128f 01       		.byte	0x1
 4673 1290 7A01     		.2byte	0x17a
 4674 1292 00000000 		.4byte	.LFB37
 4675 1296 00010000 		.4byte	.LFE37-.LFB37
 4676 129a 01       		.uleb128 0x1
 4677 129b 9C       		.byte	0x9c
 4678 129c CF120000 		.4byte	0x12cf
 4679 12a0 1C       		.uleb128 0x1c
 4680 12a1 330B0000 		.4byte	.LASF240
 4681 12a5 01       		.byte	0x1
 4682 12a6 7A01     		.2byte	0x17a
 4683 12a8 ED060000 		.4byte	0x6ed
 4684 12ac 03       		.uleb128 0x3
 4685 12ad 91       		.byte	0x91
 4686 12ae B07F     		.sleb128 -80
 4687 12b0 1C       		.uleb128 0x1c
 4688 12b1 D12A0000 		.4byte	.LASF241
 4689 12b5 01       		.byte	0x1
 4690 12b6 7A01     		.2byte	0x17a
 4691 12b8 6B000000 		.4byte	0x6b
 4692 12bc 02       		.uleb128 0x2
 4693 12bd 91       		.byte	0x91
 4694 12be 00       		.sleb128 0
 4695 12bf 1A       		.uleb128 0x1a
 4696 12c0 9B290000 		.4byte	.LASF593
 4697 12c4 01       		.byte	0x1
 4698 12c5 7B01     		.2byte	0x17b
 4699 12c7 CF120000 		.4byte	0x12cf
 4700 12cb 02       		.uleb128 0x2
 4701 12cc 91       		.byte	0x91
 4702 12cd 40       		.sleb128 -64
 4703 12ce 00       		.byte	0
 4704 12cf 0C       		.uleb128 0xc
 4705 12d0 A9000000 		.4byte	0xa9
 4706 12d4 DF120000 		.4byte	0x12df
 4707 12d8 0D       		.uleb128 0xd
ARM GAS  C:\Users\user\AppData\Local\Temp\ccRdimcD.s 			page 103


 4708 12d9 C8000000 		.4byte	0xc8
 4709 12dd 24       		.byte	0x24
 4710 12de 00       		.byte	0
 4711 12df 1B       		.uleb128 0x1b
 4712 12e0 A1480000 		.4byte	.LASF594
 4713 12e4 01       		.byte	0x1
 4714 12e5 8C01     		.2byte	0x18c
 4715 12e7 00000000 		.4byte	.LFB38
 4716 12eb F4000000 		.4byte	.LFE38-.LFB38
 4717 12ef 01       		.uleb128 0x1
 4718 12f0 9C       		.byte	0x9c
 4719 12f1 16130000 		.4byte	0x1316
 4720 12f5 1C       		.uleb128 0x1c
 4721 12f6 7D030000 		.4byte	.LASF595
 4722 12fa 01       		.byte	0x1
 4723 12fb 8C01     		.2byte	0x18c
 4724 12fd 16130000 		.4byte	0x1316
 4725 1301 03       		.uleb128 0x3
 4726 1302 91       		.byte	0x91
 4727 1303 FC7E     		.sleb128 -132
 4728 1305 1A       		.uleb128 0x1a
 4729 1306 11330000 		.4byte	.LASF596
 4730 130a 01       		.byte	0x1
 4731 130b 8D01     		.2byte	0x18d
 4732 130d 21130000 		.4byte	0x1321
 4733 1311 03       		.uleb128 0x3
 4734 1312 91       		.byte	0x91
 4735 1313 847F     		.sleb128 -124
 4736 1315 00       		.byte	0
 4737 1316 0E       		.uleb128 0xe
 4738 1317 04       		.byte	0x4
 4739 1318 1C130000 		.4byte	0x131c
 4740 131c 1D       		.uleb128 0x1d
 4741 131d 4B080000 		.4byte	0x84b
 4742 1321 0C       		.uleb128 0xc
 4743 1322 A9000000 		.4byte	0xa9
 4744 1326 31130000 		.4byte	0x1331
 4745 132a 0D       		.uleb128 0xd
 4746 132b C8000000 		.4byte	0xc8
 4747 132f 63       		.byte	0x63
 4748 1330 00       		.byte	0
 4749 1331 1B       		.uleb128 0x1b
 4750 1332 4A320000 		.4byte	.LASF597
 4751 1336 01       		.byte	0x1
 4752 1337 A801     		.2byte	0x1a8
 4753 1339 00000000 		.4byte	.LFB39
 4754 133d 34000000 		.4byte	.LFE39-.LFB39
 4755 1341 01       		.uleb128 0x1
 4756 1342 9C       		.byte	0x9c
 4757 1343 5A130000 		.4byte	0x135a
 4758 1347 1E       		.uleb128 0x1e
 4759 1348 6C656400 		.ascii	"led\000"
 4760 134c 01       		.byte	0x1
 4761 134d AA01     		.2byte	0x1aa
 4762 134f 6B000000 		.4byte	0x6b
 4763 1353 05       		.uleb128 0x5
 4764 1354 03       		.byte	0x3
ARM GAS  C:\Users\user\AppData\Local\Temp\ccRdimcD.s 			page 104


 4765 1355 00000000 		.4byte	led.8726
 4766 1359 00       		.byte	0
 4767 135a 1F       		.uleb128 0x1f
 4768 135b 27090000 		.4byte	.LASF619
 4769 135f 01       		.byte	0x1
 4770 1360 C601     		.2byte	0x1c6
 4771 1362 00000000 		.4byte	.LFB40
 4772 1366 9C000000 		.4byte	.LFE40-.LFB40
 4773 136a 01       		.uleb128 0x1
 4774 136b 9C       		.byte	0x9c
 4775 136c 8F130000 		.4byte	0x138f
 4776 1370 1A       		.uleb128 0x1a
 4777 1371 30020000 		.4byte	.LASF598
 4778 1375 01       		.byte	0x1
 4779 1376 C801     		.2byte	0x1c8
 4780 1378 A6030000 		.4byte	0x3a6
 4781 137c 02       		.uleb128 0x2
 4782 137d 91       		.byte	0x91
 4783 137e 6F       		.sleb128 -17
 4784 137f 1A       		.uleb128 0x1a
 4785 1380 F8380000 		.4byte	.LASF599
 4786 1384 01       		.byte	0x1
 4787 1385 C901     		.2byte	0x1c9
 4788 1387 6B000000 		.4byte	0x6b
 4789 138b 02       		.uleb128 0x2
 4790 138c 91       		.byte	0x91
 4791 138d 6E       		.sleb128 -18
 4792 138e 00       		.byte	0
 4793 138f 20       		.uleb128 0x20
 4794 1390 B70F0000 		.4byte	.LASF600
 4795 1394 01       		.byte	0x1
 4796 1395 0802     		.2byte	0x208
 4797 1397 00000000 		.4byte	.LFB41
 4798 139b E4010000 		.4byte	.LFE41-.LFB41
 4799 139f 01       		.uleb128 0x1
 4800 13a0 9C       		.byte	0x9c
 4801 13a1 21       		.uleb128 0x21
 4802 13a2 ED450000 		.4byte	.LASF601
 4803 13a6 01       		.byte	0x1
 4804 13a7 6D02     		.2byte	0x26d
 4805 13a9 5D000000 		.4byte	0x5d
 4806 13ad 00000000 		.4byte	.LFB42
 4807 13b1 00010000 		.4byte	.LFE42-.LFB42
 4808 13b5 01       		.uleb128 0x1
 4809 13b6 9C       		.byte	0x9c
 4810 13b7 1B       		.uleb128 0x1b
 4811 13b8 2E1B0000 		.4byte	.LASF602
 4812 13bc 01       		.byte	0x1
 4813 13bd CC02     		.2byte	0x2cc
 4814 13bf 00000000 		.4byte	.LFB43
 4815 13c3 98000000 		.4byte	.LFE43-.LFB43
 4816 13c7 01       		.uleb128 0x1
 4817 13c8 9C       		.byte	0x9c
 4818 13c9 EA130000 		.4byte	0x13ea
 4819 13cd 1E       		.uleb128 0x1e
 4820 13ce 6900     		.ascii	"i\000"
 4821 13d0 01       		.byte	0x1
ARM GAS  C:\Users\user\AppData\Local\Temp\ccRdimcD.s 			page 105


 4822 13d1 CE02     		.2byte	0x2ce
 4823 13d3 77000000 		.4byte	0x77
 4824 13d7 02       		.uleb128 0x2
 4825 13d8 91       		.byte	0x91
 4826 13d9 76       		.sleb128 -10
 4827 13da 1A       		.uleb128 0x1a
 4828 13db 76450000 		.4byte	.LASF603
 4829 13df 01       		.byte	0x1
 4830 13e0 CF02     		.2byte	0x2cf
 4831 13e2 24040000 		.4byte	0x424
 4832 13e6 02       		.uleb128 0x2
 4833 13e7 91       		.byte	0x91
 4834 13e8 6C       		.sleb128 -20
 4835 13e9 00       		.byte	0
 4836 13ea 22       		.uleb128 0x22
 4837 13eb 073D0000 		.4byte	.LASF604
 4838 13ef 0D       		.byte	0xd
 4839 13f0 A802     		.2byte	0x2a8
 4840 13f2 33050000 		.4byte	0x533
 4841 13f6 22       		.uleb128 0x22
 4842 13f7 6C3E0000 		.4byte	.LASF605
 4843 13fb 0D       		.byte	0xd
 4844 13fc C402     		.2byte	0x2c4
 4845 13fe 6B000000 		.4byte	0x6b
 4846 1402 22       		.uleb128 0x22
 4847 1403 B2020000 		.4byte	.LASF606
 4848 1407 0B       		.byte	0xb
 4849 1408 160B     		.2byte	0xb16
 4850 140a C4110000 		.4byte	0x11c4
 4851 140e 22       		.uleb128 0x22
 4852 140f BA320000 		.4byte	.LASF607
 4853 1413 0B       		.byte	0xb
 4854 1414 170B     		.2byte	0xb17
 4855 1416 29070000 		.4byte	0x729
 4856 141a 23       		.uleb128 0x23
 4857 141b 3D1A0000 		.4byte	.LASF608
 4858 141f 01       		.byte	0x1
 4859 1420 19       		.byte	0x19
 4860 1421 6E030000 		.4byte	0x36e
 4861 1425 05       		.uleb128 0x5
 4862 1426 03       		.byte	0x3
 4863 1427 00000000 		.4byte	apiResult
 4864 142b 24       		.uleb128 0x24
 4865 142c 6900     		.ascii	"i\000"
 4866 142e 01       		.byte	0x1
 4867 142f 1A       		.byte	0x1a
 4868 1430 77000000 		.4byte	0x77
 4869 1434 05       		.uleb128 0x5
 4870 1435 03       		.byte	0x3
 4871 1436 00000000 		.4byte	i
 4872 143a 23       		.uleb128 0x23
 4873 143b 86030000 		.4byte	.LASF609
 4874 143f 01       		.byte	0x1
 4875 1440 1B       		.byte	0x1b
 4876 1441 01120000 		.4byte	0x1201
 4877 1445 05       		.uleb128 0x5
 4878 1446 03       		.byte	0x3
ARM GAS  C:\Users\user\AppData\Local\Temp\ccRdimcD.s 			page 106


 4879 1447 00000000 		.4byte	authState
 4880 144b 23       		.uleb128 0x23
 4881 144c 99440000 		.4byte	.LASF610
 4882 1450 01       		.byte	0x1
 4883 1451 1C       		.byte	0x1c
 4884 1452 83000000 		.4byte	0x83
 4885 1456 05       		.uleb128 0x5
 4886 1457 03       		.byte	0x3
 4887 1458 00000000 		.4byte	passkeyValue
 4888 145c 23       		.uleb128 0x23
 4889 145d FA160000 		.4byte	.LASF611
 4890 1461 01       		.byte	0x1
 4891 1462 1D       		.byte	0x1d
 4892 1463 83000000 		.4byte	0x83
 4893 1467 05       		.uleb128 0x5
 4894 1468 03       		.byte	0x3
 4895 1469 00000000 		.4byte	passkeyPow
 4896 146d 23       		.uleb128 0x23
 4897 146e B00D0000 		.4byte	.LASF612
 4898 1472 01       		.byte	0x1
 4899 1473 1E       		.byte	0x1e
 4900 1474 6B000000 		.4byte	0x6b
 4901 1478 05       		.uleb128 0x5
 4902 1479 03       		.byte	0x3
 4903 147a 00000000 		.4byte	passkeyCounter
 4904 147e 23       		.uleb128 0x23
 4905 147f BA1A0000 		.4byte	.LASF613
 4906 1483 01       		.byte	0x1
 4907 1484 1F       		.byte	0x1f
 4908 1485 9D000000 		.4byte	0x9d
 4909 1489 05       		.uleb128 0x5
 4910 148a 03       		.byte	0x3
 4911 148b 00000000 		.4byte	command
 4912 148f 23       		.uleb128 0x23
 4913 1490 0F210000 		.4byte	.LASF614
 4914 1494 01       		.byte	0x1
 4915 1495 20       		.byte	0x20
 4916 1496 6B000000 		.4byte	0x6b
 4917 149a 05       		.uleb128 0x5
 4918 149b 03       		.byte	0x3
 4919 149c 00000000 		.4byte	customCommand
 4920 14a0 23       		.uleb128 0x23
 4921 14a1 FC1C0000 		.4byte	.LASF615
 4922 14a5 01       		.byte	0x1
 4923 14a6 21       		.byte	0x21
 4924 14a7 33050000 		.4byte	0x533
 4925 14ab 05       		.uleb128 0x5
 4926 14ac 03       		.byte	0x3
 4927 14ad 00000000 		.4byte	peerAuthInfo
 4928 14b1 00       		.byte	0
 4929              		.section	.debug_abbrev,"",%progbits
 4930              	.Ldebug_abbrev0:
 4931 0000 01       		.uleb128 0x1
 4932 0001 11       		.uleb128 0x11
 4933 0002 01       		.byte	0x1
 4934 0003 25       		.uleb128 0x25
 4935 0004 0E       		.uleb128 0xe
ARM GAS  C:\Users\user\AppData\Local\Temp\ccRdimcD.s 			page 107


 4936 0005 13       		.uleb128 0x13
 4937 0006 0B       		.uleb128 0xb
 4938 0007 03       		.uleb128 0x3
 4939 0008 0E       		.uleb128 0xe
 4940 0009 1B       		.uleb128 0x1b
 4941 000a 0E       		.uleb128 0xe
 4942 000b 55       		.uleb128 0x55
 4943 000c 17       		.uleb128 0x17
 4944 000d 11       		.uleb128 0x11
 4945 000e 01       		.uleb128 0x1
 4946 000f 10       		.uleb128 0x10
 4947 0010 17       		.uleb128 0x17
 4948 0011 00       		.byte	0
 4949 0012 00       		.byte	0
 4950 0013 02       		.uleb128 0x2
 4951 0014 24       		.uleb128 0x24
 4952 0015 00       		.byte	0
 4953 0016 0B       		.uleb128 0xb
 4954 0017 0B       		.uleb128 0xb
 4955 0018 3E       		.uleb128 0x3e
 4956 0019 0B       		.uleb128 0xb
 4957 001a 03       		.uleb128 0x3
 4958 001b 0E       		.uleb128 0xe
 4959 001c 00       		.byte	0
 4960 001d 00       		.byte	0
 4961 001e 03       		.uleb128 0x3
 4962 001f 24       		.uleb128 0x24
 4963 0020 00       		.byte	0
 4964 0021 0B       		.uleb128 0xb
 4965 0022 0B       		.uleb128 0xb
 4966 0023 3E       		.uleb128 0x3e
 4967 0024 0B       		.uleb128 0xb
 4968 0025 03       		.uleb128 0x3
 4969 0026 08       		.uleb128 0x8
 4970 0027 00       		.byte	0
 4971 0028 00       		.byte	0
 4972 0029 04       		.uleb128 0x4
 4973 002a 16       		.uleb128 0x16
 4974 002b 00       		.byte	0
 4975 002c 03       		.uleb128 0x3
 4976 002d 0E       		.uleb128 0xe
 4977 002e 3A       		.uleb128 0x3a
 4978 002f 0B       		.uleb128 0xb
 4979 0030 3B       		.uleb128 0x3b
 4980 0031 05       		.uleb128 0x5
 4981 0032 49       		.uleb128 0x49
 4982 0033 13       		.uleb128 0x13
 4983 0034 00       		.byte	0
 4984 0035 00       		.byte	0
 4985 0036 05       		.uleb128 0x5
 4986 0037 35       		.uleb128 0x35
 4987 0038 00       		.byte	0
 4988 0039 49       		.uleb128 0x49
 4989 003a 13       		.uleb128 0x13
 4990 003b 00       		.byte	0
 4991 003c 00       		.byte	0
 4992 003d 06       		.uleb128 0x6
ARM GAS  C:\Users\user\AppData\Local\Temp\ccRdimcD.s 			page 108


 4993 003e 0F       		.uleb128 0xf
 4994 003f 00       		.byte	0
 4995 0040 0B       		.uleb128 0xb
 4996 0041 0B       		.uleb128 0xb
 4997 0042 00       		.byte	0
 4998 0043 00       		.byte	0
 4999 0044 07       		.uleb128 0x7
 5000 0045 04       		.uleb128 0x4
 5001 0046 01       		.byte	0x1
 5002 0047 0B       		.uleb128 0xb
 5003 0048 0B       		.uleb128 0xb
 5004 0049 49       		.uleb128 0x49
 5005 004a 13       		.uleb128 0x13
 5006 004b 3A       		.uleb128 0x3a
 5007 004c 0B       		.uleb128 0xb
 5008 004d 3B       		.uleb128 0x3b
 5009 004e 05       		.uleb128 0x5
 5010 004f 01       		.uleb128 0x1
 5011 0050 13       		.uleb128 0x13
 5012 0051 00       		.byte	0
 5013 0052 00       		.byte	0
 5014 0053 08       		.uleb128 0x8
 5015 0054 28       		.uleb128 0x28
 5016 0055 00       		.byte	0
 5017 0056 03       		.uleb128 0x3
 5018 0057 0E       		.uleb128 0xe
 5019 0058 1C       		.uleb128 0x1c
 5020 0059 0B       		.uleb128 0xb
 5021 005a 00       		.byte	0
 5022 005b 00       		.byte	0
 5023 005c 09       		.uleb128 0x9
 5024 005d 28       		.uleb128 0x28
 5025 005e 00       		.byte	0
 5026 005f 03       		.uleb128 0x3
 5027 0060 0E       		.uleb128 0xe
 5028 0061 1C       		.uleb128 0x1c
 5029 0062 05       		.uleb128 0x5
 5030 0063 00       		.byte	0
 5031 0064 00       		.byte	0
 5032 0065 0A       		.uleb128 0xa
 5033 0066 13       		.uleb128 0x13
 5034 0067 01       		.byte	0x1
 5035 0068 0B       		.uleb128 0xb
 5036 0069 0B       		.uleb128 0xb
 5037 006a 3A       		.uleb128 0x3a
 5038 006b 0B       		.uleb128 0xb
 5039 006c 3B       		.uleb128 0x3b
 5040 006d 05       		.uleb128 0x5
 5041 006e 01       		.uleb128 0x1
 5042 006f 13       		.uleb128 0x13
 5043 0070 00       		.byte	0
 5044 0071 00       		.byte	0
 5045 0072 0B       		.uleb128 0xb
 5046 0073 0D       		.uleb128 0xd
 5047 0074 00       		.byte	0
 5048 0075 03       		.uleb128 0x3
 5049 0076 0E       		.uleb128 0xe
ARM GAS  C:\Users\user\AppData\Local\Temp\ccRdimcD.s 			page 109


 5050 0077 3A       		.uleb128 0x3a
 5051 0078 0B       		.uleb128 0xb
 5052 0079 3B       		.uleb128 0x3b
 5053 007a 05       		.uleb128 0x5
 5054 007b 49       		.uleb128 0x49
 5055 007c 13       		.uleb128 0x13
 5056 007d 38       		.uleb128 0x38
 5057 007e 0B       		.uleb128 0xb
 5058 007f 00       		.byte	0
 5059 0080 00       		.byte	0
 5060 0081 0C       		.uleb128 0xc
 5061 0082 01       		.uleb128 0x1
 5062 0083 01       		.byte	0x1
 5063 0084 49       		.uleb128 0x49
 5064 0085 13       		.uleb128 0x13
 5065 0086 01       		.uleb128 0x1
 5066 0087 13       		.uleb128 0x13
 5067 0088 00       		.byte	0
 5068 0089 00       		.byte	0
 5069 008a 0D       		.uleb128 0xd
 5070 008b 21       		.uleb128 0x21
 5071 008c 00       		.byte	0
 5072 008d 49       		.uleb128 0x49
 5073 008e 13       		.uleb128 0x13
 5074 008f 2F       		.uleb128 0x2f
 5075 0090 0B       		.uleb128 0xb
 5076 0091 00       		.byte	0
 5077 0092 00       		.byte	0
 5078 0093 0E       		.uleb128 0xe
 5079 0094 0F       		.uleb128 0xf
 5080 0095 00       		.byte	0
 5081 0096 0B       		.uleb128 0xb
 5082 0097 0B       		.uleb128 0xb
 5083 0098 49       		.uleb128 0x49
 5084 0099 13       		.uleb128 0x13
 5085 009a 00       		.byte	0
 5086 009b 00       		.byte	0
 5087 009c 0F       		.uleb128 0xf
 5088 009d 04       		.uleb128 0x4
 5089 009e 01       		.byte	0x1
 5090 009f 0B       		.uleb128 0xb
 5091 00a0 0B       		.uleb128 0xb
 5092 00a1 49       		.uleb128 0x49
 5093 00a2 13       		.uleb128 0x13
 5094 00a3 3A       		.uleb128 0x3a
 5095 00a4 0B       		.uleb128 0xb
 5096 00a5 3B       		.uleb128 0x3b
 5097 00a6 0B       		.uleb128 0xb
 5098 00a7 01       		.uleb128 0x1
 5099 00a8 13       		.uleb128 0x13
 5100 00a9 00       		.byte	0
 5101 00aa 00       		.byte	0
 5102 00ab 10       		.uleb128 0x10
 5103 00ac 17       		.uleb128 0x17
 5104 00ad 01       		.byte	0x1
 5105 00ae 0B       		.uleb128 0xb
 5106 00af 0B       		.uleb128 0xb
ARM GAS  C:\Users\user\AppData\Local\Temp\ccRdimcD.s 			page 110


 5107 00b0 3A       		.uleb128 0x3a
 5108 00b1 0B       		.uleb128 0xb
 5109 00b2 3B       		.uleb128 0x3b
 5110 00b3 05       		.uleb128 0x5
 5111 00b4 01       		.uleb128 0x1
 5112 00b5 13       		.uleb128 0x13
 5113 00b6 00       		.byte	0
 5114 00b7 00       		.byte	0
 5115 00b8 11       		.uleb128 0x11
 5116 00b9 0D       		.uleb128 0xd
 5117 00ba 00       		.byte	0
 5118 00bb 03       		.uleb128 0x3
 5119 00bc 0E       		.uleb128 0xe
 5120 00bd 3A       		.uleb128 0x3a
 5121 00be 0B       		.uleb128 0xb
 5122 00bf 3B       		.uleb128 0x3b
 5123 00c0 05       		.uleb128 0x5
 5124 00c1 49       		.uleb128 0x49
 5125 00c2 13       		.uleb128 0x13
 5126 00c3 00       		.byte	0
 5127 00c4 00       		.byte	0
 5128 00c5 12       		.uleb128 0x12
 5129 00c6 0D       		.uleb128 0xd
 5130 00c7 00       		.byte	0
 5131 00c8 03       		.uleb128 0x3
 5132 00c9 08       		.uleb128 0x8
 5133 00ca 3A       		.uleb128 0x3a
 5134 00cb 0B       		.uleb128 0xb
 5135 00cc 3B       		.uleb128 0x3b
 5136 00cd 05       		.uleb128 0x5
 5137 00ce 49       		.uleb128 0x49
 5138 00cf 13       		.uleb128 0x13
 5139 00d0 38       		.uleb128 0x38
 5140 00d1 0B       		.uleb128 0xb
 5141 00d2 00       		.byte	0
 5142 00d3 00       		.byte	0
 5143 00d4 13       		.uleb128 0x13
 5144 00d5 13       		.uleb128 0x13
 5145 00d6 01       		.byte	0x1
 5146 00d7 0B       		.uleb128 0xb
 5147 00d8 0B       		.uleb128 0xb
 5148 00d9 3A       		.uleb128 0x3a
 5149 00da 0B       		.uleb128 0xb
 5150 00db 3B       		.uleb128 0x3b
 5151 00dc 0B       		.uleb128 0xb
 5152 00dd 01       		.uleb128 0x1
 5153 00de 13       		.uleb128 0x13
 5154 00df 00       		.byte	0
 5155 00e0 00       		.byte	0
 5156 00e1 14       		.uleb128 0x14
 5157 00e2 0D       		.uleb128 0xd
 5158 00e3 00       		.byte	0
 5159 00e4 03       		.uleb128 0x3
 5160 00e5 0E       		.uleb128 0xe
 5161 00e6 3A       		.uleb128 0x3a
 5162 00e7 0B       		.uleb128 0xb
 5163 00e8 3B       		.uleb128 0x3b
ARM GAS  C:\Users\user\AppData\Local\Temp\ccRdimcD.s 			page 111


 5164 00e9 0B       		.uleb128 0xb
 5165 00ea 49       		.uleb128 0x49
 5166 00eb 13       		.uleb128 0x13
 5167 00ec 38       		.uleb128 0x38
 5168 00ed 0B       		.uleb128 0xb
 5169 00ee 00       		.byte	0
 5170 00ef 00       		.byte	0
 5171 00f0 15       		.uleb128 0x15
 5172 00f1 16       		.uleb128 0x16
 5173 00f2 00       		.byte	0
 5174 00f3 03       		.uleb128 0x3
 5175 00f4 0E       		.uleb128 0xe
 5176 00f5 3A       		.uleb128 0x3a
 5177 00f6 0B       		.uleb128 0xb
 5178 00f7 3B       		.uleb128 0x3b
 5179 00f8 0B       		.uleb128 0xb
 5180 00f9 49       		.uleb128 0x49
 5181 00fa 13       		.uleb128 0x13
 5182 00fb 00       		.byte	0
 5183 00fc 00       		.byte	0
 5184 00fd 16       		.uleb128 0x16
 5185 00fe 2E       		.uleb128 0x2e
 5186 00ff 01       		.byte	0x1
 5187 0100 3F       		.uleb128 0x3f
 5188 0101 19       		.uleb128 0x19
 5189 0102 03       		.uleb128 0x3
 5190 0103 0E       		.uleb128 0xe
 5191 0104 3A       		.uleb128 0x3a
 5192 0105 0B       		.uleb128 0xb
 5193 0106 3B       		.uleb128 0x3b
 5194 0107 0B       		.uleb128 0xb
 5195 0108 27       		.uleb128 0x27
 5196 0109 19       		.uleb128 0x19
 5197 010a 11       		.uleb128 0x11
 5198 010b 01       		.uleb128 0x1
 5199 010c 12       		.uleb128 0x12
 5200 010d 06       		.uleb128 0x6
 5201 010e 40       		.uleb128 0x40
 5202 010f 18       		.uleb128 0x18
 5203 0110 9642     		.uleb128 0x2116
 5204 0112 19       		.uleb128 0x19
 5205 0113 01       		.uleb128 0x1
 5206 0114 13       		.uleb128 0x13
 5207 0115 00       		.byte	0
 5208 0116 00       		.byte	0
 5209 0117 17       		.uleb128 0x17
 5210 0118 05       		.uleb128 0x5
 5211 0119 00       		.byte	0
 5212 011a 03       		.uleb128 0x3
 5213 011b 0E       		.uleb128 0xe
 5214 011c 3A       		.uleb128 0x3a
 5215 011d 0B       		.uleb128 0xb
 5216 011e 3B       		.uleb128 0x3b
 5217 011f 0B       		.uleb128 0xb
 5218 0120 49       		.uleb128 0x49
 5219 0121 13       		.uleb128 0x13
 5220 0122 02       		.uleb128 0x2
ARM GAS  C:\Users\user\AppData\Local\Temp\ccRdimcD.s 			page 112


 5221 0123 18       		.uleb128 0x18
 5222 0124 00       		.byte	0
 5223 0125 00       		.byte	0
 5224 0126 18       		.uleb128 0x18
 5225 0127 34       		.uleb128 0x34
 5226 0128 00       		.byte	0
 5227 0129 03       		.uleb128 0x3
 5228 012a 0E       		.uleb128 0xe
 5229 012b 3A       		.uleb128 0x3a
 5230 012c 0B       		.uleb128 0xb
 5231 012d 3B       		.uleb128 0x3b
 5232 012e 0B       		.uleb128 0xb
 5233 012f 49       		.uleb128 0x49
 5234 0130 13       		.uleb128 0x13
 5235 0131 02       		.uleb128 0x2
 5236 0132 18       		.uleb128 0x18
 5237 0133 00       		.byte	0
 5238 0134 00       		.byte	0
 5239 0135 19       		.uleb128 0x19
 5240 0136 0B       		.uleb128 0xb
 5241 0137 01       		.byte	0x1
 5242 0138 11       		.uleb128 0x11
 5243 0139 01       		.uleb128 0x1
 5244 013a 12       		.uleb128 0x12
 5245 013b 06       		.uleb128 0x6
 5246 013c 00       		.byte	0
 5247 013d 00       		.byte	0
 5248 013e 1A       		.uleb128 0x1a
 5249 013f 34       		.uleb128 0x34
 5250 0140 00       		.byte	0
 5251 0141 03       		.uleb128 0x3
 5252 0142 0E       		.uleb128 0xe
 5253 0143 3A       		.uleb128 0x3a
 5254 0144 0B       		.uleb128 0xb
 5255 0145 3B       		.uleb128 0x3b
 5256 0146 05       		.uleb128 0x5
 5257 0147 49       		.uleb128 0x49
 5258 0148 13       		.uleb128 0x13
 5259 0149 02       		.uleb128 0x2
 5260 014a 18       		.uleb128 0x18
 5261 014b 00       		.byte	0
 5262 014c 00       		.byte	0
 5263 014d 1B       		.uleb128 0x1b
 5264 014e 2E       		.uleb128 0x2e
 5265 014f 01       		.byte	0x1
 5266 0150 3F       		.uleb128 0x3f
 5267 0151 19       		.uleb128 0x19
 5268 0152 03       		.uleb128 0x3
 5269 0153 0E       		.uleb128 0xe
 5270 0154 3A       		.uleb128 0x3a
 5271 0155 0B       		.uleb128 0xb
 5272 0156 3B       		.uleb128 0x3b
 5273 0157 05       		.uleb128 0x5
 5274 0158 27       		.uleb128 0x27
 5275 0159 19       		.uleb128 0x19
 5276 015a 11       		.uleb128 0x11
 5277 015b 01       		.uleb128 0x1
ARM GAS  C:\Users\user\AppData\Local\Temp\ccRdimcD.s 			page 113


 5278 015c 12       		.uleb128 0x12
 5279 015d 06       		.uleb128 0x6
 5280 015e 40       		.uleb128 0x40
 5281 015f 18       		.uleb128 0x18
 5282 0160 9642     		.uleb128 0x2116
 5283 0162 19       		.uleb128 0x19
 5284 0163 01       		.uleb128 0x1
 5285 0164 13       		.uleb128 0x13
 5286 0165 00       		.byte	0
 5287 0166 00       		.byte	0
 5288 0167 1C       		.uleb128 0x1c
 5289 0168 05       		.uleb128 0x5
 5290 0169 00       		.byte	0
 5291 016a 03       		.uleb128 0x3
 5292 016b 0E       		.uleb128 0xe
 5293 016c 3A       		.uleb128 0x3a
 5294 016d 0B       		.uleb128 0xb
 5295 016e 3B       		.uleb128 0x3b
 5296 016f 05       		.uleb128 0x5
 5297 0170 49       		.uleb128 0x49
 5298 0171 13       		.uleb128 0x13
 5299 0172 02       		.uleb128 0x2
 5300 0173 18       		.uleb128 0x18
 5301 0174 00       		.byte	0
 5302 0175 00       		.byte	0
 5303 0176 1D       		.uleb128 0x1d
 5304 0177 26       		.uleb128 0x26
 5305 0178 00       		.byte	0
 5306 0179 49       		.uleb128 0x49
 5307 017a 13       		.uleb128 0x13
 5308 017b 00       		.byte	0
 5309 017c 00       		.byte	0
 5310 017d 1E       		.uleb128 0x1e
 5311 017e 34       		.uleb128 0x34
 5312 017f 00       		.byte	0
 5313 0180 03       		.uleb128 0x3
 5314 0181 08       		.uleb128 0x8
 5315 0182 3A       		.uleb128 0x3a
 5316 0183 0B       		.uleb128 0xb
 5317 0184 3B       		.uleb128 0x3b
 5318 0185 05       		.uleb128 0x5
 5319 0186 49       		.uleb128 0x49
 5320 0187 13       		.uleb128 0x13
 5321 0188 02       		.uleb128 0x2
 5322 0189 18       		.uleb128 0x18
 5323 018a 00       		.byte	0
 5324 018b 00       		.byte	0
 5325 018c 1F       		.uleb128 0x1f
 5326 018d 2E       		.uleb128 0x2e
 5327 018e 01       		.byte	0x1
 5328 018f 03       		.uleb128 0x3
 5329 0190 0E       		.uleb128 0xe
 5330 0191 3A       		.uleb128 0x3a
 5331 0192 0B       		.uleb128 0xb
 5332 0193 3B       		.uleb128 0x3b
 5333 0194 05       		.uleb128 0x5
 5334 0195 27       		.uleb128 0x27
ARM GAS  C:\Users\user\AppData\Local\Temp\ccRdimcD.s 			page 114


 5335 0196 19       		.uleb128 0x19
 5336 0197 11       		.uleb128 0x11
 5337 0198 01       		.uleb128 0x1
 5338 0199 12       		.uleb128 0x12
 5339 019a 06       		.uleb128 0x6
 5340 019b 40       		.uleb128 0x40
 5341 019c 18       		.uleb128 0x18
 5342 019d 9642     		.uleb128 0x2116
 5343 019f 19       		.uleb128 0x19
 5344 01a0 01       		.uleb128 0x1
 5345 01a1 13       		.uleb128 0x13
 5346 01a2 00       		.byte	0
 5347 01a3 00       		.byte	0
 5348 01a4 20       		.uleb128 0x20
 5349 01a5 2E       		.uleb128 0x2e
 5350 01a6 00       		.byte	0
 5351 01a7 3F       		.uleb128 0x3f
 5352 01a8 19       		.uleb128 0x19
 5353 01a9 03       		.uleb128 0x3
 5354 01aa 0E       		.uleb128 0xe
 5355 01ab 3A       		.uleb128 0x3a
 5356 01ac 0B       		.uleb128 0xb
 5357 01ad 3B       		.uleb128 0x3b
 5358 01ae 05       		.uleb128 0x5
 5359 01af 27       		.uleb128 0x27
 5360 01b0 19       		.uleb128 0x19
 5361 01b1 11       		.uleb128 0x11
 5362 01b2 01       		.uleb128 0x1
 5363 01b3 12       		.uleb128 0x12
 5364 01b4 06       		.uleb128 0x6
 5365 01b5 40       		.uleb128 0x40
 5366 01b6 18       		.uleb128 0x18
 5367 01b7 9642     		.uleb128 0x2116
 5368 01b9 19       		.uleb128 0x19
 5369 01ba 00       		.byte	0
 5370 01bb 00       		.byte	0
 5371 01bc 21       		.uleb128 0x21
 5372 01bd 2E       		.uleb128 0x2e
 5373 01be 00       		.byte	0
 5374 01bf 3F       		.uleb128 0x3f
 5375 01c0 19       		.uleb128 0x19
 5376 01c1 03       		.uleb128 0x3
 5377 01c2 0E       		.uleb128 0xe
 5378 01c3 3A       		.uleb128 0x3a
 5379 01c4 0B       		.uleb128 0xb
 5380 01c5 3B       		.uleb128 0x3b
 5381 01c6 05       		.uleb128 0x5
 5382 01c7 49       		.uleb128 0x49
 5383 01c8 13       		.uleb128 0x13
 5384 01c9 11       		.uleb128 0x11
 5385 01ca 01       		.uleb128 0x1
 5386 01cb 12       		.uleb128 0x12
 5387 01cc 06       		.uleb128 0x6
 5388 01cd 40       		.uleb128 0x40
 5389 01ce 18       		.uleb128 0x18
 5390 01cf 9642     		.uleb128 0x2116
 5391 01d1 19       		.uleb128 0x19
ARM GAS  C:\Users\user\AppData\Local\Temp\ccRdimcD.s 			page 115


 5392 01d2 00       		.byte	0
 5393 01d3 00       		.byte	0
 5394 01d4 22       		.uleb128 0x22
 5395 01d5 34       		.uleb128 0x34
 5396 01d6 00       		.byte	0
 5397 01d7 03       		.uleb128 0x3
 5398 01d8 0E       		.uleb128 0xe
 5399 01d9 3A       		.uleb128 0x3a
 5400 01da 0B       		.uleb128 0xb
 5401 01db 3B       		.uleb128 0x3b
 5402 01dc 05       		.uleb128 0x5
 5403 01dd 49       		.uleb128 0x49
 5404 01de 13       		.uleb128 0x13
 5405 01df 3F       		.uleb128 0x3f
 5406 01e0 19       		.uleb128 0x19
 5407 01e1 3C       		.uleb128 0x3c
 5408 01e2 19       		.uleb128 0x19
 5409 01e3 00       		.byte	0
 5410 01e4 00       		.byte	0
 5411 01e5 23       		.uleb128 0x23
 5412 01e6 34       		.uleb128 0x34
 5413 01e7 00       		.byte	0
 5414 01e8 03       		.uleb128 0x3
 5415 01e9 0E       		.uleb128 0xe
 5416 01ea 3A       		.uleb128 0x3a
 5417 01eb 0B       		.uleb128 0xb
 5418 01ec 3B       		.uleb128 0x3b
 5419 01ed 0B       		.uleb128 0xb
 5420 01ee 49       		.uleb128 0x49
 5421 01ef 13       		.uleb128 0x13
 5422 01f0 3F       		.uleb128 0x3f
 5423 01f1 19       		.uleb128 0x19
 5424 01f2 02       		.uleb128 0x2
 5425 01f3 18       		.uleb128 0x18
 5426 01f4 00       		.byte	0
 5427 01f5 00       		.byte	0
 5428 01f6 24       		.uleb128 0x24
 5429 01f7 34       		.uleb128 0x34
 5430 01f8 00       		.byte	0
 5431 01f9 03       		.uleb128 0x3
 5432 01fa 08       		.uleb128 0x8
 5433 01fb 3A       		.uleb128 0x3a
 5434 01fc 0B       		.uleb128 0xb
 5435 01fd 3B       		.uleb128 0x3b
 5436 01fe 0B       		.uleb128 0xb
 5437 01ff 49       		.uleb128 0x49
 5438 0200 13       		.uleb128 0x13
 5439 0201 3F       		.uleb128 0x3f
 5440 0202 19       		.uleb128 0x19
 5441 0203 02       		.uleb128 0x2
 5442 0204 18       		.uleb128 0x18
 5443 0205 00       		.byte	0
 5444 0206 00       		.byte	0
 5445 0207 00       		.byte	0
 5446              		.section	.debug_aranges,"",%progbits
 5447 0000 54000000 		.4byte	0x54
 5448 0004 0200     		.2byte	0x2
ARM GAS  C:\Users\user\AppData\Local\Temp\ccRdimcD.s 			page 116


 5449 0006 00000000 		.4byte	.Ldebug_info0
 5450 000a 04       		.byte	0x4
 5451 000b 00       		.byte	0
 5452 000c 0000     		.2byte	0
 5453 000e 0000     		.2byte	0
 5454 0010 00000000 		.4byte	.LFB36
 5455 0014 A4050000 		.4byte	.LFE36-.LFB36
 5456 0018 00000000 		.4byte	.LFB37
 5457 001c 00010000 		.4byte	.LFE37-.LFB37
 5458 0020 00000000 		.4byte	.LFB38
 5459 0024 F4000000 		.4byte	.LFE38-.LFB38
 5460 0028 00000000 		.4byte	.LFB39
 5461 002c 34000000 		.4byte	.LFE39-.LFB39
 5462 0030 00000000 		.4byte	.LFB40
 5463 0034 9C000000 		.4byte	.LFE40-.LFB40
 5464 0038 00000000 		.4byte	.LFB41
 5465 003c E4010000 		.4byte	.LFE41-.LFB41
 5466 0040 00000000 		.4byte	.LFB42
 5467 0044 00010000 		.4byte	.LFE42-.LFB42
 5468 0048 00000000 		.4byte	.LFB43
 5469 004c 98000000 		.4byte	.LFE43-.LFB43
 5470 0050 00000000 		.4byte	0
 5471 0054 00000000 		.4byte	0
 5472              		.section	.debug_ranges,"",%progbits
 5473              	.Ldebug_ranges0:
 5474 0000 00000000 		.4byte	.LFB36
 5475 0004 A4050000 		.4byte	.LFE36
 5476 0008 00000000 		.4byte	.LFB37
 5477 000c 00010000 		.4byte	.LFE37
 5478 0010 00000000 		.4byte	.LFB38
 5479 0014 F4000000 		.4byte	.LFE38
 5480 0018 00000000 		.4byte	.LFB39
 5481 001c 34000000 		.4byte	.LFE39
 5482 0020 00000000 		.4byte	.LFB40
 5483 0024 9C000000 		.4byte	.LFE40
 5484 0028 00000000 		.4byte	.LFB41
 5485 002c E4010000 		.4byte	.LFE41
 5486 0030 00000000 		.4byte	.LFB42
 5487 0034 00010000 		.4byte	.LFE42
 5488 0038 00000000 		.4byte	.LFB43
 5489 003c 98000000 		.4byte	.LFE43
 5490 0040 00000000 		.4byte	0
 5491 0044 00000000 		.4byte	0
 5492              		.section	.debug_line,"",%progbits
 5493              	.Ldebug_line0:
 5494 0000 4C030000 		.section	.debug_str,"MS",%progbits,1
 5494      0200ED00 
 5494      00000201 
 5494      FB0E0D00 
 5494      01010101 
 5495              	.LASF430:
 5496 0000 4359424C 		.ascii	"CYBLE_EVT_HPSS_NOTIFICATION_DISABLED\000"
 5496      455F4556 
 5496      545F4850 
 5496      53535F4E 
 5496      4F544946 
 5497              	.LASF127:
ARM GAS  C:\Users\user\AppData\Local\Temp\ccRdimcD.s 			page 117


 5498 0025 4359424C 		.ascii	"CYBLE_BLESS_SLEEP\000"
 5498      455F424C 
 5498      4553535F 
 5498      534C4545 
 5498      5000
 5499              	.LASF105:
 5500 0037 4359424C 		.ascii	"CYBLE_ERROR_L2CAP_PSM_ALREADY_REGISTERED\000"
 5500      455F4552 
 5500      524F525F 
 5500      4C324341 
 5500      505F5053 
 5501              	.LASF372:
 5502 0060 4359424C 		.ascii	"CYBLE_EVT_CSCSS_NOTIFICATION_DISABLED\000"
 5502      455F4556 
 5502      545F4353 
 5502      4353535F 
 5502      4E4F5449 
 5503              	.LASF491:
 5504 0086 4359424C 		.ascii	"CYBLE_EVT_OTSC_READ_DESCR_RESPONSE\000"
 5504      455F4556 
 5504      545F4F54 
 5504      53435F52 
 5504      4541445F 
 5505              	.LASF587:
 5506 00a9 6576656E 		.ascii	"event\000"
 5506      7400
 5507              	.LASF90:
 5508 00af 4359424C 		.ascii	"CYBLE_EVT_MAX\000"
 5508      455F4556 
 5508      545F4D41 
 5508      5800
 5509              	.LASF494:
 5510 00bd 4359424C 		.ascii	"CYBLE_EVT_PASSS_NOTIFICATION_ENABLED\000"
 5510      455F4556 
 5510      545F5041 
 5510      5353535F 
 5510      4E4F5449 
 5511              	.LASF190:
 5512 00e2 4359424C 		.ascii	"CYBLE_GATT_ERR_INSUFFICIENT_ENC_KEY_SIZE\000"
 5512      455F4741 
 5512      54545F45 
 5512      52525F49 
 5512      4E535546 
 5513              	.LASF429:
 5514 010b 4359424C 		.ascii	"CYBLE_EVT_HPSS_NOTIFICATION_ENABLED\000"
 5514      455F4556 
 5514      545F4850 
 5514      53535F4E 
 5514      4F544946 
 5515              	.LASF463:
 5516 012f 4359424C 		.ascii	"CYBLE_EVT_IPSC_WRITE_DESCR_RESPONSE\000"
 5516      455F4556 
 5516      545F4950 
 5516      53435F57 
 5516      52495445 
 5517              	.LASF235:
 5518 0153 67617474 		.ascii	"gattErrorCode\000"
ARM GAS  C:\Users\user\AppData\Local\Temp\ccRdimcD.s 			page 118


 5518      4572726F 
 5518      72436F64 
 5518      6500
 5519              	.LASF292:
 5520 0161 4359424C 		.ascii	"CYBLE_EVT_AIOSS_CHAR_WRITE\000"
 5520      455F4556 
 5520      545F4149 
 5520      4F53535F 
 5520      43484152 
 5521              	.LASF498:
 5522 017c 4359424C 		.ascii	"CYBLE_EVT_PASSC_READ_CHAR_RESPONSE\000"
 5522      455F4556 
 5522      545F5041 
 5522      5353435F 
 5522      52454144 
 5523              	.LASF375:
 5524 019f 4359424C 		.ascii	"CYBLE_EVT_CSCSS_INDICATION_CONFIRMATION\000"
 5524      455F4556 
 5524      545F4353 
 5524      4353535F 
 5524      494E4449 
 5525              	.LASF253:
 5526 01c7 4359424C 		.ascii	"CYBLE_CGMS_RACP\000"
 5526      455F4347 
 5526      4D535F52 
 5526      41435000 
 5527              	.LASF353:
 5528 01d7 4359424C 		.ascii	"CYBLE_EVT_CGMSC_WRITE_CHAR_RESPONSE\000"
 5528      455F4556 
 5528      545F4347 
 5528      4D53435F 
 5528      57524954 
 5529              	.LASF30:
 5530 01fb 4359424C 		.ascii	"CYBLE_EVT_GAP_AUTH_COMPLETE\000"
 5530      455F4556 
 5530      545F4741 
 5530      505F4155 
 5530      54485F43 
 5531              	.LASF121:
 5532 0217 4359424C 		.ascii	"CYBLE_ERROR_IND_DISABLED\000"
 5532      455F4552 
 5532      524F525F 
 5532      494E445F 
 5532      44495341 
 5533              	.LASF598:
 5534 0230 626C654D 		.ascii	"bleMode\000"
 5534      6F646500 
 5535              	.LASF380:
 5536 0238 4359424C 		.ascii	"CYBLE_EVT_CSCSC_WRITE_CHAR_RESPONSE\000"
 5536      455F4556 
 5536      545F4353 
 5536      4353435F 
 5536      57524954 
 5537              	.LASF538:
 5538 025c 4359424C 		.ascii	"CYBLE_EVT_TPSC_READ_DESCR_RESPONSE\000"
 5538      455F4556 
 5538      545F5450 
ARM GAS  C:\Users\user\AppData\Local\Temp\ccRdimcD.s 			page 119


 5538      53435F52 
 5538      4541445F 
 5539              	.LASF444:
 5540 027f 4359424C 		.ascii	"CYBLE_EVT_HRSC_WRITE_DESCR_RESPONSE\000"
 5540      455F4556 
 5540      545F4852 
 5540      53435F57 
 5540      52495445 
 5541              	.LASF91:
 5542 02a3 4359424C 		.ascii	"CYBLE_ERROR_OK\000"
 5542      455F4552 
 5542      524F525F 
 5542      4F4B00
 5543              	.LASF606:
 5544 02b2 6379426C 		.ascii	"cyBle_state\000"
 5544      655F7374 
 5544      61746500 
 5545              	.LASF577:
 5546 02be 4359424C 		.ascii	"CYBLE_STATE_ADVERTISING\000"
 5546      455F5354 
 5546      4154455F 
 5546      41445645 
 5546      52544953 
 5547              	.LASF320:
 5548 02d6 4359424C 		.ascii	"CYBLE_EVT_BASC_READ_CHAR_RESPONSE\000"
 5548      455F4556 
 5548      545F4241 
 5548      53435F52 
 5548      4541445F 
 5549              	.LASF287:
 5550 02f8 4359424C 		.ascii	"CYBLE_EVT_AIOSS_NOTIFICATION_ENABLED\000"
 5550      455F4556 
 5550      545F4149 
 5550      4F53535F 
 5550      4E4F5449 
 5551              	.LASF102:
 5552 031d 4359424C 		.ascii	"CYBLE_ERROR_BT_ON_NOT_COMPLETED\000"
 5552      455F4552 
 5552      524F525F 
 5552      42545F4F 
 5552      4E5F4E4F 
 5553              	.LASF392:
 5554 033d 4359424C 		.ascii	"CYBLE_EVT_ESSS_NOTIFICATION_ENABLED\000"
 5554      455F4556 
 5554      545F4553 
 5554      53535F4E 
 5554      4F544946 
 5555              	.LASF336:
 5556 0361 4359424C 		.ascii	"CYBLE_EVT_BLSC_NOTIFICATION\000"
 5556      455F4556 
 5556      545F424C 
 5556      53435F4E 
 5556      4F544946 
 5557              	.LASF595:
 5558 037d 63686172 		.ascii	"charInfo\000"
 5558      496E666F 
 5558      00
ARM GAS  C:\Users\user\AppData\Local\Temp\ccRdimcD.s 			page 120


 5559              	.LASF609:
 5560 0386 61757468 		.ascii	"authState\000"
 5560      53746174 
 5560      6500
 5561              	.LASF488:
 5562 0390 4359424C 		.ascii	"CYBLE_EVT_OTSC_READ_CHAR_RESPONSE\000"
 5562      455F4556 
 5562      545F4F54 
 5562      53435F52 
 5562      4541445F 
 5563              	.LASF461:
 5564 03b2 4359424C 		.ascii	"CYBLE_EVT_IPSC_WRITE_CHAR_RESPONSE\000"
 5564      455F4556 
 5564      545F4950 
 5564      53435F57 
 5564      52495445 
 5565              	.LASF405:
 5566 03d5 4359424C 		.ascii	"CYBLE_EVT_GLSS_INDICATION_ENABLED\000"
 5566      455F4556 
 5566      545F474C 
 5566      53535F49 
 5566      4E444943 
 5567              	.LASF71:
 5568 03f7 4359424C 		.ascii	"CYBLE_EVT_GATTS_DATA_SIGNED_CMD_REQ\000"
 5568      455F4556 
 5568      545F4741 
 5568      5454535F 
 5568      44415441 
 5569              	.LASF302:
 5570 041b 4359424C 		.ascii	"CYBLE_EVT_ANCSS_NOTIFICATION_DISABLED\000"
 5570      455F4556 
 5570      545F414E 
 5570      4353535F 
 5570      4E4F5449 
 5571              	.LASF299:
 5572 0441 4359424C 		.ascii	"CYBLE_EVT_AIOSC_WRITE_DESCR_RESPONSE\000"
 5572      455F4556 
 5572      545F4149 
 5572      4F53435F 
 5572      57524954 
 5573              	.LASF466:
 5574 0466 4359424C 		.ascii	"CYBLE_EVT_LLSS_WRITE_CHAR_REQ\000"
 5574      455F4556 
 5574      545F4C4C 
 5574      53535F57 
 5574      52495445 
 5575              	.LASF465:
 5576 0484 4359424C 		.ascii	"CYBLE_EVT_IPSC_READ_BLOB_RSP\000"
 5576      455F4556 
 5576      545F4950 
 5576      53435F52 
 5576      4541445F 
 5577              	.LASF20:
 5578 04a1 4359424C 		.ascii	"CYBLE_EVT_STACK_ON\000"
 5578      455F4556 
 5578      545F5354 
 5578      41434B5F 
ARM GAS  C:\Users\user\AppData\Local\Temp\ccRdimcD.s 			page 121


 5578      4F4E00
 5579              	.LASF396:
 5580 04b4 4359424C 		.ascii	"CYBLE_EVT_ESSS_INDICATION_CONFIRMATION\000"
 5580      455F4556 
 5580      545F4553 
 5580      53535F49 
 5580      4E444943 
 5581              	.LASF373:
 5582 04db 4359424C 		.ascii	"CYBLE_EVT_CSCSS_INDICATION_ENABLED\000"
 5582      455F4556 
 5582      545F4353 
 5582      4353535F 
 5582      494E4449 
 5583              	.LASF110:
 5584 04fe 4359424C 		.ascii	"CYBLE_ERROR_GATT_DB_INVALID_ATTR_HANDLE\000"
 5584      455F4552 
 5584      524F525F 
 5584      47415454 
 5584      5F44425F 
 5585              	.LASF215:
 5586 0526 4359424C 		.ascii	"CYBLE_GATT_ERR_PROCEDURE_ALREADY_IN_PROGRESS\000"
 5586      455F4741 
 5586      54545F45 
 5586      52525F50 
 5586      524F4345 
 5587              	.LASF23:
 5588 0553 4359424C 		.ascii	"CYBLE_EVT_HCI_STATUS\000"
 5588      455F4556 
 5588      545F4843 
 5588      495F5354 
 5588      41545553 
 5589              	.LASF28:
 5590 0568 4359424C 		.ascii	"CYBLE_EVT_GAP_PASSKEY_ENTRY_REQUEST\000"
 5590      455F4556 
 5590      545F4741 
 5590      505F5041 
 5590      53534B45 
 5591              	.LASF532:
 5592 058c 4359424C 		.ascii	"CYBLE_EVT_SCPSC_READ_DESCR_RESPONSE\000"
 5592      455F4556 
 5592      545F5343 
 5592      5053435F 
 5592      52454144 
 5593              	.LASF400:
 5594 05b0 4359424C 		.ascii	"CYBLE_EVT_ESSC_INDICATION\000"
 5594      455F4556 
 5594      545F4553 
 5594      53435F49 
 5594      4E444943 
 5595              	.LASF535:
 5596 05ca 4359424C 		.ascii	"CYBLE_EVT_TPSS_NOTIFICATION_DISABLED\000"
 5596      455F4556 
 5596      545F5450 
 5596      53535F4E 
 5596      4F544946 
 5597              	.LASF257:
 5598 05ef 4359424C 		.ascii	"CYBLE_CGMS_DESCR_COUNT\000"
ARM GAS  C:\Users\user\AppData\Local\Temp\ccRdimcD.s 			page 122


 5598      455F4347 
 5598      4D535F44 
 5598      45534352 
 5598      5F434F55 
 5599              	.LASF132:
 5600 0606 4359424C 		.ascii	"CYBLE_BLESS_STATE_ACTIVE\000"
 5600      455F424C 
 5600      4553535F 
 5600      53544154 
 5600      455F4143 
 5601              	.LASF54:
 5602 061f 4359424C 		.ascii	"CYBLE_EVT_GATTC_XCHNG_MTU_RSP\000"
 5602      455F4556 
 5602      545F4741 
 5602      5454435F 
 5602      5843484E 
 5603              	.LASF204:
 5604 063d 4359424C 		.ascii	"CYBLE_GATTS_ERR_CCCD_IMPROPERLY_CONFIGURED\000"
 5604      455F4741 
 5604      5454535F 
 5604      4552525F 
 5604      43434344 
 5605              	.LASF395:
 5606 0668 4359424C 		.ascii	"CYBLE_EVT_ESSS_INDICATION_DISABLED\000"
 5606      455F4556 
 5606      545F4553 
 5606      53535F49 
 5606      4E444943 
 5607              	.LASF136:
 5608 068b 4359424C 		.ascii	"CYBLE_BLESS_STATE_ECO_STABLE\000"
 5608      455F424C 
 5608      4553535F 
 5608      53544154 
 5608      455F4543 
 5609              	.LASF304:
 5610 06a8 4359424C 		.ascii	"CYBLE_EVT_ANCSC_NOTIFICATION\000"
 5610      455F4556 
 5610      545F414E 
 5610      4353435F 
 5610      4E4F5449 
 5611              	.LASF351:
 5612 06c5 4359424C 		.ascii	"CYBLE_EVT_CGMSC_NOTIFICATION\000"
 5612      455F4556 
 5612      545F4347 
 5612      4D53435F 
 5612      4E4F5449 
 5613              	.LASF59:
 5614 06e2 4359424C 		.ascii	"CYBLE_EVT_GATTC_READ_RSP\000"
 5614      455F4556 
 5614      545F4741 
 5614      5454435F 
 5614      52454144 
 5615              	.LASF318:
 5616 06fb 4359424C 		.ascii	"CYBLE_EVT_BASS_NOTIFICATION_DISABLED\000"
 5616      455F4556 
 5616      545F4241 
 5616      53535F4E 
ARM GAS  C:\Users\user\AppData\Local\Temp\ccRdimcD.s 			page 123


 5616      4F544946 
 5617              	.LASF451:
 5618 0720 4359424C 		.ascii	"CYBLE_EVT_HTSC_NOTIFICATION\000"
 5618      455F4556 
 5618      545F4854 
 5618      53435F4E 
 5618      4F544946 
 5619              	.LASF417:
 5620 073c 4359424C 		.ascii	"CYBLE_EVT_HIDSS_NOTIFICATION_ENABLED\000"
 5620      455F4556 
 5620      545F4849 
 5620      4453535F 
 5620      4E4F5449 
 5621              	.LASF175:
 5622 0761 636F6E6E 		.ascii	"connLatency\000"
 5622      4C617465 
 5622      6E637900 
 5623              	.LASF447:
 5624 076d 4359424C 		.ascii	"CYBLE_EVT_HTSS_INDICATION_ENABLED\000"
 5624      455F4556 
 5624      545F4854 
 5624      53535F49 
 5624      4E444943 
 5625              	.LASF450:
 5626 078f 4359424C 		.ascii	"CYBLE_EVT_HTSS_CHAR_WRITE\000"
 5626      455F4556 
 5626      545F4854 
 5626      53535F43 
 5626      4841525F 
 5627              	.LASF539:
 5628 07a9 4359424C 		.ascii	"CYBLE_EVT_TPSC_WRITE_DESCR_RESPONSE\000"
 5628      455F4556 
 5628      545F5450 
 5628      53435F57 
 5628      52495445 
 5629              	.LASF563:
 5630 07cd 4359424C 		.ascii	"CYBLE_EVT_WPTSC_READ_CHAR_RESPONSE\000"
 5630      455F4556 
 5630      545F5750 
 5630      5453435F 
 5630      52454144 
 5631              	.LASF44:
 5632 07f0 4359424C 		.ascii	"CYBLE_EVT_GAPC_DIRECT_ADV_REPORT\000"
 5632      455F4556 
 5632      545F4741 
 5632      50435F44 
 5632      49524543 
 5633              	.LASF394:
 5634 0811 4359424C 		.ascii	"CYBLE_EVT_ESSS_INDICATION_ENABLED\000"
 5634      455F4556 
 5634      545F4553 
 5634      53535F49 
 5634      4E444943 
 5635              	.LASF9:
 5636 0833 75696E74 		.ascii	"uint8\000"
 5636      3800
 5637              	.LASF340:
ARM GAS  C:\Users\user\AppData\Local\Temp\ccRdimcD.s 			page 124


 5638 0839 4359424C 		.ascii	"CYBLE_EVT_BMSS_WRITE_CHAR\000"
 5638      455F4556 
 5638      545F424D 
 5638      53535F57 
 5638      52495445 
 5639              	.LASF374:
 5640 0853 4359424C 		.ascii	"CYBLE_EVT_CSCSS_INDICATION_DISABLED\000"
 5640      455F4556 
 5640      545F4353 
 5640      4353535F 
 5640      494E4449 
 5641              	.LASF177:
 5642 0877 4359424C 		.ascii	"CYBLE_GAP_CONN_PARAM_UPDATED_IN_CONTROLLER_T\000"
 5642      455F4741 
 5642      505F434F 
 5642      4E4E5F50 
 5642      4152414D 
 5643              	.LASF544:
 5644 08a4 4359424C 		.ascii	"CYBLE_EVT_UDSS_NOTIFICATION_DISABLED\000"
 5644      455F4556 
 5644      545F5544 
 5644      53535F4E 
 5644      4F544946 
 5645              	.LASF242:
 5646 08c9 4359424C 		.ascii	"CYBLE_DISC_CHAR_INFO_T\000"
 5646      455F4449 
 5646      53435F43 
 5646      4841525F 
 5646      494E464F 
 5647              	.LASF122:
 5648 08e0 4359424C 		.ascii	"CYBLE_ERROR_CHAR_IS_NOT_DISCOVERED\000"
 5648      455F4552 
 5648      524F525F 
 5648      43484152 
 5648      5F49535F 
 5649              	.LASF435:
 5650 0903 4359424C 		.ascii	"CYBLE_EVT_HPSC_WRITE_DESCR_RESPONSE\000"
 5650      455F4556 
 5650      545F4850 
 5650      53435F57 
 5650      52495445 
 5651              	.LASF619:
 5652 0927 4C6F7750 		.ascii	"LowPowerImplementation\000"
 5652      6F776572 
 5652      496D706C 
 5652      656D656E 
 5652      74617469 
 5653              	.LASF322:
 5654 093e 4359424C 		.ascii	"CYBLE_EVT_BASC_WRITE_DESCR_RESPONSE\000"
 5654      455F4556 
 5654      545F4241 
 5654      53435F57 
 5654      52495445 
 5655              	.LASF265:
 5656 0962 4359424C 		.ascii	"CYBLE_DIS_REG_CERT_DATA\000"
 5656      455F4449 
 5656      535F5245 
ARM GAS  C:\Users\user\AppData\Local\Temp\ccRdimcD.s 			page 125


 5656      475F4345 
 5656      52545F44 
 5657              	.LASF356:
 5658 097a 4359424C 		.ascii	"CYBLE_EVT_CPSS_NOTIFICATION_ENABLED\000"
 5658      455F4556 
 5658      545F4350 
 5658      53535F4E 
 5658      4F544946 
 5659              	.LASF472:
 5660 099e 4359424C 		.ascii	"CYBLE_EVT_LNSS_NOTIFICATION_ENABLED\000"
 5660      455F4556 
 5660      545F4C4E 
 5660      53535F4E 
 5660      4F544946 
 5661              	.LASF22:
 5662 09c2 4359424C 		.ascii	"CYBLE_EVT_HARDWARE_ERROR\000"
 5662      455F4556 
 5662      545F4841 
 5662      52445741 
 5662      52455F45 
 5663              	.LASF346:
 5664 09db 4359424C 		.ascii	"CYBLE_EVT_CGMSS_INDICATION_CONFIRMED\000"
 5664      455F4556 
 5664      545F4347 
 5664      4D53535F 
 5664      494E4449 
 5665              	.LASF92:
 5666 0a00 4359424C 		.ascii	"CYBLE_ERROR_INVALID_PARAMETER\000"
 5666      455F4552 
 5666      524F525F 
 5666      494E5641 
 5666      4C49445F 
 5667              	.LASF290:
 5668 0a1e 4359424C 		.ascii	"CYBLE_EVT_AIOSS_INDICATION_DISABLED\000"
 5668      455F4556 
 5668      545F4149 
 5668      4F53535F 
 5668      494E4449 
 5669              	.LASF246:
 5670 0a42 4359424C 		.ascii	"CYBLE_BMS_CEPD\000"
 5670      455F424D 
 5670      535F4345 
 5670      504400
 5671              	.LASF500:
 5672 0a51 4359424C 		.ascii	"CYBLE_EVT_PASSC_WRITE_DESCR_RESPONSE\000"
 5672      455F4556 
 5672      545F5041 
 5672      5353435F 
 5672      57524954 
 5673              	.LASF480:
 5674 0a76 4359424C 		.ascii	"CYBLE_EVT_LNSC_WRITE_DESCR_RESPONSE\000"
 5674      455F4556 
 5674      545F4C4E 
 5674      53435F57 
 5674      52495445 
 5675              	.LASF591:
 5676 0a9a 41707043 		.ascii	"AppCallBack\000"
ARM GAS  C:\Users\user\AppData\Local\Temp\ccRdimcD.s 			page 126


 5676      616C6C42 
 5676      61636B00 
 5677              	.LASF282:
 5678 0aa6 4359424C 		.ascii	"CYBLE_EVT_GATTC_SRVC_DISCOVERY_COMPLETE\000"
 5678      455F4556 
 5678      545F4741 
 5678      5454435F 
 5678      53525643 
 5679              	.LASF354:
 5680 0ace 4359424C 		.ascii	"CYBLE_EVT_CGMSC_READ_DESCR_RESPONSE\000"
 5680      455F4556 
 5680      545F4347 
 5680      4D53435F 
 5680      52454144 
 5681              	.LASF502:
 5682 0af2 4359424C 		.ascii	"CYBLE_EVT_PLXSS_NOTIFICATION_ENABLED\000"
 5682      455F4556 
 5682      545F504C 
 5682      5853535F 
 5682      4E4F5449 
 5683              	.LASF77:
 5684 0b17 4359424C 		.ascii	"CYBLE_EVT_L2CAP_COMMAND_REJ\000"
 5684      455F4556 
 5684      545F4C32 
 5684      4341505F 
 5684      434F4D4D 
 5685              	.LASF240:
 5686 0b33 75756964 		.ascii	"uuid\000"
 5686      00
 5687              	.LASF555:
 5688 0b38 4359424C 		.ascii	"CYBLE_EVT_WPTSS_NOTIFICATION_DISABLED\000"
 5688      455F4556 
 5688      545F5750 
 5688      5453535F 
 5688      4E4F5449 
 5689              	.LASF475:
 5690 0b5e 4359424C 		.ascii	"CYBLE_EVT_LNSC_INDICATION\000"
 5690      455F4556 
 5690      545F4C4E 
 5690      53435F49 
 5690      4E444943 
 5691              	.LASF381:
 5692 0b78 4359424C 		.ascii	"CYBLE_EVT_CSCSC_READ_DESCR_RESPONSE\000"
 5692      455F4556 
 5692      545F4353 
 5692      4353435F 
 5692      52454144 
 5693              	.LASF580:
 5694 0b9c 41555448 		.ascii	"AUTHENTICATION_NOT_CONNECTED\000"
 5694      454E5449 
 5694      43415449 
 5694      4F4E5F4E 
 5694      4F545F43 
 5695              	.LASF585:
 5696 0bb9 41555448 		.ascii	"AUTHENTICATION_BONDING_COMPLETE\000"
 5696      454E5449 
 5696      43415449 
ARM GAS  C:\Users\user\AppData\Local\Temp\ccRdimcD.s 			page 127


 5696      4F4E5F42 
 5696      4F4E4449 
 5697              	.LASF88:
 5698 0bd9 4359424C 		.ascii	"CYBLE_EVT_HCI_PKT\000"
 5698      455F4556 
 5698      545F4843 
 5698      495F504B 
 5698      5400
 5699              	.LASF489:
 5700 0beb 4359424C 		.ascii	"CYBLE_EVT_OTSC_READ_BLOB_RSP\000"
 5700      455F4556 
 5700      545F4F54 
 5700      53435F52 
 5700      4541445F 
 5701              	.LASF129:
 5702 0c08 4359424C 		.ascii	"CYBLE_BLESS_HIBERNATE\000"
 5702      455F424C 
 5702      4553535F 
 5702      48494245 
 5702      524E4154 
 5703              	.LASF573:
 5704 0c1e 4359424C 		.ascii	"CYBLE_DEBUG_EVT_BLESS_INT\000"
 5704      455F4445 
 5704      4255475F 
 5704      4556545F 
 5704      424C4553 
 5705              	.LASF141:
 5706 0c38 74797065 		.ascii	"type\000"
 5706      00
 5707              	.LASF196:
 5708 0c3d 4359424C 		.ascii	"CYBLE_GATT_ERR_TRIGGER_CODITION_VALUE_NOT_SUPPORTED"
 5708      455F4741 
 5708      54545F45 
 5708      52525F54 
 5708      52494747 
 5709 0c70 00       		.ascii	"\000"
 5710              	.LASF45:
 5711 0c71 4359424C 		.ascii	"CYBLE_EVT_GAP_SMP_NEGOTIATED_AUTH_INFO\000"
 5711      455F4556 
 5711      545F4741 
 5711      505F534D 
 5711      505F4E45 
 5712              	.LASF462:
 5713 0c98 4359424C 		.ascii	"CYBLE_EVT_IPSC_READ_DESCR_RESPONSE\000"
 5713      455F4556 
 5713      545F4950 
 5713      53435F52 
 5713      4541445F 
 5714              	.LASF295:
 5715 0cbb 4359424C 		.ascii	"CYBLE_EVT_AIOSC_INDICATION\000"
 5715      455F4556 
 5715      545F4149 
 5715      4F53435F 
 5715      494E4449 
 5716              	.LASF229:
 5717 0cd6 4359424C 		.ascii	"CYBLE_GATT_VALUE_T\000"
 5717      455F4741 
ARM GAS  C:\Users\user\AppData\Local\Temp\ccRdimcD.s 			page 128


 5717      54545F56 
 5717      414C5545 
 5717      5F5400
 5718              	.LASF526:
 5719 0ce9 4359424C 		.ascii	"CYBLE_EVT_RTUSS_WRITE_CHAR_CMD\000"
 5719      455F4556 
 5719      545F5254 
 5719      5553535F 
 5719      57524954 
 5720              	.LASF284:
 5721 0d08 4359424C 		.ascii	"CYBLE_EVT_GATTC_CHAR_DISCOVERY_COMPLETE\000"
 5721      455F4556 
 5721      545F4741 
 5721      5454435F 
 5721      43484152 
 5722              	.LASF64:
 5723 0d30 4359424C 		.ascii	"CYBLE_EVT_GATTS_WRITE_CMD_REQ\000"
 5723      455F4556 
 5723      545F4741 
 5723      5454535F 
 5723      57524954 
 5724              	.LASF222:
 5725 0d4e 75756964 		.ascii	"uuid128\000"
 5725      31323800 
 5726              	.LASF199:
 5727 0d56 4359424C 		.ascii	"CYBLE_GATT_ERR_CPS_INAPPROPRIATE_CONNECTION_PARAMET"
 5727      455F4741 
 5727      54545F45 
 5727      52525F43 
 5727      50535F49 
 5728 0d89 45525300 		.ascii	"ERS\000"
 5729              	.LASF481:
 5730 0d8d 4359424C 		.ascii	"CYBLE_EVT_NDCSC_READ_CHAR_RESPONSE\000"
 5730      455F4556 
 5730      545F4E44 
 5730      4353435F 
 5730      52454144 
 5731              	.LASF612:
 5732 0db0 70617373 		.ascii	"passkeyCounter\000"
 5732      6B657943 
 5732      6F756E74 
 5732      657200
 5733              	.LASF61:
 5734 0dbf 4359424C 		.ascii	"CYBLE_EVT_GATTC_READ_MULTI_RSP\000"
 5734      455F4556 
 5734      545F4741 
 5734      5454435F 
 5734      52454144 
 5735              	.LASF334:
 5736 0dde 4359424C 		.ascii	"CYBLE_EVT_BLSS_NOTIFICATION_DISABLED\000"
 5736      455F4556 
 5736      545F424C 
 5736      53535F4E 
 5736      4F544946 
 5737              	.LASF205:
 5738 0e03 4359424C 		.ascii	"CYBLE_GATTS_ERR_OPERATION_FAILED\000"
 5738      455F4741 
ARM GAS  C:\Users\user\AppData\Local\Temp\ccRdimcD.s 			page 129


 5738      5454535F 
 5738      4552525F 
 5738      4F504552 
 5739              	.LASF50:
 5740 0e24 4359424C 		.ascii	"CYBLE_EVT_GATTC_ERROR_RSP\000"
 5740      455F4556 
 5740      545F4741 
 5740      5454435F 
 5740      4552524F 
 5741              	.LASF271:
 5742 0e3e 4359424C 		.ascii	"CYBLE_KEY_EXCHANGE_INFO_REQUEST_REPLY\000"
 5742      455F4B45 
 5742      595F4558 
 5742      4348414E 
 5742      47455F49 
 5743              	.LASF234:
 5744 0e64 4359424C 		.ascii	"CYBLE_GATTS_WRITE_REQ_PARAM_T\000"
 5744      455F4741 
 5744      5454535F 
 5744      57524954 
 5744      455F5245 
 5745              	.LASF616:
 5746 0e82 474E5520 		.ascii	"GNU C11 5.4.1 20160609 (release) [ARM/embedded-5-br"
 5746      43313120 
 5746      352E342E 
 5746      31203230 
 5746      31363036 
 5747 0eb5 616E6368 		.ascii	"anch revision 237715] -mcpu=cortex-m0 -mthumb -g -O"
 5747      20726576 
 5747      6973696F 
 5747      6E203233 
 5747      37373135 
 5748 0ee8 30202D66 		.ascii	"0 -ffunction-sections -ffat-lto-objects\000"
 5748      66756E63 
 5748      74696F6E 
 5748      2D736563 
 5748      74696F6E 
 5749              	.LASF214:
 5750 0f10 4359424C 		.ascii	"CYBLE_GATT_ERR_CCCD_IMPROPERLY_CONFIGURED\000"
 5750      455F4741 
 5750      54545F45 
 5750      52525F43 
 5750      4343445F 
 5751              	.LASF1:
 5752 0f3a 756E7369 		.ascii	"unsigned char\000"
 5752      676E6564 
 5752      20636861 
 5752      7200
 5753              	.LASF252:
 5754 0f48 4359424C 		.ascii	"CYBLE_CGMS_SRTM\000"
 5754      455F4347 
 5754      4D535F53 
 5754      52544D00 
 5755              	.LASF32:
 5756 0f58 4359424C 		.ascii	"CYBLE_EVT_GAPP_ADVERTISEMENT_START_STOP\000"
 5756      455F4556 
 5756      545F4741 
ARM GAS  C:\Users\user\AppData\Local\Temp\ccRdimcD.s 			page 130


 5756      50505F41 
 5756      44564552 
 5757              	.LASF206:
 5758 0f80 4359424C 		.ascii	"CYBLE_GATT_ERR_INVALID_CRC\000"
 5758      455F4741 
 5758      54545F45 
 5758      52525F49 
 5758      4E56414C 
 5759              	.LASF118:
 5760 0f9b 4359424C 		.ascii	"CYBLE_ERROR_CONTROLLER_BUSY\000"
 5760      455F4552 
 5760      524F525F 
 5760      434F4E54 
 5760      524F4C4C 
 5761              	.LASF600:
 5762 0fb7 41757468 		.ascii	"AuthenticationHandler\000"
 5762      656E7469 
 5762      63617469 
 5762      6F6E4861 
 5762      6E646C65 
 5763              	.LASF12:
 5764 0fcd 666C6F61 		.ascii	"float\000"
 5764      7400
 5765              	.LASF138:
 5766 0fd3 4359424C 		.ascii	"CYBLE_BLESS_STATE_HIBERNATE\000"
 5766      455F424C 
 5766      4553535F 
 5766      53544154 
 5766      455F4849 
 5767              	.LASF131:
 5768 0fef 4359424C 		.ascii	"CYBLE_LP_MODE_T\000"
 5768      455F4C50 
 5768      5F4D4F44 
 5768      455F5400 
 5769              	.LASF243:
 5770 0fff 4359424C 		.ascii	"CYBLE_BMS_BMCP\000"
 5770      455F424D 
 5770      535F424D 
 5770      435000
 5771              	.LASF382:
 5772 100e 4359424C 		.ascii	"CYBLE_EVT_CSCSC_WRITE_DESCR_RESPONSE\000"
 5772      455F4556 
 5772      545F4353 
 5772      4353435F 
 5772      57524954 
 5773              	.LASF155:
 5774 1033 4359424C 		.ascii	"CYBLE_GAP_AUTH_ERROR_COMMAND_NOT_SUPPORTED\000"
 5774      455F4741 
 5774      505F4155 
 5774      54485F45 
 5774      52524F52 
 5775              	.LASF428:
 5776 105e 4359424C 		.ascii	"CYBLE_EVT_HIDSC_WRITE_DESCR_RESPONSE\000"
 5776      455F4556 
 5776      545F4849 
 5776      4453435F 
 5776      57524954 
ARM GAS  C:\Users\user\AppData\Local\Temp\ccRdimcD.s 			page 131


 5777              	.LASF57:
 5778 1083 4359424C 		.ascii	"CYBLE_EVT_GATTC_FIND_INFO_RSP\000"
 5778      455F4556 
 5778      545F4741 
 5778      5454435F 
 5778      46494E44 
 5779              	.LASF506:
 5780 10a1 4359424C 		.ascii	"CYBLE_EVT_PLXSS_INDICATION_CONFIRMED\000"
 5780      455F4556 
 5780      545F504C 
 5780      5853535F 
 5780      494E4449 
 5781              	.LASF78:
 5782 10c6 4359424C 		.ascii	"CYBLE_EVT_L2CAP_CBFC_CONN_IND\000"
 5782      455F4556 
 5782      545F4C32 
 5782      4341505F 
 5782      43424643 
 5783              	.LASF305:
 5784 10e4 4359424C 		.ascii	"CYBLE_EVT_ANCSC_WRITE_CHAR_RESPONSE\000"
 5784      455F4556 
 5784      545F414E 
 5784      4353435F 
 5784      57524954 
 5785              	.LASF469:
 5786 1108 4359424C 		.ascii	"CYBLE_EVT_LNSS_INDICATION_ENABLED\000"
 5786      455F4556 
 5786      545F4C4E 
 5786      53535F49 
 5786      4E444943 
 5787              	.LASF80:
 5788 112a 4359424C 		.ascii	"CYBLE_EVT_L2CAP_CBFC_DISCONN_IND\000"
 5788      455F4556 
 5788      545F4C32 
 5788      4341505F 
 5788      43424643 
 5789              	.LASF297:
 5790 114b 4359424C 		.ascii	"CYBLE_EVT_AIOSC_WRITE_CHAR_RESPONSE\000"
 5790      455F4556 
 5790      545F4149 
 5790      4F53435F 
 5790      57524954 
 5791              	.LASF367:
 5792 116f 4359424C 		.ascii	"CYBLE_EVT_CPSC_WRITE_CHAR_RESPONSE\000"
 5792      455F4556 
 5792      545F4350 
 5792      53435F57 
 5792      52495445 
 5793              	.LASF184:
 5794 1192 4359424C 		.ascii	"CYBLE_GATT_ERR_REQUEST_NOT_SUPPORTED\000"
 5794      455F4741 
 5794      54545F45 
 5794      52525F52 
 5794      45515545 
 5795              	.LASF27:
 5796 11b7 4359424C 		.ascii	"CYBLE_EVT_GAP_AUTH_REQ\000"
 5796      455F4556 
ARM GAS  C:\Users\user\AppData\Local\Temp\ccRdimcD.s 			page 132


 5796      545F4741 
 5796      505F4155 
 5796      54485F52 
 5797              	.LASF182:
 5798 11ce 4359424C 		.ascii	"CYBLE_GATT_ERR_INVALID_PDU\000"
 5798      455F4741 
 5798      54545F45 
 5798      52525F49 
 5798      4E56414C 
 5799              	.LASF267:
 5800 11e9 4359424C 		.ascii	"CYBLE_DIS_CHAR_COUNT\000"
 5800      455F4449 
 5800      535F4348 
 5800      41525F43 
 5800      4F554E54 
 5801              	.LASF427:
 5802 11fe 4359424C 		.ascii	"CYBLE_EVT_HIDSC_READ_DESCR_RESPONSE\000"
 5802      455F4556 
 5802      545F4849 
 5802      4453435F 
 5802      52454144 
 5803              	.LASF213:
 5804 1222 4359424C 		.ascii	"CYBLE_GATT_ERR_ANCS_ACTION_FAILED\000"
 5804      455F4741 
 5804      54545F45 
 5804      52525F41 
 5804      4E43535F 
 5805              	.LASF530:
 5806 1244 4359424C 		.ascii	"CYBLE_EVT_SCPSS_SCAN_INT_WIN_CHAR_WRITE\000"
 5806      455F4556 
 5806      545F5343 
 5806      5053535F 
 5806      5343414E 
 5807              	.LASF342:
 5808 126c 4359424C 		.ascii	"CYBLE_EVT_BMSC_WRITE_CHAR_RESPONSE\000"
 5808      455F4556 
 5808      545F424D 
 5808      53435F57 
 5808      52495445 
 5809              	.LASF187:
 5810 128f 4359424C 		.ascii	"CYBLE_GATT_ERR_PREPARE_WRITE_QUEUE_FULL\000"
 5810      455F4741 
 5810      54545F45 
 5810      52525F50 
 5810      52455041 
 5811              	.LASF576:
 5812 12b7 4359424C 		.ascii	"CYBLE_STATE_CONNECTED\000"
 5812      455F5354 
 5812      4154455F 
 5812      434F4E4E 
 5812      45435445 
 5813              	.LASF14:
 5814 12cd 63686172 		.ascii	"char8\000"
 5814      3800
 5815              	.LASF524:
 5816 12d3 4359424C 		.ascii	"CYBLE_EVT_RSCSC_READ_DESCR_RESPONSE\000"
 5816      455F4556 
ARM GAS  C:\Users\user\AppData\Local\Temp\ccRdimcD.s 			page 133


 5816      545F5253 
 5816      4353435F 
 5816      52454144 
 5817              	.LASF508:
 5818 12f7 4359424C 		.ascii	"CYBLE_EVT_PLXSC_INDICATION\000"
 5818      455F4556 
 5818      545F504C 
 5818      5853435F 
 5818      494E4449 
 5819              	.LASF390:
 5820 1312 4359424C 		.ascii	"CYBLE_EVT_CTSC_WRITE_CHAR_RESPONSE\000"
 5820      455F4556 
 5820      545F4354 
 5820      53435F57 
 5820      52495445 
 5821              	.LASF109:
 5822 1335 4359424C 		.ascii	"CYBLE_ERROR_L2CAP_PSM_NOT_IN_RANGE\000"
 5822      455F4552 
 5822      524F525F 
 5822      4C324341 
 5822      505F5053 
 5823              	.LASF124:
 5824 1358 4359424C 		.ascii	"CYBLE_ERROR_STACK_BUSY\000"
 5824      455F4552 
 5824      524F525F 
 5824      53544143 
 5824      4B5F4255 
 5825              	.LASF554:
 5826 136f 4359424C 		.ascii	"CYBLE_EVT_WPTSS_NOTIFICATION_ENABLED\000"
 5826      455F4556 
 5826      545F5750 
 5826      5453535F 
 5826      4E4F5449 
 5827              	.LASF479:
 5828 1394 4359424C 		.ascii	"CYBLE_EVT_LNSC_READ_DESCR_RESPONSE\000"
 5828      455F4556 
 5828      545F4C4E 
 5828      53435F52 
 5828      4541445F 
 5829              	.LASF531:
 5830 13b7 4359424C 		.ascii	"CYBLE_EVT_SCPSC_NOTIFICATION\000"
 5830      455F4556 
 5830      545F5343 
 5830      5053435F 
 5830      4E4F5449 
 5831              	.LASF533:
 5832 13d4 4359424C 		.ascii	"CYBLE_EVT_SCPSC_WRITE_DESCR_RESPONSE\000"
 5832      455F4556 
 5832      545F5343 
 5832      5053435F 
 5832      57524954 
 5833              	.LASF244:
 5834 13f9 4359424C 		.ascii	"CYBLE_BMS_BMFT\000"
 5834      455F424D 
 5834      535F424D 
 5834      465400
 5835              	.LASF268:
ARM GAS  C:\Users\user\AppData\Local\Temp\ccRdimcD.s 			page 134


 5836 1408 4359424C 		.ascii	"CYBLE_AUTHENTICATION_REQUEST_REPLY\000"
 5836      455F4155 
 5836      5448454E 
 5836      54494341 
 5836      54494F4E 
 5837              	.LASF26:
 5838 142b 4359424C 		.ascii	"CYBLE_EVT_GAPC_SCAN_PROGRESS_RESULT\000"
 5838      455F4556 
 5838      545F4741 
 5838      50435F53 
 5838      43414E5F 
 5839              	.LASF188:
 5840 144f 4359424C 		.ascii	"CYBLE_GATT_ERR_ATTRIBUTE_NOT_FOUND\000"
 5840      455F4741 
 5840      54545F45 
 5840      52525F41 
 5840      54545249 
 5841              	.LASF547:
 5842 1472 4359424C 		.ascii	"CYBLE_EVT_UDSC_INDICATION\000"
 5842      455F4556 
 5842      545F5544 
 5842      53435F49 
 5842      4E444943 
 5843              	.LASF370:
 5844 148c 4359424C 		.ascii	"CYBLE_EVT_CPSC_SCAN_PROGRESS_RESULT\000"
 5844      455F4556 
 5844      545F4350 
 5844      53435F53 
 5844      43414E5F 
 5845              	.LASF219:
 5846 14b0 76616C75 		.ascii	"value\000"
 5846      6500
 5847              	.LASF386:
 5848 14b6 4359424C 		.ascii	"CYBLE_EVT_CTSC_NOTIFICATION\000"
 5848      455F4556 
 5848      545F4354 
 5848      53435F4E 
 5848      4F544946 
 5849              	.LASF513:
 5850 14d2 4359424C 		.ascii	"CYBLE_EVT_PLXSC_TIMEOUT\000"
 5850      455F4556 
 5850      545F504C 
 5850      5853435F 
 5850      54494D45 
 5851              	.LASF314:
 5852 14ea 4359424C 		.ascii	"CYBLE_EVT_ANSC_WRITE_CHAR_RESPONSE\000"
 5852      455F4556 
 5852      545F414E 
 5852      53435F57 
 5852      52495445 
 5853              	.LASF452:
 5854 150d 4359424C 		.ascii	"CYBLE_EVT_HTSC_INDICATION\000"
 5854      455F4556 
 5854      545F4854 
 5854      53435F49 
 5854      4E444943 
 5855              	.LASF21:
ARM GAS  C:\Users\user\AppData\Local\Temp\ccRdimcD.s 			page 135


 5856 1527 4359424C 		.ascii	"CYBLE_EVT_TIMEOUT\000"
 5856      455F4556 
 5856      545F5449 
 5856      4D454F55 
 5856      5400
 5857              	.LASF540:
 5858 1539 4359424C 		.ascii	"CYBLE_EVT_UDSS_INDICATION_ENABLED\000"
 5858      455F4556 
 5858      545F5544 
 5858      53535F49 
 5858      4E444943 
 5859              	.LASF164:
 5860 155b 4359424C 		.ascii	"CYBLE_GAP_AUTH_ERROR_AUTHENTICATION_TIMEOUT\000"
 5860      455F4741 
 5860      505F4155 
 5860      54485F45 
 5860      52524F52 
 5861              	.LASF328:
 5862 1587 4359424C 		.ascii	"CYBLE_EVT_BCSC_READ_DESCR_RESPONSE\000"
 5862      455F4556 
 5862      545F4243 
 5862      53435F52 
 5862      4541445F 
 5863              	.LASF512:
 5864 15aa 4359424C 		.ascii	"CYBLE_EVT_PLXSC_WRITE_DESCR_RESPONSE\000"
 5864      455F4556 
 5864      545F504C 
 5864      5853435F 
 5864      57524954 
 5865              	.LASF195:
 5866 15cf 4359424C 		.ascii	"CYBLE_GATT_ERR_INSUFFICIENT_RESOURCE\000"
 5866      455F4741 
 5866      54545F45 
 5866      52525F49 
 5866      4E535546 
 5867              	.LASF166:
 5868 15f4 4359424C 		.ascii	"CYBLE_GAP_AUTH_FAILED_REASON_T\000"
 5868      455F4741 
 5868      505F4155 
 5868      54485F46 
 5868      41494C45 
 5869              	.LASF225:
 5870 1613 62644861 		.ascii	"bdHandle\000"
 5870      6E646C65 
 5870      00
 5871              	.LASF286:
 5872 161c 4359424C 		.ascii	"CYBLE_EVT_GATTC_DISCOVERY_COMPLETE\000"
 5872      455F4556 
 5872      545F4741 
 5872      5454435F 
 5872      44495343 
 5873              	.LASF277:
 5874 163f 4359424C 		.ascii	"CYBLE_EVT_GATTC_CHAR_DISCOVERY_FAILED\000"
 5874      455F4556 
 5874      545F4741 
 5874      5454435F 
 5874      43484152 
ARM GAS  C:\Users\user\AppData\Local\Temp\ccRdimcD.s 			page 136


 5875              	.LASF561:
 5876 1665 4359424C 		.ascii	"CYBLE_EVT_WPTSC_INDICATION\000"
 5876      455F4556 
 5876      545F5750 
 5876      5453435F 
 5876      494E4449 
 5877              	.LASF87:
 5878 1680 4359424C 		.ascii	"CYBLE_EVT_LE_PING_AUTH_TIMEOUT\000"
 5878      455F4556 
 5878      545F4C45 
 5878      5F50494E 
 5878      475F4155 
 5879              	.LASF441:
 5880 169f 4359424C 		.ascii	"CYBLE_EVT_HRSC_READ_CHAR_RESPONSE\000"
 5880      455F4556 
 5880      545F4852 
 5880      53435F52 
 5880      4541445F 
 5881              	.LASF99:
 5882 16c1 4359424C 		.ascii	"CYBLE_ERROR_REPEATED_ATTEMPTS\000"
 5882      455F4552 
 5882      524F525F 
 5882      52455045 
 5882      41544544 
 5883              	.LASF303:
 5884 16df 4359424C 		.ascii	"CYBLE_EVT_ANCSS_WRITE_CHAR\000"
 5884      455F4556 
 5884      545F414E 
 5884      4353535F 
 5884      57524954 
 5885              	.LASF611:
 5886 16fa 70617373 		.ascii	"passkeyPow\000"
 5886      6B657950 
 5886      6F7700
 5887              	.LASF85:
 5888 1705 4359424C 		.ascii	"CYBLE_EVT_L2CAP_CBFC_DATA_WRITE_IND\000"
 5888      455F4556 
 5888      545F4C32 
 5888      4341505F 
 5888      43424643 
 5889              	.LASF327:
 5890 1729 4359424C 		.ascii	"CYBLE_EVT_BCSC_READ_CHAR_RESPONSE\000"
 5890      455F4556 
 5890      545F4243 
 5890      53435F52 
 5890      4541445F 
 5891              	.LASF68:
 5892 174b 4359424C 		.ascii	"CYBLE_EVT_GATTC_HANDLE_VALUE_NTF\000"
 5892      455F4556 
 5892      545F4741 
 5892      5454435F 
 5892      48414E44 
 5893              	.LASF140:
 5894 176c 62644164 		.ascii	"bdAddr\000"
 5894      647200
 5895              	.LASF301:
 5896 1773 4359424C 		.ascii	"CYBLE_EVT_ANCSS_NOTIFICATION_ENABLED\000"
ARM GAS  C:\Users\user\AppData\Local\Temp\ccRdimcD.s 			page 137


 5896      455F4556 
 5896      545F414E 
 5896      4353535F 
 5896      4E4F5449 
 5897              	.LASF520:
 5898 1798 4359424C 		.ascii	"CYBLE_EVT_RSCSC_NOTIFICATION\000"
 5898      455F4556 
 5898      545F5253 
 5898      4353435F 
 5898      4E4F5449 
 5899              	.LASF158:
 5900 17b5 4359424C 		.ascii	"CYBLE_GAP_AUTH_ERROR_INVALID_PARAMETERS\000"
 5900      455F4741 
 5900      505F4155 
 5900      54485F45 
 5900      52524F52 
 5901              	.LASF407:
 5902 17dd 4359424C 		.ascii	"CYBLE_EVT_GLSS_INDICATION_CONFIRMED\000"
 5902      455F4556 
 5902      545F474C 
 5902      53535F49 
 5902      4E444943 
 5903              	.LASF300:
 5904 1801 4359424C 		.ascii	"CYBLE_EVT_AIOSC_ERROR_RESPONSE\000"
 5904      455F4556 
 5904      545F4149 
 5904      4F53435F 
 5904      4552524F 
 5905              	.LASF161:
 5906 1820 4359424C 		.ascii	"CYBLE_GAP_AUTH_ERROR_BR_EDR_PAIRING_IN_PROGRESS\000"
 5906      455F4741 
 5906      505F4155 
 5906      54485F45 
 5906      52524F52 
 5907              	.LASF510:
 5908 1850 4359424C 		.ascii	"CYBLE_EVT_PLXSC_WRITE_CHAR_RESPONSE\000"
 5908      455F4556 
 5908      545F504C 
 5908      5853435F 
 5908      57524954 
 5909              	.LASF546:
 5910 1874 4359424C 		.ascii	"CYBLE_EVT_UDSS_WRITE_CHAR\000"
 5910      455F4556 
 5910      545F5544 
 5910      53535F57 
 5910      52495445 
 5911              	.LASF288:
 5912 188e 4359424C 		.ascii	"CYBLE_EVT_AIOSS_NOTIFICATION_DISABLED\000"
 5912      455F4556 
 5912      545F4149 
 5912      4F53535F 
 5912      4E4F5449 
 5913              	.LASF454:
 5914 18b4 4359424C 		.ascii	"CYBLE_EVT_HTSC_WRITE_CHAR_RESPONSE\000"
 5914      455F4556 
 5914      545F4854 
 5914      53435F57 
ARM GAS  C:\Users\user\AppData\Local\Temp\ccRdimcD.s 			page 138


 5914      52495445 
 5915              	.LASF120:
 5916 18d7 4359424C 		.ascii	"CYBLE_ERROR_NTF_DISABLED\000"
 5916      455F4552 
 5916      524F525F 
 5916      4E54465F 
 5916      44495341 
 5917              	.LASF148:
 5918 18f0 4359424C 		.ascii	"CYBLE_GAP_AUTH_ERROR_NONE\000"
 5918      455F4741 
 5918      505F4155 
 5918      54485F45 
 5918      52524F52 
 5919              	.LASF376:
 5920 190a 4359424C 		.ascii	"CYBLE_EVT_CSCSS_CHAR_WRITE\000"
 5920      455F4556 
 5920      545F4353 
 5920      4353535F 
 5920      43484152 
 5921              	.LASF330:
 5922 1925 4359424C 		.ascii	"CYBLE_EVT_BLSS_INDICATION_ENABLED\000"
 5922      455F4556 
 5922      545F424C 
 5922      53535F49 
 5922      4E444943 
 5923              	.LASF125:
 5924 1947 4359424C 		.ascii	"CYBLE_API_RESULT_T\000"
 5924      455F4150 
 5924      495F5245 
 5924      53554C54 
 5924      5F5400
 5925              	.LASF460:
 5926 195a 4359424C 		.ascii	"CYBLE_EVT_IPSC_READ_MULTIPLE_CHAR_RESPONSE\000"
 5926      455F4556 
 5926      545F4950 
 5926      53435F52 
 5926      4541445F 
 5927              	.LASF542:
 5928 1985 4359424C 		.ascii	"CYBLE_EVT_UDSS_INDICATION_CONFIRMED\000"
 5928      455F4556 
 5928      545F5544 
 5928      53535F49 
 5928      4E444943 
 5929              	.LASF568:
 5930 19a9 4359424C 		.ascii	"CYBLE_EVT_WSSS_INDICATION_CONFIRMED\000"
 5930      455F4556 
 5930      545F5753 
 5930      53535F49 
 5930      4E444943 
 5931              	.LASF130:
 5932 19cd 4359424C 		.ascii	"CYBLE_BLESS_INVALID\000"
 5932      455F424C 
 5932      4553535F 
 5932      494E5641 
 5932      4C494400 
 5933              	.LASF574:
 5934 19e1 4359424C 		.ascii	"CYBLE_STATE_STOPPED\000"
ARM GAS  C:\Users\user\AppData\Local\Temp\ccRdimcD.s 			page 139


 5934      455F5354 
 5934      4154455F 
 5934      53544F50 
 5934      50454400 
 5935              	.LASF278:
 5936 19f5 4359424C 		.ascii	"CYBLE_EVT_GATTC_DESCR_DISCOVERY_FAILED\000"
 5936      455F4556 
 5936      545F4741 
 5936      5454435F 
 5936      44455343 
 5937              	.LASF42:
 5938 1a1c 4359424C 		.ascii	"CYBLE_EVT_GAP_DATA_LENGTH_CHANGE\000"
 5938      455F4556 
 5938      545F4741 
 5938      505F4441 
 5938      54415F4C 
 5939              	.LASF608:
 5940 1a3d 61706952 		.ascii	"apiResult\000"
 5940      6573756C 
 5940      7400
 5941              	.LASF82:
 5942 1a47 4359424C 		.ascii	"CYBLE_EVT_L2CAP_CBFC_DATA_READ\000"
 5942      455F4556 
 5942      545F4C32 
 5942      4341505F 
 5942      43424643 
 5943              	.LASF128:
 5944 1a66 4359424C 		.ascii	"CYBLE_BLESS_DEEPSLEEP\000"
 5944      455F424C 
 5944      4553535F 
 5944      44454550 
 5944      534C4545 
 5945              	.LASF113:
 5946 1a7c 4359424C 		.ascii	"CYBLE_ERROR_MIC_AUTH_FAILED\000"
 5946      455F4552 
 5946      524F525F 
 5946      4D49435F 
 5946      41555448 
 5947              	.LASF189:
 5948 1a98 4359424C 		.ascii	"CYBLE_GATT_ERR_ATTRIBUTE_NOT_LONG\000"
 5948      455F4741 
 5948      54545F45 
 5948      52525F41 
 5948      54545249 
 5949              	.LASF613:
 5950 1aba 636F6D6D 		.ascii	"command\000"
 5950      616E6400 
 5951              	.LASF160:
 5952 1ac2 4359424C 		.ascii	"CYBLE_GAP_AUTH_ERROR_NUMERIC_COMPARISON_FAILED\000"
 5952      455F4741 
 5952      505F4155 
 5952      54485F45 
 5952      52524F52 
 5953              	.LASF192:
 5954 1af1 4359424C 		.ascii	"CYBLE_GATT_ERR_UNLIKELY_ERROR\000"
 5954      455F4741 
 5954      54545F45 
ARM GAS  C:\Users\user\AppData\Local\Temp\ccRdimcD.s 			page 140


 5954      52525F55 
 5954      4E4C494B 
 5955              	.LASF231:
 5956 1b0f 4359424C 		.ascii	"CYBLE_GATT_HANDLE_VALUE_PAIR_T\000"
 5956      455F4741 
 5956      54545F48 
 5956      414E444C 
 5956      455F5641 
 5957              	.LASF602:
 5958 1b2e 53746172 		.ascii	"StartAdvertisement\000"
 5958      74416476 
 5958      65727469 
 5958      73656D65 
 5958      6E7400
 5959              	.LASF352:
 5960 1b41 4359424C 		.ascii	"CYBLE_EVT_CGMSC_READ_CHAR_RESPONSE\000"
 5960      455F4556 
 5960      545F4347 
 5960      4D53435F 
 5960      52454144 
 5961              	.LASF586:
 5962 1b64 41555448 		.ascii	"AUTHENTICATION_STATE\000"
 5962      454E5449 
 5962      43415449 
 5962      4F4E5F53 
 5962      54415445 
 5963              	.LASF60:
 5964 1b79 4359424C 		.ascii	"CYBLE_EVT_GATTC_READ_BLOB_RSP\000"
 5964      455F4556 
 5964      545F4741 
 5964      5454435F 
 5964      52454144 
 5965              	.LASF416:
 5966 1b97 4359424C 		.ascii	"CYBLE_EVT_GLSC_WRITE_DESCR_RESPONSE\000"
 5966      455F4556 
 5966      545F474C 
 5966      53435F57 
 5966      52495445 
 5967              	.LASF482:
 5968 1bbb 4359424C 		.ascii	"CYBLE_EVT_OTSS_INDICATION_ENABLED\000"
 5968      455F4556 
 5968      545F4F54 
 5968      53535F49 
 5968      4E444943 
 5969              	.LASF25:
 5970 1bdd 4359424C 		.ascii	"CYBLE_EVT_MEMORY_REQUEST\000"
 5970      455F4556 
 5970      545F4D45 
 5970      4D4F5259 
 5970      5F524551 
 5971              	.LASF169:
 5972 1bf6 656B6579 		.ascii	"ekeySize\000"
 5972      53697A65 
 5972      00
 5973              	.LASF493:
 5974 1bff 4359424C 		.ascii	"CYBLE_EVT_OTSC_ERROR_RESPONSE\000"
 5974      455F4556 
ARM GAS  C:\Users\user\AppData\Local\Temp\ccRdimcD.s 			page 141


 5974      545F4F54 
 5974      53435F45 
 5974      52524F52 
 5975              	.LASF66:
 5976 1c1d 4359424C 		.ascii	"CYBLE_EVT_GATTS_EXEC_WRITE_REQ\000"
 5976      455F4556 
 5976      545F4741 
 5976      5454535F 
 5976      45584543 
 5977              	.LASF333:
 5978 1c3c 4359424C 		.ascii	"CYBLE_EVT_BLSS_NOTIFICATION_ENABLED\000"
 5978      455F4556 
 5978      545F424C 
 5978      53535F4E 
 5978      4F544946 
 5979              	.LASF437:
 5980 1c60 4359424C 		.ascii	"CYBLE_EVT_HRSS_ENERGY_EXPENDED_RESET\000"
 5980      455F4556 
 5980      545F4852 
 5980      53535F45 
 5980      4E455247 
 5981              	.LASF207:
 5982 1c85 4359424C 		.ascii	"CYBLE_GATTS_ERR_HPS_INVALID_REQUEST\000"
 5982      455F4741 
 5982      5454535F 
 5982      4552525F 
 5982      4850535F 
 5983              	.LASF111:
 5984 1ca9 4359424C 		.ascii	"CYBLE_ERROR_DEVICE_ALREADY_EXISTS\000"
 5984      455F4552 
 5984      524F525F 
 5984      44455649 
 5984      43455F41 
 5985              	.LASF233:
 5986 1ccb 68616E64 		.ascii	"handleValPair\000"
 5986      6C655661 
 5986      6C506169 
 5986      7200
 5987              	.LASF436:
 5988 1cd9 4359424C 		.ascii	"CYBLE_EVT_HPSC_WRITE_CHAR_RESPONSE\000"
 5988      455F4556 
 5988      545F4850 
 5988      53435F57 
 5988      52495445 
 5989              	.LASF615:
 5990 1cfc 70656572 		.ascii	"peerAuthInfo\000"
 5990      41757468 
 5990      496E666F 
 5990      00
 5991              	.LASF249:
 5992 1d09 4359424C 		.ascii	"CYBLE_CGMS_CGFT\000"
 5992      455F4347 
 5992      4D535F43 
 5992      47465400 
 5993              	.LASF107:
 5994 1d19 4359424C 		.ascii	"CYBLE_ERROR_L2CAP_CONNECTION_ENTITY_NOT_FOUND\000"
 5994      455F4552 
ARM GAS  C:\Users\user\AppData\Local\Temp\ccRdimcD.s 			page 142


 5994      524F525F 
 5994      4C324341 
 5994      505F434F 
 5995              	.LASF100:
 5996 1d47 4359424C 		.ascii	"CYBLE_ERROR_GAP_ROLE\000"
 5996      455F4552 
 5996      524F525F 
 5996      4741505F 
 5996      524F4C45 
 5997              	.LASF449:
 5998 1d5c 4359424C 		.ascii	"CYBLE_EVT_HTSS_INDICATION_CONFIRMED\000"
 5998      455F4556 
 5998      545F4854 
 5998      53535F49 
 5998      4E444943 
 5999              	.LASF133:
 6000 1d80 4359424C 		.ascii	"CYBLE_BLESS_STATE_EVENT_CLOSE\000"
 6000      455F424C 
 6000      4553535F 
 6000      53544154 
 6000      455F4556 
 6001              	.LASF178:
 6002 1d9e 4359424C 		.ascii	"CYBLE_GATT_ERR_NONE\000"
 6002      455F4741 
 6002      54545F45 
 6002      52525F4E 
 6002      4F4E4500 
 6003              	.LASF552:
 6004 1db2 4359424C 		.ascii	"CYBLE_EVT_UDSC_WRITE_DESCR_RESPONSE\000"
 6004      455F4556 
 6004      545F5544 
 6004      53435F57 
 6004      52495445 
 6005              	.LASF567:
 6006 1dd6 4359424C 		.ascii	"CYBLE_EVT_WSSS_INDICATION_DISABLED\000"
 6006      455F4556 
 6006      545F5753 
 6006      53535F49 
 6006      4E444943 
 6007              	.LASF572:
 6008 1df9 4359424C 		.ascii	"CYBLE_EVT_WSSC_WRITE_DESCR_RESPONSE\000"
 6008      455F4556 
 6008      545F5753 
 6008      53435F57 
 6008      52495445 
 6009              	.LASF343:
 6010 1e1d 4359424C 		.ascii	"CYBLE_EVT_BMSC_READ_DESCR_RESPONSE\000"
 6010      455F4556 
 6010      545F424D 
 6010      53435F52 
 6010      4541445F 
 6011              	.LASF309:
 6012 1e40 4359424C 		.ascii	"CYBLE_EVT_ANSS_NOTIFICATION_ENABLED\000"
 6012      455F4556 
 6012      545F414E 
 6012      53535F4E 
 6012      4F544946 
ARM GAS  C:\Users\user\AppData\Local\Temp\ccRdimcD.s 			page 143


 6013              	.LASF578:
 6014 1e64 4359424C 		.ascii	"CYBLE_STATE_DISCONNECTED\000"
 6014      455F5354 
 6014      4154455F 
 6014      44495343 
 6014      4F4E4E45 
 6015              	.LASF522:
 6016 1e7d 4359424C 		.ascii	"CYBLE_EVT_RSCSC_READ_CHAR_RESPONSE\000"
 6016      455F4556 
 6016      545F5253 
 6016      4353435F 
 6016      52454144 
 6017              	.LASF52:
 6018 1ea0 4359424C 		.ascii	"CYBLE_EVT_GATT_DISCONNECT_IND\000"
 6018      455F4556 
 6018      545F4741 
 6018      54545F44 
 6018      4953434F 
 6019              	.LASF388:
 6020 1ebe 4359424C 		.ascii	"CYBLE_EVT_CTSC_READ_DESCR_RESPONSE\000"
 6020      455F4556 
 6020      545F4354 
 6020      53435F52 
 6020      4541445F 
 6021              	.LASF270:
 6022 1ee1 4359424C 		.ascii	"CYBLE_LONG_TERM_KEY_REQUEST_REPLY\000"
 6022      455F4C4F 
 6022      4E475F54 
 6022      45524D5F 
 6022      4B45595F 
 6023              	.LASF505:
 6024 1f03 4359424C 		.ascii	"CYBLE_EVT_PLXSS_INDICATION_DISABLED\000"
 6024      455F4556 
 6024      545F504C 
 6024      5853535F 
 6024      494E4449 
 6025              	.LASF221:
 6026 1f27 75756964 		.ascii	"uuid16\000"
 6026      313600
 6027              	.LASF156:
 6028 1f2e 4359424C 		.ascii	"CYBLE_GAP_AUTH_ERROR_UNSPECIFIED_REASON\000"
 6028      455F4741 
 6028      505F4155 
 6028      54485F45 
 6028      52524F52 
 6029              	.LASF255:
 6030 1f56 4359424C 		.ascii	"CYBLE_CGMS_CHAR_COUNT\000"
 6030      455F4347 
 6030      4D535F43 
 6030      4841525F 
 6030      434F554E 
 6031              	.LASF422:
 6032 1f6c 4359424C 		.ascii	"CYBLE_EVT_HIDSS_EXIT_SUSPEND\000"
 6032      455F4556 
 6032      545F4849 
 6032      4453535F 
 6032      45584954 
ARM GAS  C:\Users\user\AppData\Local\Temp\ccRdimcD.s 			page 144


 6033              	.LASF445:
 6034 1f89 4359424C 		.ascii	"CYBLE_EVT_HTSS_NOTIFICATION_ENABLED\000"
 6034      455F4556 
 6034      545F4854 
 6034      53535F4E 
 6034      4F544946 
 6035              	.LASF457:
 6036 1fad 4359424C 		.ascii	"CYBLE_EVT_IASS_WRITE_CHAR_CMD\000"
 6036      455F4556 
 6036      545F4941 
 6036      53535F57 
 6036      52495445 
 6037              	.LASF147:
 6038 1fcb 4359424C 		.ascii	"CYBLE_GAP_SEC_LEVEL_MASK\000"
 6038      455F4741 
 6038      505F5345 
 6038      435F4C45 
 6038      56454C5F 
 6039              	.LASF448:
 6040 1fe4 4359424C 		.ascii	"CYBLE_EVT_HTSS_INDICATION_DISABLED\000"
 6040      455F4556 
 6040      545F4854 
 6040      53535F49 
 6040      4E444943 
 6041              	.LASF592:
 6042 2007 5072696E 		.ascii	"PrintUUID\000"
 6042      74555549 
 6042      4400
 6043              	.LASF76:
 6044 2011 4359424C 		.ascii	"CYBLE_EVT_L2CAP_CONN_PARAM_UPDATE_RSP\000"
 6044      455F4556 
 6044      545F4C32 
 6044      4341505F 
 6044      434F4E4E 
 6045              	.LASF438:
 6046 2037 4359424C 		.ascii	"CYBLE_EVT_HRSS_NOTIFICATION_ENABLED\000"
 6046      455F4556 
 6046      545F4852 
 6046      53535F4E 
 6046      4F544946 
 6047              	.LASF296:
 6048 205b 4359424C 		.ascii	"CYBLE_EVT_AIOSC_READ_CHAR_RESPONSE\000"
 6048      455F4556 
 6048      545F4149 
 6048      4F53435F 
 6048      52454144 
 6049              	.LASF464:
 6050 207e 4359424C 		.ascii	"CYBLE_EVT_IPSC_ERROR_RESPONSE\000"
 6050      455F4556 
 6050      545F4950 
 6050      53435F45 
 6050      52524F52 
 6051              	.LASF357:
 6052 209c 4359424C 		.ascii	"CYBLE_EVT_CPSS_NOTIFICATION_DISABLED\000"
 6052      455F4556 
 6052      545F4350 
 6052      53535F4E 
ARM GAS  C:\Users\user\AppData\Local\Temp\ccRdimcD.s 			page 145


 6052      4F544946 
 6053              	.LASF283:
 6054 20c1 4359424C 		.ascii	"CYBLE_EVT_GATTC_INCL_DISCOVERY_COMPLETE\000"
 6054      455F4556 
 6054      545F4741 
 6054      5454435F 
 6054      494E434C 
 6055              	.LASF495:
 6056 20e9 4359424C 		.ascii	"CYBLE_EVT_PASSS_NOTIFICATION_DISABLED\000"
 6056      455F4556 
 6056      545F5041 
 6056      5353535F 
 6056      4E4F5449 
 6057              	.LASF614:
 6058 210f 63757374 		.ascii	"customCommand\000"
 6058      6F6D436F 
 6058      6D6D616E 
 6058      6400
 6059              	.LASF315:
 6060 211d 4359424C 		.ascii	"CYBLE_EVT_ANSC_READ_DESCR_RESPONSE\000"
 6060      455F4556 
 6060      545F414E 
 6060      53435F52 
 6060      4541445F 
 6061              	.LASF263:
 6062 2140 4359424C 		.ascii	"CYBLE_DIS_SOFTWARE_REV\000"
 6062      455F4449 
 6062      535F534F 
 6062      46545741 
 6062      52455F52 
 6063              	.LASF420:
 6064 2157 4359424C 		.ascii	"CYBLE_EVT_HIDSS_REPORT_MODE_ENTER\000"
 6064      455F4556 
 6064      545F4849 
 6064      4453535F 
 6064      5245504F 
 6065              	.LASF197:
 6066 2179 4359424C 		.ascii	"CYBLE_GATT_ERR_HEART_RATE_CONTROL_POINT_NOT_SUPPORT"
 6066      455F4741 
 6066      54545F45 
 6066      52525F48 
 6066      45415254 
 6067 21ac 454400   		.ascii	"ED\000"
 6068              	.LASF487:
 6069 21af 4359424C 		.ascii	"CYBLE_EVT_OTSC_INDICATION\000"
 6069      455F4556 
 6069      545F4F54 
 6069      53435F49 
 6069      4E444943 
 6070              	.LASF571:
 6071 21c9 4359424C 		.ascii	"CYBLE_EVT_WSSC_READ_DESCR_RESPONSE\000"
 6071      455F4556 
 6071      545F5753 
 6071      53435F52 
 6071      4541445F 
 6072              	.LASF579:
 6073 21ec 4359424C 		.ascii	"CYBLE_STATE_T\000"
ARM GAS  C:\Users\user\AppData\Local\Temp\ccRdimcD.s 			page 146


 6073      455F5354 
 6073      4154455F 
 6073      5400
 6074              	.LASF467:
 6075 21fa 4359424C 		.ascii	"CYBLE_EVT_LLSC_READ_CHAR_RESPONSE\000"
 6075      455F4556 
 6075      545F4C4C 
 6075      53435F52 
 6075      4541445F 
 6076              	.LASF434:
 6077 221c 4359424C 		.ascii	"CYBLE_EVT_HPSC_READ_DESCR_RESPONSE\000"
 6077      455F4556 
 6077      545F4850 
 6077      53435F52 
 6077      4541445F 
 6078              	.LASF279:
 6079 223f 4359424C 		.ascii	"CYBLE_EVT_GATTC_SRVC_DUPLICATION\000"
 6079      455F4556 
 6079      545F4741 
 6079      5454435F 
 6079      53525643 
 6080              	.LASF307:
 6081 2260 4359424C 		.ascii	"CYBLE_EVT_ANCSC_WRITE_DESCR_RESPONSE\000"
 6081      455F4556 
 6081      545F414E 
 6081      4353435F 
 6081      57524954 
 6082              	.LASF509:
 6083 2285 4359424C 		.ascii	"CYBLE_EVT_PLXSC_READ_CHAR_RESPONSE\000"
 6083      455F4556 
 6083      545F504C 
 6083      5853435F 
 6083      52454144 
 6084              	.LASF556:
 6085 22a8 4359424C 		.ascii	"CYBLE_EVT_WPTSS_INDICATION_ENABLED\000"
 6085      455F4556 
 6085      545F5750 
 6085      5453535F 
 6085      494E4449 
 6086              	.LASF335:
 6087 22cb 4359424C 		.ascii	"CYBLE_EVT_BLSC_INDICATION\000"
 6087      455F4556 
 6087      545F424C 
 6087      53435F49 
 6087      4E444943 
 6088              	.LASF456:
 6089 22e5 4359424C 		.ascii	"CYBLE_EVT_HTSC_WRITE_DESCR_RESPONSE\000"
 6089      455F4556 
 6089      545F4854 
 6089      53435F57 
 6089      52495445 
 6090              	.LASF553:
 6091 2309 4359424C 		.ascii	"CYBLE_EVT_UDSC_ERROR_RESPONSE\000"
 6091      455F4556 
 6091      545F5544 
 6091      53435F45 
 6091      52524F52 
ARM GAS  C:\Users\user\AppData\Local\Temp\ccRdimcD.s 			page 147


 6092              	.LASF134:
 6093 2327 4359424C 		.ascii	"CYBLE_BLESS_STATE_SLEEP\000"
 6093      455F424C 
 6093      4553535F 
 6093      53544154 
 6093      455F534C 
 6094              	.LASF383:
 6095 233f 4359424C 		.ascii	"CYBLE_EVT_CTSS_NOTIFICATION_ENABLED\000"
 6095      455F4556 
 6095      545F4354 
 6095      53535F4E 
 6095      4F544946 
 6096              	.LASF171:
 6097 2363 70616972 		.ascii	"pairingProperties\000"
 6097      696E6750 
 6097      726F7065 
 6097      72746965 
 6097      7300
 6098              	.LASF455:
 6099 2375 4359424C 		.ascii	"CYBLE_EVT_HTSC_READ_DESCR_RESPONSE\000"
 6099      455F4556 
 6099      545F4854 
 6099      53435F52 
 6099      4541445F 
 6100              	.LASF35:
 6101 2398 4359424C 		.ascii	"CYBLE_EVT_GAP_ENCRYPT_CHANGE\000"
 6101      455F4556 
 6101      545F4741 
 6101      505F454E 
 6101      43525950 
 6102              	.LASF135:
 6103 23b5 4359424C 		.ascii	"CYBLE_BLESS_STATE_ECO_ON\000"
 6103      455F424C 
 6103      4553535F 
 6103      53544154 
 6103      455F4543 
 6104              	.LASF33:
 6105 23ce 4359424C 		.ascii	"CYBLE_EVT_GAP_DEVICE_CONNECTED\000"
 6105      455F4556 
 6105      545F4741 
 6105      505F4445 
 6105      56494345 
 6106              	.LASF518:
 6107 23ed 4359424C 		.ascii	"CYBLE_EVT_RSCSS_INDICATION_CONFIRMATION\000"
 6107      455F4556 
 6107      545F5253 
 6107      4353535F 
 6107      494E4449 
 6108              	.LASF365:
 6109 2415 4359424C 		.ascii	"CYBLE_EVT_CPSC_INDICATION\000"
 6109      455F4556 
 6109      545F4350 
 6109      53435F49 
 6109      4E444943 
 6110              	.LASF167:
 6111 242f 73656375 		.ascii	"security\000"
 6111      72697479 
ARM GAS  C:\Users\user\AppData\Local\Temp\ccRdimcD.s 			page 148


 6111      00
 6112              	.LASF185:
 6113 2438 4359424C 		.ascii	"CYBLE_GATT_ERR_INVALID_OFFSET\000"
 6113      455F4741 
 6113      54545F45 
 6113      52525F49 
 6113      4E56414C 
 6114              	.LASF174:
 6115 2456 636F6E6E 		.ascii	"connIntv\000"
 6115      496E7476 
 6115      00
 6116              	.LASF210:
 6117 245f 4359424C 		.ascii	"CYBLE_GATT_ERR_ANCS_UNKNOWN_COMMAND\000"
 6117      455F4741 
 6117      54545F45 
 6117      52525F41 
 6117      4E43535F 
 6118              	.LASF393:
 6119 2483 4359424C 		.ascii	"CYBLE_EVT_ESSS_NOTIFICATION_DISABLED\000"
 6119      455F4556 
 6119      545F4553 
 6119      53535F4E 
 6119      4F544946 
 6120              	.LASF251:
 6121 24a8 4359424C 		.ascii	"CYBLE_CGMS_SSTM\000"
 6121      455F4347 
 6121      4D535F53 
 6121      53544D00 
 6122              	.LASF186:
 6123 24b8 4359424C 		.ascii	"CYBLE_GATT_ERR_INSUFFICIENT_AUTHORIZATION\000"
 6123      455F4741 
 6123      54545F45 
 6123      52525F49 
 6123      4E535546 
 6124              	.LASF16:
 6125 24e2 72656733 		.ascii	"reg32\000"
 6125      3200
 6126              	.LASF426:
 6127 24e8 4359424C 		.ascii	"CYBLE_EVT_HIDSC_WRITE_CHAR_RESPONSE\000"
 6127      455F4556 
 6127      545F4849 
 6127      4453435F 
 6127      57524954 
 6128              	.LASF86:
 6129 250c 4359424C 		.ascii	"CYBLE_EVT_PENDING_FLASH_WRITE\000"
 6129      455F4556 
 6129      545F5045 
 6129      4E44494E 
 6129      475F464C 
 6130              	.LASF248:
 6131 252a 4359424C 		.ascii	"CYBLE_CGMS_CGMT\000"
 6131      455F4347 
 6131      4D535F43 
 6131      474D5400 
 6132              	.LASF19:
 6133 253a 4359424C 		.ascii	"CYBLE_EVT_HOST_INVALID\000"
 6133      455F4556 
ARM GAS  C:\Users\user\AppData\Local\Temp\ccRdimcD.s 			page 149


 6133      545F484F 
 6133      53545F49 
 6133      4E56414C 
 6134              	.LASF474:
 6135 2551 4359424C 		.ascii	"CYBLE_EVT_LNSS_WRITE_CHAR\000"
 6135      455F4556 
 6135      545F4C4E 
 6135      53535F57 
 6135      52495445 
 6136              	.LASF3:
 6137 256b 73686F72 		.ascii	"short unsigned int\000"
 6137      7420756E 
 6137      7369676E 
 6137      65642069 
 6137      6E7400
 6138              	.LASF411:
 6139 257e 4359424C 		.ascii	"CYBLE_EVT_GLSC_INDICATION\000"
 6139      455F4556 
 6139      545F474C 
 6139      53435F49 
 6139      4E444943 
 6140              	.LASF0:
 6141 2598 7369676E 		.ascii	"signed char\000"
 6141      65642063 
 6141      68617200 
 6142              	.LASF223:
 6143 25a4 4359424C 		.ascii	"CYBLE_UUID_T\000"
 6143      455F5555 
 6143      49445F54 
 6143      00
 6144              	.LASF361:
 6145 25b1 4359424C 		.ascii	"CYBLE_EVT_CPSS_BROADCAST_ENABLED\000"
 6145      455F4556 
 6145      545F4350 
 6145      53535F42 
 6145      524F4144 
 6146              	.LASF260:
 6147 25d2 4359424C 		.ascii	"CYBLE_DIS_SERIAL_NUMBER\000"
 6147      455F4449 
 6147      535F5345 
 6147      5249414C 
 6147      5F4E554D 
 6148              	.LASF216:
 6149 25ea 4359424C 		.ascii	"CYBLE_GATT_ERR_OUT_OF_RANGE\000"
 6149      455F4741 
 6149      54545F45 
 6149      52525F4F 
 6149      55545F4F 
 6150              	.LASF151:
 6151 2606 4359424C 		.ascii	"CYBLE_GAP_AUTH_ERROR_AUTHENTICATION_REQ_NOT_MET\000"
 6151      455F4741 
 6151      505F4155 
 6151      54485F45 
 6151      52524F52 
 6152              	.LASF325:
 6153 2636 4359424C 		.ascii	"CYBLE_EVT_BCSS_INDICATION_CONFIRMED\000"
 6153      455F4556 
ARM GAS  C:\Users\user\AppData\Local\Temp\ccRdimcD.s 			page 150


 6153      545F4243 
 6153      53535F49 
 6153      4E444943 
 6154              	.LASF581:
 6155 265a 41555448 		.ascii	"AUTHENTICATION_WAITING_FOR_PASSKEY\000"
 6155      454E5449 
 6155      43415449 
 6155      4F4E5F57 
 6155      41495449 
 6156              	.LASF67:
 6157 267d 4359424C 		.ascii	"CYBLE_EVT_GATTC_EXEC_WRITE_RSP\000"
 6157      455F4556 
 6157      545F4741 
 6157      5454435F 
 6157      45584543 
 6158              	.LASF173:
 6159 269c 73746174 		.ascii	"status\000"
 6159      757300
 6160              	.LASF550:
 6161 26a3 4359424C 		.ascii	"CYBLE_EVT_UDSC_WRITE_CHAR_RESPONSE\000"
 6161      455F4556 
 6161      545F5544 
 6161      53435F57 
 6161      52495445 
 6162              	.LASF484:
 6163 26c6 4359424C 		.ascii	"CYBLE_EVT_OTSS_INDICATION_CONFIRMED\000"
 6163      455F4556 
 6163      545F4F54 
 6163      53535F49 
 6163      4E444943 
 6164              	.LASF211:
 6165 26ea 4359424C 		.ascii	"CYBLE_GATT_ERR_ANCS_INVALID_COMMAND\000"
 6165      455F4741 
 6165      54545F45 
 6165      52525F41 
 6165      4E43535F 
 6166              	.LASF366:
 6167 270e 4359424C 		.ascii	"CYBLE_EVT_CPSC_READ_CHAR_RESPONSE\000"
 6167      455F4556 
 6167      545F4350 
 6167      53435F52 
 6167      4541445F 
 6168              	.LASF237:
 6169 2730 63686172 		.ascii	"charDeclHandle\000"
 6169      4465636C 
 6169      48616E64 
 6169      6C6500
 6170              	.LASF163:
 6171 273f 4359424C 		.ascii	"CYBLE_GAP_AUTH_ERROR_CODE_SPEC_MAX_VALUE\000"
 6171      455F4741 
 6171      505F4155 
 6171      54485F45 
 6171      52524F52 
 6172              	.LASF423:
 6173 2768 4359424C 		.ascii	"CYBLE_EVT_HIDSS_REPORT_CHAR_WRITE\000"
 6173      455F4556 
 6173      545F4849 
ARM GAS  C:\Users\user\AppData\Local\Temp\ccRdimcD.s 			page 151


 6173      4453535F 
 6173      5245504F 
 6174              	.LASF152:
 6175 278a 4359424C 		.ascii	"CYBLE_GAP_AUTH_ERROR_CONFIRM_VALUE_NOT_MATCH\000"
 6175      455F4741 
 6175      505F4155 
 6175      54485F45 
 6175      52524F52 
 6176              	.LASF291:
 6177 27b7 4359424C 		.ascii	"CYBLE_EVT_AIOSS_INDICATION_CONFIRMED\000"
 6177      455F4556 
 6177      545F4149 
 6177      4F53535F 
 6177      494E4449 
 6178              	.LASF247:
 6179 27dc 4359424C 		.ascii	"CYBLE_BMS_DESCR_COUNT\000"
 6179      455F424D 
 6179      535F4445 
 6179      5343525F 
 6179      434F554E 
 6180              	.LASF261:
 6181 27f2 4359424C 		.ascii	"CYBLE_DIS_HARDWARE_REV\000"
 6181      455F4449 
 6181      535F4841 
 6181      52445741 
 6181      52455F52 
 6182              	.LASF403:
 6183 2809 4359424C 		.ascii	"CYBLE_EVT_ESSC_READ_DESCR_RESPONSE\000"
 6183      455F4556 
 6183      545F4553 
 6183      53435F52 
 6183      4541445F 
 6184              	.LASF473:
 6185 282c 4359424C 		.ascii	"CYBLE_EVT_LNSS_NOTIFICATION_DISABLED\000"
 6185      455F4556 
 6185      545F4C4E 
 6185      53535F4E 
 6185      4F544946 
 6186              	.LASF317:
 6187 2851 4359424C 		.ascii	"CYBLE_EVT_BASS_NOTIFICATION_ENABLED\000"
 6187      455F4556 
 6187      545F4241 
 6187      53535F4E 
 6187      4F544946 
 6188              	.LASF590:
 6189 2875 64697363 		.ascii	"discCharInfo\000"
 6189      43686172 
 6189      496E666F 
 6189      00
 6190              	.LASF316:
 6191 2882 4359424C 		.ascii	"CYBLE_EVT_ANSC_WRITE_DESCR_RESPONSE\000"
 6191      455F4556 
 6191      545F414E 
 6191      53435F57 
 6191      52495445 
 6192              	.LASF236:
 6193 28a6 4359424C 		.ascii	"CYBLE_GATTS_CHAR_VAL_READ_REQ_T\000"
ARM GAS  C:\Users\user\AppData\Local\Temp\ccRdimcD.s 			page 152


 6193      455F4741 
 6193      5454535F 
 6193      43484152 
 6193      5F56414C 
 6194              	.LASF228:
 6195 28c6 61637475 		.ascii	"actualLen\000"
 6195      616C4C65 
 6195      6E00
 6196              	.LASF414:
 6197 28d0 4359424C 		.ascii	"CYBLE_EVT_GLSC_WRITE_CHAR_RESPONSE\000"
 6197      455F4556 
 6197      545F474C 
 6197      53435F57 
 6197      52495445 
 6198              	.LASF40:
 6199 28f3 4359424C 		.ascii	"CYBLE_EVT_GAP_KEYPRESS_NOTIFICATION\000"
 6199      455F4556 
 6199      545F4741 
 6199      505F4B45 
 6199      59505245 
 6200              	.LASF476:
 6201 2917 4359424C 		.ascii	"CYBLE_EVT_LNSC_NOTIFICATION\000"
 6201      455F4556 
 6201      545F4C4E 
 6201      53435F4E 
 6201      4F544946 
 6202              	.LASF319:
 6203 2933 4359424C 		.ascii	"CYBLE_EVT_BASC_NOTIFICATION\000"
 6203      455F4556 
 6203      545F4241 
 6203      53435F4E 
 6203      4F544946 
 6204              	.LASF58:
 6205 294f 4359424C 		.ascii	"CYBLE_EVT_GATTC_FIND_BY_TYPE_VALUE_RSP\000"
 6205      455F4556 
 6205      545F4741 
 6205      5454435F 
 6205      46494E44 
 6206              	.LASF285:
 6207 2976 4359424C 		.ascii	"CYBLE_EVT_GATTC_DISC_SKIPPED_SERVICE\000"
 6207      455F4556 
 6207      545F4741 
 6207      5454435F 
 6207      44495343 
 6208              	.LASF593:
 6209 299b 75756964 		.ascii	"uuidStr\000"
 6209      53747200 
 6210              	.LASF123:
 6211 29a3 4359424C 		.ascii	"CYBLE_ERROR_INVALID_STATE\000"
 6211      455F4552 
 6211      524F525F 
 6211      494E5641 
 6211      4C49445F 
 6212              	.LASF569:
 6213 29bd 4359424C 		.ascii	"CYBLE_EVT_WSSC_INDICATION\000"
 6213      455F4556 
 6213      545F5753 
ARM GAS  C:\Users\user\AppData\Local\Temp\ccRdimcD.s 			page 153


 6213      53435F49 
 6213      4E444943 
 6214              	.LASF329:
 6215 29d7 4359424C 		.ascii	"CYBLE_EVT_BCSC_WRITE_DESCR_RESPONSE\000"
 6215      455F4556 
 6215      545F4243 
 6215      53435F57 
 6215      52495445 
 6216              	.LASF440:
 6217 29fb 4359424C 		.ascii	"CYBLE_EVT_HRSC_NOTIFICATION\000"
 6217      455F4556 
 6217      545F4852 
 6217      53435F4E 
 6217      4F544946 
 6218              	.LASF313:
 6219 2a17 4359424C 		.ascii	"CYBLE_EVT_ANSC_READ_CHAR_RESPONSE\000"
 6219      455F4556 
 6219      545F414E 
 6219      53435F52 
 6219      4541445F 
 6220              	.LASF4:
 6221 2a39 6C6F6E67 		.ascii	"long int\000"
 6221      20696E74 
 6221      00
 6222              	.LASF359:
 6223 2a42 4359424C 		.ascii	"CYBLE_EVT_CPSS_INDICATION_DISABLED\000"
 6223      455F4556 
 6223      545F4350 
 6223      53535F49 
 6223      4E444943 
 6224              	.LASF181:
 6225 2a65 4359424C 		.ascii	"CYBLE_GATT_ERR_WRITE_NOT_PERMITTED\000"
 6225      455F4741 
 6225      54545F45 
 6225      52525F57 
 6225      52495445 
 6226              	.LASF355:
 6227 2a88 4359424C 		.ascii	"CYBLE_EVT_CGMSC_WRITE_DESCR_RESPONSE\000"
 6227      455F4556 
 6227      545F4347 
 6227      4D53435F 
 6227      57524954 
 6228              	.LASF492:
 6229 2aad 4359424C 		.ascii	"CYBLE_EVT_OTSC_WRITE_DESCR_RESPONSE\000"
 6229      455F4556 
 6229      545F4F54 
 6229      53435F57 
 6229      52495445 
 6230              	.LASF241:
 6231 2ad1 75756964 		.ascii	"uuidFormat\000"
 6231      466F726D 
 6231      617400
 6232              	.LASF106:
 6233 2adc 4359424C 		.ascii	"CYBLE_ERROR_L2CAP_PSM_NOT_REGISTERED\000"
 6233      455F4552 
 6233      524F525F 
 6233      4C324341 
ARM GAS  C:\Users\user\AppData\Local\Temp\ccRdimcD.s 			page 154


 6233      505F5053 
 6234              	.LASF172:
 6235 2b01 4359424C 		.ascii	"CYBLE_GAP_AUTH_INFO_T\000"
 6235      455F4741 
 6235      505F4155 
 6235      54485F49 
 6235      4E464F5F 
 6236              	.LASF311:
 6237 2b17 4359424C 		.ascii	"CYBLE_EVT_ANSS_CHAR_WRITE\000"
 6237      455F4556 
 6237      545F414E 
 6237      53535F43 
 6237      4841525F 
 6238              	.LASF38:
 6239 2b31 4359424C 		.ascii	"CYBLE_EVT_GAP_KEYINFO_EXCHNGE_CMPLT\000"
 6239      455F4556 
 6239      545F4741 
 6239      505F4B45 
 6239      59494E46 
 6240              	.LASF583:
 6241 2b55 41555448 		.ascii	"AUTHENTICATION_PASSKEY_YES_NO\000"
 6241      454E5449 
 6241      43415449 
 6241      4F4E5F50 
 6241      4153534B 
 6242              	.LASF226:
 6243 2b73 61747449 		.ascii	"attId\000"
 6243      6400
 6244              	.LASF404:
 6245 2b79 4359424C 		.ascii	"CYBLE_EVT_ESSC_WRITE_DESCR_RESPONSE\000"
 6245      455F4556 
 6245      545F4553 
 6245      53435F57 
 6245      52495445 
 6246              	.LASF250:
 6247 2b9d 4359424C 		.ascii	"CYBLE_CGMS_CGST\000"
 6247      455F4347 
 6247      4D535F43 
 6247      47535400 
 6248              	.LASF503:
 6249 2bad 4359424C 		.ascii	"CYBLE_EVT_PLXSS_NOTIFICATION_DISABLED\000"
 6249      455F4556 
 6249      545F504C 
 6249      5853535F 
 6249      4E4F5449 
 6250              	.LASF275:
 6251 2bd3 4359424C 		.ascii	"CYBLE_EVT_GATTC_SRVC_DISCOVERY_FAILED\000"
 6251      455F4556 
 6251      545F4741 
 6251      5454435F 
 6251      53525643 
 6252              	.LASF471:
 6253 2bf9 4359424C 		.ascii	"CYBLE_EVT_LNSS_INDICATION_CONFIRMED\000"
 6253      455F4556 
 6253      545F4C4E 
 6253      53535F49 
 6253      4E444943 
ARM GAS  C:\Users\user\AppData\Local\Temp\ccRdimcD.s 			page 155


 6254              	.LASF95:
 6255 2c1d 4359424C 		.ascii	"CYBLE_ERROR_INSUFFICIENT_RESOURCES\000"
 6255      455F4552 
 6255      524F525F 
 6255      494E5355 
 6255      46464943 
 6256              	.LASF24:
 6257 2c40 4359424C 		.ascii	"CYBLE_EVT_STACK_BUSY_STATUS\000"
 6257      455F4556 
 6257      545F5354 
 6257      41434B5F 
 6257      42555359 
 6258              	.LASF389:
 6259 2c5c 4359424C 		.ascii	"CYBLE_EVT_CTSC_WRITE_DESCR_RESPONSE\000"
 6259      455F4556 
 6259      545F4354 
 6259      53435F57 
 6259      52495445 
 6260              	.LASF55:
 6261 2c80 4359424C 		.ascii	"CYBLE_EVT_GATTC_READ_BY_GROUP_TYPE_RSP\000"
 6261      455F4556 
 6261      545F4741 
 6261      5454435F 
 6261      52454144 
 6262              	.LASF116:
 6263 2ca7 4359424C 		.ascii	"CYBLE_ERROR_FLASH_WRITE\000"
 6263      455F4552 
 6263      524F525F 
 6263      464C4153 
 6263      485F5752 
 6264              	.LASF194:
 6265 2cbf 4359424C 		.ascii	"CYBLE_GATT_ERR_UNSUPPORTED_GROUP_TYPE\000"
 6265      455F4741 
 6265      54545F45 
 6265      52525F55 
 6265      4E535550 
 6266              	.LASF94:
 6267 2ce5 4359424C 		.ascii	"CYBLE_ERROR_MEMORY_ALLOCATION_FAILED\000"
 6267      455F4552 
 6267      524F525F 
 6267      4D454D4F 
 6267      52595F41 
 6268              	.LASF341:
 6269 2d0a 4359424C 		.ascii	"CYBLE_EVT_BMSC_READ_CHAR_RESPONSE\000"
 6269      455F4556 
 6269      545F424D 
 6269      53435F52 
 6269      4541445F 
 6270              	.LASF34:
 6271 2d2c 4359424C 		.ascii	"CYBLE_EVT_GAP_DEVICE_DISCONNECTED\000"
 6271      455F4556 
 6271      545F4741 
 6271      505F4445 
 6271      56494345 
 6272              	.LASF501:
 6273 2d4e 4359424C 		.ascii	"CYBLE_EVT_PLXSS_WRITE_CHAR\000"
 6273      455F4556 
ARM GAS  C:\Users\user\AppData\Local\Temp\ccRdimcD.s 			page 156


 6273      545F504C 
 6273      5853535F 
 6273      57524954 
 6274              	.LASF176:
 6275 2d69 73757065 		.ascii	"supervisionTO\000"
 6275      72766973 
 6275      696F6E54 
 6275      4F00
 6276              	.LASF162:
 6277 2d77 4359424C 		.ascii	"CYBLE_GAP_AUTH_ERROR_CROSS_TRANSPORT_KEY_GEN_DER_NO"
 6277      455F4741 
 6277      505F4155 
 6277      54485F45 
 6277      52524F52 
 6278 2daa 545F414C 		.ascii	"T_ALLOWED\000"
 6278      4C4F5745 
 6278      4400
 6279              	.LASF17:
 6280 2db4 6C6F6E67 		.ascii	"long double\000"
 6280      20646F75 
 6280      626C6500 
 6281              	.LASF459:
 6282 2dc0 4359424C 		.ascii	"CYBLE_EVT_IPSC_READ_CHAR_RESPONSE\000"
 6282      455F4556 
 6282      545F4950 
 6282      53435F52 
 6282      4541445F 
 6283              	.LASF97:
 6284 2de2 4359424C 		.ascii	"CYBLE_ERROR_NO_CONNECTION\000"
 6284      455F4552 
 6284      524F525F 
 6284      4E4F5F43 
 6284      4F4E4E45 
 6285              	.LASF63:
 6286 2dfc 4359424C 		.ascii	"CYBLE_EVT_GATTC_WRITE_RSP\000"
 6286      455F4556 
 6286      545F4741 
 6286      5454435F 
 6286      57524954 
 6287              	.LASF10:
 6288 2e16 75696E74 		.ascii	"uint16\000"
 6288      313600
 6289              	.LASF103:
 6290 2e1d 4359424C 		.ascii	"CYBLE_ERROR_SEC_FAILED\000"
 6290      455F4552 
 6290      524F525F 
 6290      5345435F 
 6290      4641494C 
 6291              	.LASF258:
 6292 2e34 4359424C 		.ascii	"CYBLE_DIS_MANUFACTURER_NAME\000"
 6292      455F4449 
 6292      535F4D41 
 6292      4E554641 
 6292      43545552 
 6293              	.LASF541:
 6294 2e50 4359424C 		.ascii	"CYBLE_EVT_UDSS_INDICATION_DISABLED\000"
 6294      455F4556 
ARM GAS  C:\Users\user\AppData\Local\Temp\ccRdimcD.s 			page 157


 6294      545F5544 
 6294      53535F49 
 6294      4E444943 
 6295              	.LASF424:
 6296 2e73 4359424C 		.ascii	"CYBLE_EVT_HIDSC_NOTIFICATION\000"
 6296      455F4556 
 6296      545F4849 
 6296      4453435F 
 6296      4E4F5449 
 6297              	.LASF5:
 6298 2e90 6C6F6E67 		.ascii	"long unsigned int\000"
 6298      20756E73 
 6298      69676E65 
 6298      6420696E 
 6298      7400
 6299              	.LASF496:
 6300 2ea2 4359424C 		.ascii	"CYBLE_EVT_PASSS_WRITE_CHAR\000"
 6300      455F4556 
 6300      545F5041 
 6300      5353535F 
 6300      57524954 
 6301              	.LASF72:
 6302 2ebd 4359424C 		.ascii	"CYBLE_EVT_GATTC_STOP_CMD_COMPLETE\000"
 6302      455F4556 
 6302      545F4741 
 6302      5454435F 
 6302      53544F50 
 6303              	.LASF570:
 6304 2edf 4359424C 		.ascii	"CYBLE_EVT_WSSC_READ_CHAR_RESPONSE\000"
 6304      455F4556 
 6304      545F5753 
 6304      53435F52 
 6304      4541445F 
 6305              	.LASF432:
 6306 2f01 4359424C 		.ascii	"CYBLE_EVT_HPSC_NOTIFICATION\000"
 6306      455F4556 
 6306      545F4850 
 6306      53435F4E 
 6306      4F544946 
 6307              	.LASF371:
 6308 2f1d 4359424C 		.ascii	"CYBLE_EVT_CSCSS_NOTIFICATION_ENABLED\000"
 6308      455F4556 
 6308      545F4353 
 6308      4353535F 
 6308      4E4F5449 
 6309              	.LASF15:
 6310 2f42 63686172 		.ascii	"char\000"
 6310      00
 6311              	.LASF588:
 6312 2f47 6576656E 		.ascii	"eventParam\000"
 6312      74506172 
 6312      616D00
 6313              	.LASF338:
 6314 2f52 4359424C 		.ascii	"CYBLE_EVT_BLSC_READ_DESCR_RESPONSE\000"
 6314      455F4556 
 6314      545F424C 
 6314      53435F52 
ARM GAS  C:\Users\user\AppData\Local\Temp\ccRdimcD.s 			page 158


 6314      4541445F 
 6315              	.LASF326:
 6316 2f75 4359424C 		.ascii	"CYBLE_EVT_BCSC_INDICATION\000"
 6316      455F4556 
 6316      545F4243 
 6316      53435F49 
 6316      4E444943 
 6317              	.LASF79:
 6318 2f8f 4359424C 		.ascii	"CYBLE_EVT_L2CAP_CBFC_CONN_CNF\000"
 6318      455F4556 
 6318      545F4C32 
 6318      4341505F 
 6318      43424643 
 6319              	.LASF559:
 6320 2fad 4359424C 		.ascii	"CYBLE_EVT_WPTSS_WRITE_CHAR\000"
 6320      455F4556 
 6320      545F5750 
 6320      5453535F 
 6320      57524954 
 6321              	.LASF360:
 6322 2fc8 4359424C 		.ascii	"CYBLE_EVT_CPSS_INDICATION_CONFIRMED\000"
 6322      455F4556 
 6322      545F4350 
 6322      53535F49 
 6322      4E444943 
 6323              	.LASF93:
 6324 2fec 4359424C 		.ascii	"CYBLE_ERROR_INVALID_OPERATION\000"
 6324      455F4552 
 6324      524F525F 
 6324      494E5641 
 6324      4C49445F 
 6325              	.LASF11:
 6326 300a 75696E74 		.ascii	"uint32\000"
 6326      333200
 6327              	.LASF323:
 6328 3011 4359424C 		.ascii	"CYBLE_EVT_BCSS_INDICATION_ENABLED\000"
 6328      455F4556 
 6328      545F4243 
 6328      53535F49 
 6328      4E444943 
 6329              	.LASF157:
 6330 3033 4359424C 		.ascii	"CYBLE_GAP_AUTH_ERROR_REPEATED_ATTEMPTS\000"
 6330      455F4741 
 6330      505F4155 
 6330      54485F45 
 6330      52524F52 
 6331              	.LASF98:
 6332 305a 4359424C 		.ascii	"CYBLE_ERROR_NO_DEVICE_ENTITY\000"
 6332      455F4552 
 6332      524F525F 
 6332      4E4F5F44 
 6332      45564943 
 6333              	.LASF81:
 6334 3077 4359424C 		.ascii	"CYBLE_EVT_L2CAP_CBFC_DISCONN_CNF\000"
 6334      455F4556 
 6334      545F4C32 
 6334      4341505F 
ARM GAS  C:\Users\user\AppData\Local\Temp\ccRdimcD.s 			page 159


 6334      43424643 
 6335              	.LASF406:
 6336 3098 4359424C 		.ascii	"CYBLE_EVT_GLSS_INDICATION_DISABLED\000"
 6336      455F4556 
 6336      545F474C 
 6336      53535F49 
 6336      4E444943 
 6337              	.LASF179:
 6338 30bb 4359424C 		.ascii	"CYBLE_GATT_ERR_INVALID_HANDLE\000"
 6338      455F4741 
 6338      54545F45 
 6338      52525F49 
 6338      4E56414C 
 6339              	.LASF345:
 6340 30d9 4359424C 		.ascii	"CYBLE_EVT_CGMSS_INDICATION_DISABLED\000"
 6340      455F4556 
 6340      545F4347 
 6340      4D53535F 
 6340      494E4449 
 6341              	.LASF519:
 6342 30fd 4359424C 		.ascii	"CYBLE_EVT_RSCSS_CHAR_WRITE\000"
 6342      455F4556 
 6342      545F5253 
 6342      4353535F 
 6342      43484152 
 6343              	.LASF497:
 6344 3118 4359424C 		.ascii	"CYBLE_EVT_PASSC_NOTIFICATION\000"
 6344      455F4556 
 6344      545F5041 
 6344      5353435F 
 6344      4E4F5449 
 6345              	.LASF536:
 6346 3135 4359424C 		.ascii	"CYBLE_EVT_TPSC_NOTIFICATION\000"
 6346      455F4556 
 6346      545F5450 
 6346      53435F4E 
 6346      4F544946 
 6347              	.LASF551:
 6348 3151 4359424C 		.ascii	"CYBLE_EVT_UDSC_READ_DESCR_RESPONSE\000"
 6348      455F4556 
 6348      545F5544 
 6348      53435F52 
 6348      4541445F 
 6349              	.LASF65:
 6350 3174 4359424C 		.ascii	"CYBLE_EVT_GATTS_PREP_WRITE_REQ\000"
 6350      455F4556 
 6350      545F4741 
 6350      5454535F 
 6350      50524550 
 6351              	.LASF486:
 6352 3193 4359424C 		.ascii	"CYBLE_EVT_OTSS_WRITE_DESCR\000"
 6352      455F4556 
 6352      545F4F54 
 6352      53535F57 
 6352      52495445 
 6353              	.LASF413:
 6354 31ae 4359424C 		.ascii	"CYBLE_EVT_GLSC_READ_CHAR_RESPONSE\000"
ARM GAS  C:\Users\user\AppData\Local\Temp\ccRdimcD.s 			page 160


 6354      455F4556 
 6354      545F474C 
 6354      53435F52 
 6354      4541445F 
 6355              	.LASF499:
 6356 31d0 4359424C 		.ascii	"CYBLE_EVT_PASSC_READ_DESCR_RESPONSE\000"
 6356      455F4556 
 6356      545F5041 
 6356      5353435F 
 6356      52454144 
 6357              	.LASF523:
 6358 31f4 4359424C 		.ascii	"CYBLE_EVT_RSCSC_WRITE_CHAR_RESPONSE\000"
 6358      455F4556 
 6358      545F5253 
 6358      4353435F 
 6358      57524954 
 6359              	.LASF331:
 6360 3218 4359424C 		.ascii	"CYBLE_EVT_BLSS_INDICATION_DISABLED\000"
 6360      455F4556 
 6360      545F424C 
 6360      53535F49 
 6360      4E444943 
 6361              	.LASF589:
 6362 323b 636F6E6E 		.ascii	"connParameters\000"
 6362      50617261 
 6362      6D657465 
 6362      727300
 6363              	.LASF597:
 6364 324a 54696D65 		.ascii	"Timer_Interrupt\000"
 6364      725F496E 
 6364      74657272 
 6364      75707400 
 6365              	.LASF245:
 6366 325a 4359424C 		.ascii	"CYBLE_BMS_CHAR_COUNT\000"
 6366      455F424D 
 6366      535F4348 
 6366      41525F43 
 6366      4F554E54 
 6367              	.LASF529:
 6368 326f 4359424C 		.ascii	"CYBLE_EVT_SCPSS_NOTIFICATION_DISABLED\000"
 6368      455F4556 
 6368      545F5343 
 6368      5053535F 
 6368      4E4F5449 
 6369              	.LASF439:
 6370 3295 4359424C 		.ascii	"CYBLE_EVT_HRSS_NOTIFICATION_DISABLED\000"
 6370      455F4556 
 6370      545F4852 
 6370      53535F4E 
 6370      4F544946 
 6371              	.LASF607:
 6372 32ba 6379426C 		.ascii	"cyBle_connHandle\000"
 6372      655F636F 
 6372      6E6E4861 
 6372      6E646C65 
 6372      00
 6373              	.LASF379:
ARM GAS  C:\Users\user\AppData\Local\Temp\ccRdimcD.s 			page 161


 6374 32cb 4359424C 		.ascii	"CYBLE_EVT_CSCSC_READ_CHAR_RESPONSE\000"
 6374      455F4556 
 6374      545F4353 
 6374      4353435F 
 6374      52454144 
 6375              	.LASF478:
 6376 32ee 4359424C 		.ascii	"CYBLE_EVT_LNSC_WRITE_CHAR_RESPONSE\000"
 6376      455F4556 
 6376      545F4C4E 
 6376      53435F57 
 6376      52495445 
 6377              	.LASF596:
 6378 3311 62756666 		.ascii	"buffer\000"
 6378      657200
 6379              	.LASF209:
 6380 3318 4359424C 		.ascii	"CYBLE_GATT_ERR_ANS_COMMAND_NOT_SUPPORTED\000"
 6380      455F4741 
 6380      54545F45 
 6380      52525F41 
 6380      4E535F43 
 6381              	.LASF391:
 6382 3341 4359424C 		.ascii	"CYBLE_EVT_DISC_READ_CHAR_RESPONSE\000"
 6382      455F4556 
 6382      545F4449 
 6382      53435F52 
 6382      4541445F 
 6383              	.LASF528:
 6384 3363 4359424C 		.ascii	"CYBLE_EVT_SCPSS_NOTIFICATION_ENABLED\000"
 6384      455F4556 
 6384      545F5343 
 6384      5053535F 
 6384      4E4F5449 
 6385              	.LASF514:
 6386 3388 4359424C 		.ascii	"CYBLE_EVT_RSCSS_NOTIFICATION_ENABLED\000"
 6386      455F4556 
 6386      545F5253 
 6386      4353535F 
 6386      4E4F5449 
 6387              	.LASF53:
 6388 33ad 4359424C 		.ascii	"CYBLE_EVT_GATTS_XCNHG_MTU_REQ\000"
 6388      455F4556 
 6388      545F4741 
 6388      5454535F 
 6388      58434E48 
 6389              	.LASF119:
 6390 33cb 4359424C 		.ascii	"CYBLE_ERROR_MAX\000"
 6390      455F4552 
 6390      524F525F 
 6390      4D415800 
 6391              	.LASF101:
 6392 33db 4359424C 		.ascii	"CYBLE_ERROR_TX_POWER_READ\000"
 6392      455F4552 
 6392      524F525F 
 6392      54585F50 
 6392      4F574552 
 6393              	.LASF566:
 6394 33f5 4359424C 		.ascii	"CYBLE_EVT_WSSS_INDICATION_ENABLED\000"
ARM GAS  C:\Users\user\AppData\Local\Temp\ccRdimcD.s 			page 162


 6394      455F4556 
 6394      545F5753 
 6394      53535F49 
 6394      4E444943 
 6395              	.LASF281:
 6396 3417 4359424C 		.ascii	"CYBLE_EVT_GATTC_DESCR_DUPLICATION\000"
 6396      455F4556 
 6396      545F4741 
 6396      5454435F 
 6396      44455343 
 6397              	.LASF415:
 6398 3439 4359424C 		.ascii	"CYBLE_EVT_GLSC_READ_DESCR_RESPONSE\000"
 6398      455F4556 
 6398      545F474C 
 6398      53435F52 
 6398      4541445F 
 6399              	.LASF369:
 6400 345c 4359424C 		.ascii	"CYBLE_EVT_CPSC_WRITE_DESCR_RESPONSE\000"
 6400      455F4556 
 6400      545F4350 
 6400      53435F57 
 6400      52495445 
 6401              	.LASF149:
 6402 3480 4359424C 		.ascii	"CYBLE_GAP_AUTH_ERROR_PASSKEY_ENTRY_FAILED\000"
 6402      455F4741 
 6402      505F4155 
 6402      54485F45 
 6402      52524F52 
 6403              	.LASF398:
 6404 34aa 4359424C 		.ascii	"CYBLE_EVT_ESSS_DESCR_WRITE\000"
 6404      455F4556 
 6404      545F4553 
 6404      53535F44 
 6404      45534352 
 6405              	.LASF220:
 6406 34c5 4359424C 		.ascii	"CYBLE_UUID128_T\000"
 6406      455F5555 
 6406      49443132 
 6406      385F5400 
 6407              	.LASF344:
 6408 34d5 4359424C 		.ascii	"CYBLE_EVT_CGMSS_INDICATION_ENABLED\000"
 6408      455F4556 
 6408      545F4347 
 6408      4D53535F 
 6408      494E4449 
 6409              	.LASF227:
 6410 34f8 4359424C 		.ascii	"CYBLE_CONN_HANDLE_T\000"
 6410      455F434F 
 6410      4E4E5F48 
 6410      414E444C 
 6410      455F5400 
 6411              	.LASF458:
 6412 350c 4359424C 		.ascii	"CYBLE_EVT_IPSS_WRITE_CHAR\000"
 6412      455F4556 
 6412      545F4950 
 6412      53535F57 
 6412      52495445 
ARM GAS  C:\Users\user\AppData\Local\Temp\ccRdimcD.s 			page 163


 6413              	.LASF69:
 6414 3526 4359424C 		.ascii	"CYBLE_EVT_GATTC_HANDLE_VALUE_IND\000"
 6414      455F4556 
 6414      545F4741 
 6414      5454435F 
 6414      48414E44 
 6415              	.LASF409:
 6416 3547 4359424C 		.ascii	"CYBLE_EVT_GLSS_NOTIFICATION_DISABLED\000"
 6416      455F4556 
 6416      545F474C 
 6416      53535F4E 
 6416      4F544946 
 6417              	.LASF421:
 6418 356c 4359424C 		.ascii	"CYBLE_EVT_HIDSS_SUSPEND\000"
 6418      455F4556 
 6418      545F4849 
 6418      4453535F 
 6418      53555350 
 6419              	.LASF13:
 6420 3584 646F7562 		.ascii	"double\000"
 6420      6C6500
 6421              	.LASF453:
 6422 358b 4359424C 		.ascii	"CYBLE_EVT_HTSC_READ_CHAR_RESPONSE\000"
 6422      455F4556 
 6422      545F4854 
 6422      53435F52 
 6422      4541445F 
 6423              	.LASF183:
 6424 35ad 4359424C 		.ascii	"CYBLE_GATT_ERR_INSUFFICIENT_AUTHENTICATION\000"
 6424      455F4741 
 6424      54545F45 
 6424      52525F49 
 6424      4E535546 
 6425              	.LASF308:
 6426 35d8 4359424C 		.ascii	"CYBLE_EVT_ANCSC_ERROR_RESPONSE\000"
 6426      455F4556 
 6426      545F414E 
 6426      4353435F 
 6426      4552524F 
 6427              	.LASF385:
 6428 35f7 4359424C 		.ascii	"CYBLE_EVT_CTSS_CHAR_WRITE\000"
 6428      455F4556 
 6428      545F4354 
 6428      53535F43 
 6428      4841525F 
 6429              	.LASF51:
 6430 3611 4359424C 		.ascii	"CYBLE_EVT_GATT_CONNECT_IND\000"
 6430      455F4556 
 6430      545F4741 
 6430      54545F43 
 6430      4F4E4E45 
 6431              	.LASF238:
 6432 362c 70726F70 		.ascii	"properties\000"
 6432      65727469 
 6432      657300
 6433              	.LASF46:
 6434 3637 4359424C 		.ascii	"CYBLE_EVT_GAP_CONN_ESTB\000"
ARM GAS  C:\Users\user\AppData\Local\Temp\ccRdimcD.s 			page 164


 6434      455F4556 
 6434      545F4741 
 6434      505F434F 
 6434      4E4E5F45 
 6435              	.LASF562:
 6436 364f 4359424C 		.ascii	"CYBLE_EVT_WPTSC_WRITE_CHAR_RESPONSE\000"
 6436      455F4556 
 6436      545F5750 
 6436      5453435F 
 6436      57524954 
 6437              	.LASF401:
 6438 3673 4359424C 		.ascii	"CYBLE_EVT_ESSC_READ_CHAR_RESPONSE\000"
 6438      455F4556 
 6438      545F4553 
 6438      53435F52 
 6438      4541445F 
 6439              	.LASF49:
 6440 3695 4359424C 		.ascii	"CYBLE_EVT_GAP_SMP_LOC_P256_KEYS_GEN_AND_SET_COMPLET"
 6440      455F4556 
 6440      545F4741 
 6440      505F534D 
 6440      505F4C4F 
 6441 36c8 4500     		.ascii	"E\000"
 6442              	.LASF545:
 6443 36ca 4359424C 		.ascii	"CYBLE_EVT_UDSS_READ_CHAR\000"
 6443      455F4556 
 6443      545F5544 
 6443      53535F52 
 6443      4541445F 
 6444              	.LASF142:
 6445 36e3 4359424C 		.ascii	"CYBLE_GAP_BD_ADDR_T\000"
 6445      455F4741 
 6445      505F4244 
 6445      5F414444 
 6445      525F5400 
 6446              	.LASF368:
 6447 36f7 4359424C 		.ascii	"CYBLE_EVT_CPSC_READ_DESCR_RESPONSE\000"
 6447      455F4556 
 6447      545F4350 
 6447      53435F52 
 6447      4541445F 
 6448              	.LASF280:
 6449 371a 4359424C 		.ascii	"CYBLE_EVT_GATTC_CHAR_DUPLICATION\000"
 6449      455F4556 
 6449      545F4741 
 6449      5454435F 
 6449      43484152 
 6450              	.LASF516:
 6451 373b 4359424C 		.ascii	"CYBLE_EVT_RSCSS_INDICATION_ENABLED\000"
 6451      455F4556 
 6451      545F5253 
 6451      4353535F 
 6451      494E4449 
 6452              	.LASF349:
 6453 375e 4359424C 		.ascii	"CYBLE_EVT_CGMSS_WRITE_CHAR\000"
 6453      455F4556 
 6453      545F4347 
ARM GAS  C:\Users\user\AppData\Local\Temp\ccRdimcD.s 			page 165


 6453      4D53535F 
 6453      57524954 
 6454              	.LASF384:
 6455 3779 4359424C 		.ascii	"CYBLE_EVT_CTSS_NOTIFICATION_DISABLED\000"
 6455      455F4556 
 6455      545F4354 
 6455      53535F4E 
 6455      4F544946 
 6456              	.LASF18:
 6457 379e 73697A65 		.ascii	"sizetype\000"
 6457      74797065 
 6457      00
 6458              	.LASF264:
 6459 37a7 4359424C 		.ascii	"CYBLE_DIS_SYSTEM_ID\000"
 6459      455F4449 
 6459      535F5359 
 6459      5354454D 
 6459      5F494400 
 6460              	.LASF212:
 6461 37bb 4359424C 		.ascii	"CYBLE_GATT_ERR_ANCS_INVALID_PARAMETER\000"
 6461      455F4741 
 6461      54545F45 
 6461      52525F41 
 6461      4E43535F 
 6462              	.LASF517:
 6463 37e1 4359424C 		.ascii	"CYBLE_EVT_RSCSS_INDICATION_DISABLED\000"
 6463      455F4556 
 6463      545F5253 
 6463      4353535F 
 6463      494E4449 
 6464              	.LASF321:
 6465 3805 4359424C 		.ascii	"CYBLE_EVT_BASC_READ_DESCR_RESPONSE\000"
 6465      455F4556 
 6465      545F4241 
 6465      53435F52 
 6465      4541445F 
 6466              	.LASF289:
 6467 3828 4359424C 		.ascii	"CYBLE_EVT_AIOSS_INDICATION_ENABLED\000"
 6467      455F4556 
 6467      545F4149 
 6467      4F53535F 
 6467      494E4449 
 6468              	.LASF202:
 6469 384b 4359424C 		.ascii	"CYBLE_GATT_ERR_OP_CODE_NOT_SUPPORTED\000"
 6469      455F4741 
 6469      54545F45 
 6469      52525F4F 
 6469      505F434F 
 6470              	.LASF347:
 6471 3870 4359424C 		.ascii	"CYBLE_EVT_CGMSS_NOTIFICATION_ENABLED\000"
 6471      455F4556 
 6471      545F4347 
 6471      4D53535F 
 6471      4E4F5449 
 6472              	.LASF362:
 6473 3895 4359424C 		.ascii	"CYBLE_EVT_CPSS_BROADCAST_DISABLED\000"
 6473      455F4556 
ARM GAS  C:\Users\user\AppData\Local\Temp\ccRdimcD.s 			page 166


 6473      545F4350 
 6473      53535F42 
 6473      524F4144 
 6474              	.LASF96:
 6475 38b7 4359424C 		.ascii	"CYBLE_ERROR_OOB_NOT_AVAILABLE\000"
 6475      455F4552 
 6475      524F525F 
 6475      4F4F425F 
 6475      4E4F545F 
 6476              	.LASF527:
 6477 38d5 4359424C 		.ascii	"CYBLE_EVT_RTUSC_READ_CHAR_RESPONSE\000"
 6477      455F4556 
 6477      545F5254 
 6477      5553435F 
 6477      52454144 
 6478              	.LASF599:
 6479 38f8 696E7465 		.ascii	"interruptStatus\000"
 6479      72727570 
 6479      74537461 
 6479      74757300 
 6480              	.LASF126:
 6481 3908 4359424C 		.ascii	"CYBLE_BLESS_ACTIVE\000"
 6481      455F424C 
 6481      4553535F 
 6481      41435449 
 6481      564500
 6482              	.LASF470:
 6483 391b 4359424C 		.ascii	"CYBLE_EVT_LNSS_INDICATION_DISABLED\000"
 6483      455F4556 
 6483      545F4C4E 
 6483      53535F49 
 6483      4E444943 
 6484              	.LASF558:
 6485 393e 4359424C 		.ascii	"CYBLE_EVT_WPTSS_INDICATION_CONFIRMED\000"
 6485      455F4556 
 6485      545F5750 
 6485      5453535F 
 6485      494E4449 
 6486              	.LASF310:
 6487 3963 4359424C 		.ascii	"CYBLE_EVT_ANSS_NOTIFICATION_DISABLED\000"
 6487      455F4556 
 6487      545F414E 
 6487      53535F4E 
 6487      4F544946 
 6488              	.LASF31:
 6489 3988 4359424C 		.ascii	"CYBLE_EVT_GAP_AUTH_FAILED\000"
 6489      455F4556 
 6489      545F4741 
 6489      505F4155 
 6489      54485F46 
 6490              	.LASF208:
 6491 39a2 4359424C 		.ascii	"CYBLE_GATTS_ERR_NETWORK_NOT_AVAILABLE\000"
 6491      455F4741 
 6491      5454535F 
 6491      4552525F 
 6491      4E455457 
 6492              	.LASF348:
ARM GAS  C:\Users\user\AppData\Local\Temp\ccRdimcD.s 			page 167


 6493 39c8 4359424C 		.ascii	"CYBLE_EVT_CGMSS_NOTIFICATION_DISABLED\000"
 6493      455F4556 
 6493      545F4347 
 6493      4D53535F 
 6493      4E4F5449 
 6494              	.LASF201:
 6495 39ee 4359424C 		.ascii	"CYBLE_GATTS_ERR_PROCEDURE_ALREADY_IN_PROGRESS\000"
 6495      455F4741 
 6495      5454535F 
 6495      4552525F 
 6495      50524F43 
 6496              	.LASF408:
 6497 3a1c 4359424C 		.ascii	"CYBLE_EVT_GLSS_NOTIFICATION_ENABLED\000"
 6497      455F4556 
 6497      545F474C 
 6497      53535F4E 
 6497      4F544946 
 6498              	.LASF117:
 6499 3a40 4359424C 		.ascii	"CYBLE_ERROR_LL_SAME_TRANSACTION_COLLISION\000"
 6499      455F4552 
 6499      524F525F 
 6499      4C4C5F53 
 6499      414D455F 
 6500              	.LASF485:
 6501 3a6a 4359424C 		.ascii	"CYBLE_EVT_OTSS_WRITE_CHAR\000"
 6501      455F4556 
 6501      545F4F54 
 6501      53535F57 
 6501      52495445 
 6502              	.LASF239:
 6503 3a84 76616C75 		.ascii	"valueHandle\000"
 6503      6548616E 
 6503      646C6500 
 6504              	.LASF159:
 6505 3a90 4359424C 		.ascii	"CYBLE_GAP_AUTH_ERROR_DHKEY_CHECK_FAILED\000"
 6505      455F4741 
 6505      505F4155 
 6505      54485F45 
 6505      52524F52 
 6506              	.LASF73:
 6507 3ab8 4359424C 		.ascii	"CYBLE_EVT_GATTS_READ_CHAR_VAL_ACCESS_REQ\000"
 6507      455F4556 
 6507      545F4741 
 6507      5454535F 
 6507      52454144 
 6508              	.LASF75:
 6509 3ae1 4359424C 		.ascii	"CYBLE_EVT_L2CAP_CONN_PARAM_UPDATE_REQ\000"
 6509      455F4556 
 6509      545F4C32 
 6509      4341505F 
 6509      434F4E4E 
 6510              	.LASF504:
 6511 3b07 4359424C 		.ascii	"CYBLE_EVT_PLXSS_INDICATION_ENABLED\000"
 6511      455F4556 
 6511      545F504C 
 6511      5853535F 
 6511      494E4449 
ARM GAS  C:\Users\user\AppData\Local\Temp\ccRdimcD.s 			page 168


 6512              	.LASF515:
 6513 3b2a 4359424C 		.ascii	"CYBLE_EVT_RSCSS_NOTIFICATION_DISABLED\000"
 6513      455F4556 
 6513      545F5253 
 6513      4353535F 
 6513      4E4F5449 
 6514              	.LASF7:
 6515 3b50 6C6F6E67 		.ascii	"long long unsigned int\000"
 6515      206C6F6E 
 6515      6720756E 
 6515      7369676E 
 6515      65642069 
 6516              	.LASF312:
 6517 3b67 4359424C 		.ascii	"CYBLE_EVT_ANSC_NOTIFICATION\000"
 6517      455F4556 
 6517      545F414E 
 6517      53435F4E 
 6517      4F544946 
 6518              	.LASF324:
 6519 3b83 4359424C 		.ascii	"CYBLE_EVT_BCSS_INDICATION_DISABLED\000"
 6519      455F4556 
 6519      545F4243 
 6519      53535F49 
 6519      4E444943 
 6520              	.LASF266:
 6521 3ba6 4359424C 		.ascii	"CYBLE_DIS_PNP_ID\000"
 6521      455F4449 
 6521      535F504E 
 6521      505F4944 
 6521      00
 6522              	.LASF442:
 6523 3bb7 4359424C 		.ascii	"CYBLE_EVT_HRSC_WRITE_CHAR_RESPONSE\000"
 6523      455F4556 
 6523      545F4852 
 6523      53435F57 
 6523      52495445 
 6524              	.LASF165:
 6525 3bda 4359424C 		.ascii	"CYBLE_GAP_AUTH_ERROR_LINK_DISCONNECTED\000"
 6525      455F4741 
 6525      505F4155 
 6525      54485F45 
 6525      52524F52 
 6526              	.LASF582:
 6527 3c01 41555448 		.ascii	"AUTHENTICATION_PASSKEY_ENTERED\000"
 6527      454E5449 
 6527      43415449 
 6527      4F4E5F50 
 6527      4153534B 
 6528              	.LASF108:
 6529 3c20 4359424C 		.ascii	"CYBLE_ERROR_L2CAP_CHANNEL_NOT_FOUND\000"
 6529      455F4552 
 6529      524F525F 
 6529      4C324341 
 6529      505F4348 
 6530              	.LASF259:
 6531 3c44 4359424C 		.ascii	"CYBLE_DIS_MODEL_NUMBER\000"
 6531      455F4449 
ARM GAS  C:\Users\user\AppData\Local\Temp\ccRdimcD.s 			page 169


 6531      535F4D4F 
 6531      44454C5F 
 6531      4E554D42 
 6532              	.LASF543:
 6533 3c5b 4359424C 		.ascii	"CYBLE_EVT_UDSS_NOTIFICATION_ENABLED\000"
 6533      455F4556 
 6533      545F5544 
 6533      53535F4E 
 6533      4F544946 
 6534              	.LASF412:
 6535 3c7f 4359424C 		.ascii	"CYBLE_EVT_GLSC_NOTIFICATION\000"
 6535      455F4556 
 6535      545F474C 
 6535      53435F4E 
 6535      4F544946 
 6536              	.LASF306:
 6537 3c9b 4359424C 		.ascii	"CYBLE_EVT_ANCSC_READ_DESCR_RESPONSE\000"
 6537      455F4556 
 6537      545F414E 
 6537      4353435F 
 6537      52454144 
 6538              	.LASF584:
 6539 3cbf 41555448 		.ascii	"AUTHENTICATION_COMPLETE_BONDING_REQD\000"
 6539      454E5449 
 6539      43415449 
 6539      4F4E5F43 
 6539      4F4D504C 
 6540              	.LASF490:
 6541 3ce4 4359424C 		.ascii	"CYBLE_EVT_OTSC_WRITE_CHAR_RESPONSE\000"
 6541      455F4556 
 6541      545F4F54 
 6541      53435F57 
 6541      52495445 
 6542              	.LASF604:
 6543 3d07 6379426C 		.ascii	"cyBle_authInfo\000"
 6543      655F6175 
 6543      7468496E 
 6543      666F00
 6544              	.LASF47:
 6545 3d16 4359424C 		.ascii	"CYBLE_EVT_GAP_SCAN_REQ_RECVD\000"
 6545      455F4556 
 6545      545F4741 
 6545      505F5343 
 6545      414E5F52 
 6546              	.LASF112:
 6547 3d33 4359424C 		.ascii	"CYBLE_ERROR_FLASH_WRITE_NOT_PERMITED\000"
 6547      455F4552 
 6547      524F525F 
 6547      464C4153 
 6547      485F5752 
 6548              	.LASF293:
 6549 3d58 4359424C 		.ascii	"CYBLE_EVT_AIOSS_DESCR_WRITE\000"
 6549      455F4556 
 6549      545F4149 
 6549      4F53535F 
 6549      44455343 
 6550              	.LASF36:
ARM GAS  C:\Users\user\AppData\Local\Temp\ccRdimcD.s 			page 170


 6551 3d74 4359424C 		.ascii	"CYBLE_EVT_GAP_CONNECTION_UPDATE_COMPLETE\000"
 6551      455F4556 
 6551      545F4741 
 6551      505F434F 
 6551      4E4E4543 
 6552              	.LASF298:
 6553 3d9d 4359424C 		.ascii	"CYBLE_EVT_AIOSC_READ_DESCR_RESPONSE\000"
 6553      455F4556 
 6553      545F4149 
 6553      4F53435F 
 6553      52454144 
 6554              	.LASF254:
 6555 3dc1 4359424C 		.ascii	"CYBLE_CGMS_SOCP\000"
 6555      455F4347 
 6555      4D535F53 
 6555      4F435000 
 6556              	.LASF200:
 6557 3dd1 4359424C 		.ascii	"CYBLE_GATT_ERR_HTS_OUT_OF_RANGE\000"
 6557      455F4741 
 6557      54545F45 
 6557      52525F48 
 6557      54535F4F 
 6558              	.LASF507:
 6559 3df1 4359424C 		.ascii	"CYBLE_EVT_PLXSC_NOTIFICATION\000"
 6559      455F4556 
 6559      545F504C 
 6559      5853435F 
 6559      4E4F5449 
 6560              	.LASF377:
 6561 3e0e 4359424C 		.ascii	"CYBLE_EVT_CSCSC_NOTIFICATION\000"
 6561      455F4556 
 6561      545F4353 
 6561      4353435F 
 6561      4E4F5449 
 6562              	.LASF525:
 6563 3e2b 4359424C 		.ascii	"CYBLE_EVT_RSCSC_WRITE_DESCR_RESPONSE\000"
 6563      455F4556 
 6563      545F5253 
 6563      4353435F 
 6563      57524954 
 6564              	.LASF364:
 6565 3e50 4359424C 		.ascii	"CYBLE_EVT_CPSC_NOTIFICATION\000"
 6565      455F4556 
 6565      545F4350 
 6565      53435F4E 
 6565      4F544946 
 6566              	.LASF605:
 6567 3e6c 6379426C 		.ascii	"cyBle_pendingFlashWrite\000"
 6567      655F7065 
 6567      6E64696E 
 6567      67466C61 
 6567      73685772 
 6568              	.LASF477:
 6569 3e84 4359424C 		.ascii	"CYBLE_EVT_LNSC_READ_CHAR_RESPONSE\000"
 6569      455F4556 
 6569      545F4C4E 
 6569      53435F52 
ARM GAS  C:\Users\user\AppData\Local\Temp\ccRdimcD.s 			page 171


 6569      4541445F 
 6570              	.LASF232:
 6571 3ea6 636F6E6E 		.ascii	"connHandle\000"
 6571      48616E64 
 6571      6C6500
 6572              	.LASF137:
 6573 3eb1 4359424C 		.ascii	"CYBLE_BLESS_STATE_DEEPSLEEP\000"
 6573      455F424C 
 6573      4553535F 
 6573      53544154 
 6573      455F4445 
 6574              	.LASF274:
 6575 3ecd 4359424C 		.ascii	"CYBLE_EVT_GATTC_INDICATION\000"
 6575      455F4556 
 6575      545F4741 
 6575      5454435F 
 6575      494E4449 
 6576              	.LASF350:
 6577 3ee8 4359424C 		.ascii	"CYBLE_EVT_CGMSC_INDICATION\000"
 6577      455F4556 
 6577      545F4347 
 6577      4D53435F 
 6577      494E4449 
 6578              	.LASF565:
 6579 3f03 4359424C 		.ascii	"CYBLE_EVT_WPTSC_WRITE_DESCR_RESPONSE\000"
 6579      455F4556 
 6579      545F5750 
 6579      5453435F 
 6579      57524954 
 6580              	.LASF521:
 6581 3f28 4359424C 		.ascii	"CYBLE_EVT_RSCSC_INDICATION\000"
 6581      455F4556 
 6581      545F5253 
 6581      4353435F 
 6581      494E4449 
 6582              	.LASF575:
 6583 3f43 4359424C 		.ascii	"CYBLE_STATE_INITIALIZING\000"
 6583      455F5354 
 6583      4154455F 
 6583      494E4954 
 6583      49414C49 
 6584              	.LASF276:
 6585 3f5c 4359424C 		.ascii	"CYBLE_EVT_GATTC_INCL_DISCOVERY_FAILED\000"
 6585      455F4556 
 6585      545F4741 
 6585      5454435F 
 6585      494E434C 
 6586              	.LASF363:
 6587 3f82 4359424C 		.ascii	"CYBLE_EVT_CPSS_CHAR_WRITE\000"
 6587      455F4556 
 6587      545F4350 
 6587      53535F43 
 6587      4841525F 
 6588              	.LASF89:
 6589 3f9c 4359424C 		.ascii	"CYBLE_EVT_FLASH_CORRUPT\000"
 6589      455F4556 
 6589      545F464C 
ARM GAS  C:\Users\user\AppData\Local\Temp\ccRdimcD.s 			page 172


 6589      4153485F 
 6589      434F5252 
 6590              	.LASF397:
 6591 3fb4 4359424C 		.ascii	"CYBLE_EVT_ESSS_CHAR_WRITE\000"
 6591      455F4556 
 6591      545F4553 
 6591      53535F43 
 6591      4841525F 
 6592              	.LASF557:
 6593 3fce 4359424C 		.ascii	"CYBLE_EVT_WPTSS_INDICATION_DISABLED\000"
 6593      455F4556 
 6593      545F5750 
 6593      5453535F 
 6593      494E4449 
 6594              	.LASF410:
 6595 3ff2 4359424C 		.ascii	"CYBLE_EVT_GLSS_WRITE_CHAR\000"
 6595      455F4556 
 6595      545F474C 
 6595      53535F57 
 6595      52495445 
 6596              	.LASF560:
 6597 400c 4359424C 		.ascii	"CYBLE_EVT_WPTSC_NOTIFICATION\000"
 6597      455F4556 
 6597      545F5750 
 6597      5453435F 
 6597      4E4F5449 
 6598              	.LASF170:
 6599 4029 61757468 		.ascii	"authErr\000"
 6599      45727200 
 6600              	.LASF262:
 6601 4031 4359424C 		.ascii	"CYBLE_DIS_FIRMWARE_REV\000"
 6601      455F4449 
 6601      535F4649 
 6601      524D5741 
 6601      52455F52 
 6602              	.LASF39:
 6603 4048 4359424C 		.ascii	"CYBLE_EVT_GAP_NUMERIC_COMPARISON_REQUEST\000"
 6603      455F4556 
 6603      545F4741 
 6603      505F4E55 
 6603      4D455249 
 6604              	.LASF433:
 6605 4071 4359424C 		.ascii	"CYBLE_EVT_HPSC_READ_CHAR_RESPONSE\000"
 6605      455F4556 
 6605      545F4850 
 6605      53435F52 
 6605      4541445F 
 6606              	.LASF48:
 6607 4093 4359424C 		.ascii	"CYBLE_EVT_GAP_AUTH_REQ_REPLY_ERR\000"
 6607      455F4556 
 6607      545F4741 
 6607      505F4155 
 6607      54485F52 
 6608              	.LASF139:
 6609 40b4 4359424C 		.ascii	"CYBLE_BLESS_STATE_INVALID\000"
 6609      455F424C 
 6609      4553535F 
ARM GAS  C:\Users\user\AppData\Local\Temp\ccRdimcD.s 			page 173


 6609      53544154 
 6609      455F494E 
 6610              	.LASF191:
 6611 40ce 4359424C 		.ascii	"CYBLE_GATT_ERR_INVALID_ATTRIBUTE_LEN\000"
 6611      455F4741 
 6611      54545F45 
 6611      52525F49 
 6611      4E56414C 
 6612              	.LASF6:
 6613 40f3 6C6F6E67 		.ascii	"long long int\000"
 6613      206C6F6E 
 6613      6720696E 
 6613      7400
 6614              	.LASF358:
 6615 4101 4359424C 		.ascii	"CYBLE_EVT_CPSS_INDICATION_ENABLED\000"
 6615      455F4556 
 6615      545F4350 
 6615      53535F49 
 6615      4E444943 
 6616              	.LASF272:
 6617 4123 4359424C 		.ascii	"CYBLE_EVT_GATTS_INDICATION_ENABLED\000"
 6617      455F4556 
 6617      545F4741 
 6617      5454535F 
 6617      494E4449 
 6618              	.LASF37:
 6619 4146 4359424C 		.ascii	"CYBLE_EVT_GAPC_SCAN_START_STOP\000"
 6619      455F4556 
 6619      545F4741 
 6619      50435F53 
 6619      43414E5F 
 6620              	.LASF153:
 6621 4165 4359424C 		.ascii	"CYBLE_GAP_AUTH_ERROR_PAIRING_NOT_SUPPORTED\000"
 6621      455F4741 
 6621      505F4155 
 6621      54485F45 
 6621      52524F52 
 6622              	.LASF70:
 6623 4190 4359424C 		.ascii	"CYBLE_EVT_GATTS_HANDLE_VALUE_CNF\000"
 6623      455F4556 
 6623      545F4741 
 6623      5454535F 
 6623      48414E44 
 6624              	.LASF273:
 6625 41b1 4359424C 		.ascii	"CYBLE_EVT_GATTS_INDICATION_DISABLED\000"
 6625      455F4556 
 6625      545F4741 
 6625      5454535F 
 6625      494E4449 
 6626              	.LASF104:
 6627 41d5 4359424C 		.ascii	"CYBLE_ERROR_L2CAP_PSM_WRONG_ENCODING\000"
 6627      455F4552 
 6627      524F525F 
 6627      4C324341 
 6627      505F5053 
 6628              	.LASF198:
 6629 41fa 4359424C 		.ascii	"CYBLE_GATT_ERR_USER_DATA_ACCESS_NOT_PERMITTED\000"
ARM GAS  C:\Users\user\AppData\Local\Temp\ccRdimcD.s 			page 174


 6629      455F4741 
 6629      54545F45 
 6629      52525F55 
 6629      5345525F 
 6630              	.LASF154:
 6631 4228 4359424C 		.ascii	"CYBLE_GAP_AUTH_ERROR_INSUFFICIENT_ENCRYPTION_KEY_SI"
 6631      455F4741 
 6631      505F4155 
 6631      54485F45 
 6631      52524F52 
 6632 425b 5A4500   		.ascii	"ZE\000"
 6633              	.LASF418:
 6634 425e 4359424C 		.ascii	"CYBLE_EVT_HIDSS_NOTIFICATION_DISABLED\000"
 6634      455F4556 
 6634      545F4849 
 6634      4453535F 
 6634      4E4F5449 
 6635              	.LASF617:
 6636 4284 6D61696E 		.ascii	"main.c\000"
 6636      2E6300
 6637              	.LASF168:
 6638 428b 626F6E64 		.ascii	"bonding\000"
 6638      696E6700 
 6639              	.LASF62:
 6640 4293 4359424C 		.ascii	"CYBLE_EVT_GATTS_WRITE_REQ\000"
 6640      455F4556 
 6640      545F4741 
 6640      5454535F 
 6640      57524954 
 6641              	.LASF534:
 6642 42ad 4359424C 		.ascii	"CYBLE_EVT_TPSS_NOTIFICATION_ENABLED\000"
 6642      455F4556 
 6642      545F5450 
 6642      53535F4E 
 6642      4F544946 
 6643              	.LASF74:
 6644 42d1 4359424C 		.ascii	"CYBLE_EVT_GATTC_LONG_PROCEDURE_END\000"
 6644      455F4556 
 6644      545F4741 
 6644      5454435F 
 6644      4C4F4E47 
 6645              	.LASF337:
 6646 42f4 4359424C 		.ascii	"CYBLE_EVT_BLSC_READ_CHAR_RESPONSE\000"
 6646      455F4556 
 6646      545F424C 
 6646      53435F52 
 6646      4541445F 
 6647              	.LASF618:
 6648 4316 433A5C55 		.ascii	"C:\\Users\\user\\Desktop\\Testy 740G\\BLE projekt\\"
 6648      73657273 
 6648      5C757365 
 6648      725C4465 
 6648      736B746F 
 6649 4343 424C455F 		.ascii	"BLE_Continuous_Glucose_Monitoring_Sensor01\\BLE_Con"
 6649      436F6E74 
 6649      696E756F 
 6649      75735F47 
ARM GAS  C:\Users\user\AppData\Local\Temp\ccRdimcD.s 			page 175


 6649      6C75636F 
 6650 4375 74696E75 		.ascii	"tinuous_Glucose_Monitoring_Sensor02.cydsn\000"
 6650      6F75735F 
 6650      476C7563 
 6650      6F73655F 
 6650      4D6F6E69 
 6651              	.LASF218:
 6652 439f 4359424C 		.ascii	"CYBLE_UUID16\000"
 6652      455F5555 
 6652      49443136 
 6652      00
 6653              	.LASF56:
 6654 43ac 4359424C 		.ascii	"CYBLE_EVT_GATTC_READ_BY_TYPE_RSP\000"
 6654      455F4556 
 6654      545F4741 
 6654      5454435F 
 6654      52454144 
 6655              	.LASF114:
 6656 43cd 4359424C 		.ascii	"CYBLE_ERROR_HARDWARE_FAILURE\000"
 6656      455F4552 
 6656      524F525F 
 6656      48415244 
 6656      57415245 
 6657              	.LASF83:
 6658 43ea 4359424C 		.ascii	"CYBLE_EVT_L2CAP_CBFC_RX_CREDIT_IND\000"
 6658      455F4556 
 6658      545F4C32 
 6658      4341505F 
 6658      43424643 
 6659              	.LASF332:
 6660 440d 4359424C 		.ascii	"CYBLE_EVT_BLSS_INDICATION_CONFIRMED\000"
 6660      455F4556 
 6660      545F424C 
 6660      53535F49 
 6660      4E444943 
 6661              	.LASF419:
 6662 4431 4359424C 		.ascii	"CYBLE_EVT_HIDSS_BOOT_MODE_ENTER\000"
 6662      455F4556 
 6662      545F4849 
 6662      4453535F 
 6662      424F4F54 
 6663              	.LASF564:
 6664 4451 4359424C 		.ascii	"CYBLE_EVT_WPTSC_READ_DESCR_RESPONSE\000"
 6664      455F4556 
 6664      545F5750 
 6664      5453435F 
 6664      52454144 
 6665              	.LASF511:
 6666 4475 4359424C 		.ascii	"CYBLE_EVT_PLXSC_READ_DESCR_RESPONSE\000"
 6666      455F4556 
 6666      545F504C 
 6666      5853435F 
 6666      52454144 
 6667              	.LASF610:
 6668 4499 70617373 		.ascii	"passkeyValue\000"
 6668      6B657956 
 6668      616C7565 
ARM GAS  C:\Users\user\AppData\Local\Temp\ccRdimcD.s 			page 176


 6668      00
 6669              	.LASF425:
 6670 44a6 4359424C 		.ascii	"CYBLE_EVT_HIDSC_READ_CHAR_RESPONSE\000"
 6670      455F4556 
 6670      545F4849 
 6670      4453435F 
 6670      52454144 
 6671              	.LASF41:
 6672 44c9 4359424C 		.ascii	"CYBLE_EVT_GAP_OOB_GENERATED_NOTIFICATION\000"
 6672      455F4556 
 6672      545F4741 
 6672      505F4F4F 
 6672      425F4745 
 6673              	.LASF431:
 6674 44f2 4359424C 		.ascii	"CYBLE_EVT_HPSS_CHAR_WRITE\000"
 6674      455F4556 
 6674      545F4850 
 6674      53535F43 
 6674      4841525F 
 6675              	.LASF468:
 6676 450c 4359424C 		.ascii	"CYBLE_EVT_LLSC_WRITE_CHAR_RESPONSE\000"
 6676      455F4556 
 6676      545F4C4C 
 6676      53435F57 
 6676      52495445 
 6677              	.LASF203:
 6678 452f 4359424C 		.ascii	"CYBLE_GATT_ERR_MISSING_CRC\000"
 6678      455F4741 
 6678      54545F45 
 6678      52525F4D 
 6678      49535349 
 6679              	.LASF150:
 6680 454a 4359424C 		.ascii	"CYBLE_GAP_AUTH_ERROR_OOB_DATA_NOT_AVAILABLE\000"
 6680      455F4741 
 6680      505F4155 
 6680      54485F45 
 6680      52524F52 
 6681              	.LASF603:
 6682 4576 6C6F6361 		.ascii	"localAddr\000"
 6682      6C416464 
 6682      7200
 6683              	.LASF269:
 6684 4580 4359424C 		.ascii	"CYBLE_PASSKEY_ENTRY_REQUEST_REPLY\000"
 6684      455F5041 
 6684      53534B45 
 6684      595F454E 
 6684      5452595F 
 6685              	.LASF84:
 6686 45a2 4359424C 		.ascii	"CYBLE_EVT_L2CAP_CBFC_TX_CREDIT_IND\000"
 6686      455F4556 
 6686      545F4C32 
 6686      4341505F 
 6686      43424643 
 6687              	.LASF294:
 6688 45c5 4359424C 		.ascii	"CYBLE_EVT_AIOSC_NOTIFICATION\000"
 6688      455F4556 
 6688      545F4149 
ARM GAS  C:\Users\user\AppData\Local\Temp\ccRdimcD.s 			page 177


 6688      4F53435F 
 6688      4E4F5449 
 6689              	.LASF230:
 6690 45e2 61747472 		.ascii	"attrHandle\000"
 6690      48616E64 
 6690      6C6500
 6691              	.LASF601:
 6692 45ed 6D61696E 		.ascii	"main\000"
 6692      00
 6693              	.LASF143:
 6694 45f2 4359424C 		.ascii	"CYBLE_GAP_SEC_LEVEL_1\000"
 6694      455F4741 
 6694      505F5345 
 6694      435F4C45 
 6694      56454C5F 
 6695              	.LASF144:
 6696 4608 4359424C 		.ascii	"CYBLE_GAP_SEC_LEVEL_2\000"
 6696      455F4741 
 6696      505F5345 
 6696      435F4C45 
 6696      56454C5F 
 6697              	.LASF145:
 6698 461e 4359424C 		.ascii	"CYBLE_GAP_SEC_LEVEL_3\000"
 6698      455F4741 
 6698      505F5345 
 6698      435F4C45 
 6698      56454C5F 
 6699              	.LASF146:
 6700 4634 4359424C 		.ascii	"CYBLE_GAP_SEC_LEVEL_4\000"
 6700      455F4741 
 6700      505F5345 
 6700      435F4C45 
 6700      56454C5F 
 6701              	.LASF224:
 6702 464a 4359424C 		.ascii	"CYBLE_GATT_DB_ATTR_HANDLE_T\000"
 6702      455F4741 
 6702      54545F44 
 6702      425F4154 
 6702      54525F48 
 6703              	.LASF537:
 6704 4666 4359424C 		.ascii	"CYBLE_EVT_TPSC_READ_CHAR_RESPONSE\000"
 6704      455F4556 
 6704      545F5450 
 6704      53435F52 
 6704      4541445F 
 6705              	.LASF483:
 6706 4688 4359424C 		.ascii	"CYBLE_EVT_OTSS_INDICATION_DISABLED\000"
 6706      455F4556 
 6706      545F4F54 
 6706      53535F49 
 6706      4E444943 
 6707              	.LASF8:
 6708 46ab 756E7369 		.ascii	"unsigned int\000"
 6708      676E6564 
 6708      20696E74 
 6708      00
 6709              	.LASF43:
ARM GAS  C:\Users\user\AppData\Local\Temp\ccRdimcD.s 			page 178


 6710 46b8 4359424C 		.ascii	"CYBLE_EVT_GAP_ENHANCE_CONN_COMPLETE\000"
 6710      455F4556 
 6710      545F4741 
 6710      505F454E 
 6710      48414E43 
 6711              	.LASF549:
 6712 46dc 4359424C 		.ascii	"CYBLE_EVT_UDSC_READ_CHAR_RESPONSE\000"
 6712      455F4556 
 6712      545F5544 
 6712      53435F52 
 6712      4541445F 
 6713              	.LASF193:
 6714 46fe 4359424C 		.ascii	"CYBLE_GATT_ERR_INSUFFICIENT_ENCRYPTION\000"
 6714      455F4741 
 6714      54545F45 
 6714      52525F49 
 6714      4E535546 
 6715              	.LASF2:
 6716 4725 73686F72 		.ascii	"short int\000"
 6716      7420696E 
 6716      7400
 6717              	.LASF256:
 6718 472f 4359424C 		.ascii	"CYBLE_CGMS_CCCD\000"
 6718      455F4347 
 6718      4D535F43 
 6718      43434400 
 6719              	.LASF378:
 6720 473f 4359424C 		.ascii	"CYBLE_EVT_CSCSC_INDICATION\000"
 6720      455F4556 
 6720      545F4353 
 6720      4353435F 
 6720      494E4449 
 6721              	.LASF180:
 6722 475a 4359424C 		.ascii	"CYBLE_GATT_ERR_READ_NOT_PERMITTED\000"
 6722      455F4741 
 6722      54545F45 
 6722      52525F52 
 6722      4541445F 
 6723              	.LASF29:
 6724 477c 4359424C 		.ascii	"CYBLE_EVT_GAP_PASSKEY_DISPLAY_REQUEST\000"
 6724      455F4556 
 6724      545F4741 
 6724      505F5041 
 6724      53534B45 
 6725              	.LASF548:
 6726 47a2 4359424C 		.ascii	"CYBLE_EVT_UDSC_NOTIFICATION\000"
 6726      455F4556 
 6726      545F5544 
 6726      53435F4E 
 6726      4F544946 
 6727              	.LASF402:
 6728 47be 4359424C 		.ascii	"CYBLE_EVT_ESSC_WRITE_CHAR_RESPONSE\000"
 6728      455F4556 
 6728      545F4553 
 6728      53435F57 
 6728      52495445 
 6729              	.LASF217:
ARM GAS  C:\Users\user\AppData\Local\Temp\ccRdimcD.s 			page 179


 6730 47e1 4359424C 		.ascii	"CYBLE_GATT_ERR_CODE_T\000"
 6730      455F4741 
 6730      54545F45 
 6730      52525F43 
 6730      4F44455F 
 6731              	.LASF446:
 6732 47f7 4359424C 		.ascii	"CYBLE_EVT_HTSS_NOTIFICATION_DISABLED\000"
 6732      455F4556 
 6732      545F4854 
 6732      53535F4E 
 6732      4F544946 
 6733              	.LASF443:
 6734 481c 4359424C 		.ascii	"CYBLE_EVT_HRSC_READ_DESCR_RESPONSE\000"
 6734      455F4556 
 6734      545F4852 
 6734      53435F52 
 6734      4541445F 
 6735              	.LASF387:
 6736 483f 4359424C 		.ascii	"CYBLE_EVT_CTSC_READ_CHAR_RESPONSE\000"
 6736      455F4556 
 6736      545F4354 
 6736      53435F52 
 6736      4541445F 
 6737              	.LASF399:
 6738 4861 4359424C 		.ascii	"CYBLE_EVT_ESSC_NOTIFICATION\000"
 6738      455F4556 
 6738      545F4553 
 6738      53435F4E 
 6738      4F544946 
 6739              	.LASF339:
 6740 487d 4359424C 		.ascii	"CYBLE_EVT_BLSC_WRITE_DESCR_RESPONSE\000"
 6740      455F4556 
 6740      545F424C 
 6740      53435F57 
 6740      52495445 
 6741              	.LASF594:
 6742 48a1 5072696E 		.ascii	"PrintCharacteristicInfo\000"
 6742      74436861 
 6742      72616374 
 6742      65726973 
 6742      74696349 
 6743              	.LASF115:
 6744 48b9 4359424C 		.ascii	"CYBLE_ERROR_UNSUPPORTED_FEATURE_OR_PARAMETER_VALUE\000"
 6744      455F4552 
 6744      524F525F 
 6744      554E5355 
 6744      50504F52 
 6745              		.ident	"GCC: (GNU Tools for ARM Embedded Processors) 5.4.1 20160609 (release) [ARM/embedded-5-bran
