ARM GAS  C:\Users\user\AppData\Local\Temp\ccRdimcD.s 			page 1


   1              		.syntax unified
   2              		.cpu cortex-m0
   3              		.fpu softvfp
   4              		.eabi_attribute 20, 1
   5              		.eabi_attribute 21, 1
   6              		.eabi_attribute 23, 3
   7              		.eabi_attribute 24, 1
   8              		.eabi_attribute 25, 1
   9              		.eabi_attribute 26, 1
  10              		.eabi_attribute 30, 6
  11              		.eabi_attribute 34, 0
  12              		.eabi_attribute 18, 4
  13              		.thumb
  14              		.syntax unified
  15              		.file	"main.c"
  16              		.text
  17              	.Ltext0:
  18              		.cfi_sections	.debug_frame
  19              		.comm	apiResult,2,2
  20              		.comm	i,2,2
  21              		.global	authState
  22              		.bss
  23              		.type	authState, %object
  24              		.size	authState, 1
  25              	authState:
  26 0000 00       		.space	1
  27              		.comm	passkeyValue,4,4
  28              		.comm	passkeyPow,4,4
  29              		.comm	passkeyCounter,1,1
  30              		.comm	command,1,1
  31              		.global	customCommand
  32              		.type	customCommand, %object
  33              		.size	customCommand, 1
  34              	customCommand:
  35 0001 00       		.space	1
  36              		.comm	peerAuthInfo,5,4
  37              		.section	.rodata
  38              		.align	2
  39              	.LC1:
  40 0000 4359424C 		.ascii	"CYBLE_EVT_STACK_ON \015\000"
  40      455F4556 
  40      545F5354 
  40      41434B5F 
  40      4F4E200D 
  41 0015 000000   		.align	2
  42              	.LC3:
  43 0018 4359424C 		.ascii	"CYBLE_EVT_STACK_BUSY_STATUS \015\000"
  43      455F4556 
  43      545F5354 
  43      41434B5F 
  43      42555359 
  44 0036 0000     		.align	2
  45              	.LC5:
  46 0038 4359424C 		.ascii	"CYBLE_EVT_TIMEOUT: %d \015\012\000"
  46      455F4556 
  46      545F5449 
  46      4D454F55 
ARM GAS  C:\Users\user\AppData\Local\Temp\ccRdimcD.s 			page 2


  46      543A2025 
  47 0051 000000   		.align	2
  48              	.LC7:
  49 0054 4359424C 		.ascii	"CYBLE_EVT_HARDWARE_ERROR \015\000"
  49      455F4556 
  49      545F4841 
  49      52445741 
  49      52455F45 
  50 006f 00       		.align	2
  51              	.LC9:
  52 0070 4359424C 		.ascii	"CYBLE_EVT_HCI_STATUS: %x \015\012\000"
  52      455F4556 
  52      545F4843 
  52      495F5354 
  52      41545553 
  53              		.align	2
  54              	.LC12:
  55 008c 4556545F 		.ascii	"EVT_AUTH_REQ: security=%x, bonding=%x, ekeySize=%x,"
  55      41555448 
  55      5F524551 
  55      3A207365 
  55      63757269 
  56 00bf 20657272 		.ascii	" err=%x \015\012\000"
  56      3D257820 
  56      0D0A00
  57 00ca 0000     		.align	2
  58              	.LC14:
  59 00cc 4359424C 		.ascii	"CYBLE_EVT_GAP_PASSKEY_ENTRY_REQUEST\015\000"
  59      455F4556 
  59      545F4741 
  59      505F5041 
  59      53534B45 
  60 00f1 000000   		.align	2
  61              	.LC16:
  62 00f4 456E7465 		.ascii	"Enter the passkey shown in the peer device: \015\000"
  62      72207468 
  62      65207061 
  62      73736B65 
  62      79207368 
  63 0122 0000     		.align	2
  64              	.LC22:
  65 0124 456E7465 		.ascii	"Enter this passkey in your peer device: %6.6ld \015"
  65      72207468 
  65      69732070 
  65      6173736B 
  65      65792069 
  66 0154 0A00     		.ascii	"\012\000"
  67 0156 0000     		.align	2
  68              	.LC24:
  69 0158 4359424C 		.ascii	"CYBLE_EVT_GAP_AUTH_FAILED, reason: \000"
  69      455F4556 
  69      545F4741 
  69      505F4155 
  69      54485F46 
  70              		.align	2
  71              	.LC27:
  72 017c 4E4F4E45 		.ascii	"NONE\015\000"
ARM GAS  C:\Users\user\AppData\Local\Temp\ccRdimcD.s 			page 3


  72      0D00
  73 0182 0000     		.align	2
  74              	.LC29:
  75 0184 50415353 		.ascii	"PASSKEY_ENTRY_FAILED\015\000"
  75      4B45595F 
  75      454E5452 
  75      595F4641 
  75      494C4544 
  76 019a 0000     		.align	2
  77              	.LC31:
  78 019c 4F4F425F 		.ascii	"OOB_DATA_NOT_AVAILABLE\015\000"
  78      44415441 
  78      5F4E4F54 
  78      5F415641 
  78      494C4142 
  79              		.align	2
  80              	.LC33:
  81 01b4 41555448 		.ascii	"AUTHENTICATION_REQ_NOT_MET\015\000"
  81      454E5449 
  81      43415449 
  81      4F4E5F52 
  81      45515F4E 
  82              		.align	2
  83              	.LC35:
  84 01d0 434F4E46 		.ascii	"CONFIRM_VALUE_NOT_MATCH\015\000"
  84      49524D5F 
  84      56414C55 
  84      455F4E4F 
  84      545F4D41 
  85 01e9 000000   		.align	2
  86              	.LC37:
  87 01ec 50414952 		.ascii	"PAIRING_NOT_SUPPORTED\015\000"
  87      494E475F 
  87      4E4F545F 
  87      53555050 
  87      4F525445 
  88 0203 00       		.align	2
  89              	.LC39:
  90 0204 494E5355 		.ascii	"INSUFFICIENT_ENCRYPTION_KEY_SIZE\015\000"
  90      46464943 
  90      49454E54 
  90      5F454E43 
  90      52595054 
  91 0226 0000     		.align	2
  92              	.LC41:
  93 0228 434F4D4D 		.ascii	"COMMAND_NOT_SUPPORTED\015\000"
  93      414E445F 
  93      4E4F545F 
  93      53555050 
  93      4F525445 
  94 023f 00       		.align	2
  95              	.LC43:
  96 0240 554E5350 		.ascii	"UNSPECIFIED_REASON\015\000"
  96      45434946 
  96      4945445F 
  96      52454153 
  96      4F4E0D00 
ARM GAS  C:\Users\user\AppData\Local\Temp\ccRdimcD.s 			page 4


  97              		.align	2
  98              	.LC45:
  99 0254 52455045 		.ascii	"REPEATED_ATTEMPTS\015\000"
  99      41544544 
  99      5F415454 
  99      454D5054 
  99      530D00
 100 0267 00       		.align	2
 101              	.LC47:
 102 0268 494E5641 		.ascii	"INVALID_PARAMETERS\015\000"
 102      4C49445F 
 102      50415241 
 102      4D455445 
 102      52530D00 
 103              		.align	2
 104              	.LC49:
 105 027c 41555448 		.ascii	"AUTHENTICATION_TIMEOUT\015\000"
 105      454E5449 
 105      43415449 
 105      4F4E5F54 
 105      494D454F 
 106              		.align	2
 107              	.LC51:
 108 0294 4C494E4B 		.ascii	"LINK_DISCONNECTED\015\000"
 108      5F444953 
 108      434F4E4E 
 108      45435445 
 108      440D00
 109 02a7 00       		.align	2
 110              	.LC53:
 111 02a8 30782578 		.ascii	"0x%x\015\012\000"
 111      0D0A00
 112 02af 00       		.align	2
 113              	.LC55:
 114 02b0 436F6D70 		.ascii	"Compare this passkey with displayed in your peer de"
 114      61726520 
 114      74686973 
 114      20706173 
 114      736B6579 
 115 02e3 76696365 		.ascii	"vice and press 'y' or 'n': %6.6ld \015\012\000"
 115      20616E64 
 115      20707265 
 115      73732027 
 115      7927206F 
 116              		.align	2
 117              	.LC57:
 118 0308 4359424C 		.ascii	"CYBLE_EVT_GAP_SMP_NEGOTIATED_AUTH_INFO: security:%x"
 118      455F4556 
 118      545F4741 
 118      505F534D 
 118      505F4E45 
 119 033b 2C20626F 		.ascii	", bonding:%x, ekeySize:%x, authErr %x \015\012\000"
 119      6E64696E 
 119      673A2578 
 119      2C20656B 
 119      65795369 
 120              		.align	2
ARM GAS  C:\Users\user\AppData\Local\Temp\ccRdimcD.s 			page 5


 121              	.LC60:
 122 0364 4359424C 		.ascii	"CYBLE_EVT_GAP_DEVICE_CONNECTED: %x \015\012\000"
 122      455F4556 
 122      545F4741 
 122      505F4445 
 122      56494345 
 123 038a 0000     		.align	2
 124              	.LC64:
 125 038c 20437942 		.ascii	" CyBle_GapAuthReq API Error: \000"
 125      6C655F47 
 125      61704175 
 125      74685265 
 125      71204150 
 126 03aa 0000     		.align	2
 127              	.LC66:
 128 03ac 4556545F 		.ascii	"EVT_GAP_DEVICE_DISCONNECTED, reason: %x \015\012\000"
 128      4741505F 
 128      44455649 
 128      43455F44 
 128      4953434F 
 129              		.global	__aeabi_ui2f
 130              		.global	__aeabi_f2d
 131              		.global	__aeabi_dmul
 132 03d7 00       		.align	2
 133              	.LC68:
 134 03d8 4359424C 		.ascii	"CYBLE_EVT_GAP_DEVICE_CONNECTED: connIntv = %.2f ms."
 134      455F4556 
 134      545F4741 
 134      505F4445 
 134      56494345 
 135 040b 0D0A00   		.ascii	"\015\012\000"
 136 040e 0000     		.align	2
 137              	.LC70:
 138 0410 41636365 		.ascii	"Accepted\000"
 138      70746564 
 138      00
 139 0419 000000   		.align	2
 140              	.LC72:
 141 041c 52656A65 		.ascii	"Rejected\000"
 141      63746564 
 141      00
 142 0425 000000   		.align	2
 143              	.LC74:
 144 0428 4359424C 		.ascii	"CYBLE_EVT_L2CAP_CONN_PARAM_UPDATE_RSP: %s\015\012\000"
 144      455F4556 
 144      545F4C32 
 144      4341505F 
 144      434F4E4E 
 145              		.align	2
 146              	.LC76:
 147 0454 41555448 		.ascii	"AUTH_COMPLETE: security:%x, bonding:%x, ekeySize:%x"
 147      5F434F4D 
 147      504C4554 
 147      453A2073 
 147      65637572 
 148 0487 2C206175 		.ascii	", authErr %x \015\012\000"
 148      74684572 
ARM GAS  C:\Users\user\AppData\Local\Temp\ccRdimcD.s 			page 6


 148      72202578 
 148      200D0A00 
 149 0497 00       		.align	2
 150              	.LC78:
 151 0498 4359424C 		.ascii	"CYBLE_EVT_GAP_ENCRYPT_CHANGE: %d \015\012\000"
 151      455F4556 
 151      545F4741 
 151      505F454E 
 151      43525950 
 152              		.align	2
 153              	.LC80:
 154 04bc 4359424C 		.ascii	"CYBLE_EVT_GAP_KEYINFO_EXCHNGE_CMPLT \015\000"
 154      455F4556 
 154      545F4741 
 154      505F4B45 
 154      59494E46 
 155 04e2 0000     		.align	2
 156              	.LC82:
 157 04e4 4359424C 		.ascii	"CYBLE_EVT_GAPP_ADVERTISEMENT_START_STOP \015\000"
 157      455F4556 
 157      545F4741 
 157      50505F41 
 157      44564552 
 158 050e 0000     		.align	2
 159              	.LC85:
 160 0510 48696265 		.ascii	"Hibernate \015\000"
 160      726E6174 
 160      65200D00 
 161              		.align	2
 162              	.LC87:
 163 051c 4359424C 		.ascii	"CYBLE_EVT_GATT_CONNECT_IND: attId %x, bdHandle %x \015"
 163      455F4556 
 163      545F4741 
 163      54545F43 
 163      4F4E4E45 
 164 054f 0A00     		.ascii	"\012\000"
 165 0551 000000   		.align	2
 166              	.LC89:
 167 0554 4359424C 		.ascii	"CYBLE_EVT_GATT_DISCONNECT_IND \015\000"
 167      455F4556 
 167      545F4741 
 167      54545F44 
 167      4953434F 
 168              		.align	2
 169              	.LC91:
 170 0574 4359424C 		.ascii	"CYBLE_EVT_GATTS_WRITE_REQ attr handle: %4.4x , valu"
 170      455F4556 
 170      545F4741 
 170      5454535F 
 170      57524954 
 171 05a7 653A2000 		.ascii	"e: \000"
 172 05ab 00       		.align	2
 173              	.LC94:
 174 05ac 25322E32 		.ascii	"%2.2x \000"
 174      782000
 175 05b3 00       		.align	2
 176              	.LC96:
ARM GAS  C:\Users\user\AppData\Local\Temp\ccRdimcD.s 			page 7


 177 05b4 0D00     		.ascii	"\015\000"
 178 05b6 0000     		.align	2
 179              	.LC98:
 180 05b8 4359424C 		.ascii	"CYBLE_EVT_GATTS_XCNHG_MTU_REQ \015\000"
 180      455F4556 
 180      545F4741 
 180      5454535F 
 180      58434E48 
 181              		.align	2
 182              	.LC100:
 183 05d8 4359424C 		.ascii	"CYBLE_EVT_GATTS_HANDLE_VALUE_CNF \015\000"
 183      455F4556 
 183      545F4741 
 183      5454535F 
 183      48414E44 
 184 05fb 00       		.align	2
 185              	.LC102:
 186 05fc 4359424C 		.ascii	"CYBLE_EVT_GATTS_PREP_WRITE_REQ \015\000"
 186      455F4556 
 186      545F4741 
 186      5454535F 
 186      50524550 
 187 061d 000000   		.align	2
 188              	.LC104:
 189 0620 4359424C 		.ascii	"CYBLE_EVT_GATTS_EXEC_WRITE_REQ \015\000"
 189      455F4556 
 189      545F4741 
 189      5454535F 
 189      45584543 
 190 0641 000000   		.align	2
 191              	.LC106:
 192 0644 4359424C 		.ascii	"CYBLE_EVT_GATTS_READ_CHAR_VAL_ACCESS_REQ: handle: %"
 192      455F4556 
 192      545F4741 
 192      5454535F 
 192      52454144 
 193 0677 78200D0A 		.ascii	"x \015\012\000"
 193      00
 194              		.align	2
 195              	.LC108:
 196 067c 4359424C 		.ascii	"CYBLE_EVT_GATTS_INDICATION_ENABLED \015\000"
 196      455F4556 
 196      545F4741 
 196      5454535F 
 196      494E4449 
 197 06a1 000000   		.align	2
 198              	.LC110:
 199 06a4 4359424C 		.ascii	"CYBLE_EVT_GATTS_INDICATION_DISABLED \015\000"
 199      455F4556 
 199      545F4741 
 199      5454535F 
 199      494E4449 
 200 06ca 0000     		.align	2
 201              	.LC112:
 202 06cc 4359424C 		.ascii	"CYBLE_EVT_GATTS_INDICATION \015\000"
 202      455F4556 
 202      545F4741 
ARM GAS  C:\Users\user\AppData\Local\Temp\ccRdimcD.s 			page 8


 202      5454535F 
 202      494E4449 
 203 06e9 000000   		.align	2
 204              	.LC114:
 205 06ec 4359424C 		.ascii	"CYBLE_EVT_L2CAP_CONN_PARAM_UPDATE_REQ \015\000"
 205      455F4556 
 205      545F4C32 
 205      4341505F 
 205      434F4E4E 
 206              		.align	2
 207              	.LC116:
 208 0714 4359424C 		.ascii	"CYBLE_EVT_PENDING_FLASH_WRITE\015\000"
 208      455F4556 
 208      545F5045 
 208      4E44494E 
 208      475F464C 
 209 0733 00       		.align	2
 210              	.LC118:
 211 0734 6F746865 		.ascii	"other event: 0x%lx \015\012\000"
 211      72206576 
 211      656E743A 
 211      20307825 
 211      6C78200D 
 212              		.section	.text.AppCallBack,"ax",%progbits
 213              		.align	2
 214              		.global	AppCallBack
 215              		.code	16
 216              		.thumb_func
 217              		.type	AppCallBack, %function
 218              	AppCallBack:
 219              	.LFB36:
 220              		.file 1 "main.c"
   1:main.c        **** /*******************************************************************************
   2:main.c        **** * File Name: main.c
   3:main.c        **** *
   4:main.c        **** * Version 1.0
   5:main.c        **** *
   6:main.c        **** * Description:
   7:main.c        **** *  This project demonstrates the operation of the CGM Profile
   8:main.c        **** *  in the GATT Server (GAP Peripheral) role.
   9:main.c        **** *
  10:main.c        **** * Note:
  11:main.c        **** *
  12:main.c        **** * Hardware Dependency:
  13:main.c        **** *  CY8CKIT-042 BLE
  14:main.c        **** *
  15:main.c        **** ********************************************************************************
  16:main.c        **** * Copyright 2016, Cypress Semiconductor Corporation.  All rights reserved.
  17:main.c        **** * You may use this file only in accordance with the license, terms, conditions,
  18:main.c        **** * disclaimers, and limitations in the end user license agreement accompanying
  19:main.c        **** * the software package with which this file was provided.
  20:main.c        **** *******************************************************************************/
  21:main.c        **** 
  22:main.c        **** #include "main.h"
  23:main.c        **** #include "project.h"
  24:main.c        **** 
  25:main.c        **** CYBLE_API_RESULT_T apiResult;
ARM GAS  C:\Users\user\AppData\Local\Temp\ccRdimcD.s 			page 9


  26:main.c        **** uint16 i;
  27:main.c        **** AUTHENTICATION_STATE    authState = AUTHENTICATION_NOT_CONNECTED;
  28:main.c        **** uint32  passkeyValue;
  29:main.c        **** uint32  passkeyPow;
  30:main.c        **** uint8   passkeyCounter;
  31:main.c        **** char8   command;
  32:main.c        **** uint8   customCommand = 0u;
  33:main.c        **** CYBLE_GAP_AUTH_INFO_T   peerAuthInfo;
  34:main.c        **** 
  35:main.c        **** 
  36:main.c        **** // Deklaracje funkcji
  37:main.c        **** void PrintUUID(CYBLE_UUID_T uuid, uint8 uuidFormat);
  38:main.c        **** void PrintCharacteristicInfo(const CYBLE_DISC_CHAR_INFO_T *charInfo);
  39:main.c        **** 
  40:main.c        **** /*******************************************************************************
  41:main.c        **** * Function Name: AppCallBack()
  42:main.c        **** ********************************************************************************
  43:main.c        **** *
  44:main.c        **** * Summary:
  45:main.c        **** *   This is an event callback function to receive events from the BLE Component.
  46:main.c        **** *
  47:main.c        **** * Parameters:
  48:main.c        **** *  event - The event code.
  49:main.c        **** *  *eventParam - The event parameters.
  50:main.c        **** *
  51:main.c        **** *******************************************************************************/
  52:main.c        **** void AppCallBack(uint32 event, void* eventParam)
  53:main.c        **** {   
 221              		.loc 1 53 0
 222              		.cfi_startproc
 223              		@ args = 0, pretend = 0, frame = 24
 224              		@ frame_needed = 1, uses_anonymous_args = 0
 225 0000 90B5     		push	{r4, r7, lr}
 226              		.cfi_def_cfa_offset 12
 227              		.cfi_offset 4, -12
 228              		.cfi_offset 7, -8
 229              		.cfi_offset 14, -4
 230 0002 89B0     		sub	sp, sp, #36
 231              		.cfi_def_cfa_offset 48
 232 0004 02AF     		add	r7, sp, #8
 233              		.cfi_def_cfa 7, 40
 234 0006 7860     		str	r0, [r7, #4]
 235 0008 3960     		str	r1, [r7]
  54:main.c        ****     CYBLE_GAP_CONN_PARAM_UPDATED_IN_CONTROLLER_T *connParameters;
  55:main.c        ****     
  56:main.c        ****     switch(event)
 236              		.loc 1 56 0
 237 000a 7A68     		ldr	r2, [r7, #4]
 238 000c 8323     		movs	r3, #131
 239 000e 5B00     		lsls	r3, r3, #1
 240 0010 9A42     		cmp	r2, r3
 241 0012 00D9     		bls	.LCB19
 242 0014 9BE2     		b	.L2	@long jump
 243              	.LCB19:
 244 0016 7B68     		ldr	r3, [r7, #4]
 245 0018 9A00     		lsls	r2, r3, #2
 246 001a E14B     		ldr	r3, .L66
ARM GAS  C:\Users\user\AppData\Local\Temp\ccRdimcD.s 			page 10


 247 001c D318     		adds	r3, r2, r3
 248 001e 1B68     		ldr	r3, [r3]
 249 0020 9F46     		mov	pc, r3
 250              		.section	.rodata
 251 074a 0000     		.align	2
 252              	.L4:
 253 074c 4E050000 		.word	.L2
 254 0750 22000000 		.word	.L3
 255 0754 40000000 		.word	.L5
 256 0758 52000000 		.word	.L6
 257 075c 5C000000 		.word	.L7
 258 0760 36000000 		.word	.L8
 259 0764 4E050000 		.word	.L2
 260 0768 4E050000 		.word	.L2
 261 076c 4E050000 		.word	.L2
 262 0770 4E050000 		.word	.L2
 263 0774 4E050000 		.word	.L2
 264 0778 4E050000 		.word	.L2
 265 077c 4E050000 		.word	.L2
 266 0780 4E050000 		.word	.L2
 267 0784 4E050000 		.word	.L2
 268 0788 4E050000 		.word	.L2
 269 078c 4E050000 		.word	.L2
 270 0790 4E050000 		.word	.L2
 271 0794 4E050000 		.word	.L2
 272 0798 4E050000 		.word	.L2
 273 079c 4E050000 		.word	.L2
 274 07a0 4E050000 		.word	.L2
 275 07a4 4E050000 		.word	.L2
 276 07a8 4E050000 		.word	.L2
 277 07ac 4E050000 		.word	.L2
 278 07b0 4E050000 		.word	.L2
 279 07b4 4E050000 		.word	.L2
 280 07b8 4E050000 		.word	.L2
 281 07bc 4E050000 		.word	.L2
 282 07c0 4E050000 		.word	.L2
 283 07c4 4E050000 		.word	.L2
 284 07c8 4E050000 		.word	.L2
 285 07cc 4E050000 		.word	.L2
 286 07d0 6E000000 		.word	.L9
 287 07d4 A0000000 		.word	.L10
 288 07d8 CA000000 		.word	.L11
 289 07dc AE020000 		.word	.L12
 290 07e0 DA000000 		.word	.L13
 291 07e4 02030000 		.word	.L14
 292 07e8 D8010000 		.word	.L15
 293 07ec 3C020000 		.word	.L16
 294 07f0 E6020000 		.word	.L17
 295 07f4 64020000 		.word	.L18
 296 07f8 4E050000 		.word	.L2
 297 07fc F8020000 		.word	.L19
 298 0800 90010000 		.word	.L20
 299 0804 4E050000 		.word	.L2
 300 0808 4E050000 		.word	.L2
 301 080c 4E050000 		.word	.L2
 302 0810 4E050000 		.word	.L2
 303 0814 4E050000 		.word	.L2
ARM GAS  C:\Users\user\AppData\Local\Temp\ccRdimcD.s 			page 11


 304 0818 A6010000 		.word	.L21
 305 081c 4E050000 		.word	.L2
 306 0820 4E050000 		.word	.L2
 307 0824 4E050000 		.word	.L2
 308 0828 4E050000 		.word	.L2
 309 082c 4E050000 		.word	.L2
 310 0830 4E050000 		.word	.L2
 311 0834 4E050000 		.word	.L2
 312 0838 4E050000 		.word	.L2
 313 083c 4E050000 		.word	.L2
 314 0840 4E050000 		.word	.L2
 315 0844 4E050000 		.word	.L2
 316 0848 4E050000 		.word	.L2
 317 084c 4E050000 		.word	.L2
 318 0850 80030000 		.word	.L22
 319 0854 96030000 		.word	.L23
 320 0858 CA040000 		.word	.L24
 321 085c 4E050000 		.word	.L2
 322 0860 4E050000 		.word	.L2
 323 0864 4E050000 		.word	.L2
 324 0868 4E050000 		.word	.L2
 325 086c 4E050000 		.word	.L2
 326 0870 4E050000 		.word	.L2
 327 0874 4E050000 		.word	.L2
 328 0878 4E050000 		.word	.L2
 329 087c 78040000 		.word	.L25
 330 0880 4E050000 		.word	.L2
 331 0884 4E050000 		.word	.L2
 332 0888 EA040000 		.word	.L26
 333 088c F4040000 		.word	.L27
 334 0890 4E050000 		.word	.L2
 335 0894 4E050000 		.word	.L2
 336 0898 4E050000 		.word	.L2
 337 089c E0040000 		.word	.L28
 338 08a0 4E050000 		.word	.L2
 339 08a4 4E050000 		.word	.L2
 340 08a8 FE040000 		.word	.L29
 341 08ac 4E050000 		.word	.L2
 342 08b0 4E050000 		.word	.L2
 343 08b4 4E050000 		.word	.L2
 344 08b8 4E050000 		.word	.L2
 345 08bc 4E050000 		.word	.L2
 346 08c0 4E050000 		.word	.L2
 347 08c4 4E050000 		.word	.L2
 348 08c8 4E050000 		.word	.L2
 349 08cc 4E050000 		.word	.L2
 350 08d0 4E050000 		.word	.L2
 351 08d4 4E050000 		.word	.L2
 352 08d8 4E050000 		.word	.L2
 353 08dc 4E050000 		.word	.L2
 354 08e0 4E050000 		.word	.L2
 355 08e4 4E050000 		.word	.L2
 356 08e8 4E050000 		.word	.L2
 357 08ec 4E050000 		.word	.L2
 358 08f0 4E050000 		.word	.L2
 359 08f4 4E050000 		.word	.L2
 360 08f8 4E050000 		.word	.L2
ARM GAS  C:\Users\user\AppData\Local\Temp\ccRdimcD.s 			page 12


 361 08fc 4E050000 		.word	.L2
 362 0900 4E050000 		.word	.L2
 363 0904 4E050000 		.word	.L2
 364 0908 4E050000 		.word	.L2
 365 090c 3A050000 		.word	.L30
 366 0910 94020000 		.word	.L31
 367 0914 4E050000 		.word	.L2
 368 0918 4E050000 		.word	.L2
 369 091c 4E050000 		.word	.L2
 370 0920 4E050000 		.word	.L2
 371 0924 4E050000 		.word	.L2
 372 0928 4E050000 		.word	.L2
 373 092c 4E050000 		.word	.L2
 374 0930 4E050000 		.word	.L2
 375 0934 4E050000 		.word	.L2
 376 0938 4E050000 		.word	.L2
 377 093c 4E050000 		.word	.L2
 378 0940 4E050000 		.word	.L2
 379 0944 4E050000 		.word	.L2
 380 0948 4E050000 		.word	.L2
 381 094c 4E050000 		.word	.L2
 382 0950 4E050000 		.word	.L2
 383 0954 4E050000 		.word	.L2
 384 0958 4E050000 		.word	.L2
 385 095c 4E050000 		.word	.L2
 386 0960 4E050000 		.word	.L2
 387 0964 4E050000 		.word	.L2
 388 0968 4E050000 		.word	.L2
 389 096c 4E050000 		.word	.L2
 390 0970 4E050000 		.word	.L2
 391 0974 4E050000 		.word	.L2
 392 0978 4E050000 		.word	.L2
 393 097c 4E050000 		.word	.L2
 394 0980 4E050000 		.word	.L2
 395 0984 4E050000 		.word	.L2
 396 0988 4E050000 		.word	.L2
 397 098c 4E050000 		.word	.L2
 398 0990 4E050000 		.word	.L2
 399 0994 4E050000 		.word	.L2
 400 0998 4E050000 		.word	.L2
 401 099c 4E050000 		.word	.L2
 402 09a0 4E050000 		.word	.L2
 403 09a4 4E050000 		.word	.L2
 404 09a8 4E050000 		.word	.L2
 405 09ac 4E050000 		.word	.L2
 406 09b0 4E050000 		.word	.L2
 407 09b4 4E050000 		.word	.L2
 408 09b8 4E050000 		.word	.L2
 409 09bc 4E050000 		.word	.L2
 410 09c0 4E050000 		.word	.L2
 411 09c4 4E050000 		.word	.L2
 412 09c8 4E050000 		.word	.L2
 413 09cc 4E050000 		.word	.L2
 414 09d0 4E050000 		.word	.L2
 415 09d4 4E050000 		.word	.L2
 416 09d8 4E050000 		.word	.L2
 417 09dc 4E050000 		.word	.L2
ARM GAS  C:\Users\user\AppData\Local\Temp\ccRdimcD.s 			page 13


 418 09e0 4E050000 		.word	.L2
 419 09e4 4E050000 		.word	.L2
 420 09e8 4E050000 		.word	.L2
 421 09ec 4E050000 		.word	.L2
 422 09f0 4E050000 		.word	.L2
 423 09f4 4E050000 		.word	.L2
 424 09f8 4E050000 		.word	.L2
 425 09fc 4E050000 		.word	.L2
 426 0a00 4E050000 		.word	.L2
 427 0a04 4E050000 		.word	.L2
 428 0a08 4E050000 		.word	.L2
 429 0a0c 4E050000 		.word	.L2
 430 0a10 4E050000 		.word	.L2
 431 0a14 4E050000 		.word	.L2
 432 0a18 4E050000 		.word	.L2
 433 0a1c 4E050000 		.word	.L2
 434 0a20 4E050000 		.word	.L2
 435 0a24 4E050000 		.word	.L2
 436 0a28 4E050000 		.word	.L2
 437 0a2c 4E050000 		.word	.L2
 438 0a30 4E050000 		.word	.L2
 439 0a34 4E050000 		.word	.L2
 440 0a38 4E050000 		.word	.L2
 441 0a3c 4E050000 		.word	.L2
 442 0a40 4E050000 		.word	.L2
 443 0a44 4E050000 		.word	.L2
 444 0a48 4E050000 		.word	.L2
 445 0a4c 4E050000 		.word	.L2
 446 0a50 4E050000 		.word	.L2
 447 0a54 4E050000 		.word	.L2
 448 0a58 4E050000 		.word	.L2
 449 0a5c 4E050000 		.word	.L2
 450 0a60 4E050000 		.word	.L2
 451 0a64 4E050000 		.word	.L2
 452 0a68 4E050000 		.word	.L2
 453 0a6c 4E050000 		.word	.L2
 454 0a70 4E050000 		.word	.L2
 455 0a74 4E050000 		.word	.L2
 456 0a78 4E050000 		.word	.L2
 457 0a7c 4E050000 		.word	.L2
 458 0a80 4E050000 		.word	.L2
 459 0a84 4E050000 		.word	.L2
 460 0a88 4E050000 		.word	.L2
 461 0a8c 4E050000 		.word	.L2
 462 0a90 4E050000 		.word	.L2
 463 0a94 4E050000 		.word	.L2
 464 0a98 4E050000 		.word	.L2
 465 0a9c 4E050000 		.word	.L2
 466 0aa0 4E050000 		.word	.L2
 467 0aa4 4E050000 		.word	.L2
 468 0aa8 4E050000 		.word	.L2
 469 0aac 4E050000 		.word	.L2
 470 0ab0 4E050000 		.word	.L2
 471 0ab4 4E050000 		.word	.L2
 472 0ab8 4E050000 		.word	.L2
 473 0abc 4E050000 		.word	.L2
 474 0ac0 4E050000 		.word	.L2
ARM GAS  C:\Users\user\AppData\Local\Temp\ccRdimcD.s 			page 14


 475 0ac4 4E050000 		.word	.L2
 476 0ac8 4E050000 		.word	.L2
 477 0acc 4E050000 		.word	.L2
 478 0ad0 4E050000 		.word	.L2
 479 0ad4 4E050000 		.word	.L2
 480 0ad8 4E050000 		.word	.L2
 481 0adc 4E050000 		.word	.L2
 482 0ae0 4E050000 		.word	.L2
 483 0ae4 4E050000 		.word	.L2
 484 0ae8 4E050000 		.word	.L2
 485 0aec 4E050000 		.word	.L2
 486 0af0 4E050000 		.word	.L2
 487 0af4 4E050000 		.word	.L2
 488 0af8 4E050000 		.word	.L2
 489 0afc 4E050000 		.word	.L2
 490 0b00 4E050000 		.word	.L2
 491 0b04 4E050000 		.word	.L2
 492 0b08 4E050000 		.word	.L2
 493 0b0c 4E050000 		.word	.L2
 494 0b10 4E050000 		.word	.L2
 495 0b14 4E050000 		.word	.L2
 496 0b18 4E050000 		.word	.L2
 497 0b1c 4E050000 		.word	.L2
 498 0b20 4E050000 		.word	.L2
 499 0b24 4E050000 		.word	.L2
 500 0b28 4E050000 		.word	.L2
 501 0b2c 4E050000 		.word	.L2
 502 0b30 4E050000 		.word	.L2
 503 0b34 44050000 		.word	.L32
 504 0b38 4E050000 		.word	.L2
 505 0b3c 4E050000 		.word	.L2
 506 0b40 4E050000 		.word	.L2
 507 0b44 4E050000 		.word	.L2
 508 0b48 4E050000 		.word	.L2
 509 0b4c 4E050000 		.word	.L2
 510 0b50 4E050000 		.word	.L2
 511 0b54 4E050000 		.word	.L2
 512 0b58 4E050000 		.word	.L2
 513 0b5c 1C050000 		.word	.L33
 514 0b60 26050000 		.word	.L34
 515 0b64 30050000 		.word	.L35
 516              		.section	.text.AppCallBack
 517              	.L3:
 518              	.LBB2:
  57:main.c        ****     {
  58:main.c        ****         case CYBLE_EVT_STACK_ON:
  59:main.c        ****             DBG_PRINTF("CYBLE_EVT_STACK_ON \r\n");
 519              		.loc 1 59 0
 520 0022 E04B     		ldr	r3, .L66+4
 521 0024 1800     		movs	r0, r3
 522 0026 FFF7FEFF 		bl	puts
  60:main.c        ****             /* Put device to discoverable mode so that remote can search it. */
  61:main.c        ****             StartAdvertisement();
 523              		.loc 1 61 0
 524 002a FFF7FEFF 		bl	StartAdvertisement
  62:main.c        ****             Advertising_LED_Write(LED_OFF);
 525              		.loc 1 62 0
ARM GAS  C:\Users\user\AppData\Local\Temp\ccRdimcD.s 			page 15


 526 002e 0120     		movs	r0, #1
 527 0030 FFF7FEFF 		bl	Advertising_LED_Write
  63:main.c        **** 			break;
 528              		.loc 1 63 0
 529 0034 93E2     		b	.L36
 530              	.L8:
  64:main.c        **** 
  65:main.c        ****         case CYBLE_EVT_STACK_BUSY_STATUS:
  66:main.c        ****             DBG_PRINTF("CYBLE_EVT_STACK_BUSY_STATUS \r\n");
 531              		.loc 1 66 0
 532 0036 DC4B     		ldr	r3, .L66+8
 533 0038 1800     		movs	r0, r3
 534 003a FFF7FEFF 		bl	puts
  67:main.c        ****             break;
 535              		.loc 1 67 0
 536 003e 8EE2     		b	.L36
 537              	.L5:
  68:main.c        **** 
  69:main.c        ****         case CYBLE_EVT_TIMEOUT: /* 0x01 -> GAP limited discoverable mode timeout. */
  70:main.c        ****                                 /* 0x02 -> GAP pairing process timeout. */
  71:main.c        ****                                 /* 0x03 -> GATT response timeout. */
  72:main.c        ****             DBG_PRINTF("CYBLE_EVT_TIMEOUT: %d \r\n", *(uint8 *)eventParam);
 538              		.loc 1 72 0
 539 0040 3B68     		ldr	r3, [r7]
 540 0042 1B78     		ldrb	r3, [r3]
 541 0044 1A00     		movs	r2, r3
 542 0046 D94B     		ldr	r3, .L66+12
 543 0048 1100     		movs	r1, r2
 544 004a 1800     		movs	r0, r3
 545 004c FFF7FEFF 		bl	printf
  73:main.c        ****             break;
 546              		.loc 1 73 0
 547 0050 85E2     		b	.L36
 548              	.L6:
  74:main.c        **** 
  75:main.c        ****         case CYBLE_EVT_HARDWARE_ERROR:    /* This event indicates that some internal HW error has o
  76:main.c        ****             DBG_PRINTF("CYBLE_EVT_HARDWARE_ERROR \r\n");
 549              		.loc 1 76 0
 550 0052 D74B     		ldr	r3, .L66+16
 551 0054 1800     		movs	r0, r3
 552 0056 FFF7FEFF 		bl	puts
  77:main.c        ****             break;
 553              		.loc 1 77 0
 554 005a 80E2     		b	.L36
 555              	.L7:
  78:main.c        **** 
  79:main.c        ****         case CYBLE_EVT_HCI_STATUS:
  80:main.c        ****             DBG_PRINTF("CYBLE_EVT_HCI_STATUS: %x \r\n", *(uint8 *)eventParam);
 556              		.loc 1 80 0
 557 005c 3B68     		ldr	r3, [r7]
 558 005e 1B78     		ldrb	r3, [r3]
 559 0060 1A00     		movs	r2, r3
 560 0062 D44B     		ldr	r3, .L66+20
 561 0064 1100     		movs	r1, r2
 562 0066 1800     		movs	r0, r3
 563 0068 FFF7FEFF 		bl	printf
  81:main.c        ****             break;
ARM GAS  C:\Users\user\AppData\Local\Temp\ccRdimcD.s 			page 16


 564              		.loc 1 81 0
 565 006c 77E2     		b	.L36
 566              	.L9:
  82:main.c        ****             
  83:main.c        ****         /**********************************************************
  84:main.c        ****         *                       GAP Events
  85:main.c        ****         ***********************************************************/
  86:main.c        **** 
  87:main.c        ****         case CYBLE_EVT_GAP_AUTH_REQ:
  88:main.c        ****             peerAuthInfo = *(CYBLE_GAP_AUTH_INFO_T *)eventParam;
 567              		.loc 1 88 0
 568 006e D24A     		ldr	r2, .L66+24
 569 0070 3B68     		ldr	r3, [r7]
 570 0072 1000     		movs	r0, r2
 571 0074 1900     		movs	r1, r3
 572 0076 0523     		movs	r3, #5
 573 0078 1A00     		movs	r2, r3
 574 007a FFF7FEFF 		bl	memcpy
  89:main.c        ****             DBG_PRINTF("EVT_AUTH_REQ: security=%x, bonding=%x, ekeySize=%x, err=%x \r\n", 
 575              		.loc 1 89 0
 576 007e CE4B     		ldr	r3, .L66+24
 577 0080 1B78     		ldrb	r3, [r3]
 578 0082 1900     		movs	r1, r3
 579 0084 CC4B     		ldr	r3, .L66+24
 580 0086 5B78     		ldrb	r3, [r3, #1]
 581 0088 1A00     		movs	r2, r3
 582 008a CB4B     		ldr	r3, .L66+24
 583 008c 9B78     		ldrb	r3, [r3, #2]
 584 008e 1C00     		movs	r4, r3
 585 0090 C94B     		ldr	r3, .L66+24
 586 0092 DB78     		ldrb	r3, [r3, #3]
 587 0094 C948     		ldr	r0, .L66+28
 588 0096 0093     		str	r3, [sp]
 589 0098 2300     		movs	r3, r4
 590 009a FFF7FEFF 		bl	printf
  90:main.c        ****             peerAuthInfo.security, 
  91:main.c        ****             peerAuthInfo.bonding, 
  92:main.c        ****             peerAuthInfo.ekeySize, 
  93:main.c        ****             peerAuthInfo.authErr);
  94:main.c        ****             break;
 591              		.loc 1 94 0
 592 009e 5EE2     		b	.L36
 593              	.L10:
  95:main.c        ****             
  96:main.c        **** 	    case CYBLE_EVT_GAP_PASSKEY_ENTRY_REQUEST:
  97:main.c        ****             DBG_PRINTF("CYBLE_EVT_GAP_PASSKEY_ENTRY_REQUEST\r\n");
 594              		.loc 1 97 0
 595 00a0 C74B     		ldr	r3, .L66+32
 596 00a2 1800     		movs	r0, r3
 597 00a4 FFF7FEFF 		bl	puts
  98:main.c        ****             DBG_PRINTF("Enter the passkey shown in the peer device: \r\n");
 598              		.loc 1 98 0
 599 00a8 C64B     		ldr	r3, .L66+36
 600 00aa 1800     		movs	r0, r3
 601 00ac FFF7FEFF 		bl	puts
  99:main.c        ****             authState = AUTHENTICATION_WAITING_FOR_PASSKEY;
 602              		.loc 1 99 0
ARM GAS  C:\Users\user\AppData\Local\Temp\ccRdimcD.s 			page 17


 603 00b0 C54B     		ldr	r3, .L66+40
 604 00b2 0122     		movs	r2, #1
 605 00b4 1A70     		strb	r2, [r3]
 100:main.c        ****             passkeyValue = 0u;
 606              		.loc 1 100 0
 607 00b6 C54B     		ldr	r3, .L66+44
 608 00b8 0022     		movs	r2, #0
 609 00ba 1A60     		str	r2, [r3]
 101:main.c        ****             passkeyPow = 100000u;
 610              		.loc 1 101 0
 611 00bc C44B     		ldr	r3, .L66+48
 612 00be C54A     		ldr	r2, .L66+52
 613 00c0 1A60     		str	r2, [r3]
 102:main.c        ****             passkeyCounter = 0u;
 614              		.loc 1 102 0
 615 00c2 C54B     		ldr	r3, .L66+56
 616 00c4 0022     		movs	r2, #0
 617 00c6 1A70     		strb	r2, [r3]
 103:main.c        ****             break;
 618              		.loc 1 103 0
 619 00c8 49E2     		b	.L36
 620              	.L11:
 104:main.c        ****             
 105:main.c        **** 	    case CYBLE_EVT_GAP_PASSKEY_DISPLAY_REQUEST:
 106:main.c        ****             DBG_PRINTF("Enter this passkey in your peer device: %6.6ld \r\n", *(uint32 *)eventParam
 621              		.loc 1 106 0
 622 00ca 3B68     		ldr	r3, [r7]
 623 00cc 1A68     		ldr	r2, [r3]
 624 00ce C34B     		ldr	r3, .L66+60
 625 00d0 1100     		movs	r1, r2
 626 00d2 1800     		movs	r0, r3
 627 00d4 FFF7FEFF 		bl	printf
 107:main.c        ****             break;
 628              		.loc 1 107 0
 629 00d8 41E2     		b	.L36
 630              	.L13:
 108:main.c        ****             
 109:main.c        ****         case CYBLE_EVT_GAP_AUTH_FAILED:
 110:main.c        ****             DBG_PRINTF("CYBLE_EVT_GAP_AUTH_FAILED, reason: ");
 631              		.loc 1 110 0
 632 00da C14B     		ldr	r3, .L66+64
 633 00dc 1800     		movs	r0, r3
 634 00de FFF7FEFF 		bl	printf
 111:main.c        ****             switch(*(CYBLE_GAP_AUTH_FAILED_REASON_T *)eventParam)
 635              		.loc 1 111 0
 636 00e2 3B68     		ldr	r3, [r7]
 637 00e4 1B78     		ldrb	r3, [r3]
 638 00e6 182B     		cmp	r3, #24
 639 00e8 45D8     		bhi	.L37
 640 00ea 9A00     		lsls	r2, r3, #2
 641 00ec BD4B     		ldr	r3, .L66+68
 642 00ee D318     		adds	r3, r2, r3
 643 00f0 1B68     		ldr	r3, [r3]
 644 00f2 9F46     		mov	pc, r3
 645              		.section	.rodata
 646              		.align	2
 647              	.L39:
ARM GAS  C:\Users\user\AppData\Local\Temp\ccRdimcD.s 			page 18


 648 0b68 F4000000 		.word	.L38
 649 0b6c FE000000 		.word	.L40
 650 0b70 08010000 		.word	.L41
 651 0b74 12010000 		.word	.L42
 652 0b78 1C010000 		.word	.L43
 653 0b7c 26010000 		.word	.L44
 654 0b80 30010000 		.word	.L45
 655 0b84 3A010000 		.word	.L46
 656 0b88 44010000 		.word	.L47
 657 0b8c 4E010000 		.word	.L48
 658 0b90 58010000 		.word	.L49
 659 0b94 76010000 		.word	.L37
 660 0b98 76010000 		.word	.L37
 661 0b9c 76010000 		.word	.L37
 662 0ba0 76010000 		.word	.L37
 663 0ba4 76010000 		.word	.L37
 664 0ba8 76010000 		.word	.L37
 665 0bac 76010000 		.word	.L37
 666 0bb0 76010000 		.word	.L37
 667 0bb4 76010000 		.word	.L37
 668 0bb8 76010000 		.word	.L37
 669 0bbc 62010000 		.word	.L50
 670 0bc0 76010000 		.word	.L37
 671 0bc4 76010000 		.word	.L37
 672 0bc8 6C010000 		.word	.L51
 673              		.section	.text.AppCallBack
 674              	.L38:
 112:main.c        ****             {
 113:main.c        ****                 case CYBLE_GAP_AUTH_ERROR_NONE:
 114:main.c        ****                     DBG_PRINTF("NONE\r\n");
 675              		.loc 1 114 0
 676 00f4 BC4B     		ldr	r3, .L66+72
 677 00f6 1800     		movs	r0, r3
 678 00f8 FFF7FEFF 		bl	puts
 115:main.c        ****                     break;
 679              		.loc 1 115 0
 680 00fc 44E0     		b	.L52
 681              	.L40:
 116:main.c        **** 
 117:main.c        ****                 case CYBLE_GAP_AUTH_ERROR_PASSKEY_ENTRY_FAILED:
 118:main.c        ****                     DBG_PRINTF("PASSKEY_ENTRY_FAILED\r\n");
 682              		.loc 1 118 0
 683 00fe BB4B     		ldr	r3, .L66+76
 684 0100 1800     		movs	r0, r3
 685 0102 FFF7FEFF 		bl	puts
 119:main.c        ****                     break;
 686              		.loc 1 119 0
 687 0106 3FE0     		b	.L52
 688              	.L41:
 120:main.c        **** 
 121:main.c        ****                 case CYBLE_GAP_AUTH_ERROR_OOB_DATA_NOT_AVAILABLE:
 122:main.c        ****                     DBG_PRINTF("OOB_DATA_NOT_AVAILABLE\r\n");
 689              		.loc 1 122 0
 690 0108 B94B     		ldr	r3, .L66+80
 691 010a 1800     		movs	r0, r3
 692 010c FFF7FEFF 		bl	puts
 123:main.c        ****                     break;
ARM GAS  C:\Users\user\AppData\Local\Temp\ccRdimcD.s 			page 19


 693              		.loc 1 123 0
 694 0110 3AE0     		b	.L52
 695              	.L42:
 124:main.c        **** 
 125:main.c        ****                 case CYBLE_GAP_AUTH_ERROR_AUTHENTICATION_REQ_NOT_MET:
 126:main.c        ****                     DBG_PRINTF("AUTHENTICATION_REQ_NOT_MET\r\n");
 696              		.loc 1 126 0
 697 0112 B84B     		ldr	r3, .L66+84
 698 0114 1800     		movs	r0, r3
 699 0116 FFF7FEFF 		bl	puts
 127:main.c        ****                     break;
 700              		.loc 1 127 0
 701 011a 35E0     		b	.L52
 702              	.L43:
 128:main.c        **** 
 129:main.c        ****                 case CYBLE_GAP_AUTH_ERROR_CONFIRM_VALUE_NOT_MATCH:
 130:main.c        ****                     DBG_PRINTF("CONFIRM_VALUE_NOT_MATCH\r\n");
 703              		.loc 1 130 0
 704 011c B64B     		ldr	r3, .L66+88
 705 011e 1800     		movs	r0, r3
 706 0120 FFF7FEFF 		bl	puts
 131:main.c        ****                     break;
 707              		.loc 1 131 0
 708 0124 30E0     		b	.L52
 709              	.L44:
 132:main.c        **** 
 133:main.c        ****                 case CYBLE_GAP_AUTH_ERROR_PAIRING_NOT_SUPPORTED:
 134:main.c        ****                     DBG_PRINTF("PAIRING_NOT_SUPPORTED\r\n");
 710              		.loc 1 134 0
 711 0126 B54B     		ldr	r3, .L66+92
 712 0128 1800     		movs	r0, r3
 713 012a FFF7FEFF 		bl	puts
 135:main.c        ****                     break;
 714              		.loc 1 135 0
 715 012e 2BE0     		b	.L52
 716              	.L45:
 136:main.c        **** 
 137:main.c        ****                 case CYBLE_GAP_AUTH_ERROR_INSUFFICIENT_ENCRYPTION_KEY_SIZE:
 138:main.c        ****                     DBG_PRINTF("INSUFFICIENT_ENCRYPTION_KEY_SIZE\r\n");
 717              		.loc 1 138 0
 718 0130 B34B     		ldr	r3, .L66+96
 719 0132 1800     		movs	r0, r3
 720 0134 FFF7FEFF 		bl	puts
 139:main.c        ****                     break;
 721              		.loc 1 139 0
 722 0138 26E0     		b	.L52
 723              	.L46:
 140:main.c        **** 
 141:main.c        ****                 case CYBLE_GAP_AUTH_ERROR_COMMAND_NOT_SUPPORTED:
 142:main.c        ****                     DBG_PRINTF("COMMAND_NOT_SUPPORTED\r\n");
 724              		.loc 1 142 0
 725 013a B24B     		ldr	r3, .L66+100
 726 013c 1800     		movs	r0, r3
 727 013e FFF7FEFF 		bl	puts
 143:main.c        ****                     break;
 728              		.loc 1 143 0
 729 0142 21E0     		b	.L52
ARM GAS  C:\Users\user\AppData\Local\Temp\ccRdimcD.s 			page 20


 730              	.L47:
 144:main.c        **** 
 145:main.c        ****                 case CYBLE_GAP_AUTH_ERROR_UNSPECIFIED_REASON:
 146:main.c        ****                     DBG_PRINTF("UNSPECIFIED_REASON\r\n");
 731              		.loc 1 146 0
 732 0144 B04B     		ldr	r3, .L66+104
 733 0146 1800     		movs	r0, r3
 734 0148 FFF7FEFF 		bl	puts
 147:main.c        ****                     break;
 735              		.loc 1 147 0
 736 014c 1CE0     		b	.L52
 737              	.L48:
 148:main.c        **** 
 149:main.c        ****                 case CYBLE_GAP_AUTH_ERROR_REPEATED_ATTEMPTS:
 150:main.c        ****                     DBG_PRINTF("REPEATED_ATTEMPTS\r\n");
 738              		.loc 1 150 0
 739 014e AF4B     		ldr	r3, .L66+108
 740 0150 1800     		movs	r0, r3
 741 0152 FFF7FEFF 		bl	puts
 151:main.c        ****                     break;
 742              		.loc 1 151 0
 743 0156 17E0     		b	.L52
 744              	.L49:
 152:main.c        **** 
 153:main.c        ****                 case CYBLE_GAP_AUTH_ERROR_INVALID_PARAMETERS:
 154:main.c        ****                     DBG_PRINTF("INVALID_PARAMETERS\r\n");
 745              		.loc 1 154 0
 746 0158 AD4B     		ldr	r3, .L66+112
 747 015a 1800     		movs	r0, r3
 748 015c FFF7FEFF 		bl	puts
 155:main.c        ****                     break;
 749              		.loc 1 155 0
 750 0160 12E0     		b	.L52
 751              	.L50:
 156:main.c        **** 
 157:main.c        ****                 case CYBLE_GAP_AUTH_ERROR_AUTHENTICATION_TIMEOUT:
 158:main.c        ****                     DBG_PRINTF("AUTHENTICATION_TIMEOUT\r\n");
 752              		.loc 1 158 0
 753 0162 AC4B     		ldr	r3, .L66+116
 754 0164 1800     		movs	r0, r3
 755 0166 FFF7FEFF 		bl	puts
 159:main.c        ****                     break;
 756              		.loc 1 159 0
 757 016a 0DE0     		b	.L52
 758              	.L51:
 160:main.c        **** 	              
 161:main.c        ****                 case CYBLE_GAP_AUTH_ERROR_LINK_DISCONNECTED:
 162:main.c        ****                     DBG_PRINTF("LINK_DISCONNECTED\r\n");
 759              		.loc 1 162 0
 760 016c AA4B     		ldr	r3, .L66+120
 761 016e 1800     		movs	r0, r3
 762 0170 FFF7FEFF 		bl	puts
 163:main.c        ****                     break;
 763              		.loc 1 163 0
 764 0174 08E0     		b	.L52
 765              	.L37:
 164:main.c        ****                     
ARM GAS  C:\Users\user\AppData\Local\Temp\ccRdimcD.s 			page 21


 165:main.c        ****                 default:
 166:main.c        ****                     DBG_PRINTF("0x%x\r\n", *(CYBLE_GAP_AUTH_FAILED_REASON_T *)eventParam);
 766              		.loc 1 166 0
 767 0176 3B68     		ldr	r3, [r7]
 768 0178 1B78     		ldrb	r3, [r3]
 769 017a 1A00     		movs	r2, r3
 770 017c A74B     		ldr	r3, .L66+124
 771 017e 1100     		movs	r1, r2
 772 0180 1800     		movs	r0, r3
 773 0182 FFF7FEFF 		bl	printf
 167:main.c        ****                     break;
 774              		.loc 1 167 0
 775 0186 C046     		nop
 776              	.L52:
 168:main.c        ****             }
 169:main.c        ****             authState = AUTHENTICATION_BONDING_COMPLETE;
 777              		.loc 1 169 0
 778 0188 8F4B     		ldr	r3, .L66+40
 779 018a 0522     		movs	r2, #5
 780 018c 1A70     		strb	r2, [r3]
 170:main.c        ****             break;
 781              		.loc 1 170 0
 782 018e E6E1     		b	.L36
 783              	.L20:
 171:main.c        ****         
 172:main.c        ****         case CYBLE_EVT_GAP_NUMERIC_COMPARISON_REQUEST:
 173:main.c        ****             DBG_PRINTF("Compare this passkey with displayed in your peer device and press 'y' or 'n
 784              		.loc 1 173 0
 785 0190 3B68     		ldr	r3, [r7]
 786 0192 1A68     		ldr	r2, [r3]
 787 0194 A24B     		ldr	r3, .L66+128
 788 0196 1100     		movs	r1, r2
 789 0198 1800     		movs	r0, r3
 790 019a FFF7FEFF 		bl	printf
 174:main.c        ****                                     *(uint32 *)eventParam);
 175:main.c        ****             authState = AUTHENTICATION_PASSKEY_YES_NO;
 791              		.loc 1 175 0
 792 019e 8A4B     		ldr	r3, .L66+40
 793 01a0 0322     		movs	r2, #3
 794 01a2 1A70     		strb	r2, [r3]
 176:main.c        ****             break;
 795              		.loc 1 176 0
 796 01a4 DBE1     		b	.L36
 797              	.L21:
 177:main.c        ****             
 178:main.c        ****         case CYBLE_EVT_GAP_SMP_NEGOTIATED_AUTH_INFO:
 179:main.c        ****             peerAuthInfo = *(CYBLE_GAP_AUTH_INFO_T *)eventParam;
 798              		.loc 1 179 0
 799 01a6 844A     		ldr	r2, .L66+24
 800 01a8 3B68     		ldr	r3, [r7]
 801 01aa 1000     		movs	r0, r2
 802 01ac 1900     		movs	r1, r3
 803 01ae 0523     		movs	r3, #5
 804 01b0 1A00     		movs	r2, r3
 805 01b2 FFF7FEFF 		bl	memcpy
 180:main.c        ****             DBG_PRINTF("CYBLE_EVT_GAP_SMP_NEGOTIATED_AUTH_INFO: security:%x, bonding:%x, ekeySize:%
 806              		.loc 1 180 0
ARM GAS  C:\Users\user\AppData\Local\Temp\ccRdimcD.s 			page 22


 807 01b6 804B     		ldr	r3, .L66+24
 808 01b8 1B78     		ldrb	r3, [r3]
 809 01ba 1900     		movs	r1, r3
 810 01bc 7E4B     		ldr	r3, .L66+24
 811 01be 5B78     		ldrb	r3, [r3, #1]
 812 01c0 1A00     		movs	r2, r3
 813 01c2 7D4B     		ldr	r3, .L66+24
 814 01c4 9B78     		ldrb	r3, [r3, #2]
 815 01c6 1C00     		movs	r4, r3
 816 01c8 7B4B     		ldr	r3, .L66+24
 817 01ca DB78     		ldrb	r3, [r3, #3]
 818 01cc 9548     		ldr	r0, .L66+132
 819 01ce 0093     		str	r3, [sp]
 820 01d0 2300     		movs	r3, r4
 821 01d2 FFF7FEFF 		bl	printf
 181:main.c        ****             peerAuthInfo.security, 
 182:main.c        ****             peerAuthInfo.bonding, 
 183:main.c        ****             peerAuthInfo.ekeySize, 
 184:main.c        ****             peerAuthInfo.authErr);
 185:main.c        ****             break;
 822              		.loc 1 185 0
 823 01d6 C2E1     		b	.L36
 824              	.L15:
 186:main.c        ****         
 187:main.c        ****         case CYBLE_EVT_GAP_DEVICE_CONNECTED:
 188:main.c        ****             DBG_PRINTF("CYBLE_EVT_GAP_DEVICE_CONNECTED: %x \r\n", cyBle_connHandle.bdHandle);
 825              		.loc 1 188 0
 826 01d8 934B     		ldr	r3, .L66+136
 827 01da 1B78     		ldrb	r3, [r3]
 828 01dc 1A00     		movs	r2, r3
 829 01de 934B     		ldr	r3, .L66+140
 830 01e0 1100     		movs	r1, r2
 831 01e2 1800     		movs	r0, r3
 832 01e4 FFF7FEFF 		bl	printf
 189:main.c        ****             
 190:main.c        ****              /* Initiate pairing process */
 191:main.c        ****             if((cyBle_authInfo.security & CYBLE_GAP_SEC_LEVEL_MASK) > CYBLE_GAP_SEC_LEVEL_1)
 833              		.loc 1 191 0
 834 01e8 914B     		ldr	r3, .L66+144
 835 01ea 1B78     		ldrb	r3, [r3]
 836 01ec 1A00     		movs	r2, r3
 837 01ee 0F23     		movs	r3, #15
 838 01f0 1340     		ands	r3, r2
 839 01f2 002B     		cmp	r3, #0
 840 01f4 15DD     		ble	.L53
 192:main.c        ****             {
 193:main.c        ****                 apiResult = CyBle_GapAuthReq(cyBle_connHandle.bdHandle, &cyBle_authInfo);
 841              		.loc 1 193 0
 842 01f6 8C4B     		ldr	r3, .L66+136
 843 01f8 1B78     		ldrb	r3, [r3]
 844 01fa 8D4A     		ldr	r2, .L66+144
 845 01fc 1100     		movs	r1, r2
 846 01fe 1800     		movs	r0, r3
 847 0200 FFF7FEFF 		bl	CyBle_GapAuthReq
 848 0204 0300     		movs	r3, r0
 849 0206 1A00     		movs	r2, r3
 850 0208 8A4B     		ldr	r3, .L66+148
ARM GAS  C:\Users\user\AppData\Local\Temp\ccRdimcD.s 			page 23


 851 020a 1A80     		strh	r2, [r3]
 194:main.c        ****                 if(apiResult != CYBLE_ERROR_OK)
 852              		.loc 1 194 0
 853 020c 894B     		ldr	r3, .L66+148
 854 020e 1B88     		ldrh	r3, [r3]
 855 0210 002B     		cmp	r3, #0
 856 0212 09D0     		beq	.L55
 195:main.c        ****                 {
 196:main.c        ****                     DBG_PRINTF(" CyBle_GapAuthReq API Error: ");
 857              		.loc 1 196 0
 858 0214 884B     		ldr	r3, .L66+152
 859 0216 1800     		movs	r0, r3
 860 0218 FFF7FEFF 		bl	printf
 197:main.c        ****                     PrintApiResult();
 861              		.loc 1 197 0
 862 021c FFF7FEFF 		bl	PrintApiResult
 863 0220 02E0     		b	.L55
 864              	.L53:
 198:main.c        ****                 }
 199:main.c        ****             }
 200:main.c        ****             else
 201:main.c        ****             {
 202:main.c        ****                 authState = AUTHENTICATION_BONDING_COMPLETE;
 865              		.loc 1 202 0
 866 0222 694B     		ldr	r3, .L66+40
 867 0224 0522     		movs	r2, #5
 868 0226 1A70     		strb	r2, [r3]
 869              	.L55:
 203:main.c        ****             }
 204:main.c        ****             
 205:main.c        ****             Disconnect_LED_Write(LED_OFF);
 870              		.loc 1 205 0
 871 0228 0120     		movs	r0, #1
 872 022a FFF7FEFF 		bl	Disconnect_LED_Write
 206:main.c        ****             Advertising_LED_Write(LED_OFF);
 873              		.loc 1 206 0
 874 022e 0120     		movs	r0, #1
 875 0230 FFF7FEFF 		bl	Advertising_LED_Write
 207:main.c        ****             Connected_LED_Write(LED_ON);
 876              		.loc 1 207 0
 877 0234 0020     		movs	r0, #0
 878 0236 FFF7FEFF 		bl	Connected_LED_Write
 208:main.c        ****             break;
 879              		.loc 1 208 0
 880 023a 90E1     		b	.L36
 881              	.L16:
 209:main.c        **** 
 210:main.c        ****         case CYBLE_EVT_GAP_DEVICE_DISCONNECTED:
 211:main.c        ****             DBG_PRINTF("EVT_GAP_DEVICE_DISCONNECTED, reason: %x \r\n", *(uint8*)eventParam);
 882              		.loc 1 211 0
 883 023c 3B68     		ldr	r3, [r7]
 884 023e 1B78     		ldrb	r3, [r3]
 885 0240 1A00     		movs	r2, r3
 886 0242 7E4B     		ldr	r3, .L66+156
 887 0244 1100     		movs	r1, r2
 888 0246 1800     		movs	r0, r3
 889 0248 FFF7FEFF 		bl	printf
ARM GAS  C:\Users\user\AppData\Local\Temp\ccRdimcD.s 			page 24


 212:main.c        ****             /* Put device to discoverable mode so that remote can search it. */
 213:main.c        ****             StartAdvertisement();
 890              		.loc 1 213 0
 891 024c FFF7FEFF 		bl	StartAdvertisement
 214:main.c        ****             Disconnect_LED_Write(LED_ON);
 892              		.loc 1 214 0
 893 0250 0020     		movs	r0, #0
 894 0252 FFF7FEFF 		bl	Disconnect_LED_Write
 215:main.c        ****             Advertising_LED_Write(LED_OFF);
 895              		.loc 1 215 0
 896 0256 0120     		movs	r0, #1
 897 0258 FFF7FEFF 		bl	Advertising_LED_Write
 216:main.c        ****             Connected_LED_Write(LED_OFF);
 898              		.loc 1 216 0
 899 025c 0120     		movs	r0, #1
 900 025e FFF7FEFF 		bl	Connected_LED_Write
 217:main.c        ****             break;
 901              		.loc 1 217 0
 902 0262 7CE1     		b	.L36
 903              	.L18:
 218:main.c        ****             
 219:main.c        ****         case CYBLE_EVT_GAPC_CONNECTION_UPDATE_COMPLETE:       
 220:main.c        ****             connParameters = (CYBLE_GAP_CONN_PARAM_UPDATED_IN_CONTROLLER_T *)eventParam;
 904              		.loc 1 220 0
 905 0264 3B68     		ldr	r3, [r7]
 906 0266 7B61     		str	r3, [r7, #20]
 221:main.c        ****             DBG_PRINTF("CYBLE_EVT_GAP_DEVICE_CONNECTED: connIntv = %.2f ms.\r\n",   
 907              		.loc 1 221 0
 908 0268 7B69     		ldr	r3, [r7, #20]
 909 026a 5B88     		ldrh	r3, [r3, #2]
 910 026c 1800     		movs	r0, r3
 911 026e FFF7FEFF 		bl	__aeabi_ui2f
 912 0272 031C     		adds	r3, r0, #0
 913 0274 181C     		adds	r0, r3, #0
 914 0276 FFF7FEFF 		bl	__aeabi_f2d
 915 027a 0022     		movs	r2, #0
 916 027c 704B     		ldr	r3, .L66+160
 917 027e FFF7FEFF 		bl	__aeabi_dmul
 918 0282 0300     		movs	r3, r0
 919 0284 0C00     		movs	r4, r1
 920 0286 6F49     		ldr	r1, .L66+164
 921 0288 1A00     		movs	r2, r3
 922 028a 2300     		movs	r3, r4
 923 028c 0800     		movs	r0, r1
 924 028e FFF7FEFF 		bl	printf
 222:main.c        ****             (float)connParameters->connIntv * CYBLE_CONN_INTRV_TO_MS);
 223:main.c        ****             break;
 925              		.loc 1 223 0
 926 0292 64E1     		b	.L36
 927              	.L31:
 224:main.c        ****         
 225:main.c        ****         case CYBLE_EVT_L2CAP_CONN_PARAM_UPDATE_RSP:
 226:main.c        ****             DBG_PRINTF("CYBLE_EVT_L2CAP_CONN_PARAM_UPDATE_RSP: %s\r\n", 
 928              		.loc 1 226 0
 929 0294 3B68     		ldr	r3, [r7]
 930 0296 1B88     		ldrh	r3, [r3]
 931 0298 002B     		cmp	r3, #0
ARM GAS  C:\Users\user\AppData\Local\Temp\ccRdimcD.s 			page 25


 932 029a 01D1     		bne	.L56
 933              		.loc 1 226 0 is_stmt 0 discriminator 1
 934 029c 6A4B     		ldr	r3, .L66+168
 935 029e 00E0     		b	.L57
 936              	.L56:
 937              		.loc 1 226 0 discriminator 2
 938 02a0 6A4B     		ldr	r3, .L66+172
 939              	.L57:
 940              		.loc 1 226 0 discriminator 4
 941 02a2 6B4A     		ldr	r2, .L66+176
 942 02a4 1900     		movs	r1, r3
 943 02a6 1000     		movs	r0, r2
 944 02a8 FFF7FEFF 		bl	printf
 227:main.c        ****             *(uint16 *)eventParam == 0u ? "Accepted" : "Rejected");
 228:main.c        ****             break; 
 945              		.loc 1 228 0 is_stmt 1 discriminator 4
 946 02ac 57E1     		b	.L36
 947              	.L12:
 229:main.c        **** 
 230:main.c        ****         case CYBLE_EVT_GAP_AUTH_COMPLETE:
 231:main.c        ****             /* Authentication complete; initiate bonding */
 232:main.c        ****             peerAuthInfo = *(CYBLE_GAP_AUTH_INFO_T *)eventParam;
 948              		.loc 1 232 0
 949 02ae 424A     		ldr	r2, .L66+24
 950 02b0 3B68     		ldr	r3, [r7]
 951 02b2 1000     		movs	r0, r2
 952 02b4 1900     		movs	r1, r3
 953 02b6 0523     		movs	r3, #5
 954 02b8 1A00     		movs	r2, r3
 955 02ba FFF7FEFF 		bl	memcpy
 233:main.c        ****             DBG_PRINTF("AUTH_COMPLETE: security:%x, bonding:%x, ekeySize:%x, authErr %x \r\n", 
 956              		.loc 1 233 0
 957 02be 3E4B     		ldr	r3, .L66+24
 958 02c0 1B78     		ldrb	r3, [r3]
 959 02c2 1900     		movs	r1, r3
 960 02c4 3C4B     		ldr	r3, .L66+24
 961 02c6 5B78     		ldrb	r3, [r3, #1]
 962 02c8 1A00     		movs	r2, r3
 963 02ca 3B4B     		ldr	r3, .L66+24
 964 02cc 9B78     		ldrb	r3, [r3, #2]
 965 02ce 1C00     		movs	r4, r3
 966 02d0 394B     		ldr	r3, .L66+24
 967 02d2 DB78     		ldrb	r3, [r3, #3]
 968 02d4 5F48     		ldr	r0, .L66+180
 969 02d6 0093     		str	r3, [sp]
 970 02d8 2300     		movs	r3, r4
 971 02da FFF7FEFF 		bl	printf
 234:main.c        ****             peerAuthInfo.security, 
 235:main.c        ****             peerAuthInfo.bonding, 
 236:main.c        ****             peerAuthInfo.ekeySize, 
 237:main.c        ****             peerAuthInfo.authErr);
 238:main.c        ****             authState = AUTHENTICATION_COMPLETE_BONDING_REQD;
 972              		.loc 1 238 0
 973 02de 3A4B     		ldr	r3, .L66+40
 974 02e0 0422     		movs	r2, #4
 975 02e2 1A70     		strb	r2, [r3]
 239:main.c        ****             break;
ARM GAS  C:\Users\user\AppData\Local\Temp\ccRdimcD.s 			page 26


 976              		.loc 1 239 0
 977 02e4 3BE1     		b	.L36
 978              	.L17:
 240:main.c        **** 
 241:main.c        ****         case CYBLE_EVT_GAP_ENCRYPT_CHANGE:
 242:main.c        ****             DBG_PRINTF("CYBLE_EVT_GAP_ENCRYPT_CHANGE: %d \r\n", *(uint8 *)eventParam);
 979              		.loc 1 242 0
 980 02e6 3B68     		ldr	r3, [r7]
 981 02e8 1B78     		ldrb	r3, [r3]
 982 02ea 1A00     		movs	r2, r3
 983 02ec 5A4B     		ldr	r3, .L66+184
 984 02ee 1100     		movs	r1, r2
 985 02f0 1800     		movs	r0, r3
 986 02f2 FFF7FEFF 		bl	printf
 243:main.c        ****             break;
 987              		.loc 1 243 0
 988 02f6 32E1     		b	.L36
 989              	.L19:
 244:main.c        ****             
 245:main.c        ****         case CYBLE_EVT_GAP_KEYINFO_EXCHNGE_CMPLT:
 246:main.c        ****             DBG_PRINTF("CYBLE_EVT_GAP_KEYINFO_EXCHNGE_CMPLT \r\n");
 990              		.loc 1 246 0
 991 02f8 584B     		ldr	r3, .L66+188
 992 02fa 1800     		movs	r0, r3
 993 02fc FFF7FEFF 		bl	puts
 247:main.c        ****             break;
 994              		.loc 1 247 0
 995 0300 2DE1     		b	.L36
 996              	.L14:
 248:main.c        **** 			
 249:main.c        ****         case CYBLE_EVT_GAPP_ADVERTISEMENT_START_STOP:
 250:main.c        ****             DBG_PRINTF("CYBLE_EVT_GAPP_ADVERTISEMENT_START_STOP \r\n");
 997              		.loc 1 250 0
 998 0302 574B     		ldr	r3, .L66+192
 999 0304 1800     		movs	r0, r3
 1000 0306 FFF7FEFF 		bl	puts
 251:main.c        ****             PrintState();
 1001              		.loc 1 251 0
 1002 030a FFF7FEFF 		bl	PrintState
 252:main.c        ****             
 253:main.c        ****             if(CyBle_GetState() == CYBLE_STATE_DISCONNECTED)
 1003              		.loc 1 253 0
 1004 030e 554B     		ldr	r3, .L66+196
 1005 0310 1B78     		ldrb	r3, [r3]
 1006 0312 042B     		cmp	r3, #4
 1007 0314 25D1     		bne	.L58
 254:main.c        ****             {   
 255:main.c        ****                 /* Fast and slow advertising period complete, go to low power  
 256:main.c        ****                  * mode (Hibernate mode) and wait for external
 257:main.c        ****                  * user event to wake up device again */
 258:main.c        ****                 DBG_PRINTF("Hibernate \r\n");
 1008              		.loc 1 258 0
 1009 0316 544B     		ldr	r3, .L66+200
 1010 0318 1800     		movs	r0, r3
 1011 031a FFF7FEFF 		bl	puts
 259:main.c        ****                 Disconnect_LED_Write(LED_ON);
 1012              		.loc 1 259 0
ARM GAS  C:\Users\user\AppData\Local\Temp\ccRdimcD.s 			page 27


 1013 031e 0020     		movs	r0, #0
 1014 0320 FFF7FEFF 		bl	Disconnect_LED_Write
 260:main.c        ****                 Advertising_LED_Write(LED_OFF);
 1015              		.loc 1 260 0
 1016 0324 0120     		movs	r0, #1
 1017 0326 FFF7FEFF 		bl	Advertising_LED_Write
 261:main.c        ****                 Connected_LED_Write(LED_OFF);
 1018              		.loc 1 261 0
 1019 032a 0120     		movs	r0, #1
 1020 032c FFF7FEFF 		bl	Connected_LED_Write
 262:main.c        ****             #if (DEBUG_UART_ENABLED == ENABLED)
 263:main.c        ****                 while((UART_DEB_SpiUartGetTxBufferSize() + UART_DEB_GET_TX_FIFO_SR_VALID) != 0);
 1021              		.loc 1 263 0
 1022 0330 C046     		nop
 1023              	.L61:
 1024              		.loc 1 263 0 is_stmt 0 discriminator 5
 1025 0332 FFF7FEFF 		bl	UART_DEB_SpiUartGetTxBufferSize
 1026 0336 0100     		movs	r1, r0
 1027 0338 4C4B     		ldr	r3, .L66+204
 1028 033a 1A68     		ldr	r2, [r3]
 1029 033c 8023     		movs	r3, #128
 1030 033e 1B02     		lsls	r3, r3, #8
 1031 0340 1340     		ands	r3, r2
 1032 0342 01D0     		beq	.L59
 1033              		.loc 1 263 0 discriminator 1
 1034 0344 0123     		movs	r3, #1
 1035 0346 00E0     		b	.L60
 1036              	.L59:
 1037              		.loc 1 263 0 discriminator 2
 1038 0348 0023     		movs	r3, #0
 1039              	.L60:
 1040              		.loc 1 263 0 discriminator 4
 1041 034a CB18     		adds	r3, r1, r3
 1042 034c 002B     		cmp	r3, #0
 1043 034e F0D1     		bne	.L61
 264:main.c        ****             #endif /* (DEBUG_UART_ENABLED == ENABLED) */
 265:main.c        ****                 SW2_ClearInterrupt();
 1044              		.loc 1 265 0 is_stmt 1
 1045 0350 FFF7FEFF 		bl	SW2_ClearInterrupt
 266:main.c        ****                 Wakeup_Interrupt_ClearPending();
 1046              		.loc 1 266 0
 1047 0354 FFF7FEFF 		bl	Wakeup_Interrupt_ClearPending
 267:main.c        ****                 Wakeup_Interrupt_Start();
 1048              		.loc 1 267 0
 1049 0358 FFF7FEFF 		bl	Wakeup_Interrupt_Start
 268:main.c        ****                 CySysPmHibernate();
 1050              		.loc 1 268 0
 1051 035c FFF7FEFF 		bl	CySysPmHibernate
 269:main.c        ****             }
 270:main.c        ****             else if(CyBle_GetState() == CYBLE_STATE_ADVERTISING)
 271:main.c        ****             {
 272:main.c        ****                 Advertising_LED_Write(LED_ON);
 273:main.c        ****                 Disconnect_LED_Write(LED_OFF);
 274:main.c        ****                 Connected_LED_Write(LED_OFF);
 275:main.c        ****             }
 276:main.c        ****             else
 277:main.c        ****             {
ARM GAS  C:\Users\user\AppData\Local\Temp\ccRdimcD.s 			page 28


 278:main.c        ****                 /* Nothing else */   
 279:main.c        ****             }
 280:main.c        ****             break;
 1052              		.loc 1 280 0
 1053 0360 FCE0     		b	.L65
 1054              	.L58:
 270:main.c        ****             {
 1055              		.loc 1 270 0
 1056 0362 404B     		ldr	r3, .L66+196
 1057 0364 1B78     		ldrb	r3, [r3]
 1058 0366 032B     		cmp	r3, #3
 1059 0368 00D0     		beq	.LCB512
 1060 036a F7E0     		b	.L65	@long jump
 1061              	.LCB512:
 272:main.c        ****                 Disconnect_LED_Write(LED_OFF);
 1062              		.loc 1 272 0
 1063 036c 0020     		movs	r0, #0
 1064 036e FFF7FEFF 		bl	Advertising_LED_Write
 273:main.c        ****                 Connected_LED_Write(LED_OFF);
 1065              		.loc 1 273 0
 1066 0372 0120     		movs	r0, #1
 1067 0374 FFF7FEFF 		bl	Disconnect_LED_Write
 274:main.c        ****             }
 1068              		.loc 1 274 0
 1069 0378 0120     		movs	r0, #1
 1070 037a FFF7FEFF 		bl	Connected_LED_Write
 1071              		.loc 1 280 0
 1072 037e EDE0     		b	.L65
 1073              	.L22:
 281:main.c        **** 
 282:main.c        ****         /**********************************************************
 283:main.c        ****         *                       GATT Events
 284:main.c        ****         ***********************************************************/
 285:main.c        ****         
 286:main.c        ****         case CYBLE_EVT_GATT_CONNECT_IND:
 287:main.c        ****             DBG_PRINTF("CYBLE_EVT_GATT_CONNECT_IND: attId %x, bdHandle %x \r\n", 
 1074              		.loc 1 287 0
 1075 0380 3B68     		ldr	r3, [r7]
 1076 0382 5B78     		ldrb	r3, [r3, #1]
 1077 0384 1900     		movs	r1, r3
 1078 0386 3B68     		ldr	r3, [r7]
 1079 0388 1B78     		ldrb	r3, [r3]
 1080 038a 1A00     		movs	r2, r3
 1081 038c 384B     		ldr	r3, .L66+208
 1082 038e 1800     		movs	r0, r3
 1083 0390 FFF7FEFF 		bl	printf
 288:main.c        ****                 ((CYBLE_CONN_HANDLE_T *)eventParam)->attId, ((CYBLE_CONN_HANDLE_T *)eventParam)->bd
 289:main.c        ****             break;
 1084              		.loc 1 289 0
 1085 0394 E3E0     		b	.L36
 1086              	.L23:
 290:main.c        **** 
 291:main.c        ****         case CYBLE_EVT_GATT_DISCONNECT_IND:
 292:main.c        ****             DBG_PRINTF("CYBLE_EVT_GATT_DISCONNECT_IND \r\n");
 1087              		.loc 1 292 0
 1088 0396 374B     		ldr	r3, .L66+212
 1089 0398 1800     		movs	r0, r3
ARM GAS  C:\Users\user\AppData\Local\Temp\ccRdimcD.s 			page 29


 1090 039a FFF7FEFF 		bl	puts
 293:main.c        ****             break;
 1091              		.loc 1 293 0
 1092 039e DEE0     		b	.L36
 1093              	.L67:
 1094              		.align	2
 1095              	.L66:
 1096 03a0 4C070000 		.word	.L4
 1097 03a4 00000000 		.word	.LC1
 1098 03a8 18000000 		.word	.LC3
 1099 03ac 38000000 		.word	.LC5
 1100 03b0 54000000 		.word	.LC7
 1101 03b4 70000000 		.word	.LC9
 1102 03b8 00000000 		.word	peerAuthInfo
 1103 03bc 8C000000 		.word	.LC12
 1104 03c0 CC000000 		.word	.LC14
 1105 03c4 F4000000 		.word	.LC16
 1106 03c8 00000000 		.word	authState
 1107 03cc 00000000 		.word	passkeyValue
 1108 03d0 00000000 		.word	passkeyPow
 1109 03d4 A0860100 		.word	100000
 1110 03d8 00000000 		.word	passkeyCounter
 1111 03dc 24010000 		.word	.LC22
 1112 03e0 58010000 		.word	.LC24
 1113 03e4 680B0000 		.word	.L39
 1114 03e8 7C010000 		.word	.LC27
 1115 03ec 84010000 		.word	.LC29
 1116 03f0 9C010000 		.word	.LC31
 1117 03f4 B4010000 		.word	.LC33
 1118 03f8 D0010000 		.word	.LC35
 1119 03fc EC010000 		.word	.LC37
 1120 0400 04020000 		.word	.LC39
 1121 0404 28020000 		.word	.LC41
 1122 0408 40020000 		.word	.LC43
 1123 040c 54020000 		.word	.LC45
 1124 0410 68020000 		.word	.LC47
 1125 0414 7C020000 		.word	.LC49
 1126 0418 94020000 		.word	.LC51
 1127 041c A8020000 		.word	.LC53
 1128 0420 B0020000 		.word	.LC55
 1129 0424 08030000 		.word	.LC57
 1130 0428 00000000 		.word	cyBle_connHandle
 1131 042c 64030000 		.word	.LC60
 1132 0430 00000000 		.word	cyBle_authInfo
 1133 0434 00000000 		.word	apiResult
 1134 0438 8C030000 		.word	.LC64
 1135 043c AC030000 		.word	.LC66
 1136 0440 0000F43F 		.word	1072955392
 1137 0444 D8030000 		.word	.LC68
 1138 0448 10040000 		.word	.LC70
 1139 044c 1C040000 		.word	.LC72
 1140 0450 28040000 		.word	.LC74
 1141 0454 54040000 		.word	.LC76
 1142 0458 98040000 		.word	.LC78
 1143 045c BC040000 		.word	.LC80
 1144 0460 E4040000 		.word	.LC82
 1145 0464 00000000 		.word	cyBle_state
ARM GAS  C:\Users\user\AppData\Local\Temp\ccRdimcD.s 			page 30


 1146 0468 10050000 		.word	.LC85
 1147 046c 08022440 		.word	1076101640
 1148 0470 1C050000 		.word	.LC87
 1149 0474 54050000 		.word	.LC89
 1150              	.L25:
 294:main.c        ****     
 295:main.c        ****         case CYBLE_EVT_GATTS_WRITE_REQ:
 296:main.c        ****             DBG_PRINTF("CYBLE_EVT_GATTS_WRITE_REQ attr handle: %4.4x , value: ",((CYBLE_GATTS_WRITE
 1151              		.loc 1 296 0
 1152 0478 3B68     		ldr	r3, [r7]
 1153 047a 9B89     		ldrh	r3, [r3, #12]
 1154 047c 1A00     		movs	r2, r3
 1155 047e 3A4B     		ldr	r3, .L68
 1156 0480 1100     		movs	r1, r2
 1157 0482 1800     		movs	r0, r3
 1158 0484 FFF7FEFF 		bl	printf
 297:main.c        ****             for(i = 0; i < ((CYBLE_GATTS_WRITE_REQ_PARAM_T *)eventParam)->handleValPair.value.len; 
 1159              		.loc 1 297 0
 1160 0488 384B     		ldr	r3, .L68+4
 1161 048a 0022     		movs	r2, #0
 1162 048c 1A80     		strh	r2, [r3]
 1163 048e 11E0     		b	.L63
 1164              	.L64:
 298:main.c        ****             {
 299:main.c        ****                 DBG_PRINTF("%2.2x ", ((CYBLE_GATTS_WRITE_REQ_PARAM_T *)eventParam)->handleValPair.v
 1165              		.loc 1 299 0 discriminator 3
 1166 0490 3B68     		ldr	r3, [r7]
 1167 0492 5B68     		ldr	r3, [r3, #4]
 1168 0494 354A     		ldr	r2, .L68+4
 1169 0496 1288     		ldrh	r2, [r2]
 1170 0498 9B18     		adds	r3, r3, r2
 1171 049a 1B78     		ldrb	r3, [r3]
 1172 049c 1A00     		movs	r2, r3
 1173 049e 344B     		ldr	r3, .L68+8
 1174 04a0 1100     		movs	r1, r2
 1175 04a2 1800     		movs	r0, r3
 1176 04a4 FFF7FEFF 		bl	printf
 297:main.c        ****             for(i = 0; i < ((CYBLE_GATTS_WRITE_REQ_PARAM_T *)eventParam)->handleValPair.value.len; 
 1177              		.loc 1 297 0 discriminator 3
 1178 04a8 304B     		ldr	r3, .L68+4
 1179 04aa 1B88     		ldrh	r3, [r3]
 1180 04ac 0133     		adds	r3, r3, #1
 1181 04ae 9AB2     		uxth	r2, r3
 1182 04b0 2E4B     		ldr	r3, .L68+4
 1183 04b2 1A80     		strh	r2, [r3]
 1184              	.L63:
 297:main.c        ****             for(i = 0; i < ((CYBLE_GATTS_WRITE_REQ_PARAM_T *)eventParam)->handleValPair.value.len; 
 1185              		.loc 1 297 0 is_stmt 0 discriminator 1
 1186 04b4 3B68     		ldr	r3, [r7]
 1187 04b6 1A89     		ldrh	r2, [r3, #8]
 1188 04b8 2C4B     		ldr	r3, .L68+4
 1189 04ba 1B88     		ldrh	r3, [r3]
 1190 04bc 9A42     		cmp	r2, r3
 1191 04be E7D8     		bhi	.L64
 300:main.c        ****             }
 301:main.c        ****             DBG_PRINTF("\r\n");
 1192              		.loc 1 301 0 is_stmt 1
ARM GAS  C:\Users\user\AppData\Local\Temp\ccRdimcD.s 			page 31


 1193 04c0 2C4B     		ldr	r3, .L68+12
 1194 04c2 1800     		movs	r0, r3
 1195 04c4 FFF7FEFF 		bl	puts
 302:main.c        ****             break;
 1196              		.loc 1 302 0
 1197 04c8 49E0     		b	.L36
 1198              	.L24:
 1199              	.LBB3:
 303:main.c        ****             
 304:main.c        ****         case CYBLE_EVT_GATTS_XCNHG_MTU_REQ:
 305:main.c        ****             {
 306:main.c        ****             DBG_PRINTF("CYBLE_EVT_GATTS_XCNHG_MTU_REQ \r\n");
 1200              		.loc 1 306 0
 1201 04ca 2B4B     		ldr	r3, .L68+16
 1202 04cc 1800     		movs	r0, r3
 1203 04ce FFF7FEFF 		bl	puts
 307:main.c        ****             CYBLE_DISC_CHAR_INFO_T *discCharInfo = (CYBLE_DISC_CHAR_INFO_T *)eventParam;
 1204              		.loc 1 307 0
 1205 04d2 3B68     		ldr	r3, [r7]
 1206 04d4 3B61     		str	r3, [r7, #16]
 308:main.c        ****                 PrintCharacteristicInfo(discCharInfo);
 1207              		.loc 1 308 0
 1208 04d6 3B69     		ldr	r3, [r7, #16]
 1209 04d8 1800     		movs	r0, r3
 1210 04da FFF7FEFF 		bl	PrintCharacteristicInfo
 1211              	.LBE3:
 309:main.c        ****             }
 310:main.c        ****             break;
 1212              		.loc 1 310 0
 1213 04de 3EE0     		b	.L36
 1214              	.L28:
 311:main.c        ****             
 312:main.c        ****         case CYBLE_EVT_GATTS_HANDLE_VALUE_CNF:
 313:main.c        ****             DBG_PRINTF("CYBLE_EVT_GATTS_HANDLE_VALUE_CNF \r\n");
 1215              		.loc 1 313 0
 1216 04e0 264B     		ldr	r3, .L68+20
 1217 04e2 1800     		movs	r0, r3
 1218 04e4 FFF7FEFF 		bl	puts
 314:main.c        ****             break;
 1219              		.loc 1 314 0
 1220 04e8 39E0     		b	.L36
 1221              	.L26:
 315:main.c        ****             
 316:main.c        ****         case CYBLE_EVT_GATTS_PREP_WRITE_REQ:
 317:main.c        ****             DBG_PRINTF("CYBLE_EVT_GATTS_PREP_WRITE_REQ \r\n");
 1222              		.loc 1 317 0
 1223 04ea 254B     		ldr	r3, .L68+24
 1224 04ec 1800     		movs	r0, r3
 1225 04ee FFF7FEFF 		bl	puts
 318:main.c        ****             break;
 1226              		.loc 1 318 0
 1227 04f2 34E0     		b	.L36
 1228              	.L27:
 319:main.c        ****         
 320:main.c        ****         case CYBLE_EVT_GATTS_EXEC_WRITE_REQ:
 321:main.c        ****             DBG_PRINTF("CYBLE_EVT_GATTS_EXEC_WRITE_REQ \r\n");
 1229              		.loc 1 321 0
ARM GAS  C:\Users\user\AppData\Local\Temp\ccRdimcD.s 			page 32


 1230 04f4 234B     		ldr	r3, .L68+28
 1231 04f6 1800     		movs	r0, r3
 1232 04f8 FFF7FEFF 		bl	puts
 322:main.c        ****             break;
 1233              		.loc 1 322 0
 1234 04fc 2FE0     		b	.L36
 1235              	.L29:
 323:main.c        **** 
 324:main.c        ****         case CYBLE_EVT_GATTS_READ_CHAR_VAL_ACCESS_REQ:
 325:main.c        ****             /* Triggered on server side when client sends read request and when
 326:main.c        ****             * characteristic has CYBLE_GATT_DB_ATTR_CHAR_VAL_RD_EVENT property set.
 327:main.c        ****             * This event could be ignored by application unless it need to response
 328:main.c        ****             * by error response which needs to be set in gattErrorCode field of
 329:main.c        ****             * event parameter. */
 330:main.c        ****             DBG_PRINTF("CYBLE_EVT_GATTS_READ_CHAR_VAL_ACCESS_REQ: handle: %x \r\n", 
 1236              		.loc 1 330 0
 1237 04fe 3B68     		ldr	r3, [r7]
 1238 0500 5B88     		ldrh	r3, [r3, #2]
 1239 0502 1A00     		movs	r2, r3
 1240 0504 204B     		ldr	r3, .L68+32
 1241 0506 1100     		movs	r1, r2
 1242 0508 1800     		movs	r0, r3
 1243 050a FFF7FEFF 		bl	printf
 331:main.c        ****                 ((CYBLE_GATTS_CHAR_VAL_READ_REQ_T *)eventParam)->attrHandle);
 332:main.c        ****             CYBLE_DISC_CHAR_INFO_T *discCharInfo = (CYBLE_DISC_CHAR_INFO_T *)eventParam;
 1244              		.loc 1 332 0
 1245 050e 3B68     		ldr	r3, [r7]
 1246 0510 FB60     		str	r3, [r7, #12]
 333:main.c        ****                 PrintCharacteristicInfo(discCharInfo);
 1247              		.loc 1 333 0
 1248 0512 FB68     		ldr	r3, [r7, #12]
 1249 0514 1800     		movs	r0, r3
 1250 0516 FFF7FEFF 		bl	PrintCharacteristicInfo
 334:main.c        ****             break;
 1251              		.loc 1 334 0
 1252 051a 20E0     		b	.L36
 1253              	.L33:
 335:main.c        **** 
 336:main.c        ****         /**********************************************************
 337:main.c        ****         *                  GATT Service Events 
 338:main.c        ****         ***********************************************************/
 339:main.c        ****             
 340:main.c        ****         case CYBLE_EVT_GATTS_INDICATION_ENABLED:
 341:main.c        ****             DBG_PRINTF("CYBLE_EVT_GATTS_INDICATION_ENABLED \r\n");
 1254              		.loc 1 341 0
 1255 051c 1B4B     		ldr	r3, .L68+36
 1256 051e 1800     		movs	r0, r3
 1257 0520 FFF7FEFF 		bl	puts
 342:main.c        ****             break;
 1258              		.loc 1 342 0
 1259 0524 1BE0     		b	.L36
 1260              	.L34:
 343:main.c        ****         
 344:main.c        ****         case CYBLE_EVT_GATTS_INDICATION_DISABLED:
 345:main.c        ****             DBG_PRINTF("CYBLE_EVT_GATTS_INDICATION_DISABLED \r\n");
 1261              		.loc 1 345 0
 1262 0526 1A4B     		ldr	r3, .L68+40
ARM GAS  C:\Users\user\AppData\Local\Temp\ccRdimcD.s 			page 33


 1263 0528 1800     		movs	r0, r3
 1264 052a FFF7FEFF 		bl	puts
 346:main.c        ****             break;
 1265              		.loc 1 346 0
 1266 052e 16E0     		b	.L36
 1267              	.L35:
 347:main.c        ****             
 348:main.c        ****         case CYBLE_EVT_GATTC_INDICATION:
 349:main.c        ****             DBG_PRINTF("CYBLE_EVT_GATTS_INDICATION \r\n");
 1268              		.loc 1 349 0
 1269 0530 184B     		ldr	r3, .L68+44
 1270 0532 1800     		movs	r0, r3
 1271 0534 FFF7FEFF 		bl	puts
 350:main.c        ****             break;
 1272              		.loc 1 350 0
 1273 0538 11E0     		b	.L36
 1274              	.L30:
 351:main.c        **** 
 352:main.c        ****         /**********************************************************
 353:main.c        ****         *                       L2CAP Events 
 354:main.c        ****         ***********************************************************/    
 355:main.c        ****             
 356:main.c        ****         case CYBLE_EVT_L2CAP_CONN_PARAM_UPDATE_REQ:
 357:main.c        ****             DBG_PRINTF("CYBLE_EVT_L2CAP_CONN_PARAM_UPDATE_REQ \r\n");
 1275              		.loc 1 357 0
 1276 053a 174B     		ldr	r3, .L68+48
 1277 053c 1800     		movs	r0, r3
 1278 053e FFF7FEFF 		bl	puts
 358:main.c        ****             break;
 1279              		.loc 1 358 0
 1280 0542 0CE0     		b	.L36
 1281              	.L32:
 359:main.c        **** 
 360:main.c        ****         /**********************************************************
 361:main.c        ****         *                       Other Events
 362:main.c        ****         ***********************************************************/
 363:main.c        ****         case CYBLE_EVT_PENDING_FLASH_WRITE:
 364:main.c        ****             /* Inform application that flash write is pending. Stack internal data 
 365:main.c        ****             * structures are modified and require to be stored in Flash using 
 366:main.c        ****             * CyBle_StoreBondingData() */
 367:main.c        ****             DBG_PRINTF("CYBLE_EVT_PENDING_FLASH_WRITE\r\n");
 1282              		.loc 1 367 0
 1283 0544 154B     		ldr	r3, .L68+52
 1284 0546 1800     		movs	r0, r3
 1285 0548 FFF7FEFF 		bl	puts
 368:main.c        ****             break;
 1286              		.loc 1 368 0
 1287 054c 07E0     		b	.L36
 1288              	.L2:
 369:main.c        ****             
 370:main.c        ****         default:
 371:main.c        ****             DBG_PRINTF("other event: 0x%lx \r\n", event);
 1289              		.loc 1 371 0
 1290 054e 7A68     		ldr	r2, [r7, #4]
 1291 0550 134B     		ldr	r3, .L68+56
 1292 0552 1100     		movs	r1, r2
 1293 0554 1800     		movs	r0, r3
ARM GAS  C:\Users\user\AppData\Local\Temp\ccRdimcD.s 			page 34


 1294 0556 FFF7FEFF 		bl	printf
 372:main.c        **** 			break;
 1295              		.loc 1 372 0
 1296 055a 00E0     		b	.L36
 1297              	.L65:
 280:main.c        **** 
 1298              		.loc 1 280 0
 1299 055c C046     		nop
 1300              	.L36:
 1301              	.LBE2:
 373:main.c        ****     }
 374:main.c        **** }
 1302              		.loc 1 374 0
 1303 055e C046     		nop
 1304 0560 BD46     		mov	sp, r7
 1305 0562 07B0     		add	sp, sp, #28
 1306              		@ sp needed
 1307 0564 90BD     		pop	{r4, r7, pc}
 1308              	.L69:
 1309 0566 C046     		.align	2
 1310              	.L68:
 1311 0568 74050000 		.word	.LC91
 1312 056c 00000000 		.word	i
 1313 0570 AC050000 		.word	.LC94
 1314 0574 B4050000 		.word	.LC96
 1315 0578 B8050000 		.word	.LC98
 1316 057c D8050000 		.word	.LC100
 1317 0580 FC050000 		.word	.LC102
 1318 0584 20060000 		.word	.LC104
 1319 0588 44060000 		.word	.LC106
 1320 058c 7C060000 		.word	.LC108
 1321 0590 A4060000 		.word	.LC110
 1322 0594 CC060000 		.word	.LC112
 1323 0598 EC060000 		.word	.LC114
 1324 059c 14070000 		.word	.LC116
 1325 05a0 34070000 		.word	.LC118
 1326              		.cfi_endproc
 1327              	.LFE36:
 1328              		.size	AppCallBack, .-AppCallBack
 1329              		.section	.rodata
 1330              		.align	2
 1331              	.LC120:
 1332 0bcc 55554944 		.ascii	"UUID format: 16-bit\015\000"
 1332      20666F72 
 1332      6D61743A 
 1332      2031362D 
 1332      6269740D 
 1333 0be1 000000   		.align	2
 1334              	.LC122:
 1335 0be4 55554944 		.ascii	"UUID: 0x%04X\000"
 1335      3A203078 
 1335      25303458 
 1335      00
 1336 0bf1 000000   		.align	2
 1337              	.LC124:
 1338 0bf4 55554944 		.ascii	"UUID format: 128-bit\015\000"
 1338      20666F72 
ARM GAS  C:\Users\user\AppData\Local\Temp\ccRdimcD.s 			page 35


 1338      6D61743A 
 1338      20313238 
 1338      2D626974 
 1339 0c0a 0000     		.align	2
 1340              	.LC126:
 1341 0c0c 55554944 		.ascii	"UUID: %08X-%04X-%04X-%04X-%08X%04X\000"
 1341      3A202530 
 1341      38582D25 
 1341      3034582D 
 1341      25303458 
 1342 0c2f 00       		.align	2
 1343              	.LC128:
 1344 0c30 556E6B6E 		.ascii	"Unknown UUID format: 0x%02X\015\012\000"
 1344      6F776E20 
 1344      55554944 
 1344      20666F72 
 1344      6D61743A 
 1345 0c4e 0000     		.align	2
 1346              	.LC130:
 1347 0c50 55554944 		.ascii	"UUID string: %s\015\012\000"
 1347      20737472 
 1347      696E673A 
 1347      2025730D 
 1347      0A00
 1348              		.section	.text.PrintUUID,"ax",%progbits
 1349              		.align	2
 1350              		.global	PrintUUID
 1351              		.code	16
 1352              		.thumb_func
 1353              		.type	PrintUUID, %function
 1354              	PrintUUID:
 1355              	.LFB37:
 375:main.c        **** 
 376:main.c        **** 
 377:main.c        **** // Funkcja konwertujca UUID do formatu string
 378:main.c        **** void PrintUUID(CYBLE_UUID_T uuid, uint8 uuidFormat) {
 1356              		.loc 1 378 0
 1357              		.cfi_startproc
 1358              		@ args = 4, pretend = 0, frame = 64
 1359              		@ frame_needed = 1, uses_anonymous_args = 0
 1360 0000 F0B5     		push	{r4, r5, r6, r7, lr}
 1361              		.cfi_def_cfa_offset 20
 1362              		.cfi_offset 4, -20
 1363              		.cfi_offset 5, -16
 1364              		.cfi_offset 6, -12
 1365              		.cfi_offset 7, -8
 1366              		.cfi_offset 14, -4
 1367 0002 4746     		mov	r7, r8
 1368 0004 80B4     		push	{r7}
 1369              		.cfi_def_cfa_offset 24
 1370              		.cfi_offset 8, -24
 1371 0006 94B0     		sub	sp, sp, #80
 1372              		.cfi_def_cfa_offset 104
 1373 0008 04AF     		add	r7, sp, #16
 1374              		.cfi_def_cfa 7, 88
 1375 000a 0824     		movs	r4, #8
 1376 000c 3C19     		adds	r4, r7, r4
ARM GAS  C:\Users\user\AppData\Local\Temp\ccRdimcD.s 			page 36


 1377 000e 2060     		str	r0, [r4]
 1378 0010 6160     		str	r1, [r4, #4]
 1379 0012 A260     		str	r2, [r4, #8]
 1380 0014 E360     		str	r3, [r4, #12]
 379:main.c        ****     char uuidStr[37]; // 36 characters for 128-bit UUID + null terminator
 380:main.c        ****     if (uuidFormat == 0x01) { // 16-bit UUID
 1381              		.loc 1 380 0
 1382 0016 5023     		movs	r3, #80
 1383 0018 0822     		movs	r2, #8
 1384 001a 9446     		mov	ip, r2
 1385 001c BC44     		add	ip, ip, r7
 1386 001e 6344     		add	r3, r3, ip
 1387 0020 1B78     		ldrb	r3, [r3]
 1388 0022 012B     		cmp	r3, #1
 1389 0024 11D1     		bne	.L71
 381:main.c        ****         DBG_PRINTF("UUID format: 16-bit\r\n");
 1390              		.loc 1 381 0
 1391 0026 304B     		ldr	r3, .L75
 1392 0028 1800     		movs	r0, r3
 1393 002a FFF7FEFF 		bl	puts
 382:main.c        ****         sprintf(uuidStr, "UUID: 0x%04X", uuid.uuid16);
 1394              		.loc 1 382 0
 1395 002e 0823     		movs	r3, #8
 1396 0030 FB18     		adds	r3, r7, r3
 1397 0032 1B88     		ldrh	r3, [r3]
 1398 0034 1A00     		movs	r2, r3
 1399 0036 2D49     		ldr	r1, .L75+4
 1400 0038 1023     		movs	r3, #16
 1401 003a 0820     		movs	r0, #8
 1402 003c 8446     		mov	ip, r0
 1403 003e BC44     		add	ip, ip, r7
 1404 0040 6344     		add	r3, r3, ip
 1405 0042 1800     		movs	r0, r3
 1406 0044 FFF7FEFF 		bl	sprintf
 1407 0048 3FE0     		b	.L72
 1408              	.L71:
 383:main.c        ****     } else if (uuidFormat == 0x02) { // 128-bit UUID
 1409              		.loc 1 383 0
 1410 004a 5023     		movs	r3, #80
 1411 004c 0822     		movs	r2, #8
 1412 004e 9446     		mov	ip, r2
 1413 0050 BC44     		add	ip, ip, r7
 1414 0052 6344     		add	r3, r3, ip
 1415 0054 1B78     		ldrb	r3, [r3]
 1416 0056 022B     		cmp	r3, #2
 1417 0058 2BD1     		bne	.L73
 384:main.c        ****         DBG_PRINTF("UUID format: 128-bit\r\n");
 1418              		.loc 1 384 0
 1419 005a 254B     		ldr	r3, .L75+8
 1420 005c 1800     		movs	r0, r3
 1421 005e FFF7FEFF 		bl	puts
 385:main.c        ****         sprintf(uuidStr, "UUID: %08X-%04X-%04X-%04X-%08X%04X",
 386:main.c        ****                 uuid.uuid128.value[12], uuid.uuid128.value[10], uuid.uuid128.value[8],
 1422              		.loc 1 386 0
 1423 0062 0823     		movs	r3, #8
 1424 0064 FB18     		adds	r3, r7, r3
 1425 0066 1B7B     		ldrb	r3, [r3, #12]
ARM GAS  C:\Users\user\AppData\Local\Temp\ccRdimcD.s 			page 37


 385:main.c        ****         sprintf(uuidStr, "UUID: %08X-%04X-%04X-%04X-%08X%04X",
 1426              		.loc 1 385 0
 1427 0068 1E00     		movs	r6, r3
 1428              		.loc 1 386 0
 1429 006a 0823     		movs	r3, #8
 1430 006c FB18     		adds	r3, r7, r3
 1431 006e 9B7A     		ldrb	r3, [r3, #10]
 385:main.c        ****         sprintf(uuidStr, "UUID: %08X-%04X-%04X-%04X-%08X%04X",
 1432              		.loc 1 385 0
 1433 0070 7B60     		str	r3, [r7, #4]
 1434              		.loc 1 386 0
 1435 0072 0823     		movs	r3, #8
 1436 0074 FB18     		adds	r3, r7, r3
 1437 0076 1B7A     		ldrb	r3, [r3, #8]
 385:main.c        ****         sprintf(uuidStr, "UUID: %08X-%04X-%04X-%04X-%08X%04X",
 1438              		.loc 1 385 0
 1439 0078 1A00     		movs	r2, r3
 387:main.c        ****                 uuid.uuid128.value[6], uuid.uuid128.value[0], uuid.uuid128.value[4]);
 1440              		.loc 1 387 0
 1441 007a 0823     		movs	r3, #8
 1442 007c FB18     		adds	r3, r7, r3
 1443 007e 9B79     		ldrb	r3, [r3, #6]
 385:main.c        ****         sprintf(uuidStr, "UUID: %08X-%04X-%04X-%04X-%08X%04X",
 1444              		.loc 1 385 0
 1445 0080 1C00     		movs	r4, r3
 1446              		.loc 1 387 0
 1447 0082 0823     		movs	r3, #8
 1448 0084 FB18     		adds	r3, r7, r3
 1449 0086 1B78     		ldrb	r3, [r3]
 385:main.c        ****         sprintf(uuidStr, "UUID: %08X-%04X-%04X-%04X-%08X%04X",
 1450              		.loc 1 385 0
 1451 0088 1D00     		movs	r5, r3
 1452              		.loc 1 387 0
 1453 008a 0823     		movs	r3, #8
 1454 008c FB18     		adds	r3, r7, r3
 1455 008e 1B79     		ldrb	r3, [r3, #4]
 385:main.c        ****         sprintf(uuidStr, "UUID: %08X-%04X-%04X-%04X-%08X%04X",
 1456              		.loc 1 385 0
 1457 0090 9846     		mov	r8, r3
 1458 0092 1849     		ldr	r1, .L75+12
 1459 0094 1020     		movs	r0, #16
 1460 0096 0823     		movs	r3, #8
 1461 0098 9C46     		mov	ip, r3
 1462 009a BC44     		add	ip, ip, r7
 1463 009c 6044     		add	r0, r0, ip
 1464 009e 4346     		mov	r3, r8
 1465 00a0 0393     		str	r3, [sp, #12]
 1466 00a2 0295     		str	r5, [sp, #8]
 1467 00a4 0194     		str	r4, [sp, #4]
 1468 00a6 0092     		str	r2, [sp]
 1469 00a8 7B68     		ldr	r3, [r7, #4]
 1470 00aa 3200     		movs	r2, r6
 1471 00ac FFF7FEFF 		bl	sprintf
 1472 00b0 0BE0     		b	.L72
 1473              	.L73:
 388:main.c        ****     } else {
 389:main.c        ****         DBG_PRINTF("Unknown UUID format: 0x%02X\r\n", uuidFormat);
ARM GAS  C:\Users\user\AppData\Local\Temp\ccRdimcD.s 			page 38


 1474              		.loc 1 389 0
 1475 00b2 5023     		movs	r3, #80
 1476 00b4 0822     		movs	r2, #8
 1477 00b6 9446     		mov	ip, r2
 1478 00b8 BC44     		add	ip, ip, r7
 1479 00ba 6344     		add	r3, r3, ip
 1480 00bc 1A78     		ldrb	r2, [r3]
 1481 00be 0E4B     		ldr	r3, .L75+16
 1482 00c0 1100     		movs	r1, r2
 1483 00c2 1800     		movs	r0, r3
 1484 00c4 FFF7FEFF 		bl	printf
 1485 00c8 08E0     		b	.L70
 1486              	.L72:
 390:main.c        ****         return;
 391:main.c        ****     }
 392:main.c        ****     DBG_PRINTF("UUID string: %s\r\n", uuidStr);
 1487              		.loc 1 392 0
 1488 00ca 1023     		movs	r3, #16
 1489 00cc 0822     		movs	r2, #8
 1490 00ce BA18     		adds	r2, r7, r2
 1491 00d0 D218     		adds	r2, r2, r3
 1492 00d2 0A4B     		ldr	r3, .L75+20
 1493 00d4 1100     		movs	r1, r2
 1494 00d6 1800     		movs	r0, r3
 1495 00d8 FFF7FEFF 		bl	printf
 1496              	.L70:
 393:main.c        **** }
 1497              		.loc 1 393 0
 1498 00dc BD46     		mov	sp, r7
 1499 00de 10B0     		add	sp, sp, #64
 1500              		@ sp needed
 1501 00e0 04BC     		pop	{r2}
 1502 00e2 9046     		mov	r8, r2
 1503 00e4 F0BD     		pop	{r4, r5, r6, r7, pc}
 1504              	.L76:
 1505 00e6 C046     		.align	2
 1506              	.L75:
 1507 00e8 CC0B0000 		.word	.LC120
 1508 00ec E40B0000 		.word	.LC122
 1509 00f0 F40B0000 		.word	.LC124
 1510 00f4 0C0C0000 		.word	.LC126
 1511 00f8 300C0000 		.word	.LC128
 1512 00fc 500C0000 		.word	.LC130
 1513              		.cfi_endproc
 1514              	.LFE37:
 1515              		.size	PrintUUID, .-PrintUUID
 1516              		.section	.rodata
 1517 0c62 0000     		.align	2
 1518              	.LC132:
 1519 0c64 43686172 		.ascii	"Characteristic Declaration Handle: 0x%04X\015\012\000"
 1519      61637465 
 1519      72697374 
 1519      69632044 
 1519      65636C61 
 1520              		.align	2
 1521              	.LC134:
 1522 0c90 257300   		.ascii	"%s\000"
ARM GAS  C:\Users\user\AppData\Local\Temp\ccRdimcD.s 			page 39


 1523 0c93 00       		.align	2
 1524              	.LC136:
 1525 0c94 50726F70 		.ascii	"Properties: 0x%02X\015\012\000"
 1525      65727469 
 1525      65733A20 
 1525      30782530 
 1525      32580D0A 
 1526 0ca9 000000   		.align	2
 1527              	.LC138:
 1528 0cac 56616C75 		.ascii	"Value Handle: 0x%04X\015\012\000"
 1528      65204861 
 1528      6E646C65 
 1528      3A203078 
 1528      25303458 
 1529 0cc3 00       		.align	2
 1530              	.LC140:
 1531 0cc4 55554944 		.ascii	"UUID Format: 0x%02X\015\012\000"
 1531      20466F72 
 1531      6D61743A 
 1531      20307825 
 1531      3032580D 
 1532 0cda 0000     		.align	2
 1533              	.LC142:
 1534 0cdc 5072696E 		.ascii	"Printing UUID...\015\000"
 1534      74696E67 
 1534      20555549 
 1534      442E2E2E 
 1534      0D00
 1535 0cee 0000     		.align	2
 1536              	.LC144:
 1537 0cf0 46696E69 		.ascii	"Finished printing UUID.\015\000"
 1537      73686564 
 1537      20707269 
 1537      6E74696E 
 1537      67205555 
 1538              		.section	.text.PrintCharacteristicInfo,"ax",%progbits
 1539              		.align	2
 1540              		.global	PrintCharacteristicInfo
 1541              		.code	16
 1542              		.thumb_func
 1543              		.type	PrintCharacteristicInfo, %function
 1544              	PrintCharacteristicInfo:
 1545              	.LFB38:
 394:main.c        **** 
 395:main.c        **** // Funkcja drukujca szczegy struktury CYBLE_DISC_CHAR_INFO_T
 396:main.c        **** void PrintCharacteristicInfo(const CYBLE_DISC_CHAR_INFO_T *charInfo) {
 1546              		.loc 1 396 0
 1547              		.cfi_startproc
 1548              		@ args = 0, pretend = 0, frame = 112
 1549              		@ frame_needed = 1, uses_anonymous_args = 0
 1550 0000 F0B5     		push	{r4, r5, r6, r7, lr}
 1551              		.cfi_def_cfa_offset 20
 1552              		.cfi_offset 4, -20
 1553              		.cfi_offset 5, -16
 1554              		.cfi_offset 6, -12
 1555              		.cfi_offset 7, -8
 1556              		.cfi_offset 14, -4
ARM GAS  C:\Users\user\AppData\Local\Temp\ccRdimcD.s 			page 40


 1557 0002 9FB0     		sub	sp, sp, #124
 1558              		.cfi_def_cfa_offset 144
 1559 0004 02AF     		add	r7, sp, #8
 1560              		.cfi_def_cfa 7, 136
 1561 0006 7860     		str	r0, [r7, #4]
 397:main.c        ****     char buffer[100];
 398:main.c        ****     sprintf(buffer, "Characteristic Declaration Handle: 0x%04X\r\n", charInfo->charDeclHandle);
 1562              		.loc 1 398 0
 1563 0008 7B68     		ldr	r3, [r7, #4]
 1564 000a 1B88     		ldrh	r3, [r3]
 1565 000c 1A00     		movs	r2, r3
 1566 000e 3249     		ldr	r1, .L78
 1567 0010 0C23     		movs	r3, #12
 1568 0012 FB18     		adds	r3, r7, r3
 1569 0014 1800     		movs	r0, r3
 1570 0016 FFF7FEFF 		bl	sprintf
 399:main.c        ****     DBG_PRINTF("%s", buffer);
 1571              		.loc 1 399 0
 1572 001a 0C23     		movs	r3, #12
 1573 001c FA18     		adds	r2, r7, r3
 1574 001e 2F4B     		ldr	r3, .L78+4
 1575 0020 1100     		movs	r1, r2
 1576 0022 1800     		movs	r0, r3
 1577 0024 FFF7FEFF 		bl	printf
 400:main.c        **** 
 401:main.c        ****     sprintf(buffer, "Properties: 0x%02X\r\n", charInfo->properties);
 1578              		.loc 1 401 0
 1579 0028 7B68     		ldr	r3, [r7, #4]
 1580 002a 9B78     		ldrb	r3, [r3, #2]
 1581 002c 1A00     		movs	r2, r3
 1582 002e 2C49     		ldr	r1, .L78+8
 1583 0030 0C23     		movs	r3, #12
 1584 0032 FB18     		adds	r3, r7, r3
 1585 0034 1800     		movs	r0, r3
 1586 0036 FFF7FEFF 		bl	sprintf
 402:main.c        ****     DBG_PRINTF("%s", buffer);
 1587              		.loc 1 402 0
 1588 003a 0C23     		movs	r3, #12
 1589 003c FA18     		adds	r2, r7, r3
 1590 003e 274B     		ldr	r3, .L78+4
 1591 0040 1100     		movs	r1, r2
 1592 0042 1800     		movs	r0, r3
 1593 0044 FFF7FEFF 		bl	printf
 403:main.c        **** 
 404:main.c        ****     sprintf(buffer, "Value Handle: 0x%04X\r\n", charInfo->valueHandle);
 1594              		.loc 1 404 0
 1595 0048 7B68     		ldr	r3, [r7, #4]
 1596 004a 9B88     		ldrh	r3, [r3, #4]
 1597 004c 1A00     		movs	r2, r3
 1598 004e 2549     		ldr	r1, .L78+12
 1599 0050 0C23     		movs	r3, #12
 1600 0052 FB18     		adds	r3, r7, r3
 1601 0054 1800     		movs	r0, r3
 1602 0056 FFF7FEFF 		bl	sprintf
 405:main.c        ****     DBG_PRINTF("%s", buffer);
 1603              		.loc 1 405 0
 1604 005a 0C23     		movs	r3, #12
ARM GAS  C:\Users\user\AppData\Local\Temp\ccRdimcD.s 			page 41


 1605 005c FA18     		adds	r2, r7, r3
 1606 005e 1F4B     		ldr	r3, .L78+4
 1607 0060 1100     		movs	r1, r2
 1608 0062 1800     		movs	r0, r3
 1609 0064 FFF7FEFF 		bl	printf
 406:main.c        **** 
 407:main.c        ****     DBG_PRINTF("UUID Format: 0x%02X\r\n", charInfo->uuidFormat); // Debugowanie formatu UUID
 1610              		.loc 1 407 0
 1611 0068 7B68     		ldr	r3, [r7, #4]
 1612 006a 9B7D     		ldrb	r3, [r3, #22]
 1613 006c 1A00     		movs	r2, r3
 1614 006e 1E4B     		ldr	r3, .L78+16
 1615 0070 1100     		movs	r1, r2
 1616 0072 1800     		movs	r0, r3
 1617 0074 FFF7FEFF 		bl	printf
 408:main.c        ****     DBG_PRINTF("Printing UUID...\r\n");
 1618              		.loc 1 408 0
 1619 0078 1C4B     		ldr	r3, .L78+20
 1620 007a 1800     		movs	r0, r3
 1621 007c FFF7FEFF 		bl	puts
 409:main.c        ****     PrintUUID(charInfo->uuid, charInfo->uuidFormat);
 1622              		.loc 1 409 0
 1623 0080 7B68     		ldr	r3, [r7, #4]
 1624 0082 997D     		ldrb	r1, [r3, #22]
 1625 0084 7B68     		ldr	r3, [r7, #4]
 1626 0086 0622     		movs	r2, #6
 1627 0088 0091     		str	r1, [sp]
 1628 008a 995A     		ldrh	r1, [r3, r2]
 1629 008c 9818     		adds	r0, r3, r2
 1630 008e 4088     		ldrh	r0, [r0, #2]
 1631 0090 0004     		lsls	r0, r0, #16
 1632 0092 0143     		orrs	r1, r0
 1633 0094 3960     		str	r1, [r7]
 1634 0096 9918     		adds	r1, r3, r2
 1635 0098 8888     		ldrh	r0, [r1, #4]
 1636 009a C988     		ldrh	r1, [r1, #6]
 1637 009c 0904     		lsls	r1, r1, #16
 1638 009e 0143     		orrs	r1, r0
 1639 00a0 0E00     		movs	r6, r1
 1640 00a2 9918     		adds	r1, r3, r2
 1641 00a4 0889     		ldrh	r0, [r1, #8]
 1642 00a6 4989     		ldrh	r1, [r1, #10]
 1643 00a8 0904     		lsls	r1, r1, #16
 1644 00aa 0143     		orrs	r1, r0
 1645 00ac 0D00     		movs	r5, r1
 1646 00ae 9B18     		adds	r3, r3, r2
 1647 00b0 9A89     		ldrh	r2, [r3, #12]
 1648 00b2 DB89     		ldrh	r3, [r3, #14]
 1649 00b4 1B04     		lsls	r3, r3, #16
 1650 00b6 1343     		orrs	r3, r2
 1651 00b8 1C00     		movs	r4, r3
 1652 00ba 3868     		ldr	r0, [r7]
 1653 00bc 3100     		movs	r1, r6
 1654 00be 2A00     		movs	r2, r5
 1655 00c0 2300     		movs	r3, r4
 1656 00c2 FFF7FEFF 		bl	PrintUUID
 410:main.c        ****     DBG_PRINTF("Finished printing UUID.\r\n");
ARM GAS  C:\Users\user\AppData\Local\Temp\ccRdimcD.s 			page 42


 1657              		.loc 1 410 0
 1658 00c6 0A4B     		ldr	r3, .L78+24
 1659 00c8 1800     		movs	r0, r3
 1660 00ca FFF7FEFF 		bl	puts
 411:main.c        **** }
 1661              		.loc 1 411 0
 1662 00ce C046     		nop
 1663 00d0 BD46     		mov	sp, r7
 1664 00d2 1DB0     		add	sp, sp, #116
 1665              		@ sp needed
 1666 00d4 F0BD     		pop	{r4, r5, r6, r7, pc}
 1667              	.L79:
 1668 00d6 C046     		.align	2
 1669              	.L78:
 1670 00d8 640C0000 		.word	.LC132
 1671 00dc 900C0000 		.word	.LC134
 1672 00e0 940C0000 		.word	.LC136
 1673 00e4 AC0C0000 		.word	.LC138
 1674 00e8 C40C0000 		.word	.LC140
 1675 00ec DC0C0000 		.word	.LC142
 1676 00f0 F00C0000 		.word	.LC144
 1677              		.cfi_endproc
 1678              	.LFE38:
 1679              		.size	PrintCharacteristicInfo, .-PrintCharacteristicInfo
 1680              		.section	.text.Timer_Interrupt,"ax",%progbits
 1681              		.align	2
 1682              		.global	Timer_Interrupt
 1683              		.code	16
 1684              		.thumb_func
 1685              		.type	Timer_Interrupt, %function
 1686              	Timer_Interrupt:
 1687              	.LFB39:
 412:main.c        **** 
 413:main.c        **** 
 414:main.c        **** 
 415:main.c        **** 
 416:main.c        **** /*******************************************************************************
 417:main.c        **** * Function Name: Timer_Interrupt
 418:main.c        **** ********************************************************************************
 419:main.c        **** *
 420:main.c        **** * Summary:
 421:main.c        **** *  Handles the Interrupt Service Routine for the WDT timer.
 422:main.c        **** *
 423:main.c        **** *******************************************************************************/
 424:main.c        **** CY_ISR(Timer_Interrupt)
 425:main.c        **** {
 1688              		.loc 1 425 0
 1689              		.cfi_startproc
 1690              		@ args = 0, pretend = 0, frame = 0
 1691              		@ frame_needed = 1, uses_anonymous_args = 0
 1692 0000 80B5     		push	{r7, lr}
 1693              		.cfi_def_cfa_offset 8
 1694              		.cfi_offset 7, -8
 1695              		.cfi_offset 14, -4
 1696 0002 00AF     		add	r7, sp, #0
 1697              		.cfi_def_cfa_register 7
 426:main.c        ****     static uint8 led = LED_OFF;
ARM GAS  C:\Users\user\AppData\Local\Temp\ccRdimcD.s 			page 43


 427:main.c        ****     
 428:main.c        ****     /* Blink LED to indicate that device advertises */
 429:main.c        ****     if(CYBLE_STATE_ADVERTISING == CyBle_GetState())
 1698              		.loc 1 429 0
 1699 0004 094B     		ldr	r3, .L83
 1700 0006 1B78     		ldrb	r3, [r3]
 1701 0008 032B     		cmp	r3, #3
 1702 000a 0BD1     		bne	.L82
 430:main.c        ****     {
 431:main.c        ****         led ^= LED_OFF;
 1703              		.loc 1 431 0
 1704 000c 084B     		ldr	r3, .L83+4
 1705 000e 1B78     		ldrb	r3, [r3]
 1706 0010 0122     		movs	r2, #1
 1707 0012 5340     		eors	r3, r2
 1708 0014 DAB2     		uxtb	r2, r3
 1709 0016 064B     		ldr	r3, .L83+4
 1710 0018 1A70     		strb	r2, [r3]
 432:main.c        ****         Advertising_LED_Write(led);
 1711              		.loc 1 432 0
 1712 001a 054B     		ldr	r3, .L83+4
 1713 001c 1B78     		ldrb	r3, [r3]
 1714 001e 1800     		movs	r0, r3
 1715 0020 FFF7FEFF 		bl	Advertising_LED_Write
 1716              	.L82:
 433:main.c        ****     }
 434:main.c        **** }
 1717              		.loc 1 434 0
 1718 0024 C046     		nop
 1719 0026 BD46     		mov	sp, r7
 1720              		@ sp needed
 1721 0028 80BD     		pop	{r7, pc}
 1722              	.L84:
 1723 002a C046     		.align	2
 1724              	.L83:
 1725 002c 00000000 		.word	cyBle_state
 1726 0030 00000000 		.word	led.8726
 1727              		.cfi_endproc
 1728              	.LFE39:
 1729              		.size	Timer_Interrupt, .-Timer_Interrupt
 1730              		.section	.text.LowPowerImplementation,"ax",%progbits
 1731              		.align	2
 1732              		.code	16
 1733              		.thumb_func
 1734              		.type	LowPowerImplementation, %function
 1735              	LowPowerImplementation:
 1736              	.LFB40:
 435:main.c        **** 
 436:main.c        **** /*******************************************************************************
 437:main.c        **** * Function Name: LowPowerImplementation()
 438:main.c        **** ********************************************************************************
 439:main.c        **** * Summary:
 440:main.c        **** * Implements low power in the project.
 441:main.c        **** *
 442:main.c        **** * Parameters:
 443:main.c        **** * None
 444:main.c        **** *
ARM GAS  C:\Users\user\AppData\Local\Temp\ccRdimcD.s 			page 44


 445:main.c        **** * Return:
 446:main.c        **** * None
 447:main.c        **** *
 448:main.c        **** * Theory:
 449:main.c        **** * The function tries to enter deep sleep as much as possible - whenever the 
 450:main.c        **** * BLE is idle and the UART transmission/reception is not happening. At all other
 451:main.c        **** * times, the function tries to enter CPU sleep.
 452:main.c        **** *
 453:main.c        **** *******************************************************************************/
 454:main.c        **** static void LowPowerImplementation(void)
 455:main.c        **** {
 1737              		.loc 1 455 0
 1738              		.cfi_startproc
 1739              		@ args = 0, pretend = 0, frame = 8
 1740              		@ frame_needed = 1, uses_anonymous_args = 0
 1741 0000 90B5     		push	{r4, r7, lr}
 1742              		.cfi_def_cfa_offset 12
 1743              		.cfi_offset 4, -12
 1744              		.cfi_offset 7, -8
 1745              		.cfi_offset 14, -4
 1746 0002 83B0     		sub	sp, sp, #12
 1747              		.cfi_def_cfa_offset 24
 1748 0004 00AF     		add	r7, sp, #0
 1749              		.cfi_def_cfa_register 7
 456:main.c        ****     CYBLE_LP_MODE_T bleMode;
 457:main.c        ****     uint8 interruptStatus;
 458:main.c        ****     
 459:main.c        ****     /* For advertising and connected states, implement deep sleep 
 460:main.c        ****      * functionality to achieve low power in the system. For more details
 461:main.c        ****      * on the low power implementation, refer to the Low Power Application 
 462:main.c        ****      * Note.
 463:main.c        ****      */
 464:main.c        ****     if((CyBle_GetState() == CYBLE_STATE_ADVERTISING) || 
 1750              		.loc 1 464 0
 1751 0006 234B     		ldr	r3, .L96
 1752 0008 1B78     		ldrb	r3, [r3]
 1753 000a 032B     		cmp	r3, #3
 1754 000c 03D0     		beq	.L86
 465:main.c        ****        (CyBle_GetState() == CYBLE_STATE_CONNECTED))
 1755              		.loc 1 465 0 discriminator 1
 1756 000e 214B     		ldr	r3, .L96
 1757 0010 1B78     		ldrb	r3, [r3]
 464:main.c        ****        (CyBle_GetState() == CYBLE_STATE_CONNECTED))
 1758              		.loc 1 464 0 discriminator 1
 1759 0012 022B     		cmp	r3, #2
 1760 0014 39D1     		bne	.L95
 1761              	.L86:
 466:main.c        ****     {
 467:main.c        ****         /* Request BLE subsystem to enter into Deep-Sleep mode between connection and advertising i
 468:main.c        ****         bleMode = CyBle_EnterLPM(CYBLE_BLESS_DEEPSLEEP);
 1762              		.loc 1 468 0
 1763 0016 FC1D     		adds	r4, r7, #7
 1764 0018 0320     		movs	r0, #3
 1765 001a FFF7FEFF 		bl	CyBle_EnterLPM
 1766 001e 0300     		movs	r3, r0
 1767 0020 2370     		strb	r3, [r4]
 469:main.c        ****         /* Disable global interrupts */
ARM GAS  C:\Users\user\AppData\Local\Temp\ccRdimcD.s 			page 45


 470:main.c        ****         interruptStatus = CyEnterCriticalSection();
 1768              		.loc 1 470 0
 1769 0022 BC1D     		adds	r4, r7, #6
 1770 0024 FFF7FEFF 		bl	CyEnterCriticalSection
 1771 0028 0300     		movs	r3, r0
 1772 002a 2370     		strb	r3, [r4]
 471:main.c        ****         /* When BLE subsystem has been put into Deep-Sleep mode */
 472:main.c        ****         if(bleMode == CYBLE_BLESS_DEEPSLEEP)
 1773              		.loc 1 472 0
 1774 002c FB1D     		adds	r3, r7, #7
 1775 002e 1B78     		ldrb	r3, [r3]
 1776 0030 032B     		cmp	r3, #3
 1777 0032 1ED1     		bne	.L88
 473:main.c        ****         {
 474:main.c        ****             /* And it is still there or ECO is on */
 475:main.c        ****             if((CyBle_GetBleSsState() == CYBLE_BLESS_STATE_ECO_ON) || 
 1778              		.loc 1 475 0
 1779 0034 FFF7FEFF 		bl	CyBle_GetBleSsState
 1780 0038 0300     		movs	r3, r0
 1781 003a 042B     		cmp	r3, #4
 1782 003c 04D0     		beq	.L89
 476:main.c        ****                (CyBle_GetBleSsState() == CYBLE_BLESS_STATE_DEEPSLEEP))
 1783              		.loc 1 476 0 discriminator 1
 1784 003e FFF7FEFF 		bl	CyBle_GetBleSsState
 1785 0042 0300     		movs	r3, r0
 475:main.c        ****                (CyBle_GetBleSsState() == CYBLE_BLESS_STATE_DEEPSLEEP))
 1786              		.loc 1 475 0 discriminator 1
 1787 0044 062B     		cmp	r3, #6
 1788 0046 1BD1     		bne	.L94
 1789              	.L89:
 477:main.c        ****             {
 478:main.c        ****             #if (DEBUG_UART_ENABLED == ENABLED)
 479:main.c        ****                 /* Put the CPU into the Deep-Sleep mode when all debug information has been sent */
 480:main.c        ****                 if((UART_DEB_SpiUartGetTxBufferSize() + UART_DEB_GET_TX_FIFO_SR_VALID) == 0u)
 1790              		.loc 1 480 0
 1791 0048 FFF7FEFF 		bl	UART_DEB_SpiUartGetTxBufferSize
 1792 004c 0100     		movs	r1, r0
 1793 004e 124B     		ldr	r3, .L96+4
 1794 0050 1A68     		ldr	r2, [r3]
 1795 0052 8023     		movs	r3, #128
 1796 0054 1B02     		lsls	r3, r3, #8
 1797 0056 1340     		ands	r3, r2
 1798 0058 01D0     		beq	.L91
 1799              		.loc 1 480 0 is_stmt 0 discriminator 1
 1800 005a 0123     		movs	r3, #1
 1801 005c 00E0     		b	.L92
 1802              	.L91:
 1803              		.loc 1 480 0 discriminator 2
 1804 005e 0023     		movs	r3, #0
 1805              	.L92:
 1806              		.loc 1 480 0 discriminator 4
 1807 0060 CB18     		adds	r3, r1, r3
 1808 0062 002B     		cmp	r3, #0
 1809 0064 02D1     		bne	.L93
 481:main.c        ****                 {
 482:main.c        ****                     CySysPmDeepSleep();
 1810              		.loc 1 482 0 is_stmt 1
ARM GAS  C:\Users\user\AppData\Local\Temp\ccRdimcD.s 			page 46


 1811 0066 FFF7FEFF 		bl	CySysPmDeepSleep
 1812 006a 09E0     		b	.L94
 1813              	.L93:
 483:main.c        ****                 }
 484:main.c        ****                 else /* Put the CPU into Sleep mode and let SCB to continue sending debug data */
 485:main.c        ****                 {
 486:main.c        ****                     CySysPmSleep();
 1814              		.loc 1 486 0
 1815 006c FFF7FEFF 		bl	CySysPmSleep
 1816 0070 06E0     		b	.L94
 1817              	.L88:
 487:main.c        ****                 }
 488:main.c        ****             #else
 489:main.c        ****                 CySysPmDeepSleep();
 490:main.c        ****             #endif /* (DEBUG_UART_ENABLED == ENABLED) */
 491:main.c        ****             }
 492:main.c        ****         }
 493:main.c        ****         else /* When BLE subsystem has been put into Sleep mode or is active */
 494:main.c        ****         {
 495:main.c        ****             /* And hardware doesn't finish Tx/Rx opeation - put the CPU into Sleep mode */
 496:main.c        ****             if(CyBle_GetBleSsState() != CYBLE_BLESS_STATE_EVENT_CLOSE)
 1818              		.loc 1 496 0
 1819 0072 FFF7FEFF 		bl	CyBle_GetBleSsState
 1820 0076 0300     		movs	r3, r0
 1821 0078 022B     		cmp	r3, #2
 1822 007a 01D0     		beq	.L94
 497:main.c        ****             {
 498:main.c        ****                 CySysPmSleep();
 1823              		.loc 1 498 0
 1824 007c FFF7FEFF 		bl	CySysPmSleep
 1825              	.L94:
 499:main.c        ****             }
 500:main.c        ****         }
 501:main.c        ****         /* Enable global interrupt */
 502:main.c        ****         CyExitCriticalSection(interruptStatus);
 1826              		.loc 1 502 0
 1827 0080 BB1D     		adds	r3, r7, #6
 1828 0082 1B78     		ldrb	r3, [r3]
 1829 0084 1800     		movs	r0, r3
 1830 0086 FFF7FEFF 		bl	CyExitCriticalSection
 1831              	.L95:
 503:main.c        ****     }
 504:main.c        **** }
 1832              		.loc 1 504 0
 1833 008a C046     		nop
 1834 008c BD46     		mov	sp, r7
 1835 008e 03B0     		add	sp, sp, #12
 1836              		@ sp needed
 1837 0090 90BD     		pop	{r4, r7, pc}
 1838              	.L97:
 1839 0092 C046     		.align	2
 1840              	.L96:
 1841 0094 00000000 		.word	cyBle_state
 1842 0098 08022440 		.word	1076101640
 1843              		.cfi_endproc
 1844              	.LFE40:
 1845              		.size	LowPowerImplementation, .-LowPowerImplementation
ARM GAS  C:\Users\user\AppData\Local\Temp\ccRdimcD.s 			page 47


 1846              		.section	.rodata
 1847 0d09 000000   		.align	2
 1848              	.LC152:
 1849 0d0c 41636365 		.ascii	"Accept displayed passkey \015\000"
 1849      70742064 
 1849      6973706C 
 1849      61796564 
 1849      20706173 
 1850 0d27 00       		.align	2
 1851              	.LC156:
 1852 0d28 4379426C 		.ascii	"CyBle_GapAuthPassKeyReply API Error : \000"
 1852      655F4761 
 1852      70417574 
 1852      68506173 
 1852      734B6579 
 1853 0d4f 00       		.align	2
 1854              	.LC158:
 1855 0d50 52656A65 		.ascii	"Reject displayed passkey \015\000"
 1855      63742064 
 1855      6973706C 
 1855      61796564 
 1855      20706173 
 1856 0d6b 00       		.align	2
 1857              	.LC160:
 1858 0d6c 57726F6E 		.ascii	"Wrong key entered. Press 'y' or 'n'\015\000"
 1858      67206B65 
 1858      7920656E 
 1858      74657265 
 1858      642E2050 
 1859              		.global	__aeabi_uidiv
 1860 0d91 000000   		.align	2
 1861              	.LC165:
 1862 0d94 57726F6E 		.ascii	"Wrong key entered. \015\000"
 1862      67206B65 
 1862      7920656E 
 1862      74657265 
 1862      642E200D 
 1863 0da9 000000   		.align	2
 1864              	.LC168:
 1865 0dac 4379426C 		.ascii	"CyBle_GapAuthPassKeyReply API Error: \000"
 1865      655F4761 
 1865      70417574 
 1865      68506173 
 1865      734B6579 
 1866              		.section	.text.AuthenticationHandler,"ax",%progbits
 1867              		.align	2
 1868              		.global	AuthenticationHandler
 1869              		.code	16
 1870              		.thumb_func
 1871              		.type	AuthenticationHandler, %function
 1872              	AuthenticationHandler:
 1873              	.LFB41:
 505:main.c        **** 
 506:main.c        **** /*******************************************************************************
 507:main.c        **** * Function Name: AuthenticationHandler
 508:main.c        **** ********************************************************************************
 509:main.c        **** *
ARM GAS  C:\Users\user\AppData\Local\Temp\ccRdimcD.s 			page 48


 510:main.c        **** * Summary:
 511:main.c        **** *   Handles entering authentication information.
 512:main.c        **** *
 513:main.c        **** * Parameters:
 514:main.c        **** *   None
 515:main.c        **** *
 516:main.c        **** * Return:
 517:main.c        **** *   None
 518:main.c        **** *
 519:main.c        **** *******************************************************************************/
 520:main.c        **** void AuthenticationHandler(void)
 521:main.c        **** {
 1874              		.loc 1 521 0
 1875              		.cfi_startproc
 1876              		@ args = 0, pretend = 0, frame = 0
 1877              		@ frame_needed = 1, uses_anonymous_args = 0
 1878 0000 80B5     		push	{r7, lr}
 1879              		.cfi_def_cfa_offset 8
 1880              		.cfi_offset 7, -8
 1881              		.cfi_offset 14, -4
 1882 0002 00AF     		add	r7, sp, #0
 1883              		.cfi_def_cfa_register 7
 522:main.c        ****     switch(authState)
 1884              		.loc 1 522 0
 1885 0004 684B     		ldr	r3, .L118
 1886 0006 1B78     		ldrb	r3, [r3]
 1887 0008 032B     		cmp	r3, #3
 1888 000a 05D0     		beq	.L100
 1889 000c 052B     		cmp	r3, #5
 1890 000e 00D1     		bne	.LCB1229
 1891 0010 C1E0     		b	.L115	@long jump
 1892              	.LCB1229:
 1893 0012 012B     		cmp	r3, #1
 1894 0014 65D0     		beq	.L102
 523:main.c        ****     {
 524:main.c        ****     case AUTHENTICATION_PASSKEY_YES_NO:
 525:main.c        ****         
 526:main.c        ****         if(((command = UART_DEB_GET_CHAR()) != 0u) || (customCommand != 0u))
 527:main.c        ****         {
 528:main.c        ****             if((command == 0u) && (customCommand != 0u))
 529:main.c        ****             {
 530:main.c        ****                 command = customCommand;
 531:main.c        ****                 customCommand = 0u;
 532:main.c        ****             }
 533:main.c        ****             if(command == 'y')
 534:main.c        ****             {
 535:main.c        ****                 DBG_PRINTF("Accept displayed passkey \r\n");
 536:main.c        ****                 apiResult = CyBle_GapAuthPassKeyReply(cyBle_connHandle.bdHandle, 0u, CYBLE_GAP_ACCE
 537:main.c        ****                 if(apiResult != CYBLE_ERROR_OK)
 538:main.c        ****                 {
 539:main.c        ****                     DBG_PRINTF("CyBle_GapAuthPassKeyReply API Error : ");
 540:main.c        ****                     PrintApiResult();
 541:main.c        ****                 }
 542:main.c        ****                 authState = AUTHENTICATION_PASSKEY_ENTERED;
 543:main.c        ****             }
 544:main.c        ****             else if(command == 'n')
 545:main.c        ****             {
ARM GAS  C:\Users\user\AppData\Local\Temp\ccRdimcD.s 			page 49


 546:main.c        ****                 DBG_PRINTF("Reject displayed passkey \r\n");
 547:main.c        ****                 apiResult = CyBle_GapAuthPassKeyReply(cyBle_connHandle.bdHandle, 0u, CYBLE_GAP_REJE
 548:main.c        ****                 if(apiResult != CYBLE_ERROR_OK)
 549:main.c        ****                 {
 550:main.c        ****                     DBG_PRINTF("CyBle_GapAuthPassKeyReply API Error : ");
 551:main.c        ****                     PrintApiResult();
 552:main.c        ****                 }
 553:main.c        ****                authState = AUTHENTICATION_PASSKEY_ENTERED;
 554:main.c        ****             }
 555:main.c        ****             else
 556:main.c        ****             {
 557:main.c        ****                 DBG_PRINTF("Wrong key entered. Press 'y' or 'n'\r\n");
 558:main.c        ****             }
 559:main.c        ****         }
 560:main.c        ****         break;
 561:main.c        ****            
 562:main.c        ****     case AUTHENTICATION_WAITING_FOR_PASSKEY:
 563:main.c        ****      
 564:main.c        ****         /* Get 6 digit number from UART terminal */
 565:main.c        ****         if((command = UART_DEB_GET_CHAR()) != 0u)
 566:main.c        ****         {   
 567:main.c        ****             /* accept the digits that are in the range of '0' to '9' */
 568:main.c        ****             if((command >= '0') && (command <= '9'))  
 569:main.c        ****             {
 570:main.c        ****                 passkeyValue += (uint32)(command - '0') * passkeyPow;
 571:main.c        ****                 passkeyPow /= 10u;
 572:main.c        ****                 passkeyCounter++;
 573:main.c        ****                 UART_DEB_PUT_CHAR(command); 
 574:main.c        ****             }
 575:main.c        ****             else  /* If entered digit is not in the range of '0' to '9' */
 576:main.c        ****             {
 577:main.c        ****                DBG_PRINTF("Wrong key entered. \r\n");
 578:main.c        ****             }
 579:main.c        **** 
 580:main.c        ****             if(passkeyCounter == CYBLE_GAP_USER_PASSKEY_SIZE)
 581:main.c        ****             {
 582:main.c        ****                 DBG_PRINTF("\r\n");
 583:main.c        ****                 /* Send Pass key Response to create an Authenticated Link */
 584:main.c        ****                 apiResult = CyBle_GapAuthPassKeyReply(cyBle_connHandle.bdHandle, passkeyValue, CYBL
 585:main.c        ****                 if(apiResult != CYBLE_ERROR_OK)
 586:main.c        ****                 {
 587:main.c        ****                     DBG_PRINTF("CyBle_GapAuthPassKeyReply API Error: ");
 588:main.c        ****                     PrintApiResult();
 589:main.c        ****                 }
 590:main.c        ****                 authState = AUTHENTICATION_PASSKEY_ENTERED;
 591:main.c        ****             }
 592:main.c        ****         }
 593:main.c        ****         break;
 594:main.c        **** 
 595:main.c        ****     case AUTHENTICATION_BONDING_COMPLETE:
 596:main.c        ****         break;
 597:main.c        **** 
 598:main.c        ****     default:    /* Not supported state */
 599:main.c        ****         break;
 1895              		.loc 1 599 0
 1896 0016 C3E0     		b	.L110
 1897              	.L100:
ARM GAS  C:\Users\user\AppData\Local\Temp\ccRdimcD.s 			page 50


 526:main.c        ****         {
 1898              		.loc 1 526 0
 1899 0018 FFF7FEFF 		bl	UART_DEB_UartGetChar
 1900 001c 0300     		movs	r3, r0
 1901 001e DAB2     		uxtb	r2, r3
 1902 0020 624B     		ldr	r3, .L118+4
 1903 0022 1A70     		strb	r2, [r3]
 1904 0024 614B     		ldr	r3, .L118+4
 1905 0026 1B78     		ldrb	r3, [r3]
 1906 0028 002B     		cmp	r3, #0
 1907 002a 04D1     		bne	.L103
 526:main.c        ****         {
 1908              		.loc 1 526 0 is_stmt 0 discriminator 1
 1909 002c 604B     		ldr	r3, .L118+8
 1910 002e 1B78     		ldrb	r3, [r3]
 1911 0030 002B     		cmp	r3, #0
 1912 0032 00D1     		bne	.LCB1248
 1913 0034 B1E0     		b	.L116	@long jump
 1914              	.LCB1248:
 1915              	.L103:
 528:main.c        ****             {
 1916              		.loc 1 528 0 is_stmt 1
 1917 0036 5D4B     		ldr	r3, .L118+4
 1918 0038 1B78     		ldrb	r3, [r3]
 1919 003a 002B     		cmp	r3, #0
 1920 003c 0AD1     		bne	.L105
 528:main.c        ****             {
 1921              		.loc 1 528 0 is_stmt 0 discriminator 1
 1922 003e 5C4B     		ldr	r3, .L118+8
 1923 0040 1B78     		ldrb	r3, [r3]
 1924 0042 002B     		cmp	r3, #0
 1925 0044 06D0     		beq	.L105
 530:main.c        ****                 customCommand = 0u;
 1926              		.loc 1 530 0 is_stmt 1
 1927 0046 5A4B     		ldr	r3, .L118+8
 1928 0048 1A78     		ldrb	r2, [r3]
 1929 004a 584B     		ldr	r3, .L118+4
 1930 004c 1A70     		strb	r2, [r3]
 531:main.c        ****             }
 1931              		.loc 1 531 0
 1932 004e 584B     		ldr	r3, .L118+8
 1933 0050 0022     		movs	r2, #0
 1934 0052 1A70     		strb	r2, [r3]
 1935              	.L105:
 533:main.c        ****             {
 1936              		.loc 1 533 0
 1937 0054 554B     		ldr	r3, .L118+4
 1938 0056 1B78     		ldrb	r3, [r3]
 1939 0058 792B     		cmp	r3, #121
 1940 005a 1CD1     		bne	.L106
 535:main.c        ****                 apiResult = CyBle_GapAuthPassKeyReply(cyBle_connHandle.bdHandle, 0u, CYBLE_GAP_ACCE
 1941              		.loc 1 535 0
 1942 005c 554B     		ldr	r3, .L118+12
 1943 005e 1800     		movs	r0, r3
 1944 0060 FFF7FEFF 		bl	puts
 536:main.c        ****                 if(apiResult != CYBLE_ERROR_OK)
 1945              		.loc 1 536 0
ARM GAS  C:\Users\user\AppData\Local\Temp\ccRdimcD.s 			page 51


 1946 0064 544B     		ldr	r3, .L118+16
 1947 0066 1B78     		ldrb	r3, [r3]
 1948 0068 0122     		movs	r2, #1
 1949 006a 0021     		movs	r1, #0
 1950 006c 1800     		movs	r0, r3
 1951 006e FFF7FEFF 		bl	CyBle_GapAuthPassKeyReply
 1952 0072 0300     		movs	r3, r0
 1953 0074 1A00     		movs	r2, r3
 1954 0076 514B     		ldr	r3, .L118+20
 1955 0078 1A80     		strh	r2, [r3]
 537:main.c        ****                 {
 1956              		.loc 1 537 0
 1957 007a 504B     		ldr	r3, .L118+20
 1958 007c 1B88     		ldrh	r3, [r3]
 1959 007e 002B     		cmp	r3, #0
 1960 0080 05D0     		beq	.L107
 539:main.c        ****                     PrintApiResult();
 1961              		.loc 1 539 0
 1962 0082 4F4B     		ldr	r3, .L118+24
 1963 0084 1800     		movs	r0, r3
 1964 0086 FFF7FEFF 		bl	printf
 540:main.c        ****                 }
 1965              		.loc 1 540 0
 1966 008a FFF7FEFF 		bl	PrintApiResult
 1967              	.L107:
 542:main.c        ****             }
 1968              		.loc 1 542 0
 1969 008e 464B     		ldr	r3, .L118
 1970 0090 0222     		movs	r2, #2
 1971 0092 1A70     		strb	r2, [r3]
 560:main.c        ****            
 1972              		.loc 1 560 0
 1973 0094 81E0     		b	.L116
 1974              	.L106:
 544:main.c        ****             {
 1975              		.loc 1 544 0
 1976 0096 454B     		ldr	r3, .L118+4
 1977 0098 1B78     		ldrb	r3, [r3]
 1978 009a 6E2B     		cmp	r3, #110
 1979 009c 1CD1     		bne	.L108
 546:main.c        ****                 apiResult = CyBle_GapAuthPassKeyReply(cyBle_connHandle.bdHandle, 0u, CYBLE_GAP_REJE
 1980              		.loc 1 546 0
 1981 009e 494B     		ldr	r3, .L118+28
 1982 00a0 1800     		movs	r0, r3
 1983 00a2 FFF7FEFF 		bl	puts
 547:main.c        ****                 if(apiResult != CYBLE_ERROR_OK)
 1984              		.loc 1 547 0
 1985 00a6 444B     		ldr	r3, .L118+16
 1986 00a8 1B78     		ldrb	r3, [r3]
 1987 00aa 0022     		movs	r2, #0
 1988 00ac 0021     		movs	r1, #0
 1989 00ae 1800     		movs	r0, r3
 1990 00b0 FFF7FEFF 		bl	CyBle_GapAuthPassKeyReply
 1991 00b4 0300     		movs	r3, r0
 1992 00b6 1A00     		movs	r2, r3
 1993 00b8 404B     		ldr	r3, .L118+20
 1994 00ba 1A80     		strh	r2, [r3]
ARM GAS  C:\Users\user\AppData\Local\Temp\ccRdimcD.s 			page 52


 548:main.c        ****                 {
 1995              		.loc 1 548 0
 1996 00bc 3F4B     		ldr	r3, .L118+20
 1997 00be 1B88     		ldrh	r3, [r3]
 1998 00c0 002B     		cmp	r3, #0
 1999 00c2 05D0     		beq	.L109
 550:main.c        ****                     PrintApiResult();
 2000              		.loc 1 550 0
 2001 00c4 3E4B     		ldr	r3, .L118+24
 2002 00c6 1800     		movs	r0, r3
 2003 00c8 FFF7FEFF 		bl	printf
 551:main.c        ****                 }
 2004              		.loc 1 551 0
 2005 00cc FFF7FEFF 		bl	PrintApiResult
 2006              	.L109:
 553:main.c        ****             }
 2007              		.loc 1 553 0
 2008 00d0 354B     		ldr	r3, .L118
 2009 00d2 0222     		movs	r2, #2
 2010 00d4 1A70     		strb	r2, [r3]
 560:main.c        ****            
 2011              		.loc 1 560 0
 2012 00d6 60E0     		b	.L116
 2013              	.L108:
 557:main.c        ****             }
 2014              		.loc 1 557 0
 2015 00d8 3B4B     		ldr	r3, .L118+32
 2016 00da 1800     		movs	r0, r3
 2017 00dc FFF7FEFF 		bl	puts
 560:main.c        ****            
 2018              		.loc 1 560 0
 2019 00e0 5BE0     		b	.L116
 2020              	.L102:
 565:main.c        ****         {   
 2021              		.loc 1 565 0
 2022 00e2 FFF7FEFF 		bl	UART_DEB_UartGetChar
 2023 00e6 0300     		movs	r3, r0
 2024 00e8 DAB2     		uxtb	r2, r3
 2025 00ea 304B     		ldr	r3, .L118+4
 2026 00ec 1A70     		strb	r2, [r3]
 2027 00ee 2F4B     		ldr	r3, .L118+4
 2028 00f0 1B78     		ldrb	r3, [r3]
 2029 00f2 002B     		cmp	r3, #0
 2030 00f4 53D0     		beq	.L117
 568:main.c        ****             {
 2031              		.loc 1 568 0
 2032 00f6 2D4B     		ldr	r3, .L118+4
 2033 00f8 1B78     		ldrb	r3, [r3]
 2034 00fa 2F2B     		cmp	r3, #47
 2035 00fc 25D9     		bls	.L112
 568:main.c        ****             {
 2036              		.loc 1 568 0 is_stmt 0 discriminator 1
 2037 00fe 2B4B     		ldr	r3, .L118+4
 2038 0100 1B78     		ldrb	r3, [r3]
 2039 0102 392B     		cmp	r3, #57
 2040 0104 21D8     		bhi	.L112
 570:main.c        ****                 passkeyPow /= 10u;
ARM GAS  C:\Users\user\AppData\Local\Temp\ccRdimcD.s 			page 53


 2041              		.loc 1 570 0 is_stmt 1
 2042 0106 294B     		ldr	r3, .L118+4
 2043 0108 1B78     		ldrb	r3, [r3]
 2044 010a 303B     		subs	r3, r3, #48
 2045 010c 1A00     		movs	r2, r3
 2046 010e 2F4B     		ldr	r3, .L118+36
 2047 0110 1B68     		ldr	r3, [r3]
 2048 0112 5A43     		muls	r2, r3
 2049 0114 2E4B     		ldr	r3, .L118+40
 2050 0116 1B68     		ldr	r3, [r3]
 2051 0118 D218     		adds	r2, r2, r3
 2052 011a 2D4B     		ldr	r3, .L118+40
 2053 011c 1A60     		str	r2, [r3]
 571:main.c        ****                 passkeyCounter++;
 2054              		.loc 1 571 0
 2055 011e 2B4B     		ldr	r3, .L118+36
 2056 0120 1B68     		ldr	r3, [r3]
 2057 0122 0A21     		movs	r1, #10
 2058 0124 1800     		movs	r0, r3
 2059 0126 FFF7FEFF 		bl	__aeabi_uidiv
 2060 012a 0300     		movs	r3, r0
 2061 012c 1A00     		movs	r2, r3
 2062 012e 274B     		ldr	r3, .L118+36
 2063 0130 1A60     		str	r2, [r3]
 572:main.c        ****                 UART_DEB_PUT_CHAR(command); 
 2064              		.loc 1 572 0
 2065 0132 284B     		ldr	r3, .L118+44
 2066 0134 1B78     		ldrb	r3, [r3]
 2067 0136 0133     		adds	r3, r3, #1
 2068 0138 DAB2     		uxtb	r2, r3
 2069 013a 264B     		ldr	r3, .L118+44
 2070 013c 1A70     		strb	r2, [r3]
 573:main.c        ****             }
 2071              		.loc 1 573 0
 2072 013e 1B4B     		ldr	r3, .L118+4
 2073 0140 1B78     		ldrb	r3, [r3]
 2074 0142 1800     		movs	r0, r3
 2075 0144 FFF7FEFF 		bl	UART_DEB_SpiUartWriteTxData
 2076 0148 03E0     		b	.L113
 2077              	.L112:
 577:main.c        ****             }
 2078              		.loc 1 577 0
 2079 014a 234B     		ldr	r3, .L118+48
 2080 014c 1800     		movs	r0, r3
 2081 014e FFF7FEFF 		bl	puts
 2082              	.L113:
 580:main.c        ****             {
 2083              		.loc 1 580 0
 2084 0152 204B     		ldr	r3, .L118+44
 2085 0154 1B78     		ldrb	r3, [r3]
 2086 0156 062B     		cmp	r3, #6
 2087 0158 21D1     		bne	.L117
 582:main.c        ****                 /* Send Pass key Response to create an Authenticated Link */
 2088              		.loc 1 582 0
 2089 015a 204B     		ldr	r3, .L118+52
 2090 015c 1800     		movs	r0, r3
 2091 015e FFF7FEFF 		bl	puts
ARM GAS  C:\Users\user\AppData\Local\Temp\ccRdimcD.s 			page 54


 584:main.c        ****                 if(apiResult != CYBLE_ERROR_OK)
 2092              		.loc 1 584 0
 2093 0162 154B     		ldr	r3, .L118+16
 2094 0164 1878     		ldrb	r0, [r3]
 2095 0166 1A4B     		ldr	r3, .L118+40
 2096 0168 1B68     		ldr	r3, [r3]
 2097 016a 0122     		movs	r2, #1
 2098 016c 1900     		movs	r1, r3
 2099 016e FFF7FEFF 		bl	CyBle_GapAuthPassKeyReply
 2100 0172 0300     		movs	r3, r0
 2101 0174 1A00     		movs	r2, r3
 2102 0176 114B     		ldr	r3, .L118+20
 2103 0178 1A80     		strh	r2, [r3]
 585:main.c        ****                 {
 2104              		.loc 1 585 0
 2105 017a 104B     		ldr	r3, .L118+20
 2106 017c 1B88     		ldrh	r3, [r3]
 2107 017e 002B     		cmp	r3, #0
 2108 0180 05D0     		beq	.L114
 587:main.c        ****                     PrintApiResult();
 2109              		.loc 1 587 0
 2110 0182 174B     		ldr	r3, .L118+56
 2111 0184 1800     		movs	r0, r3
 2112 0186 FFF7FEFF 		bl	printf
 588:main.c        ****                 }
 2113              		.loc 1 588 0
 2114 018a FFF7FEFF 		bl	PrintApiResult
 2115              	.L114:
 590:main.c        ****             }
 2116              		.loc 1 590 0
 2117 018e 064B     		ldr	r3, .L118
 2118 0190 0222     		movs	r2, #2
 2119 0192 1A70     		strb	r2, [r3]
 593:main.c        **** 
 2120              		.loc 1 593 0
 2121 0194 03E0     		b	.L117
 2122              	.L115:
 596:main.c        **** 
 2123              		.loc 1 596 0
 2124 0196 C046     		nop
 2125 0198 02E0     		b	.L110
 2126              	.L116:
 560:main.c        ****            
 2127              		.loc 1 560 0
 2128 019a C046     		nop
 2129 019c 00E0     		b	.L110
 2130              	.L117:
 593:main.c        **** 
 2131              		.loc 1 593 0
 2132 019e C046     		nop
 2133              	.L110:
 600:main.c        ****     }  
 601:main.c        **** }
 2134              		.loc 1 601 0
 2135 01a0 C046     		nop
 2136 01a2 BD46     		mov	sp, r7
 2137              		@ sp needed
ARM GAS  C:\Users\user\AppData\Local\Temp\ccRdimcD.s 			page 55


 2138 01a4 80BD     		pop	{r7, pc}
 2139              	.L119:
 2140 01a6 C046     		.align	2
 2141              	.L118:
 2142 01a8 00000000 		.word	authState
 2143 01ac 00000000 		.word	command
 2144 01b0 00000000 		.word	customCommand
 2145 01b4 0C0D0000 		.word	.LC152
 2146 01b8 00000000 		.word	cyBle_connHandle
 2147 01bc 00000000 		.word	apiResult
 2148 01c0 280D0000 		.word	.LC156
 2149 01c4 500D0000 		.word	.LC158
 2150 01c8 6C0D0000 		.word	.LC160
 2151 01cc 00000000 		.word	passkeyPow
 2152 01d0 00000000 		.word	passkeyValue
 2153 01d4 00000000 		.word	passkeyCounter
 2154 01d8 940D0000 		.word	.LC165
 2155 01dc B4050000 		.word	.LC96
 2156 01e0 AC0D0000 		.word	.LC168
 2157              		.cfi_endproc
 2158              	.LFE41:
 2159              		.size	AuthenticationHandler, .-AuthenticationHandler
 2160              		.section	.rodata
 2161 0dd2 0000     		.align	2
 2162              	.LC170:
 2163 0dd4 0D0A436F 		.ascii	"\015\012Continuous Glucose Monitoring Sensor Exampl"
 2163      6E74696E 
 2163      756F7573 
 2163      20476C75 
 2163      636F7365 
 2164 0e01 65205072 		.ascii	"e Project\015\000"
 2164      6F6A6563 
 2164      740D00
 2165              		.align	2
 2166              	.LC174:
 2167 0e0c 4379426C 		.ascii	"CyBle_Start API Error: \000"
 2167      655F5374 
 2167      61727420 
 2167      41504920 
 2167      4572726F 
 2168              		.align	2
 2169              	.LC180:
 2170 0e24 53746F72 		.ascii	"Store bonding data, status: %x \015\012\000"
 2170      6520626F 
 2170      6E64696E 
 2170      67206461 
 2170      74612C20 
 2171              		.section	.text.main,"ax",%progbits
 2172              		.align	2
 2173              		.global	main
 2174              		.code	16
 2175              		.thumb_func
 2176              		.type	main, %function
 2177              	main:
 2178              	.LFB42:
 602:main.c        **** 
 603:main.c        **** /*******************************************************************************
ARM GAS  C:\Users\user\AppData\Local\Temp\ccRdimcD.s 			page 56


 604:main.c        **** * Function Name: main()
 605:main.c        **** ********************************************************************************
 606:main.c        **** * Summary:
 607:main.c        **** *  Main function for the project.
 608:main.c        **** *
 609:main.c        **** * Parameters:
 610:main.c        **** *  None
 611:main.c        **** *
 612:main.c        **** * Return:
 613:main.c        **** *  None
 614:main.c        **** *
 615:main.c        **** * Theory:
 616:main.c        **** *  The function starts BLE and UART components.
 617:main.c        **** *  This function process all BLE events and also implements the low power 
 618:main.c        **** *  functionality.
 619:main.c        **** *
 620:main.c        **** *******************************************************************************/
 621:main.c        **** int main()
 622:main.c        **** {
 2179              		.loc 1 622 0
 2180              		.cfi_startproc
 2181              		@ args = 0, pretend = 0, frame = 0
 2182              		@ frame_needed = 1, uses_anonymous_args = 0
 2183 0000 80B5     		push	{r7, lr}
 2184              		.cfi_def_cfa_offset 8
 2185              		.cfi_offset 7, -8
 2186              		.cfi_offset 14, -4
 2187 0002 00AF     		add	r7, sp, #0
 2188              		.cfi_def_cfa_register 7
 623:main.c        ****     CyGlobalIntEnable;
 2189              		.loc 1 623 0
 2190              		.syntax divided
 2191              	@ 623 "main.c" 1
 2192 0004 62B6     		CPSIE   i
 2193              	@ 0 "" 2
 624:main.c        **** 	UART_DEB_Start();
 2194              		.loc 1 624 0
 2195              		.thumb
 2196              		.syntax unified
 2197 0006 FFF7FEFF 		bl	UART_DEB_Start
 625:main.c        ****     DBG_PRINTF("\r\nContinuous Glucose Monitoring Sensor Example Project\r\n");
 2198              		.loc 1 625 0
 2199 000a 334B     		ldr	r3, .L129
 2200 000c 1800     		movs	r0, r3
 2201 000e FFF7FEFF 		bl	puts
 626:main.c        ****     
 627:main.c        ****     Disconnect_LED_Write(LED_OFF);
 2202              		.loc 1 627 0
 2203 0012 0120     		movs	r0, #1
 2204 0014 FFF7FEFF 		bl	Disconnect_LED_Write
 628:main.c        ****     Advertising_LED_Write(LED_OFF);
 2205              		.loc 1 628 0
 2206 0018 0120     		movs	r0, #1
 2207 001a FFF7FEFF 		bl	Advertising_LED_Write
 629:main.c        ****     Connected_LED_Write(LED_OFF);
 2208              		.loc 1 629 0
 2209 001e 0120     		movs	r0, #1
ARM GAS  C:\Users\user\AppData\Local\Temp\ccRdimcD.s 			page 57


 2210 0020 FFF7FEFF 		bl	Connected_LED_Write
 630:main.c        **** 
 631:main.c        ****     /* Start CYBLE component and register generic event handler */
 632:main.c        ****     apiResult = CyBle_Start(AppCallBack);
 2211              		.loc 1 632 0
 2212 0024 2D4B     		ldr	r3, .L129+4
 2213 0026 1800     		movs	r0, r3
 2214 0028 FFF7FEFF 		bl	CyBle_Start
 2215 002c 0300     		movs	r3, r0
 2216 002e 1A00     		movs	r2, r3
 2217 0030 2B4B     		ldr	r3, .L129+8
 2218 0032 1A80     		strh	r2, [r3]
 633:main.c        **** 	if(apiResult != CYBLE_ERROR_OK)
 2219              		.loc 1 633 0
 2220 0034 2A4B     		ldr	r3, .L129+8
 2221 0036 1B88     		ldrh	r3, [r3]
 2222 0038 002B     		cmp	r3, #0
 2223 003a 05D0     		beq	.L121
 634:main.c        **** 	{
 635:main.c        **** 		DBG_PRINTF("CyBle_Start API Error: ");
 2224              		.loc 1 635 0
 2225 003c 294B     		ldr	r3, .L129+12
 2226 003e 1800     		movs	r0, r3
 2227 0040 FFF7FEFF 		bl	printf
 636:main.c        ****         PrintApiResult();
 2228              		.loc 1 636 0
 2229 0044 FFF7FEFF 		bl	PrintApiResult
 2230              	.L121:
 637:main.c        **** 	}
 638:main.c        ****     
 639:main.c        ****     PrintStackVersion();
 2231              		.loc 1 639 0
 2232 0048 FFF7FEFF 		bl	PrintStackVersion
 640:main.c        ****     
 641:main.c        ****     /* Services initialization */
 642:main.c        ****     CgmsInit();
 2233              		.loc 1 642 0
 2234 004c FFF7FEFF 		bl	CgmsInit
 643:main.c        ****     BmsInit();
 2235              		.loc 1 643 0
 2236 0050 FFF7FEFF 		bl	BmsInit
 644:main.c        ****     
 645:main.c        ****     /* Register Timer_Interrupt() by the WDT COUNTER2 to generate interrupt every second */
 646:main.c        ****     CySysWdtSetInterruptCallback(CY_SYS_WDT_COUNTER2, Timer_Interrupt);
 2237              		.loc 1 646 0
 2238 0054 244B     		ldr	r3, .L129+16
 2239 0056 1900     		movs	r1, r3
 2240 0058 0220     		movs	r0, #2
 2241 005a FFF7FEFF 		bl	CySysWdtSetInterruptCallback
 647:main.c        ****     /* Enable the COUNTER2 ISR handler. */
 648:main.c        ****     CySysWdtEnableCounterIsr(CY_SYS_WDT_COUNTER2);
 2242              		.loc 1 648 0
 2243 005e 0220     		movs	r0, #2
 2244 0060 FFF7FEFF 		bl	CySysWdtEnableCounterIsr
 2245              	.L128:
 649:main.c        ****     
 650:main.c        ****     
ARM GAS  C:\Users\user\AppData\Local\Temp\ccRdimcD.s 			page 58


 651:main.c        ****     /***************************************************************************
 652:main.c        ****     * Main polling loop
 653:main.c        ****     ***************************************************************************/
 654:main.c        ****     while(1u)
 655:main.c        ****     {
 656:main.c        ****         /*******************************************************************
 657:main.c        ****         *  To achieve low power in the device
 658:main.c        ****         *******************************************************************/
 659:main.c        ****         if(( authState != AUTHENTICATION_PASSKEY_YES_NO)
 2246              		.loc 1 659 0
 2247 0064 214B     		ldr	r3, .L129+20
 2248 0066 1B78     		ldrb	r3, [r3]
 2249 0068 032B     		cmp	r3, #3
 2250 006a 05D0     		beq	.L122
 660:main.c        ****         && ( authState != AUTHENTICATION_WAITING_FOR_PASSKEY) )
 2251              		.loc 1 660 0
 2252 006c 1F4B     		ldr	r3, .L129+20
 2253 006e 1B78     		ldrb	r3, [r3]
 2254 0070 012B     		cmp	r3, #1
 2255 0072 01D0     		beq	.L122
 661:main.c        ****         {   
 662:main.c        ****             LowPowerImplementation();
 2256              		.loc 1 662 0
 2257 0074 FFF7FEFF 		bl	LowPowerImplementation
 2258              	.L122:
 663:main.c        ****         }
 664:main.c        ****         
 665:main.c        ****         /*******************************************************************
 666:main.c        ****         *  Process all pending BLE events in the stack.
 667:main.c        ****         *******************************************************************/
 668:main.c        ****         CyBle_ProcessEvents();
 2259              		.loc 1 668 0
 2260 0078 FFF7FEFF 		bl	CyBle_ProcessEvents
 669:main.c        ****       
 670:main.c        ****         /*******************************************************************
 671:main.c        ****         *  Process GATT and service-specific tasks during connected state.
 672:main.c        ****         *******************************************************************/
 673:main.c        **** 		if(CyBle_GetState() == CYBLE_STATE_CONNECTED)
 2261              		.loc 1 673 0
 2262 007c 1C4B     		ldr	r3, .L129+24
 2263 007e 1B78     		ldrb	r3, [r3]
 2264 0080 022B     		cmp	r3, #2
 2265 0082 26D1     		bne	.L123
 674:main.c        ****         {   
 675:main.c        ****             /* Process CGMS actions when device in connection */
 676:main.c        ****             CgmsProcess();
 2266              		.loc 1 676 0
 2267 0084 FFF7FEFF 		bl	CgmsProcess
 677:main.c        ****             
 678:main.c        **** 		/*******************************************************************
 679:main.c        ****         *  Authentication procdure handling
 680:main.c        ****         *******************************************************************/
 681:main.c        ****             AuthenticationHandler();
 2268              		.loc 1 681 0
 2269 0088 FFF7FEFF 		bl	AuthenticationHandler
 682:main.c        ****         
 683:main.c        ****           /* Store bonding data to flash only when all debug information has been sent */
ARM GAS  C:\Users\user\AppData\Local\Temp\ccRdimcD.s 			page 59


 684:main.c        ****         #if(CYBLE_BONDING_REQUIREMENT == CYBLE_BONDING_YES)
 685:main.c        ****             if((cyBle_pendingFlashWrite != 0u) &&
 2270              		.loc 1 685 0
 2271 008c 194B     		ldr	r3, .L129+28
 2272 008e 1B78     		ldrb	r3, [r3]
 2273 0090 002B     		cmp	r3, #0
 2274 0092 E7D0     		beq	.L128
 686:main.c        ****             ((UART_DEB_GET_TX_BUFF_SIZE() + UART_DEB_GET_TX_FIFO_SR_VALID) == 0u))
 2275              		.loc 1 686 0
 2276 0094 FFF7FEFF 		bl	UART_DEB_SpiUartGetTxBufferSize
 2277 0098 0100     		movs	r1, r0
 2278 009a 174B     		ldr	r3, .L129+32
 2279 009c 1A68     		ldr	r2, [r3]
 2280 009e 8023     		movs	r3, #128
 2281 00a0 1B02     		lsls	r3, r3, #8
 2282 00a2 1340     		ands	r3, r2
 2283 00a4 01D0     		beq	.L125
 2284              		.loc 1 686 0 is_stmt 0 discriminator 1
 2285 00a6 0123     		movs	r3, #1
 2286 00a8 00E0     		b	.L126
 2287              	.L125:
 2288              		.loc 1 686 0 discriminator 2
 2289 00aa 0023     		movs	r3, #0
 2290              	.L126:
 2291              		.loc 1 686 0 discriminator 4
 2292 00ac CB18     		adds	r3, r1, r3
 685:main.c        ****             ((UART_DEB_GET_TX_BUFF_SIZE() + UART_DEB_GET_TX_FIFO_SR_VALID) == 0u))
 2293              		.loc 1 685 0 is_stmt 1 discriminator 4
 2294 00ae 002B     		cmp	r3, #0
 2295 00b0 D8D1     		bne	.L128
 687:main.c        ****             {
 688:main.c        ****                 apiResult = CyBle_StoreBondingData(0u);
 2296              		.loc 1 688 0
 2297 00b2 0020     		movs	r0, #0
 2298 00b4 FFF7FEFF 		bl	CyBle_StoreBondingData
 2299 00b8 0300     		movs	r3, r0
 2300 00ba 1A00     		movs	r2, r3
 2301 00bc 084B     		ldr	r3, .L129+8
 2302 00be 1A80     		strh	r2, [r3]
 689:main.c        ****                 DBG_PRINTF("Store bonding data, status: %x \r\n", apiResult);
 2303              		.loc 1 689 0
 2304 00c0 074B     		ldr	r3, .L129+8
 2305 00c2 1B88     		ldrh	r3, [r3]
 2306 00c4 1A00     		movs	r2, r3
 2307 00c6 0D4B     		ldr	r3, .L129+36
 2308 00c8 1100     		movs	r1, r2
 2309 00ca 1800     		movs	r0, r3
 2310 00cc FFF7FEFF 		bl	printf
 2311 00d0 C8E7     		b	.L128
 2312              	.L123:
 690:main.c        ****             }
 691:main.c        ****         #endif /* CYBLE_BONDING_REQUIREMENT == CYBLE_BONDING_YES */    
 692:main.c        ****         }
 693:main.c        ****         else
 694:main.c        ****         {
 695:main.c        ****             /* Process BMS actions when device is disconnected */
 696:main.c        **** 			BmsProcess();
ARM GAS  C:\Users\user\AppData\Local\Temp\ccRdimcD.s 			page 60


 2313              		.loc 1 696 0
 2314 00d2 FFF7FEFF 		bl	BmsProcess
 697:main.c        ****         }
 698:main.c        ****     }
 2315              		.loc 1 698 0
 2316 00d6 C5E7     		b	.L128
 2317              	.L130:
 2318              		.align	2
 2319              	.L129:
 2320 00d8 D40D0000 		.word	.LC170
 2321 00dc 00000000 		.word	AppCallBack
 2322 00e0 00000000 		.word	apiResult
 2323 00e4 0C0E0000 		.word	.LC174
 2324 00e8 00000000 		.word	Timer_Interrupt
 2325 00ec 00000000 		.word	authState
 2326 00f0 00000000 		.word	cyBle_state
 2327 00f4 00000000 		.word	cyBle_pendingFlashWrite
 2328 00f8 08022440 		.word	1076101640
 2329 00fc 240E0000 		.word	.LC180
 2330              		.cfi_endproc
 2331              	.LFE42:
 2332              		.size	main, .-main
 2333              		.section	.rodata
 2334 0e46 0000     		.align	2
 2335              	.LC183:
 2336 0e48 53746172 		.ascii	"StartAdvertisement API Error: \000"
 2336      74416476 
 2336      65727469 
 2336      73656D65 
 2336      6E742041 
 2337 0e67 00       		.align	2
 2338              	.LC185:
 2339 0e68 53746172 		.ascii	"Start Advertisement with addr: \000"
 2339      74204164 
 2339      76657274 
 2339      6973656D 
 2339      656E7420 
 2340              		.align	2
 2341              	.LC187:
 2342 0e88 25322E32 		.ascii	"%2.2x\000"
 2342      7800
 2343              		.section	.text.StartAdvertisement,"ax",%progbits
 2344              		.align	2
 2345              		.global	StartAdvertisement
 2346              		.code	16
 2347              		.thumb_func
 2348              		.type	StartAdvertisement, %function
 2349              	StartAdvertisement:
 2350              	.LFB43:
 699:main.c        **** }
 700:main.c        **** 
 701:main.c        **** /*******************************************************************************
 702:main.c        **** * Function Name: StartAdvertisement
 703:main.c        **** ********************************************************************************
 704:main.c        **** *
 705:main.c        **** * Summary:
 706:main.c        **** *   Initiates the advertisement procedure.
ARM GAS  C:\Users\user\AppData\Local\Temp\ccRdimcD.s 			page 61


 707:main.c        **** *   Prints the Device Address.
 708:main.c        **** *
 709:main.c        **** * Parameters:
 710:main.c        **** *   None.
 711:main.c        **** *
 712:main.c        **** * Return:
 713:main.c        **** *   None.
 714:main.c        **** *
 715:main.c        **** *******************************************************************************/
 716:main.c        **** void StartAdvertisement(void)
 717:main.c        **** {
 2351              		.loc 1 717 0
 2352              		.cfi_startproc
 2353              		@ args = 0, pretend = 0, frame = 16
 2354              		@ frame_needed = 1, uses_anonymous_args = 0
 2355 0000 80B5     		push	{r7, lr}
 2356              		.cfi_def_cfa_offset 8
 2357              		.cfi_offset 7, -8
 2358              		.cfi_offset 14, -4
 2359 0002 84B0     		sub	sp, sp, #16
 2360              		.cfi_def_cfa_offset 24
 2361 0004 00AF     		add	r7, sp, #0
 2362              		.cfi_def_cfa_register 7
 718:main.c        ****     uint16 i;
 719:main.c        ****     CYBLE_GAP_BD_ADDR_T localAddr;
 720:main.c        ****     apiResult = CyBle_GappStartAdvertisement(CYBLE_ADVERTISING_FAST);
 2363              		.loc 1 720 0
 2364 0006 0020     		movs	r0, #0
 2365 0008 FFF7FEFF 		bl	CyBle_GappStartAdvertisement
 2366 000c 0300     		movs	r3, r0
 2367 000e 1A00     		movs	r2, r3
 2368 0010 1C4B     		ldr	r3, .L137
 2369 0012 1A80     		strh	r2, [r3]
 721:main.c        ****     if(apiResult != CYBLE_ERROR_OK)
 2370              		.loc 1 721 0
 2371 0014 1B4B     		ldr	r3, .L137
 2372 0016 1B88     		ldrh	r3, [r3]
 2373 0018 002B     		cmp	r3, #0
 2374 001a 06D0     		beq	.L132
 722:main.c        ****     {
 723:main.c        ****         DBG_PRINTF("StartAdvertisement API Error: ");
 2375              		.loc 1 723 0
 2376 001c 1A4B     		ldr	r3, .L137+4
 2377 001e 1800     		movs	r0, r3
 2378 0020 FFF7FEFF 		bl	printf
 724:main.c        ****         PrintApiResult();
 2379              		.loc 1 724 0
 2380 0024 FFF7FEFF 		bl	PrintApiResult
 725:main.c        ****     }
 726:main.c        ****     else
 727:main.c        ****     {
 728:main.c        ****         DBG_PRINTF("Start Advertisement with addr: ");
 729:main.c        ****         CyBle_GetDeviceAddress(&localAddr);
 730:main.c        ****         for(i = CYBLE_GAP_BD_ADDR_SIZE; i > 0u; i--)
 731:main.c        ****         {
 732:main.c        ****             DBG_PRINTF("%2.2x", localAddr.bdAddr[i-1]);
 733:main.c        ****         }
ARM GAS  C:\Users\user\AppData\Local\Temp\ccRdimcD.s 			page 62


 734:main.c        ****         DBG_PRINTF("\r\n");
 735:main.c        ****     }
 736:main.c        **** }
 2381              		.loc 1 736 0
 2382 0028 28E0     		b	.L136
 2383              	.L132:
 728:main.c        ****         CyBle_GetDeviceAddress(&localAddr);
 2384              		.loc 1 728 0
 2385 002a 184B     		ldr	r3, .L137+8
 2386 002c 1800     		movs	r0, r3
 2387 002e FFF7FEFF 		bl	printf
 729:main.c        ****         for(i = CYBLE_GAP_BD_ADDR_SIZE; i > 0u; i--)
 2388              		.loc 1 729 0
 2389 0032 3B1D     		adds	r3, r7, #4
 2390 0034 1800     		movs	r0, r3
 2391 0036 FFF7FEFF 		bl	CyBle_GetDeviceAddress
 730:main.c        ****         {
 2392              		.loc 1 730 0
 2393 003a 0E23     		movs	r3, #14
 2394 003c FB18     		adds	r3, r7, r3
 2395 003e 0622     		movs	r2, #6
 2396 0040 1A80     		strh	r2, [r3]
 2397 0042 12E0     		b	.L134
 2398              	.L135:
 732:main.c        ****         }
 2399              		.loc 1 732 0 discriminator 3
 2400 0044 0E23     		movs	r3, #14
 2401 0046 FB18     		adds	r3, r7, r3
 2402 0048 1B88     		ldrh	r3, [r3]
 2403 004a 013B     		subs	r3, r3, #1
 2404 004c 3A1D     		adds	r2, r7, #4
 2405 004e D35C     		ldrb	r3, [r2, r3]
 2406 0050 1A00     		movs	r2, r3
 2407 0052 0F4B     		ldr	r3, .L137+12
 2408 0054 1100     		movs	r1, r2
 2409 0056 1800     		movs	r0, r3
 2410 0058 FFF7FEFF 		bl	printf
 730:main.c        ****         {
 2411              		.loc 1 730 0 discriminator 3
 2412 005c 0E23     		movs	r3, #14
 2413 005e FB18     		adds	r3, r7, r3
 2414 0060 1A88     		ldrh	r2, [r3]
 2415 0062 0E23     		movs	r3, #14
 2416 0064 FB18     		adds	r3, r7, r3
 2417 0066 013A     		subs	r2, r2, #1
 2418 0068 1A80     		strh	r2, [r3]
 2419              	.L134:
 730:main.c        ****         {
 2420              		.loc 1 730 0 is_stmt 0 discriminator 1
 2421 006a 0E23     		movs	r3, #14
 2422 006c FB18     		adds	r3, r7, r3
 2423 006e 1B88     		ldrh	r3, [r3]
 2424 0070 002B     		cmp	r3, #0
 2425 0072 E7D1     		bne	.L135
 734:main.c        ****     }
 2426              		.loc 1 734 0 is_stmt 1
 2427 0074 074B     		ldr	r3, .L137+16
ARM GAS  C:\Users\user\AppData\Local\Temp\ccRdimcD.s 			page 63


 2428 0076 1800     		movs	r0, r3
 2429 0078 FFF7FEFF 		bl	puts
 2430              	.L136:
 2431              		.loc 1 736 0
 2432 007c C046     		nop
 2433 007e BD46     		mov	sp, r7
 2434 0080 04B0     		add	sp, sp, #16
 2435              		@ sp needed
 2436 0082 80BD     		pop	{r7, pc}
 2437              	.L138:
 2438              		.align	2
 2439              	.L137:
 2440 0084 00000000 		.word	apiResult
 2441 0088 480E0000 		.word	.LC183
 2442 008c 680E0000 		.word	.LC185
 2443 0090 880E0000 		.word	.LC187
 2444 0094 B4050000 		.word	.LC96
 2445              		.cfi_endproc
 2446              	.LFE43:
 2447              		.size	StartAdvertisement, .-StartAdvertisement
 2448              		.data
 2449              		.type	led.8726, %object
 2450              		.size	led.8726, 1
 2451              	led.8726:
 2452 0000 01       		.byte	1
 2453              		.text
 2454              	.Letext0:
 2455              		.file 2 "Generated_Source\\PSoC4/cytypes.h"
 2456              		.file 3 "Generated_Source\\PSoC4/BLE_Stack.h"
 2457              		.file 4 "Generated_Source\\PSoC4/BLE_StackGap.h"
 2458              		.file 5 "Generated_Source\\PSoC4/BLE_StackGatt.h"
 2459              		.file 6 "Generated_Source\\PSoC4/BLE_StackGattServer.h"
 2460              		.file 7 "Generated_Source\\PSoC4/BLE_gatt.h"
 2461              		.file 8 "Generated_Source\\PSoC4/BLE_bms.h"
 2462              		.file 9 "Generated_Source\\PSoC4/BLE_cgms.h"
 2463              		.file 10 "Generated_Source\\PSoC4/BLE_dis.h"
 2464              		.file 11 "Generated_Source\\PSoC4/BLE_eventHandler.h"
 2465              		.file 12 "main.h"
 2466              		.file 13 "Generated_Source\\PSoC4/BLE.h"