ARM GAS  C:\Users\user\AppData\Local\Temp\ccfIoC7d.s 			page 1


   1              		.syntax unified
   2              		.cpu cortex-m0
   3              		.fpu softvfp
   4              		.eabi_attribute 20, 1
   5              		.eabi_attribute 21, 1
   6              		.eabi_attribute 23, 3
   7              		.eabi_attribute 24, 1
   8              		.eabi_attribute 25, 1
   9              		.eabi_attribute 26, 1
  10              		.eabi_attribute 30, 4
  11              		.eabi_attribute 34, 0
  12              		.eabi_attribute 18, 4
  13              		.thumb
  14              		.syntax unified
  15              		.file	"BLE.c"
  16              		.text
  17              	.Ltext0:
  18              		.cfi_sections	.debug_frame
  19              		.section	.text.CyBle_ChangeAdLocalName,"ax",%progbits
  20              		.align	1
  21              		.code	16
  22              		.thumb_func
  23              		.type	CyBle_ChangeAdLocalName, %function
  24              	CyBle_ChangeAdLocalName:
  25              	.LFB11:
  26              		.file 1 "Generated_Source\\PSoC4\\BLE.c"
   1:Generated_Source\PSoC4/BLE.c **** /***************************************************************************//**
   2:Generated_Source\PSoC4/BLE.c **** * \file CYBLE.c
   3:Generated_Source\PSoC4/BLE.c **** * \version 3.66
   4:Generated_Source\PSoC4/BLE.c **** * 
   5:Generated_Source\PSoC4/BLE.c **** * \brief
   6:Generated_Source\PSoC4/BLE.c **** *  This file contains the source code for the Common APIs of the BLE Component.
   7:Generated_Source\PSoC4/BLE.c **** * 
   8:Generated_Source\PSoC4/BLE.c **** ********************************************************************************
   9:Generated_Source\PSoC4/BLE.c **** * \copyright
  10:Generated_Source\PSoC4/BLE.c **** * Copyright 2014-2020, Cypress Semiconductor Corporation.  All rights reserved.
  11:Generated_Source\PSoC4/BLE.c **** * You may use this file only in accordance with the license, terms, conditions,
  12:Generated_Source\PSoC4/BLE.c **** * disclaimers, and limitations in the end user license agreement accompanying
  13:Generated_Source\PSoC4/BLE.c **** * the software package with which this file was provided.
  14:Generated_Source\PSoC4/BLE.c **** *******************************************************************************/
  15:Generated_Source\PSoC4/BLE.c **** 
  16:Generated_Source\PSoC4/BLE.c **** #include "BLE_eventHandler.h"
  17:Generated_Source\PSoC4/BLE.c **** #include "BLE_HAL_PVT.h"
  18:Generated_Source\PSoC4/BLE.c **** #include <stdlib.h>
  19:Generated_Source\PSoC4/BLE.c **** 
  20:Generated_Source\PSoC4/BLE.c **** 
  21:Generated_Source\PSoC4/BLE.c **** /***************************************
  22:Generated_Source\PSoC4/BLE.c **** * Function Prototypes
  23:Generated_Source\PSoC4/BLE.c **** ***************************************/
  24:Generated_Source\PSoC4/BLE.c **** 
  25:Generated_Source\PSoC4/BLE.c **** #if(CYBLE_GATT_ROLE_SERVER)
  26:Generated_Source\PSoC4/BLE.c ****     #if(CYBLE_GAP_ROLE_PERIPHERAL)
  27:Generated_Source\PSoC4/BLE.c ****         static void CyBle_ChangeAdLocalName(const char8 name[], uint8 dest);
  28:Generated_Source\PSoC4/BLE.c ****     #endif /* (CYBLE_GAP_ROLE_PERIPHERAL) */
  29:Generated_Source\PSoC4/BLE.c **** #endif /* (CYBLE_GATT_ROLE_SERVER) */
  30:Generated_Source\PSoC4/BLE.c ****     
  31:Generated_Source\PSoC4/BLE.c **** 
ARM GAS  C:\Users\user\AppData\Local\Temp\ccfIoC7d.s 			page 2


  32:Generated_Source\PSoC4/BLE.c **** /***************************************
  33:Generated_Source\PSoC4/BLE.c **** * Global Variables
  34:Generated_Source\PSoC4/BLE.c **** ***************************************/
  35:Generated_Source\PSoC4/BLE.c **** 
  36:Generated_Source\PSoC4/BLE.c **** /* Indicates whether the BLE has been initialized. The variable is initialized to
  37:Generated_Source\PSoC4/BLE.c ****    0 and set to 1 the first time CyBle_Start() is called. This allows the component
  38:Generated_Source\PSoC4/BLE.c ****    to restart without reinitialization after the first call to the CyBle_Start() 
  39:Generated_Source\PSoC4/BLE.c ****    routine. If reinitialization of the component is required, the variable should 
  40:Generated_Source\PSoC4/BLE.c ****    be set to 0 before the CyBle_Start() routine is called. Alternatively, the BLE
  41:Generated_Source\PSoC4/BLE.c ****    can be reinitialized by calling the CyBle_Init() function.
  42:Generated_Source\PSoC4/BLE.c **** */
  43:Generated_Source\PSoC4/BLE.c **** uint8  cyBle_initVar = 0u;
  44:Generated_Source\PSoC4/BLE.c **** 
  45:Generated_Source\PSoC4/BLE.c **** /* Allocate RAM memory for stack. This buffer could be reused by application when 
  46:Generated_Source\PSoC4/BLE.c ****    BLE component is stopped. For export mode buffer is allocated in heap.
  47:Generated_Source\PSoC4/BLE.c **** */
  48:Generated_Source\PSoC4/BLE.c **** #if(CYBLE_SHARING_MODE_EXPORT)
  49:Generated_Source\PSoC4/BLE.c ****     
  50:Generated_Source\PSoC4/BLE.c **** uint8 *cyBle_stackMemoryRam = NULL;
  51:Generated_Source\PSoC4/BLE.c **** 
  52:Generated_Source\PSoC4/BLE.c **** #else
  53:Generated_Source\PSoC4/BLE.c **** 
  54:Generated_Source\PSoC4/BLE.c **** CYBLE_CYALIGNED_BEGIN CY_NOINIT uint8 cyBle_stackMemoryRam[CYBLE_STACK_RAM_SIZE] CYBLE_CYALIGNED_EN
  55:Generated_Source\PSoC4/BLE.c **** 
  56:Generated_Source\PSoC4/BLE.c **** #endif  /* CYBLE_SHARING_MODE_EXPORT */
  57:Generated_Source\PSoC4/BLE.c **** 
  58:Generated_Source\PSoC4/BLE.c **** #if(CYBLE_GAP_ROLE_PERIPHERAL || CYBLE_GAP_ROLE_BROADCASTER)
  59:Generated_Source\PSoC4/BLE.c **** 
  60:Generated_Source\PSoC4/BLE.c **** CYBLE_GAPP_DISC_PARAM_T cyBle_discoveryParam =
  61:Generated_Source\PSoC4/BLE.c **** {
  62:Generated_Source\PSoC4/BLE.c ****     0x0020u,    /* uint16 advertising_interval_min */
  63:Generated_Source\PSoC4/BLE.c ****     0x0030u,    /* uint16 advertising_interval_max */
  64:Generated_Source\PSoC4/BLE.c ****     CYBLE_GAPP_CONNECTABLE_UNDIRECTED_ADV, /* uint8 advertising_type */
  65:Generated_Source\PSoC4/BLE.c ****     0x00u,      /* uint8 own_addr_type */
  66:Generated_Source\PSoC4/BLE.c ****     0x00u,      /* uint8 direct_addr_type */
  67:Generated_Source\PSoC4/BLE.c ****     {0x48u, 0x0Du, 0x84u, 0xA2u, 0x16u, 0xDCu}, /* uint8* direct_addr */
  68:Generated_Source\PSoC4/BLE.c ****     0x07u,      /* uint8 advertising_channel_map */
  69:Generated_Source\PSoC4/BLE.c ****     0x00u,      /* uint8 advertising_filter_policy */
  70:Generated_Source\PSoC4/BLE.c **** };
  71:Generated_Source\PSoC4/BLE.c **** 
  72:Generated_Source\PSoC4/BLE.c **** CYBLE_GAPP_DISC_DATA_T cyBle_discoveryData =
  73:Generated_Source\PSoC4/BLE.c **** {
  74:Generated_Source\PSoC4/BLE.c ****     { 0x02u, 0x01u, 0x06u, 0x0Fu, 0x09u, 0x43u, 0x47u,
  75:Generated_Source\PSoC4/BLE.c ****     0x4Du, 0x20u, 0x47u, 0x54u, 0x31u, 0x32u, 0x33u, 0x34u,
  76:Generated_Source\PSoC4/BLE.c ****     0x35u, 0x36u, 0x37u, 0x4Du, 0x04u, 0xFFu, 0xF9u, 0x01u,
  77:Generated_Source\PSoC4/BLE.c ****     0x00, 0x05, 0x02, 0x82, 0xFE, 0x1F, 0x18 }, /* uint8 advertising_data[CYBLE_MAX_ADV_DATA_LEN] *
  78:Generated_Source\PSoC4/BLE.c ****     0x1Eu,      /* uint8 adv_data_length */
  79:Generated_Source\PSoC4/BLE.c **** };
  80:Generated_Source\PSoC4/BLE.c **** 
  81:Generated_Source\PSoC4/BLE.c **** CYBLE_GAPP_SCAN_RSP_DATA_T cyBle_scanRspData =
  82:Generated_Source\PSoC4/BLE.c **** {
  83:Generated_Source\PSoC4/BLE.c ****     { 0x02u, 0x0Au, 0x00u }, /* uint8 scan_rsp_data[CYBLE_MAX_SCAN_RSP_DATA_LEN] */
  84:Generated_Source\PSoC4/BLE.c ****     0x03u,      /* uint8 scan_rsp_data_length */
  85:Generated_Source\PSoC4/BLE.c **** };
  86:Generated_Source\PSoC4/BLE.c **** 
  87:Generated_Source\PSoC4/BLE.c **** /* This variable of type CYBLE_GAPP_DISC_MODE_INFO_T is present only when 
  88:Generated_Source\PSoC4/BLE.c ****    the BLE component is configured for Peripheral GAP role or Central and 
ARM GAS  C:\Users\user\AppData\Local\Temp\ccfIoC7d.s 			page 3


  89:Generated_Source\PSoC4/BLE.c ****    Peripheral GAP role. It contains the Advertisement settings and also the 
  90:Generated_Source\PSoC4/BLE.c ****    Advertisement and Scan response data parameters entered in the customizer.
  91:Generated_Source\PSoC4/BLE.c ****    This variable can be used by advanced users to change Advertisement settings,
  92:Generated_Source\PSoC4/BLE.c ****    Advertisement or Scan response data in runtime. 
  93:Generated_Source\PSoC4/BLE.c **** */
  94:Generated_Source\PSoC4/BLE.c **** CYBLE_GAPP_DISC_MODE_INFO_T cyBle_discoveryModeInfo =
  95:Generated_Source\PSoC4/BLE.c **** {
  96:Generated_Source\PSoC4/BLE.c ****     0x02u,      /* uint8 discMode */
  97:Generated_Source\PSoC4/BLE.c ****     &cyBle_discoveryParam,
  98:Generated_Source\PSoC4/BLE.c ****     &cyBle_discoveryData,
  99:Generated_Source\PSoC4/BLE.c ****     &cyBle_scanRspData,
 100:Generated_Source\PSoC4/BLE.c ****     0x001Eu,    /* uint16 advTo */
 101:Generated_Source\PSoC4/BLE.c **** };
 102:Generated_Source\PSoC4/BLE.c **** 
 103:Generated_Source\PSoC4/BLE.c **** 
 104:Generated_Source\PSoC4/BLE.c **** #endif /* CYBLE_GAP_ROLE_PERIPHERAL || CYBLE_GAP_ROLE_BROADCASTER */
 105:Generated_Source\PSoC4/BLE.c **** 
 106:Generated_Source\PSoC4/BLE.c **** #if(CYBLE_GAP_ROLE_CENTRAL)
 107:Generated_Source\PSoC4/BLE.c ****     
 108:Generated_Source\PSoC4/BLE.c **** CYBLE_GAPC_CONN_PARAM_T cyBle_connectionParameters;
 109:Generated_Source\PSoC4/BLE.c **** 
 110:Generated_Source\PSoC4/BLE.c **** /* Connecting timeout is set to 30 seconds in CyBle_Init function. 
 111:Generated_Source\PSoC4/BLE.c ****    Not zero value starts timer in CyBle_GapcConnectDevice() API fucntion.
 112:Generated_Source\PSoC4/BLE.c **** */
 113:Generated_Source\PSoC4/BLE.c **** uint16 cyBle_connectingTimeout;
 114:Generated_Source\PSoC4/BLE.c ****     
 115:Generated_Source\PSoC4/BLE.c **** #endif /* CYBLE_GAP_ROLE_CENTRAL */
 116:Generated_Source\PSoC4/BLE.c **** 
 117:Generated_Source\PSoC4/BLE.c **** #if(CYBLE_GAP_ROLE_CENTRAL || CYBLE_GAP_ROLE_OBSERVER)
 118:Generated_Source\PSoC4/BLE.c ****     
 119:Generated_Source\PSoC4/BLE.c **** 
 120:Generated_Source\PSoC4/BLE.c ****     
 121:Generated_Source\PSoC4/BLE.c **** #endif /* CYBLE_GAP_ROLE_CENTRAL || CYBLE_GAP_ROLE_OBSERVER */
 122:Generated_Source\PSoC4/BLE.c **** 
 123:Generated_Source\PSoC4/BLE.c **** #if((CYBLE_GAP_ROLE_PERIPHERAL || CYBLE_GAP_ROLE_CENTRAL) && (CYBLE_BONDING_REQUIREMENT == CYBLE_BO
 124:Generated_Source\PSoC4/BLE.c **** 
 125:Generated_Source\PSoC4/BLE.c **** uint8 cyBle_peerBonding;
 126:Generated_Source\PSoC4/BLE.c **** uint8 cyBle_pendingFlashWrite;
 127:Generated_Source\PSoC4/BLE.c ****     
 128:Generated_Source\PSoC4/BLE.c **** #if(CYBLE_GATT_DB_CCCD_COUNT != 0u)
 129:Generated_Source\PSoC4/BLE.c ****     static uint8 cyBle_pendingFlashClearCccdHandle;
 130:Generated_Source\PSoC4/BLE.c **** #endif /* CYBLE_GATT_DB_CCCD_COUNT != 0u */
 131:Generated_Source\PSoC4/BLE.c ****     
 132:Generated_Source\PSoC4/BLE.c **** #endif  /* (CYBLE_BONDING_REQUIREMENT == CYBLE_BONDING_YES) */
 133:Generated_Source\PSoC4/BLE.c **** 
 134:Generated_Source\PSoC4/BLE.c **** CYBLE_CALLBACK_T CyBle_ApplCallback;
 135:Generated_Source\PSoC4/BLE.c **** CYBLE_GAP_BD_ADDR_T cyBle_deviceAddress = {{0x48u, 0x0Du, 0x84u, 0xA2u, 0x16u, 0xDCu}, 0x00u };
 136:Generated_Source\PSoC4/BLE.c **** CYBLE_GAP_BD_ADDR_T * cyBle_sflashDeviceAddress = CYBLE_SFLASH_DEVICE_ADDRESS_PTR;
 137:Generated_Source\PSoC4/BLE.c **** 
 138:Generated_Source\PSoC4/BLE.c **** 
 139:Generated_Source\PSoC4/BLE.c **** /******************************************************************************
 140:Generated_Source\PSoC4/BLE.c **** * Function Name: CyBle_Init
 141:Generated_Source\PSoC4/BLE.c **** ***************************************************************************//**
 142:Generated_Source\PSoC4/BLE.c **** *
 143:Generated_Source\PSoC4/BLE.c **** *   Initializes the component with the parameters set in the customizer.
 144:Generated_Source\PSoC4/BLE.c **** * 
 145:Generated_Source\PSoC4/BLE.c **** *  \return
ARM GAS  C:\Users\user\AppData\Local\Temp\ccfIoC7d.s 			page 4


 146:Generated_Source\PSoC4/BLE.c **** *   None
 147:Generated_Source\PSoC4/BLE.c **** * 
 148:Generated_Source\PSoC4/BLE.c **** ******************************************************************************/
 149:Generated_Source\PSoC4/BLE.c **** void CyBle_Init(void)
 150:Generated_Source\PSoC4/BLE.c **** {
 151:Generated_Source\PSoC4/BLE.c ****     cyBle_eventHandlerFlag = 0u;
 152:Generated_Source\PSoC4/BLE.c ****     cyBle_busyStatus = CYBLE_STACK_STATE_FREE;
 153:Generated_Source\PSoC4/BLE.c **** 
 154:Generated_Source\PSoC4/BLE.c ****     #if(CYBLE_GAP_ROLE_PERIPHERAL || CYBLE_GAP_ROLE_BROADCASTER) 
 155:Generated_Source\PSoC4/BLE.c ****         cyBle_advertisingIntervalType = CYBLE_ADVERTISING_FAST; 
 156:Generated_Source\PSoC4/BLE.c ****     #endif /* (CYBLE_GAP_ROLE_PERIPHERAL || CYBLE_GAP_ROLE_BROADCASTER)  */
 157:Generated_Source\PSoC4/BLE.c ****     #if(CYBLE_GAP_ROLE_CENTRAL || CYBLE_GAP_ROLE_OBSERVER)
 158:Generated_Source\PSoC4/BLE.c ****         cyBle_scanningIntervalType = CYBLE_SCANNING_FAST; 
 159:Generated_Source\PSoC4/BLE.c ****     #endif /* (CYBLE_GAP_ROLE_CENTRAL || CYBLE_GAP_ROLE_OBSERVER) */
 160:Generated_Source\PSoC4/BLE.c ****         
 161:Generated_Source\PSoC4/BLE.c ****     /* Init default connection parameters. 
 162:Generated_Source\PSoC4/BLE.c ****        Application may change it before initiating a connection */
 163:Generated_Source\PSoC4/BLE.c ****     #if(CYBLE_GAP_ROLE_CENTRAL)
 164:Generated_Source\PSoC4/BLE.c ****         cyBle_connectionParameters.scanIntv = cyBle_discoveryInfo.scanIntv;
 165:Generated_Source\PSoC4/BLE.c ****         cyBle_connectionParameters.scanWindow = cyBle_discoveryInfo.scanWindow;
 166:Generated_Source\PSoC4/BLE.c ****         cyBle_connectionParameters.ownAddrType = cyBle_discoveryInfo.ownAddrType;
 167:Generated_Source\PSoC4/BLE.c ****         cyBle_connectionParameters.initiatorFilterPolicy = cyBle_discoveryInfo.scanFilterPolicy;
 168:Generated_Source\PSoC4/BLE.c ****         cyBle_connectionParameters.connIntvMin = CYBLE_GAPC_CONNECTION_INTERVAL_MIN;
 169:Generated_Source\PSoC4/BLE.c ****         cyBle_connectionParameters.connIntvMax = CYBLE_GAPC_CONNECTION_INTERVAL_MAX;
 170:Generated_Source\PSoC4/BLE.c ****         cyBle_connectionParameters.connLatency = CYBLE_GAPC_CONNECTION_SLAVE_LATENCY;
 171:Generated_Source\PSoC4/BLE.c ****         cyBle_connectionParameters.supervisionTO = CYBLE_GAPC_CONNECTION_TIME_OUT;
 172:Generated_Source\PSoC4/BLE.c ****         cyBle_connectionParameters.minCeLength = 0x0000u;
 173:Generated_Source\PSoC4/BLE.c ****         cyBle_connectionParameters.maxCeLength = 0xFFFFu;
 174:Generated_Source\PSoC4/BLE.c ****         
 175:Generated_Source\PSoC4/BLE.c ****         cyBle_connectingTimeout = CYBLE_GAPC_CONNECTING_TIMEOUT;
 176:Generated_Source\PSoC4/BLE.c ****     #endif /* CYBLE_GAP_ROLE_CENTRAL */
 177:Generated_Source\PSoC4/BLE.c **** 
 178:Generated_Source\PSoC4/BLE.c ****     CyBle_ServiceInit();
 179:Generated_Source\PSoC4/BLE.c **** 
 180:Generated_Source\PSoC4/BLE.c ****     #if((CYBLE_GAP_ROLE_PERIPHERAL || CYBLE_GAP_ROLE_CENTRAL) && (CYBLE_BONDING_REQUIREMENT == CYBL
 181:Generated_Source\PSoC4/BLE.c ****         cyBle_pendingFlashWrite = 0u;
 182:Generated_Source\PSoC4/BLE.c ****         cyBle_peerBonding = CYBLE_GAP_BONDING_NONE;
 183:Generated_Source\PSoC4/BLE.c ****     #endif  /* (CYBLE_BONDING_REQUIREMENT == CYBLE_BONDING_YES) */
 184:Generated_Source\PSoC4/BLE.c **** 
 185:Generated_Source\PSoC4/BLE.c **** }
 186:Generated_Source\PSoC4/BLE.c **** 
 187:Generated_Source\PSoC4/BLE.c **** 
 188:Generated_Source\PSoC4/BLE.c **** /******************************************************************************
 189:Generated_Source\PSoC4/BLE.c **** * Function Name: CyBle_ServiceInit
 190:Generated_Source\PSoC4/BLE.c **** ***************************************************************************//**
 191:Generated_Source\PSoC4/BLE.c **** * 
 192:Generated_Source\PSoC4/BLE.c **** *  Initializes all included services.
 193:Generated_Source\PSoC4/BLE.c **** * 
 194:Generated_Source\PSoC4/BLE.c **** * \return
 195:Generated_Source\PSoC4/BLE.c **** *  None
 196:Generated_Source\PSoC4/BLE.c **** * 
 197:Generated_Source\PSoC4/BLE.c **** ******************************************************************************/
 198:Generated_Source\PSoC4/BLE.c **** void CyBle_ServiceInit(void)
 199:Generated_Source\PSoC4/BLE.c **** {
 200:Generated_Source\PSoC4/BLE.c ****     #if(CYBLE_GATT_ROLE_CLIENT)
 201:Generated_Source\PSoC4/BLE.c ****         /* Check service range before clearing to support partial discovery */
 202:Generated_Source\PSoC4/BLE.c ****         if(cyBle_serverInfo[CYBLE_SRVI_GAP].range.startHandle == CYBLE_GATT_INVALID_ATTR_HANDLE_VAL
ARM GAS  C:\Users\user\AppData\Local\Temp\ccfIoC7d.s 			page 5


 203:Generated_Source\PSoC4/BLE.c ****         {
 204:Generated_Source\PSoC4/BLE.c ****             (void)memset(&cyBle_gapc, 0, sizeof(cyBle_gapc));
 205:Generated_Source\PSoC4/BLE.c ****         }
 206:Generated_Source\PSoC4/BLE.c ****         if(cyBle_serverInfo[CYBLE_SRVI_GATT].range.startHandle == CYBLE_GATT_INVALID_ATTR_HANDLE_VA
 207:Generated_Source\PSoC4/BLE.c ****         {
 208:Generated_Source\PSoC4/BLE.c ****             (void)memset(&cyBle_gattc, 0, sizeof(cyBle_gattc));
 209:Generated_Source\PSoC4/BLE.c ****         }
 210:Generated_Source\PSoC4/BLE.c ****     #endif /* CYBLE_GATT_ROLE_CLIENT */
 211:Generated_Source\PSoC4/BLE.c **** 
 212:Generated_Source\PSoC4/BLE.c ****    	#ifdef CYBLE_AIOS
 213:Generated_Source\PSoC4/BLE.c ****         CyBle_AiosInit();
 214:Generated_Source\PSoC4/BLE.c ****     #endif /* CYBLE_AIOS */
 215:Generated_Source\PSoC4/BLE.c **** 
 216:Generated_Source\PSoC4/BLE.c **** 	#ifdef CYBLE_ANCS
 217:Generated_Source\PSoC4/BLE.c ****         CyBle_AncsInit();
 218:Generated_Source\PSoC4/BLE.c ****     #endif /* CYBLE_ANCS */
 219:Generated_Source\PSoC4/BLE.c **** 	
 220:Generated_Source\PSoC4/BLE.c ****     #ifdef CYBLE_ANS
 221:Generated_Source\PSoC4/BLE.c ****         CyBle_AnsInit();
 222:Generated_Source\PSoC4/BLE.c ****     #endif /* CYBLE_ANS */
 223:Generated_Source\PSoC4/BLE.c ****     
 224:Generated_Source\PSoC4/BLE.c ****     #ifdef CYBLE_BAS
 225:Generated_Source\PSoC4/BLE.c ****         CyBle_BasInit();
 226:Generated_Source\PSoC4/BLE.c ****     #endif /* CYBLE_BAS */
 227:Generated_Source\PSoC4/BLE.c ****     
 228:Generated_Source\PSoC4/BLE.c ****     #ifdef CYBLE_BCS
 229:Generated_Source\PSoC4/BLE.c ****         CyBle_BcsInit();
 230:Generated_Source\PSoC4/BLE.c ****     #endif /* CYBLE_BCS */
 231:Generated_Source\PSoC4/BLE.c **** 
 232:Generated_Source\PSoC4/BLE.c ****     #ifdef CYBLE_BLS
 233:Generated_Source\PSoC4/BLE.c ****         CyBle_BlsInit();
 234:Generated_Source\PSoC4/BLE.c ****     #endif /* CYBLE_BLS */
 235:Generated_Source\PSoC4/BLE.c ****     
 236:Generated_Source\PSoC4/BLE.c ****     #ifdef CYBLE_BMS
 237:Generated_Source\PSoC4/BLE.c ****         CyBle_BmsInit();
 238:Generated_Source\PSoC4/BLE.c ****     #endif /* CYBLE_BMS */
 239:Generated_Source\PSoC4/BLE.c ****     
 240:Generated_Source\PSoC4/BLE.c ****     #ifdef CYBLE_CGMS
 241:Generated_Source\PSoC4/BLE.c ****         CyBle_CgmsInit();
 242:Generated_Source\PSoC4/BLE.c ****     #endif /* CYBLE_CGMS */
 243:Generated_Source\PSoC4/BLE.c **** 
 244:Generated_Source\PSoC4/BLE.c ****     #ifdef CYBLE_CPS
 245:Generated_Source\PSoC4/BLE.c ****         CyBle_CpsInit();
 246:Generated_Source\PSoC4/BLE.c ****     #endif /* CYBLE_CPS */
 247:Generated_Source\PSoC4/BLE.c **** 
 248:Generated_Source\PSoC4/BLE.c ****     #ifdef CYBLE_CSCS
 249:Generated_Source\PSoC4/BLE.c ****         CyBle_CscsInit();
 250:Generated_Source\PSoC4/BLE.c ****     #endif /* CYBLE_CSCS */
 251:Generated_Source\PSoC4/BLE.c ****     
 252:Generated_Source\PSoC4/BLE.c ****     #ifdef CYBLE_CTS
 253:Generated_Source\PSoC4/BLE.c ****         CyBle_CtsInit();
 254:Generated_Source\PSoC4/BLE.c ****     #endif /* CYBLE_CTS */
 255:Generated_Source\PSoC4/BLE.c **** 
 256:Generated_Source\PSoC4/BLE.c ****     #ifdef CYBLE_CUSTOM
 257:Generated_Source\PSoC4/BLE.c ****         CyBle_CustomInit();
 258:Generated_Source\PSoC4/BLE.c ****     #endif /* CYBLE_CUSTOM */
 259:Generated_Source\PSoC4/BLE.c **** 
ARM GAS  C:\Users\user\AppData\Local\Temp\ccfIoC7d.s 			page 6


 260:Generated_Source\PSoC4/BLE.c ****     #ifdef CYBLE_DIS
 261:Generated_Source\PSoC4/BLE.c ****         CyBle_DisInit();
 262:Generated_Source\PSoC4/BLE.c ****     #endif /* CYBLE_DIS */
 263:Generated_Source\PSoC4/BLE.c **** 
 264:Generated_Source\PSoC4/BLE.c ****     #ifdef CYBLE_ESS
 265:Generated_Source\PSoC4/BLE.c ****         CyBle_EssInit();
 266:Generated_Source\PSoC4/BLE.c ****     #endif /* CYBLE_ESS */
 267:Generated_Source\PSoC4/BLE.c ****     
 268:Generated_Source\PSoC4/BLE.c ****     #ifdef CYBLE_GLS
 269:Generated_Source\PSoC4/BLE.c ****         CyBle_GlsInit();
 270:Generated_Source\PSoC4/BLE.c ****     #endif /* CYBLE_GLS */
 271:Generated_Source\PSoC4/BLE.c ****     
 272:Generated_Source\PSoC4/BLE.c ****     #ifdef CYBLE_HIDS
 273:Generated_Source\PSoC4/BLE.c ****         CyBle_HidsInit();
 274:Generated_Source\PSoC4/BLE.c ****     #endif /* CYBLE_HIDS */
 275:Generated_Source\PSoC4/BLE.c **** 
 276:Generated_Source\PSoC4/BLE.c ****     #ifdef CYBLE_HPS
 277:Generated_Source\PSoC4/BLE.c ****         CyBle_HpsInit();
 278:Generated_Source\PSoC4/BLE.c ****     #endif /* CYBLE_HPS */
 279:Generated_Source\PSoC4/BLE.c **** 
 280:Generated_Source\PSoC4/BLE.c ****     #ifdef CYBLE_HRS
 281:Generated_Source\PSoC4/BLE.c ****         CyBle_HrsInit();
 282:Generated_Source\PSoC4/BLE.c ****     #endif /* CYBLE_HRS */
 283:Generated_Source\PSoC4/BLE.c ****     
 284:Generated_Source\PSoC4/BLE.c ****     #ifdef CYBLE_HTS
 285:Generated_Source\PSoC4/BLE.c ****         CyBle_HtsInit();
 286:Generated_Source\PSoC4/BLE.c ****     #endif /* CYBLE_RSCS */
 287:Generated_Source\PSoC4/BLE.c **** 
 288:Generated_Source\PSoC4/BLE.c ****     #ifdef CYBLE_IAS
 289:Generated_Source\PSoC4/BLE.c ****         CyBle_IasInit();
 290:Generated_Source\PSoC4/BLE.c ****     #endif /* CYBLE_IAS */
 291:Generated_Source\PSoC4/BLE.c **** 
 292:Generated_Source\PSoC4/BLE.c ****     #ifdef CYBLE_IPS
 293:Generated_Source\PSoC4/BLE.c ****         CyBle_IpsInit();
 294:Generated_Source\PSoC4/BLE.c ****     #endif /* CYBLE_IPS */
 295:Generated_Source\PSoC4/BLE.c ****     
 296:Generated_Source\PSoC4/BLE.c ****     #ifdef CYBLE_LLS
 297:Generated_Source\PSoC4/BLE.c ****         CyBle_LlsInit();
 298:Generated_Source\PSoC4/BLE.c ****     #endif /* CYBLE_LLS */
 299:Generated_Source\PSoC4/BLE.c **** 
 300:Generated_Source\PSoC4/BLE.c ****     #ifdef CYBLE_LNS
 301:Generated_Source\PSoC4/BLE.c ****         CyBle_LnsInit();
 302:Generated_Source\PSoC4/BLE.c ****     #endif /* CYBLE_LNS */
 303:Generated_Source\PSoC4/BLE.c ****     
 304:Generated_Source\PSoC4/BLE.c ****     #ifdef CYBLE_NDCS
 305:Generated_Source\PSoC4/BLE.c ****         CyBle_NdcsInit();
 306:Generated_Source\PSoC4/BLE.c ****     #endif /* CYBLE_NDCS */
 307:Generated_Source\PSoC4/BLE.c ****     
 308:Generated_Source\PSoC4/BLE.c ****     #ifdef CYBLE_OTS
 309:Generated_Source\PSoC4/BLE.c ****         CyBle_OtsInit();
 310:Generated_Source\PSoC4/BLE.c ****     #endif /* CYBLE_OTS */
 311:Generated_Source\PSoC4/BLE.c ****         
 312:Generated_Source\PSoC4/BLE.c ****     #ifdef CYBLE_PASS
 313:Generated_Source\PSoC4/BLE.c ****         CyBle_PassInit();
 314:Generated_Source\PSoC4/BLE.c ****     #endif /* CYBLE_PASS */
 315:Generated_Source\PSoC4/BLE.c ****     
 316:Generated_Source\PSoC4/BLE.c ****     #ifdef CYBLE_PLXS
ARM GAS  C:\Users\user\AppData\Local\Temp\ccfIoC7d.s 			page 7


 317:Generated_Source\PSoC4/BLE.c ****         CyBle_PlxsInit();
 318:Generated_Source\PSoC4/BLE.c ****     #endif /* CYBLE_PLXS */
 319:Generated_Source\PSoC4/BLE.c ****     
 320:Generated_Source\PSoC4/BLE.c ****     #ifdef CYBLE_RSCS
 321:Generated_Source\PSoC4/BLE.c ****         CyBle_RscsInit();
 322:Generated_Source\PSoC4/BLE.c ****     #endif /* CYBLE_RSCS */
 323:Generated_Source\PSoC4/BLE.c **** 
 324:Generated_Source\PSoC4/BLE.c ****     #ifdef CYBLE_RTUS
 325:Generated_Source\PSoC4/BLE.c ****         CyBle_RtusInit();
 326:Generated_Source\PSoC4/BLE.c ****     #endif /* CYBLE_RTUS */
 327:Generated_Source\PSoC4/BLE.c **** 
 328:Generated_Source\PSoC4/BLE.c ****     #ifdef CYBLE_SCPS
 329:Generated_Source\PSoC4/BLE.c ****         CyBle_ScpsInit();
 330:Generated_Source\PSoC4/BLE.c ****     #endif /* CYBLE_SCPS */
 331:Generated_Source\PSoC4/BLE.c ****     
 332:Generated_Source\PSoC4/BLE.c ****     #ifdef CYBLE_TPS
 333:Generated_Source\PSoC4/BLE.c ****         CyBle_TpsInit();
 334:Generated_Source\PSoC4/BLE.c ****     #endif /* CYBLE_TPS */
 335:Generated_Source\PSoC4/BLE.c ****     
 336:Generated_Source\PSoC4/BLE.c ****     #ifdef CYBLE_UDS
 337:Generated_Source\PSoC4/BLE.c ****         CyBle_UdsInit();
 338:Generated_Source\PSoC4/BLE.c ****     #endif /* CYBLE_UDS */
 339:Generated_Source\PSoC4/BLE.c **** 
 340:Generated_Source\PSoC4/BLE.c ****     #ifdef CYBLE_WPTS
 341:Generated_Source\PSoC4/BLE.c ****         CyBle_WptsInit();
 342:Generated_Source\PSoC4/BLE.c ****     #endif /* CYBLE_WPTS */
 343:Generated_Source\PSoC4/BLE.c **** 
 344:Generated_Source\PSoC4/BLE.c ****     #ifdef CYBLE_WSS
 345:Generated_Source\PSoC4/BLE.c ****         CyBle_WssInit();
 346:Generated_Source\PSoC4/BLE.c ****     #endif /* CYBLE_WSS */
 347:Generated_Source\PSoC4/BLE.c **** }
 348:Generated_Source\PSoC4/BLE.c **** 
 349:Generated_Source\PSoC4/BLE.c **** 
 350:Generated_Source\PSoC4/BLE.c **** /******************************************************************************
 351:Generated_Source\PSoC4/BLE.c **** * Function Name: CyBle_Start
 352:Generated_Source\PSoC4/BLE.c **** ***************************************************************************//**
 353:Generated_Source\PSoC4/BLE.c **** * 
 354:Generated_Source\PSoC4/BLE.c **** *  This function initializes the BLE Stack, which consists of the BLE Stack 
 355:Generated_Source\PSoC4/BLE.c **** *  Manager, BLE Controller, and BLE Host modules. It takes care of initializing
 356:Generated_Source\PSoC4/BLE.c **** *  the Profile layer, schedulers, Timer and other platform related
 357:Generated_Source\PSoC4/BLE.c **** *  resources required for the BLE component. It also registers the callback 
 358:Generated_Source\PSoC4/BLE.c **** *  function for BLE events that will be registered in the BLE stack.
 359:Generated_Source\PSoC4/BLE.c **** * 
 360:Generated_Source\PSoC4/BLE.c **** *  Note that this function does not reset the BLE Stack.
 361:Generated_Source\PSoC4/BLE.c **** * 
 362:Generated_Source\PSoC4/BLE.c **** *  For HCI-Mode of operation, this function will not initialize the BLE Host 
 363:Generated_Source\PSoC4/BLE.c **** *  module.
 364:Generated_Source\PSoC4/BLE.c **** * 
 365:Generated_Source\PSoC4/BLE.c **** *  Calling this function results in the generation of CYBLE_EVT_STACK_ON event
 366:Generated_Source\PSoC4/BLE.c **** *  on successful initialization of the BLE Stack.
 367:Generated_Source\PSoC4/BLE.c **** * 
 368:Generated_Source\PSoC4/BLE.c **** *  \param callbackFunc: Event callback function to receive events from BLE stack.
 369:Generated_Source\PSoC4/BLE.c **** *   CYBLE_CALLBACK_T is a function pointer type.
 370:Generated_Source\PSoC4/BLE.c **** * 
 371:Generated_Source\PSoC4/BLE.c **** * \return
 372:Generated_Source\PSoC4/BLE.c **** *  CYBLE_API_RESULT_T : Return value indicates if the function succeeded or 
 373:Generated_Source\PSoC4/BLE.c **** *  failed. Following are the possible error codes.
ARM GAS  C:\Users\user\AppData\Local\Temp\ccfIoC7d.s 			page 8


 374:Generated_Source\PSoC4/BLE.c **** * 
 375:Generated_Source\PSoC4/BLE.c **** *   <table>
 376:Generated_Source\PSoC4/BLE.c **** *  	  <tr>
 377:Generated_Source\PSoC4/BLE.c **** *       <th>Error codes</th>
 378:Generated_Source\PSoC4/BLE.c **** *       <th>Description</th>
 379:Generated_Source\PSoC4/BLE.c **** *     </tr>
 380:Generated_Source\PSoC4/BLE.c **** *     <tr>
 381:Generated_Source\PSoC4/BLE.c **** *       <td>CYBLE_ERROR_OK</td>
 382:Generated_Source\PSoC4/BLE.c **** *       <td>On successful operation.</td>
 383:Generated_Source\PSoC4/BLE.c **** *     </tr>
 384:Generated_Source\PSoC4/BLE.c **** *     <tr>
 385:Generated_Source\PSoC4/BLE.c **** *       <td>CYBLE_ERROR_INVALID_PARAMETER</td>
 386:Generated_Source\PSoC4/BLE.c **** *       <td>On passing a NULL pointer to the function. 
 387:Generated_Source\PSoC4/BLE.c **** *		</td>
 388:Generated_Source\PSoC4/BLE.c **** *     </tr>
 389:Generated_Source\PSoC4/BLE.c **** *     <tr>
 390:Generated_Source\PSoC4/BLE.c **** *       <td>CYBLE_ERROR_REPEATED_ATTEMPTS</td>
 391:Generated_Source\PSoC4/BLE.c **** *       <td>On invoking this function more than once without calling CyBle_Shutdown() 
 392:Generated_Source\PSoC4/BLE.c **** *           function between calls to this function.</td>
 393:Generated_Source\PSoC4/BLE.c **** *     </tr>
 394:Generated_Source\PSoC4/BLE.c **** *     <tr>
 395:Generated_Source\PSoC4/BLE.c **** *       <td>CYBLE_ERROR_MEMORY_ALLOCATION_FAILED</td>
 396:Generated_Source\PSoC4/BLE.c **** *       <td>There is insufficient memory available.</td>
 397:Generated_Source\PSoC4/BLE.c **** *     </tr>
 398:Generated_Source\PSoC4/BLE.c **** *   </table>
 399:Generated_Source\PSoC4/BLE.c **** * 
 400:Generated_Source\PSoC4/BLE.c **** *  \globalvars
 401:Generated_Source\PSoC4/BLE.c **** *   The CyBle_initVar variable is used to indicate initial
 402:Generated_Source\PSoC4/BLE.c **** *   configuration of this component. The variable is initialized to zero (0u)
 403:Generated_Source\PSoC4/BLE.c **** *   and set to one (1u) the first time CyBle_Start() is called. This
 404:Generated_Source\PSoC4/BLE.c **** *   allows for component initialization without re-initialization in all
 405:Generated_Source\PSoC4/BLE.c **** *   subsequent calls to the CyBle_Start() routine.
 406:Generated_Source\PSoC4/BLE.c **** * 
 407:Generated_Source\PSoC4/BLE.c **** ******************************************************************************/
 408:Generated_Source\PSoC4/BLE.c **** CYBLE_API_RESULT_T CyBle_Start(CYBLE_CALLBACK_T callbackFunc)
 409:Generated_Source\PSoC4/BLE.c **** {
 410:Generated_Source\PSoC4/BLE.c ****     CYBLE_API_RESULT_T apiResult = CYBLE_ERROR_OK;
 411:Generated_Source\PSoC4/BLE.c ****     
 412:Generated_Source\PSoC4/BLE.c ****     #if(CYBLE_MODE_PROFILE)
 413:Generated_Source\PSoC4/BLE.c ****     
 414:Generated_Source\PSoC4/BLE.c ****     CYBLE_STK_APP_DATA_BUFF_T cyBle_stackDataBuff[CYBLE_STACK_APP_MIN_POOL] = 
 415:Generated_Source\PSoC4/BLE.c ****     {
 416:Generated_Source\PSoC4/BLE.c ****         {CYBLE_GATT_MTU_PLUS_L2CAP_MEM_EXT, CYBLE_GATT_MTU_BUFF_COUNT + CYBLE_GATT_MAX_ATTR_BUFF_CO
 417:Generated_Source\PSoC4/BLE.c ****         {CYBLE_L2CAP_PSM_PLUS_L2CAP_MEM_EXT, CYBLE_L2CAP_PSM_COUNT},
 418:Generated_Source\PSoC4/BLE.c ****         {CYBLE_L2CAP_CBFC_PLUS_L2CAP_MEM_EXT, 2u * CYBLE_L2CAP_LOGICAL_CHANNEL_COUNT},
 419:Generated_Source\PSoC4/BLE.c ****         {CYBLE_L2CAP_MTU_PLUS_L2CAP_MEM_EXT, CYBLE_L2CAP_LOGICAL_CHANNEL_COUNT},
 420:Generated_Source\PSoC4/BLE.c ****         {CYBLE_L2CAP_MPS_PLUS_L2CAP_MEM_EXT, CYBLE_L2CAP_LOGICAL_CHANNEL_COUNT * (CYBLE_L2CAP_MTU_M
 421:Generated_Source\PSoC4/BLE.c ****     }; 
 422:Generated_Source\PSoC4/BLE.c **** 
 423:Generated_Source\PSoC4/BLE.c ****     #endif /* CYBLE_MODE_PROFILE */
 424:Generated_Source\PSoC4/BLE.c ****     
 425:Generated_Source\PSoC4/BLE.c ****     /* If not initialized then initialize all the required hardware and software */
 426:Generated_Source\PSoC4/BLE.c ****     if(cyBle_initVar == 0u)
 427:Generated_Source\PSoC4/BLE.c ****     {
 428:Generated_Source\PSoC4/BLE.c ****         CyBle_Init();
 429:Generated_Source\PSoC4/BLE.c ****         cyBle_initVar = 1u;
 430:Generated_Source\PSoC4/BLE.c ****     }
ARM GAS  C:\Users\user\AppData\Local\Temp\ccfIoC7d.s 			page 9


 431:Generated_Source\PSoC4/BLE.c ****     
 432:Generated_Source\PSoC4/BLE.c ****     if(callbackFunc != NULL)
 433:Generated_Source\PSoC4/BLE.c ****     {
 434:Generated_Source\PSoC4/BLE.c ****         CyBle_ApplCallback = callbackFunc;
 435:Generated_Source\PSoC4/BLE.c ****         
 436:Generated_Source\PSoC4/BLE.c ****     #if(CYBLE_SHARING_MODE_EXPORT)
 437:Generated_Source\PSoC4/BLE.c ****         if(cyBle_stackMemoryRam == NULL)
 438:Generated_Source\PSoC4/BLE.c ****         {
 439:Generated_Source\PSoC4/BLE.c ****             cyBle_stackMemoryRam = (uint8 *)malloc(CYBLE_STACK_RAM_SIZE);
 440:Generated_Source\PSoC4/BLE.c ****             if(cyBle_stackMemoryRam == NULL)
 441:Generated_Source\PSoC4/BLE.c ****             {
 442:Generated_Source\PSoC4/BLE.c ****                 apiResult = CYBLE_ERROR_MEMORY_ALLOCATION_FAILED;
 443:Generated_Source\PSoC4/BLE.c ****             }
 444:Generated_Source\PSoC4/BLE.c ****         }
 445:Generated_Source\PSoC4/BLE.c ****     #endif /* CYBLE_SHARING_MODE_EXPORT */
 446:Generated_Source\PSoC4/BLE.c ****         if(apiResult == CYBLE_ERROR_OK)
 447:Generated_Source\PSoC4/BLE.c ****         {
 448:Generated_Source\PSoC4/BLE.c ****             CYBLE_DLE_CONFIG_PARAM_T dleConfigParams;
 449:Generated_Source\PSoC4/BLE.c ****             CYBLE_PRIVACY_1_2_CONFIG_PARAM_T privacyConfigParams;
 450:Generated_Source\PSoC4/BLE.c ****             CYBLE_STACK_CONFIG_PARAM_T stackConfig;
 451:Generated_Source\PSoC4/BLE.c ****             uint16 featureHeapReq;
 452:Generated_Source\PSoC4/BLE.c ****             
 453:Generated_Source\PSoC4/BLE.c ****             stackConfig.privacyConfig = &privacyConfigParams;
 454:Generated_Source\PSoC4/BLE.c ****             stackConfig.dleConfig = &dleConfigParams;
 455:Generated_Source\PSoC4/BLE.c ****             
 456:Generated_Source\PSoC4/BLE.c ****             /* Configure default BLE 4.1 features and enabled 4.2 features */
 457:Generated_Source\PSoC4/BLE.c ****             stackConfig.feature_mask = CYBLE_DLE_FEATURE | CYBLE_LL_PRIVACY_FEATURE | 
 458:Generated_Source\PSoC4/BLE.c ****                                        CYBLE_SECURE_CONN_FEATURE;
 459:Generated_Source\PSoC4/BLE.c **** 
 460:Generated_Source\PSoC4/BLE.c ****             /* Configure DLE */
 461:Generated_Source\PSoC4/BLE.c ****             dleConfigParams.dleMaxTxCapability = CYBLE_LL_MAX_TX_PAYLOAD_SIZE;
 462:Generated_Source\PSoC4/BLE.c ****             dleConfigParams.dleMaxRxCapability = CYBLE_LL_MAX_RX_PAYLOAD_SIZE;
 463:Generated_Source\PSoC4/BLE.c ****             dleConfigParams.dleNumTxBuffer = CYBLE_LL_DEFAULT_NUM_ACL_TX_PACKETS;
 464:Generated_Source\PSoC4/BLE.c ****         #if(CYBLE_DLE_FEATURE_ENABLED)
 465:Generated_Source\PSoC4/BLE.c ****             CyBle_EnableDleFeature();              /* Enable DLE code in stack */
 466:Generated_Source\PSoC4/BLE.c ****         #endif /* CYBLE_DLE_FEATURE_ENABLED */
 467:Generated_Source\PSoC4/BLE.c ****         
 468:Generated_Source\PSoC4/BLE.c ****             /* Configure LL Privacy */
 469:Generated_Source\PSoC4/BLE.c ****             privacyConfigParams.resolvingListSize = CYBLE_MAX_RESOLVABLE_DEVICES;
 470:Generated_Source\PSoC4/BLE.c ****         #if(CYBLE_LL_PRIVACY_FEATURE_ENABLED)
 471:Generated_Source\PSoC4/BLE.c ****             CyBle_EnablePrivacyFeature();          /* Enable LL Privacy code in stack */
 472:Generated_Source\PSoC4/BLE.c ****         #endif /* CYBLE_LL_PRIVACY_FEATURE_ENABLED */
 473:Generated_Source\PSoC4/BLE.c **** 
 474:Generated_Source\PSoC4/BLE.c ****             apiResult = CyBle_StackSetFeatureConfig(&stackConfig, &featureHeapReq);
 475:Generated_Source\PSoC4/BLE.c ****             }
 476:Generated_Source\PSoC4/BLE.c ****     
 477:Generated_Source\PSoC4/BLE.c ****         if(apiResult == CYBLE_ERROR_OK)
 478:Generated_Source\PSoC4/BLE.c ****         {
 479:Generated_Source\PSoC4/BLE.c ****         
 480:Generated_Source\PSoC4/BLE.c ****         #if(CYBLE_MODE_PROFILE)
 481:Generated_Source\PSoC4/BLE.c ****             #if(CYBLE_BONDING_REQUIREMENT == CYBLE_BONDING_YES)
 482:Generated_Source\PSoC4/BLE.c ****                 apiResult = CyBle_StackInit(&CyBle_EventHandler, cyBle_stackMemoryRam, 
 483:Generated_Source\PSoC4/BLE.c ****                     CYBLE_STACK_RAM_SIZE - CYBLE_GATT_PREPARE_WRITE_BUFF_LEN, cyBle_stackDataBuff, 
 484:Generated_Source\PSoC4/BLE.c ****                     CYBLE_STACK_APP_MIN_POOL, cyBle_flashStorage.stackFlashptr, CYBLE_STACK_FLASH_S
 485:Generated_Source\PSoC4/BLE.c ****             #else
 486:Generated_Source\PSoC4/BLE.c ****                 apiResult = CyBle_StackInit(&CyBle_EventHandler, cyBle_stackMemoryRam, 
 487:Generated_Source\PSoC4/BLE.c ****                     CYBLE_STACK_RAM_SIZE - CYBLE_GATT_PREPARE_WRITE_BUFF_LEN, cyBle_stackDataBuff, 
ARM GAS  C:\Users\user\AppData\Local\Temp\ccfIoC7d.s 			page 10


 488:Generated_Source\PSoC4/BLE.c ****                     CYBLE_STACK_APP_MIN_POOL, NULL, 0u);
 489:Generated_Source\PSoC4/BLE.c ****             #endif  /* CYBLE_BONDING_REQUIREMENT == CYBLE_BONDING_YES */
 490:Generated_Source\PSoC4/BLE.c ****         #else /* HCI mode */
 491:Generated_Source\PSoC4/BLE.c ****             /* The following will perform preparation to use HCI over UART or over
 492:Generated_Source\PSoC4/BLE.c ****                software. But the following fucntions will not initialize the HCI
 493:Generated_Source\PSoC4/BLE.c ****                Transport. This will be done as part of Stack initialization, so
 494:Generated_Source\PSoC4/BLE.c ****                the functions should be called prior CyBle_StackInit().
 495:Generated_Source\PSoC4/BLE.c ****             */
 496:Generated_Source\PSoC4/BLE.c ****             #if (CYBLE_HCI_TYPE == CYBLE_HCI_OVER_UART)
 497:Generated_Source\PSoC4/BLE.c ****                 CyBle_HciUartTransportEnable();
 498:Generated_Source\PSoC4/BLE.c ****             #else
 499:Generated_Source\PSoC4/BLE.c ****                 CyBle_HciSoftTransportEnable();
 500:Generated_Source\PSoC4/BLE.c ****             #endif /* (CYBLE_HCI_TYPE == CYBLE_HCI_OVER_UART) */
 501:Generated_Source\PSoC4/BLE.c ****             /* This will initialize BLE stack for HCI mode operation */
 502:Generated_Source\PSoC4/BLE.c ****             apiResult = CyBle_StackInit(&CyBle_EventHandler, cyBle_stackMemoryRam, CYBLE_STACK_RAM_
 503:Generated_Source\PSoC4/BLE.c ****                 NULL, 0u, NULL, 0u);
 504:Generated_Source\PSoC4/BLE.c ****         #endif /* CYBLE_MODE_PROFILE */
 505:Generated_Source\PSoC4/BLE.c **** 
 506:Generated_Source\PSoC4/BLE.c ****             if(apiResult == CYBLE_ERROR_OK)
 507:Generated_Source\PSoC4/BLE.c ****             {
 508:Generated_Source\PSoC4/BLE.c ****                 CyBle_SetState(CYBLE_STATE_INITIALIZING);
 509:Generated_Source\PSoC4/BLE.c ****                 
 510:Generated_Source\PSoC4/BLE.c ****             #if (CYBLE_GATT_ROLE_CLIENT)
 511:Generated_Source\PSoC4/BLE.c ****                 CyBle_SetClientState(CYBLE_CLIENT_STATE_DISCONNECTED);
 512:Generated_Source\PSoC4/BLE.c ****             #endif /* CYBLE_GATT_ROLE_CLIENT */
 513:Generated_Source\PSoC4/BLE.c ****                 
 514:Generated_Source\PSoC4/BLE.c ****             #if(CYBLE_GATT_ROLE_SERVER)
 515:Generated_Source\PSoC4/BLE.c ****                 apiResult = CyBle_GattsDbRegister(cyBle_gattDB, CYBLE_GATT_DB_INDEX_COUNT, CYBLE_GA
 516:Generated_Source\PSoC4/BLE.c ****             #endif /* CYBLE_GATT_ROLE_SERVER */
 517:Generated_Source\PSoC4/BLE.c ****             }
 518:Generated_Source\PSoC4/BLE.c ****         }
 519:Generated_Source\PSoC4/BLE.c ****     }
 520:Generated_Source\PSoC4/BLE.c ****     else
 521:Generated_Source\PSoC4/BLE.c ****     {
 522:Generated_Source\PSoC4/BLE.c ****         apiResult = CYBLE_ERROR_INVALID_PARAMETER;
 523:Generated_Source\PSoC4/BLE.c ****     }
 524:Generated_Source\PSoC4/BLE.c **** 
 525:Generated_Source\PSoC4/BLE.c ****     return (apiResult);
 526:Generated_Source\PSoC4/BLE.c **** }
 527:Generated_Source\PSoC4/BLE.c **** 
 528:Generated_Source\PSoC4/BLE.c **** 
 529:Generated_Source\PSoC4/BLE.c **** /******************************************************************************
 530:Generated_Source\PSoC4/BLE.c **** * Function Name: CyBle_Stop
 531:Generated_Source\PSoC4/BLE.c **** ***************************************************************************//**
 532:Generated_Source\PSoC4/BLE.c **** * 
 533:Generated_Source\PSoC4/BLE.c **** *  This function stops any ongoing operation in the BLE Stack and forces the 
 534:Generated_Source\PSoC4/BLE.c **** *  BLE Stack to shut down. The only function that can be called after calling
 535:Generated_Source\PSoC4/BLE.c **** *  this function is CyBle_Start(). 
 536:Generated_Source\PSoC4/BLE.c **** * 
 537:Generated_Source\PSoC4/BLE.c **** * \return
 538:Generated_Source\PSoC4/BLE.c **** *  None
 539:Generated_Source\PSoC4/BLE.c **** * 
 540:Generated_Source\PSoC4/BLE.c **** ******************************************************************************/
 541:Generated_Source\PSoC4/BLE.c **** void CyBle_Stop(void)
 542:Generated_Source\PSoC4/BLE.c **** {
 543:Generated_Source\PSoC4/BLE.c ****     CyBle_Shutdown();                         /* Stop all ongoing activities */
 544:Generated_Source\PSoC4/BLE.c ****     CyBle_SetState(CYBLE_STATE_STOPPED);
ARM GAS  C:\Users\user\AppData\Local\Temp\ccfIoC7d.s 			page 11


 545:Generated_Source\PSoC4/BLE.c ****     #if(CYBLE_SHARING_MODE_EXPORT)
 546:Generated_Source\PSoC4/BLE.c ****         if(cyBle_stackMemoryRam != NULL)
 547:Generated_Source\PSoC4/BLE.c ****         {
 548:Generated_Source\PSoC4/BLE.c ****             free(cyBle_stackMemoryRam);
 549:Generated_Source\PSoC4/BLE.c ****         }
 550:Generated_Source\PSoC4/BLE.c ****     #endif /* CYBLE_SHARING_MODE_EXPORT */
 551:Generated_Source\PSoC4/BLE.c **** }
 552:Generated_Source\PSoC4/BLE.c **** 
 553:Generated_Source\PSoC4/BLE.c **** 
 554:Generated_Source\PSoC4/BLE.c **** #if((CYBLE_GAP_ROLE_PERIPHERAL || CYBLE_GAP_ROLE_CENTRAL) && (CYBLE_BONDING_REQUIREMENT == CYBLE_BO
 555:Generated_Source\PSoC4/BLE.c **** 
 556:Generated_Source\PSoC4/BLE.c ****     
 557:Generated_Source\PSoC4/BLE.c **** /******************************************************************************
 558:Generated_Source\PSoC4/BLE.c **** * Function Name: CyBle_StoreBondingData
 559:Generated_Source\PSoC4/BLE.c **** ***************************************************************************//**
 560:Generated_Source\PSoC4/BLE.c **** * 
 561:Generated_Source\PSoC4/BLE.c **** *  This function writes the new bonding data from RAM to the dedicated Flash 
 562:Generated_Source\PSoC4/BLE.c **** *  location as defined by the component. It performs data comparing between RAM
 563:Generated_Source\PSoC4/BLE.c **** *  and Flash before writing to Flash. If there is no change between RAM and Flash
 564:Generated_Source\PSoC4/BLE.c **** *  data, then no write is performed. It writes only one flash row in one call.
 565:Generated_Source\PSoC4/BLE.c **** *  Application should keep calling this function till it return CYBLE_ERROR_OK. 
 566:Generated_Source\PSoC4/BLE.c **** *  This function is available only when Bonding requirement is selected in
 567:Generated_Source\PSoC4/BLE.c **** *  Security settings.    
 568:Generated_Source\PSoC4/BLE.c **** * 
 569:Generated_Source\PSoC4/BLE.c **** *  \param isForceWrite:  If value is set to 0, then stack will check if flash write 
 570:Generated_Source\PSoC4/BLE.c **** *                 is permissible. 
 571:Generated_Source\PSoC4/BLE.c **** *  
 572:Generated_Source\PSoC4/BLE.c **** * \return
 573:Generated_Source\PSoC4/BLE.c **** *  Return value is of type CYBLE_API_RESULT_T.
 574:Generated_Source\PSoC4/BLE.c **** *
 575:Generated_Source\PSoC4/BLE.c **** *   Errors codes                         | Description
 576:Generated_Source\PSoC4/BLE.c **** *   ----------------------------------   | ------------------------------------
 577:Generated_Source\PSoC4/BLE.c **** *   CYBLE_ERROR_OK                       | On successful operation
 578:Generated_Source\PSoC4/BLE.c **** *   CYBLE_ERROR_FLASH_WRITE_NOT_PERMITED | Flash Write is not complete
 579:Generated_Source\PSoC4/BLE.c **** *   CYBLE_ERROR_INVALID_PARAMETER        | Invalid input parameter  
 580:Generated_Source\PSoC4/BLE.c **** *   CYBLE_ERROR_FLASH_WRITE              | Error in flash Write	
 581:Generated_Source\PSoC4/BLE.c ****     
 582:Generated_Source\PSoC4/BLE.c **** *  \sideeffect
 583:Generated_Source\PSoC4/BLE.c **** *   For BLE devices with 128K of Flash memory this function will automatically 
 584:Generated_Source\PSoC4/BLE.c **** *   modify the clock settings for the device.
 585:Generated_Source\PSoC4/BLE.c **** *   Writing to flash requires changes to be done to the IMO (set to 48 MHz)
 586:Generated_Source\PSoC4/BLE.c **** *   and HFCLK (source set to IMO) settings. The configuration is restored before
 587:Generated_Source\PSoC4/BLE.c **** *   returning. This will impact the operation of most of the hardware in the
 588:Generated_Source\PSoC4/BLE.c **** *   device.
 589:Generated_Source\PSoC4/BLE.c **** * 
 590:Generated_Source\PSoC4/BLE.c **** *  \globalvars
 591:Generated_Source\PSoC4/BLE.c **** *   The cyBle_pendingFlashWrite variable is used to detect status
 592:Generated_Source\PSoC4/BLE.c **** *   of pending write to flash operation for stack data and CCCD.
 593:Generated_Source\PSoC4/BLE.c **** *   This function automatically clears pending bits after write operation 
 594:Generated_Source\PSoC4/BLE.c **** *   complete.
 595:Generated_Source\PSoC4/BLE.c **** *     
 596:Generated_Source\PSoC4/BLE.c **** ******************************************************************************/
 597:Generated_Source\PSoC4/BLE.c **** CYBLE_API_RESULT_T CyBle_StoreBondingData(uint8 isForceWrite)
 598:Generated_Source\PSoC4/BLE.c **** {
 599:Generated_Source\PSoC4/BLE.c ****     CYBLE_API_RESULT_T apiResult = CYBLE_ERROR_OK;
 600:Generated_Source\PSoC4/BLE.c ****     
 601:Generated_Source\PSoC4/BLE.c ****     /* Store Stack data */
ARM GAS  C:\Users\user\AppData\Local\Temp\ccfIoC7d.s 			page 12


 602:Generated_Source\PSoC4/BLE.c ****     if((cyBle_pendingFlashWrite & CYBLE_PENDING_STACK_FLASH_WRITE_BIT) != 0u)
 603:Generated_Source\PSoC4/BLE.c ****     {
 604:Generated_Source\PSoC4/BLE.c ****         apiResult = CyBle_StoreStackData(isForceWrite);
 605:Generated_Source\PSoC4/BLE.c ****         if(apiResult == CYBLE_ERROR_OK)
 606:Generated_Source\PSoC4/BLE.c ****         {
 607:Generated_Source\PSoC4/BLE.c ****             cyBle_pendingFlashWrite &= (uint8)~CYBLE_PENDING_STACK_FLASH_WRITE_BIT;
 608:Generated_Source\PSoC4/BLE.c ****             /* Change apiResult if there are more pending data to store */
 609:Generated_Source\PSoC4/BLE.c ****             if((cyBle_pendingFlashWrite & CYBLE_PENDING_CCCD_FLASH_WRITE_BIT) != 0u)
 610:Generated_Source\PSoC4/BLE.c ****             {
 611:Generated_Source\PSoC4/BLE.c ****                 apiResult = CYBLE_ERROR_FLASH_WRITE_NOT_PERMITED;
 612:Generated_Source\PSoC4/BLE.c ****             }
 613:Generated_Source\PSoC4/BLE.c ****         }
 614:Generated_Source\PSoC4/BLE.c ****     }
 615:Generated_Source\PSoC4/BLE.c **** #if(CYBLE_GATT_DB_CCCD_COUNT != 0u)
 616:Generated_Source\PSoC4/BLE.c ****     /* Store CCCD values */
 617:Generated_Source\PSoC4/BLE.c ****     if( ((apiResult == CYBLE_ERROR_OK) || (isForceWrite != 0u)) && 
 618:Generated_Source\PSoC4/BLE.c ****         ((cyBle_pendingFlashWrite & CYBLE_PENDING_CCCD_FLASH_WRITE_BIT) != 0u) &&
 619:Generated_Source\PSoC4/BLE.c ****         (cyBle_connHandle.bdHandle <= CYBLE_GAP_MAX_BONDED_DEVICE))
 620:Generated_Source\PSoC4/BLE.c ****     {
 621:Generated_Source\PSoC4/BLE.c ****         apiResult = CyBle_StoreAppData(cyBle_attValuesCCCD, cyBle_flashStorage.attValuesCCCDFlashMe
 622:Generated_Source\PSoC4/BLE.c ****                         cyBle_connHandle.bdHandle], CYBLE_GATT_DB_CCCD_COUNT, isForceWrite);
 623:Generated_Source\PSoC4/BLE.c ****         if(apiResult == CYBLE_ERROR_OK)
 624:Generated_Source\PSoC4/BLE.c ****         {
 625:Generated_Source\PSoC4/BLE.c ****             cyBle_pendingFlashWrite &= (uint8)~CYBLE_PENDING_CCCD_FLASH_WRITE_BIT;
 626:Generated_Source\PSoC4/BLE.c ****         }
 627:Generated_Source\PSoC4/BLE.c ****     }
 628:Generated_Source\PSoC4/BLE.c ****     /* Clear requested CCCD values */
 629:Generated_Source\PSoC4/BLE.c ****     if( ((apiResult == CYBLE_ERROR_OK) || (isForceWrite != 0u)) && 
 630:Generated_Source\PSoC4/BLE.c ****         ((cyBle_pendingFlashWrite & CYBLE_PENDING_CCCD_FLASH_CLEAR_MASK) != 0u) )
 631:Generated_Source\PSoC4/BLE.c ****     {
 632:Generated_Source\PSoC4/BLE.c ****         if((cyBle_pendingFlashWrite & CYBLE_PENDING_CCCD_FLASH_CLEAR_ALL_BIT) != 0u)
 633:Generated_Source\PSoC4/BLE.c ****         {
 634:Generated_Source\PSoC4/BLE.c ****             /* Remove cccd values for all bonded devices */
 635:Generated_Source\PSoC4/BLE.c ****             uint8 defaultValuesCCCD[CYBLE_GAP_MAX_BONDED_DEVICE + 1u][CYBLE_GATT_DB_CCCD_COUNT];
 636:Generated_Source\PSoC4/BLE.c ****             
 637:Generated_Source\PSoC4/BLE.c ****             (void)memset(defaultValuesCCCD, 0, sizeof(defaultValuesCCCD));
 638:Generated_Source\PSoC4/BLE.c **** 
 639:Generated_Source\PSoC4/BLE.c ****             apiResult = CyBle_StoreAppData((uint8 *)defaultValuesCCCD, 
 640:Generated_Source\PSoC4/BLE.c ****                 (const uint8 *)cyBle_flashStorage.attValuesCCCDFlashMemory, sizeof(defaultValuesCCC
 641:Generated_Source\PSoC4/BLE.c ****             if(apiResult == CYBLE_ERROR_OK)
 642:Generated_Source\PSoC4/BLE.c ****             {
 643:Generated_Source\PSoC4/BLE.c ****                 cyBle_pendingFlashWrite &= (uint8)~CYBLE_PENDING_CCCD_FLASH_CLEAR_ALL_BIT;
 644:Generated_Source\PSoC4/BLE.c ****             }
 645:Generated_Source\PSoC4/BLE.c ****         }
 646:Generated_Source\PSoC4/BLE.c ****         else /* Remove cccd values for particular device */
 647:Generated_Source\PSoC4/BLE.c ****         {
 648:Generated_Source\PSoC4/BLE.c ****             uint8 defaultValuesCCCD[CYBLE_GATT_DB_CCCD_COUNT] = {0u};
 649:Generated_Source\PSoC4/BLE.c ****             
 650:Generated_Source\PSoC4/BLE.c ****             apiResult = CyBle_StoreAppData(defaultValuesCCCD, cyBle_flashStorage.attValuesCCCDFlash
 651:Generated_Source\PSoC4/BLE.c ****                                     cyBle_pendingFlashClearCccdHandle], CYBLE_GATT_DB_CCCD_COUNT, i
 652:Generated_Source\PSoC4/BLE.c ****             if(apiResult == CYBLE_ERROR_OK)
 653:Generated_Source\PSoC4/BLE.c ****             {
 654:Generated_Source\PSoC4/BLE.c ****                 cyBle_pendingFlashWrite &= (uint8)~CYBLE_PENDING_CCCD_FLASH_CLEAR_BIT;
 655:Generated_Source\PSoC4/BLE.c ****             }
 656:Generated_Source\PSoC4/BLE.c ****         }
 657:Generated_Source\PSoC4/BLE.c ****     }
 658:Generated_Source\PSoC4/BLE.c **** #endif /* CYBLE_GATT_DB_CCCD_COUNT != 0u */
ARM GAS  C:\Users\user\AppData\Local\Temp\ccfIoC7d.s 			page 13


 659:Generated_Source\PSoC4/BLE.c ****     return(apiResult);
 660:Generated_Source\PSoC4/BLE.c **** }
 661:Generated_Source\PSoC4/BLE.c **** 
 662:Generated_Source\PSoC4/BLE.c **** 
 663:Generated_Source\PSoC4/BLE.c **** /******************************************************************************
 664:Generated_Source\PSoC4/BLE.c **** * Function Name: CyBle_GapRemoveBondedDevice
 665:Generated_Source\PSoC4/BLE.c **** ***************************************************************************//**
 666:Generated_Source\PSoC4/BLE.c **** * 
 667:Generated_Source\PSoC4/BLE.c **** *  This function marks the device untrusted. It removes the bonding information
 668:Generated_Source\PSoC4/BLE.c **** *  of the device including CCCD values. This function removes device from the
 669:Generated_Source\PSoC4/BLE.c **** *  white list also when autopopulate white list with bonded devices option is
 670:Generated_Source\PSoC4/BLE.c **** *  enabled.
 671:Generated_Source\PSoC4/BLE.c **** * 
 672:Generated_Source\PSoC4/BLE.c **** *  This function is available only when Bonding requirement is selected in
 673:Generated_Source\PSoC4/BLE.c **** *  Security settings.    
 674:Generated_Source\PSoC4/BLE.c **** *
 675:Generated_Source\PSoC4/BLE.c **** *  \param bdAddr: Pointer to peer device address, of type CYBLE_GAP_BD_ADDR_T.
 676:Generated_Source\PSoC4/BLE.c **** *                 If device address is set to 0, then all devices shall be
 677:Generated_Source\PSoC4/BLE.c **** *                 removed from trusted list and white list.
 678:Generated_Source\PSoC4/BLE.c **** *
 679:Generated_Source\PSoC4/BLE.c **** * \return
 680:Generated_Source\PSoC4/BLE.c **** *  CYBLE_API_RESULT_T : Return value indicates if the function succeeded or
 681:Generated_Source\PSoC4/BLE.c **** *  failed. Following are the possible error codes.
 682:Generated_Source\PSoC4/BLE.c **** *
 683:Generated_Source\PSoC4/BLE.c **** *   Errors codes                     | Description
 684:Generated_Source\PSoC4/BLE.c **** *   ---------------------------------| ------------------------------------
 685:Generated_Source\PSoC4/BLE.c **** *   CYBLE_ERROR_OK                   | On successful operation.
 686:Generated_Source\PSoC4/BLE.c **** *   CYBLE_ERROR_INVALID_PARAMETER    | On specifying NULL as input parameter for 'bdAddr'.
 687:Generated_Source\PSoC4/BLE.c **** *   CYBLE_ERROR_INVALID_OPERATION    | Whitelist is already in use or there is pending write to fla
 688:Generated_Source\PSoC4/BLE.c **** *   CYBLE_ERROR_NO_DEVICE_ENTITY     | Device does not exist in the bond list.
 689:Generated_Source\PSoC4/BLE.c **** *
 690:Generated_Source\PSoC4/BLE.c **** *  \globalvars
 691:Generated_Source\PSoC4/BLE.c **** *   The bdHandle is set in cyBle_pendingFlashWrite variable to indicate that
 692:Generated_Source\PSoC4/BLE.c **** *   data should be stored to flash by CyBle_StoreBondingData() afterwards. 
 693:Generated_Source\PSoC4/BLE.c **** *     
 694:Generated_Source\PSoC4/BLE.c **** ******************************************************************************/
 695:Generated_Source\PSoC4/BLE.c **** CYBLE_API_RESULT_T CyBle_GapRemoveBondedDevice(CYBLE_GAP_BD_ADDR_T* bdAddr)
 696:Generated_Source\PSoC4/BLE.c **** {
 697:Generated_Source\PSoC4/BLE.c ****     CYBLE_API_RESULT_T apiResult = CYBLE_ERROR_OK;
 698:Generated_Source\PSoC4/BLE.c ****     
 699:Generated_Source\PSoC4/BLE.c ****     if(cyBle_pendingFlashWrite == 0u)
 700:Generated_Source\PSoC4/BLE.c ****     {
 701:Generated_Source\PSoC4/BLE.c ****         
 702:Generated_Source\PSoC4/BLE.c ****     #if(CYBLE_GATT_DB_CCCD_COUNT != 0u)
 703:Generated_Source\PSoC4/BLE.c ****         /* Request to clear CCCD values which will be done by CyBle_StoreBondingData() */
 704:Generated_Source\PSoC4/BLE.c ****         uint8 bDevHandle;
 705:Generated_Source\PSoC4/BLE.c ****         CYBLE_GAP_BD_ADDR_T invalidBdAddr = {{0u,0u,0u,0u,0u,0u}, 0u};
 706:Generated_Source\PSoC4/BLE.c **** 
 707:Generated_Source\PSoC4/BLE.c ****         if(memcmp(((uint8 *) &(bdAddr->bdAddr)), ((uint8 *) &(invalidBdAddr.bdAddr)), CYBLE_GAP_BD_
 708:Generated_Source\PSoC4/BLE.c **** 	    {
 709:Generated_Source\PSoC4/BLE.c ****             /* Request to remove all bonded devices by CyBle_StoreBondingData() */
 710:Generated_Source\PSoC4/BLE.c ****             cyBle_pendingFlashWrite |= CYBLE_PENDING_CCCD_FLASH_CLEAR_ALL_BIT;
 711:Generated_Source\PSoC4/BLE.c ****         }
 712:Generated_Source\PSoC4/BLE.c ****         else
 713:Generated_Source\PSoC4/BLE.c ****         {
 714:Generated_Source\PSoC4/BLE.c ****             /* Get the BD handle from Address */
 715:Generated_Source\PSoC4/BLE.c ****             apiResult = CyBle_GapGetPeerBdHandle(&bDevHandle, bdAddr);
ARM GAS  C:\Users\user\AppData\Local\Temp\ccfIoC7d.s 			page 14


 716:Generated_Source\PSoC4/BLE.c ****             if(apiResult == CYBLE_ERROR_OK)
 717:Generated_Source\PSoC4/BLE.c ****             {
 718:Generated_Source\PSoC4/BLE.c ****                 /* Store BD handle to clear cccd values by CyBle_StoreBondingData() */
 719:Generated_Source\PSoC4/BLE.c ****                 cyBle_pendingFlashWrite |= CYBLE_PENDING_CCCD_FLASH_CLEAR_BIT;
 720:Generated_Source\PSoC4/BLE.c ****                 cyBle_pendingFlashClearCccdHandle = bDevHandle;
 721:Generated_Source\PSoC4/BLE.c ****             }
 722:Generated_Source\PSoC4/BLE.c ****         }
 723:Generated_Source\PSoC4/BLE.c ****     #endif /* CYBLE_GATT_DB_CCCD_COUNT != 0u */
 724:Generated_Source\PSoC4/BLE.c ****         if(apiResult == CYBLE_ERROR_OK)
 725:Generated_Source\PSoC4/BLE.c ****         {
 726:Generated_Source\PSoC4/BLE.c ****             apiResult = CyBle_GapRemoveDeviceFromWhiteList(bdAddr);
 727:Generated_Source\PSoC4/BLE.c ****         }
 728:Generated_Source\PSoC4/BLE.c ****     }
 729:Generated_Source\PSoC4/BLE.c ****     else
 730:Generated_Source\PSoC4/BLE.c ****     {
 731:Generated_Source\PSoC4/BLE.c ****         apiResult = CYBLE_ERROR_INVALID_OPERATION;
 732:Generated_Source\PSoC4/BLE.c ****     }
 733:Generated_Source\PSoC4/BLE.c ****     
 734:Generated_Source\PSoC4/BLE.c ****     return(apiResult);
 735:Generated_Source\PSoC4/BLE.c **** }
 736:Generated_Source\PSoC4/BLE.c **** 
 737:Generated_Source\PSoC4/BLE.c **** 
 738:Generated_Source\PSoC4/BLE.c **** #endif /* (CYBLE_GAP_ROLE_PERIPHERAL || CYBLE_GAP_ROLE_CENTRAL) && (CYBLE_BONDING_REQUIREMENT == CY
 739:Generated_Source\PSoC4/BLE.c **** 
 740:Generated_Source\PSoC4/BLE.c **** 
 741:Generated_Source\PSoC4/BLE.c **** #if(CYBLE_GAP_ROLE_PERIPHERAL || CYBLE_GAP_ROLE_BROADCASTER)
 742:Generated_Source\PSoC4/BLE.c **** 
 743:Generated_Source\PSoC4/BLE.c ****     /******************************************************************************
 744:Generated_Source\PSoC4/BLE.c ****     *  Function Name: CyBle_GappStartAdvertisement
 745:Generated_Source\PSoC4/BLE.c ****     ***************************************************************************//**
 746:Generated_Source\PSoC4/BLE.c ****     *     
 747:Generated_Source\PSoC4/BLE.c ****     *  This function is used to start the advertisement using the advertisement data 
 748:Generated_Source\PSoC4/BLE.c ****     *  set in the component customizer's GUI. After invoking this function, the 
 749:Generated_Source\PSoC4/BLE.c ****     *  device will be available for connection by the devices configured for GAP 
 750:Generated_Source\PSoC4/BLE.c ****     *  central role. It is only included if the device is configured for GAP 
 751:Generated_Source\PSoC4/BLE.c ****     *  Peripheral or GAP Peripheral + Central role.
 752:Generated_Source\PSoC4/BLE.c ****     *  
 753:Generated_Source\PSoC4/BLE.c ****     *  On start of advertisement, GAP Peripheral receives the
 754:Generated_Source\PSoC4/BLE.c ****     *  CYBLE_EVT_GAPP_ADVERTISEMENT_START_STOP event. The following events are 
 755:Generated_Source\PSoC4/BLE.c ****     *  possible on invoking this function:
 756:Generated_Source\PSoC4/BLE.c ****     *  
 757:Generated_Source\PSoC4/BLE.c ****     *  * CYBLE_EVT_GAP_DEVICE_CONNECTED - If the device connects to a GAP Central and 
 758:Generated_Source\PSoC4/BLE.c ****     *    Link Layer Privacy is disabled in component customizer.
 759:Generated_Source\PSoC4/BLE.c ****     *  * CYBLE_EVT_GAP_ENHANCE_CONN_COMPLETE - If the device connects to a GAP Central and 
 760:Generated_Source\PSoC4/BLE.c ****     *    Link Layer Privacy is enabled in component customizer.
 761:Generated_Source\PSoC4/BLE.c ****     *  * CYBLE_EVT_TIMEOUT: If no device in GAP Central mode connects to this 
 762:Generated_Source\PSoC4/BLE.c ****     *                       device within the specified timeout limit. Stack 
 763:Generated_Source\PSoC4/BLE.c ****     *                       automatically initiate stop advertising when Slow 
 764:Generated_Source\PSoC4/BLE.c ****     *                       advertising was initiated, or starts Slow advertising
 765:Generated_Source\PSoC4/BLE.c ****     *                       after Fast advertising timeout occur.
 766:Generated_Source\PSoC4/BLE.c ****     *  * CYBLE_EVT_GAPP_ADVERTISEMENT_START_STOP: If device started or stopped
 767:Generated_Source\PSoC4/BLE.c ****     *                                               advertising. Use CyBle_GetState()
 768:Generated_Source\PSoC4/BLE.c ****     *                                               to determine the state. Sequential 
 769:Generated_Source\PSoC4/BLE.c ****     *                                               advertising could be started when
 770:Generated_Source\PSoC4/BLE.c ****     *                                               CYBLE_STATE_DISCONNECTED state is
 771:Generated_Source\PSoC4/BLE.c ****     *                                               returned.
 772:Generated_Source\PSoC4/BLE.c ****     * 
ARM GAS  C:\Users\user\AppData\Local\Temp\ccfIoC7d.s 			page 15


 773:Generated_Source\PSoC4/BLE.c ****     *  \param advertisingIntervalType: Fast or slow advertising interval with timings
 774:Generated_Source\PSoC4/BLE.c ****     *                                 entered in Advertising settings section of the
 775:Generated_Source\PSoC4/BLE.c ****     *                                 customizer.
 776:Generated_Source\PSoC4/BLE.c ****     *  * CYBLE_ADVERTISING_FAST   0x00u
 777:Generated_Source\PSoC4/BLE.c ****     *  * CYBLE_ADVERTISING_SLOW   0x01u
 778:Generated_Source\PSoC4/BLE.c ****     *  * CYBLE_ADVERTISING_CUSTOM 0x02u
 779:Generated_Source\PSoC4/BLE.c ****     * 
 780:Generated_Source\PSoC4/BLE.c ****     * \return
 781:Generated_Source\PSoC4/BLE.c ****     *  CYBLE_API_RESULT_T : Return value indicates if the function succeeded or
 782:Generated_Source\PSoC4/BLE.c ****     *  failed. Following are the possible error codes.
 783:Generated_Source\PSoC4/BLE.c ****     * 
 784:Generated_Source\PSoC4/BLE.c ****     *   Errors codes                      |  Description
 785:Generated_Source\PSoC4/BLE.c ****     *   --------------------------------- |  --------------------------------
 786:Generated_Source\PSoC4/BLE.c ****     *   CYBLE_ERROR_OK                    |  On successful operation.
 787:Generated_Source\PSoC4/BLE.c ****     *   CYBLE_ERROR_INVALID_PARAMETER     |  On passing an invalid parameter.
 788:Generated_Source\PSoC4/BLE.c ****     *   CYBLE_ERROR_INVALID_STATE         |  On calling this function not in Disconnected state.
 789:Generated_Source\PSoC4/BLE.c ****     *
 790:Generated_Source\PSoC4/BLE.c ****     * 
 791:Generated_Source\PSoC4/BLE.c ****     *******************************************************************************/
 792:Generated_Source\PSoC4/BLE.c ****     CYBLE_API_RESULT_T CyBle_GappStartAdvertisement(uint8 advertisingIntervalType)
 793:Generated_Source\PSoC4/BLE.c ****     {
 794:Generated_Source\PSoC4/BLE.c ****         CYBLE_API_RESULT_T apiResult;
 795:Generated_Source\PSoC4/BLE.c ****         
 796:Generated_Source\PSoC4/BLE.c ****         if(advertisingIntervalType > CYBLE_ADVERTISING_CUSTOM)
 797:Generated_Source\PSoC4/BLE.c ****         {
 798:Generated_Source\PSoC4/BLE.c ****             apiResult = CYBLE_ERROR_INVALID_PARAMETER;
 799:Generated_Source\PSoC4/BLE.c ****         }
 800:Generated_Source\PSoC4/BLE.c ****         else if((CYBLE_STATE_DISCONNECTED == CyBle_GetState()) && ((cyBle_eventHandlerFlag & CYBLE_
 801:Generated_Source\PSoC4/BLE.c ****         {   
 802:Generated_Source\PSoC4/BLE.c ****             if(advertisingIntervalType == CYBLE_ADVERTISING_FAST)
 803:Generated_Source\PSoC4/BLE.c ****             {
 804:Generated_Source\PSoC4/BLE.c ****                 cyBle_discoveryModeInfo.advTo = CYBLE_FAST_ADV_TIMEOUT;
 805:Generated_Source\PSoC4/BLE.c ****                 cyBle_discoveryModeInfo.advParam->advIntvMin = CYBLE_FAST_ADV_INT_MIN;
 806:Generated_Source\PSoC4/BLE.c ****                 cyBle_discoveryModeInfo.advParam->advIntvMax = CYBLE_FAST_ADV_INT_MAX;
 807:Generated_Source\PSoC4/BLE.c ****             }
 808:Generated_Source\PSoC4/BLE.c ****             else if(advertisingIntervalType == CYBLE_ADVERTISING_SLOW)
 809:Generated_Source\PSoC4/BLE.c ****             {
 810:Generated_Source\PSoC4/BLE.c ****                 cyBle_discoveryModeInfo.advTo = CYBLE_SLOW_ADV_TIMEOUT;
 811:Generated_Source\PSoC4/BLE.c ****                 cyBle_discoveryModeInfo.advParam->advIntvMin = CYBLE_SLOW_ADV_INT_MIN;
 812:Generated_Source\PSoC4/BLE.c ****                 cyBle_discoveryModeInfo.advParam->advIntvMax = CYBLE_SLOW_ADV_INT_MAX;
 813:Generated_Source\PSoC4/BLE.c ****             }       
 814:Generated_Source\PSoC4/BLE.c ****             else /* Do not update advertising intervals */
 815:Generated_Source\PSoC4/BLE.c ****             {
 816:Generated_Source\PSoC4/BLE.c ****             }
 817:Generated_Source\PSoC4/BLE.c ****             cyBle_advertisingIntervalType = advertisingIntervalType;
 818:Generated_Source\PSoC4/BLE.c ****             apiResult = CyBle_GappEnterDiscoveryMode(&cyBle_discoveryModeInfo);
 819:Generated_Source\PSoC4/BLE.c ****         
 820:Generated_Source\PSoC4/BLE.c ****             if(apiResult == CYBLE_ERROR_OK)
 821:Generated_Source\PSoC4/BLE.c ****             {
 822:Generated_Source\PSoC4/BLE.c ****                 cyBle_eventHandlerFlag |= CYBLE_START_FLAG;
 823:Generated_Source\PSoC4/BLE.c ****             }
 824:Generated_Source\PSoC4/BLE.c ****         }
 825:Generated_Source\PSoC4/BLE.c ****         else
 826:Generated_Source\PSoC4/BLE.c ****         {
 827:Generated_Source\PSoC4/BLE.c ****             apiResult = CYBLE_ERROR_INVALID_STATE;
 828:Generated_Source\PSoC4/BLE.c ****         }
 829:Generated_Source\PSoC4/BLE.c **** 
ARM GAS  C:\Users\user\AppData\Local\Temp\ccfIoC7d.s 			page 16


 830:Generated_Source\PSoC4/BLE.c ****         return (apiResult);
 831:Generated_Source\PSoC4/BLE.c ****     }
 832:Generated_Source\PSoC4/BLE.c **** 
 833:Generated_Source\PSoC4/BLE.c ****     
 834:Generated_Source\PSoC4/BLE.c ****     /******************************************************************************
 835:Generated_Source\PSoC4/BLE.c ****     * Function Name: CyBle_GappStopAdvertisement
 836:Generated_Source\PSoC4/BLE.c ****     ***************************************************************************//**
 837:Generated_Source\PSoC4/BLE.c ****     * 
 838:Generated_Source\PSoC4/BLE.c ****     *   This function can be used to exit from discovery mode. After the execution 
 839:Generated_Source\PSoC4/BLE.c ****     *   of this function, there will no longer be any advertisements. On stopping 
 840:Generated_Source\PSoC4/BLE.c ****     *   advertising, GAP Peripheral receives CYBLE_EVT_GAPP_ADVERTISEMENT_START_STOP
 841:Generated_Source\PSoC4/BLE.c ****     *   event. It is expected that the application layer tracks the function call 
 842:Generated_Source\PSoC4/BLE.c ****     *   performed before occurrence of this event as this event can occur on making 
 843:Generated_Source\PSoC4/BLE.c ****     *   a call to Cy_BleGappStartAdvertisement(), CyBle_GappEnterDiscoveryMode(), 
 844:Generated_Source\PSoC4/BLE.c ****     *   or CyBle_GappStartAdvertisement() functions as well.
 845:Generated_Source\PSoC4/BLE.c ****     *   
 846:Generated_Source\PSoC4/BLE.c ****     *   The following event occurs on invoking this function:
 847:Generated_Source\PSoC4/BLE.c ****     *   * CYBLE_EVT_GAPP_ADVERTISEMENT_START_STOP
 848:Generated_Source\PSoC4/BLE.c ****     * 
 849:Generated_Source\PSoC4/BLE.c ****     *  \return
 850:Generated_Source\PSoC4/BLE.c ****     *   None
 851:Generated_Source\PSoC4/BLE.c ****     * 
 852:Generated_Source\PSoC4/BLE.c ****     *******************************************************************************/
 853:Generated_Source\PSoC4/BLE.c ****     void CyBle_GappStopAdvertisement(void)
 854:Generated_Source\PSoC4/BLE.c ****     {
 855:Generated_Source\PSoC4/BLE.c ****         CyBle_GappExitDiscoveryMode();
 856:Generated_Source\PSoC4/BLE.c ****         cyBle_eventHandlerFlag |= CYBLE_STOP_FLAG;
 857:Generated_Source\PSoC4/BLE.c ****     }
 858:Generated_Source\PSoC4/BLE.c ****     
 859:Generated_Source\PSoC4/BLE.c ****     
 860:Generated_Source\PSoC4/BLE.c ****     /******************************************************************************
 861:Generated_Source\PSoC4/BLE.c ****     * Function Name: CyBle_ChangeAdDeviceAddress
 862:Generated_Source\PSoC4/BLE.c ****     ***************************************************************************//**
 863:Generated_Source\PSoC4/BLE.c ****     * 
 864:Generated_Source\PSoC4/BLE.c ****     *  This function is used to set the Bluetooth device address into the 
 865:Generated_Source\PSoC4/BLE.c ****     *  advertisement or scan response data structure.
 866:Generated_Source\PSoC4/BLE.c ****     * 
 867:Generated_Source\PSoC4/BLE.c ****     *  \param bdAddr: Bluetooth Device address. The variable is of type CYBLE_GAP_BD_ADDR_T
 868:Generated_Source\PSoC4/BLE.c ****     *  \param dest: 0 - selects advertisement structure, not zero value selects scan 
 869:Generated_Source\PSoC4/BLE.c ****     *               response structure.
 870:Generated_Source\PSoC4/BLE.c ****     * 
 871:Generated_Source\PSoC4/BLE.c ****     * \return
 872:Generated_Source\PSoC4/BLE.c ****     *  None
 873:Generated_Source\PSoC4/BLE.c ****     *  
 874:Generated_Source\PSoC4/BLE.c ****     *******************************************************************************/
 875:Generated_Source\PSoC4/BLE.c ****     void CyBle_ChangeAdDeviceAddress(const CYBLE_GAP_BD_ADDR_T* bdAddr, uint8 dest)
 876:Generated_Source\PSoC4/BLE.c ****     {
 877:Generated_Source\PSoC4/BLE.c ****         uint8 i;
 878:Generated_Source\PSoC4/BLE.c ****         uint8 *destBuffer = NULL;
 879:Generated_Source\PSoC4/BLE.c ****         
 880:Generated_Source\PSoC4/BLE.c ****         if(dest == 0u)      /* Destination - advertising structure */
 881:Generated_Source\PSoC4/BLE.c ****         {
 882:Generated_Source\PSoC4/BLE.c ****             #ifdef CYBLE_ADV_PKT_INDEX_BLUETOOTH_DEVICE_ADDRESS
 883:Generated_Source\PSoC4/BLE.c ****                 destBuffer = &cyBle_discoveryData.advData[CYBLE_ADV_PKT_INDEX_BLUETOOTH_DEVICE_ADDR
 884:Generated_Source\PSoC4/BLE.c ****             #endif /* CYBLE_ADV_PKT_INDEX_BLUETOOTH_DEVICE_ADDRESS */
 885:Generated_Source\PSoC4/BLE.c ****         }
 886:Generated_Source\PSoC4/BLE.c ****         else                /* Destination - scan response structure */
ARM GAS  C:\Users\user\AppData\Local\Temp\ccfIoC7d.s 			page 17


 887:Generated_Source\PSoC4/BLE.c ****         {
 888:Generated_Source\PSoC4/BLE.c ****             #ifdef CYBLE_SCN_PKT_INDEX_BLUETOOTH_DEVICE_ADDRESS
 889:Generated_Source\PSoC4/BLE.c ****                 destBuffer = &cyBle_scanRspData.scanRspData[CYBLE_SCN_PKT_INDEX_BLUETOOTH_DEVICE_AD
 890:Generated_Source\PSoC4/BLE.c ****             #endif /* CYBLE_SCN_PKT_INDEX_BLUETOOTH_DEVICE_ADDRESS */    
 891:Generated_Source\PSoC4/BLE.c ****         }
 892:Generated_Source\PSoC4/BLE.c ****         
 893:Generated_Source\PSoC4/BLE.c ****         if(destBuffer != NULL)
 894:Generated_Source\PSoC4/BLE.c ****         {
 895:Generated_Source\PSoC4/BLE.c ****             /* Update Device Address type */
 896:Generated_Source\PSoC4/BLE.c ****             destBuffer[0u] = bdAddr->type;
 897:Generated_Source\PSoC4/BLE.c ****             
 898:Generated_Source\PSoC4/BLE.c ****             for(i = 0u; i < CYBLE_GAP_BD_ADDR_SIZE; i++)
 899:Generated_Source\PSoC4/BLE.c ****             {
 900:Generated_Source\PSoC4/BLE.c ****                 destBuffer[i + 1u] = bdAddr->bdAddr[i];
 901:Generated_Source\PSoC4/BLE.c ****             }
 902:Generated_Source\PSoC4/BLE.c ****         }
 903:Generated_Source\PSoC4/BLE.c ****     }
 904:Generated_Source\PSoC4/BLE.c ****   
 905:Generated_Source\PSoC4/BLE.c **** #endif /* CYBLE_GAP_ROLE_PERIPHERAL || CYBLE_GAP_ROLE_BROADCASTER */
 906:Generated_Source\PSoC4/BLE.c **** 
 907:Generated_Source\PSoC4/BLE.c **** 
 908:Generated_Source\PSoC4/BLE.c **** #if(CYBLE_GAP_ROLE_CENTRAL || CYBLE_GAP_ROLE_OBSERVER)
 909:Generated_Source\PSoC4/BLE.c **** 
 910:Generated_Source\PSoC4/BLE.c ****     /******************************************************************************
 911:Generated_Source\PSoC4/BLE.c ****     * Function Name: CyBle_GapcStartScan
 912:Generated_Source\PSoC4/BLE.c ****     ***************************************************************************//**
 913:Generated_Source\PSoC4/BLE.c ****     * 
 914:Generated_Source\PSoC4/BLE.c ****     *   This function is used for discovering GAP peripheral devices that are 
 915:Generated_Source\PSoC4/BLE.c ****     *   available for connection. It performs the scanning routine using the 
 916:Generated_Source\PSoC4/BLE.c ****     *   parameters entered in the component's customizer.
 917:Generated_Source\PSoC4/BLE.c ****     *   
 918:Generated_Source\PSoC4/BLE.c ****     *   As soon as the discovery operation starts, CYBLE_EVT_GAPC_SCAN_START_STOP 
 919:Generated_Source\PSoC4/BLE.c ****     *   event is generated. The CYBLE_EVT_GAPC_SCAN_PROGRESS_RESULT event is 
 920:Generated_Source\PSoC4/BLE.c ****     *   generated when a GAP peripheral device is located. There are three discovery
 921:Generated_Source\PSoC4/BLE.c ****     *   procedures can be selected in the customizer's GUI:
 922:Generated_Source\PSoC4/BLE.c ****     *   
 923:Generated_Source\PSoC4/BLE.c ****     *   * Observation procedure: A device performing the observer role receives only
 924:Generated_Source\PSoC4/BLE.c ****     *                            advertisement data from devices irrespective of 
 925:Generated_Source\PSoC4/BLE.c ****     *                            their discoverable mode settings. Advertisement 
 926:Generated_Source\PSoC4/BLE.c ****     *                            data received is provided by the event,      
 927:Generated_Source\PSoC4/BLE.c ****     *                            CYBLE_EVT_GAPC_SCAN_PROGRESS_RESULT. This procedure
 928:Generated_Source\PSoC4/BLE.c ****     *                            requires the scanType sub parameter to be passive
 929:Generated_Source\PSoC4/BLE.c ****     *                            scanning. 
 930:Generated_Source\PSoC4/BLE.c ****     *   
 931:Generated_Source\PSoC4/BLE.c ****     *   * Limited Discovery procedure: A device performing the limited discovery
 932:Generated_Source\PSoC4/BLE.c ****     *                                  procedure receives advertisement data and 
 933:Generated_Source\PSoC4/BLE.c ****     *                                  scan# response data from devices in the 
 934:Generated_Source\PSoC4/BLE.c ****     *                                  limited discoverable mode only. Received data
 935:Generated_Source\PSoC4/BLE.c ****     *                                  is provided by the event, 
 936:Generated_Source\PSoC4/BLE.c ****     *                                  CYBLE_EVT_GAPC_SCAN_PROGRESS_RESULT. This 
 937:Generated_Source\PSoC4/BLE.c ****     *                                  procedure requires the scanType sub-parameter 
 938:Generated_Source\PSoC4/BLE.c ****     *                                  to be active scanning.
 939:Generated_Source\PSoC4/BLE.c ****     *   
 940:Generated_Source\PSoC4/BLE.c ****     *   * General Discovery procedure: A device performing the general discovery 
 941:Generated_Source\PSoC4/BLE.c ****     *                                  procedure receives the advertisement data and
 942:Generated_Source\PSoC4/BLE.c ****     *                                  scan response data from devices in both 
 943:Generated_Source\PSoC4/BLE.c ****     *                                  limited discoverable mode and the general 
ARM GAS  C:\Users\user\AppData\Local\Temp\ccfIoC7d.s 			page 18


 944:Generated_Source\PSoC4/BLE.c ****     *                                  discoverable mode. Received data is provided
 945:Generated_Source\PSoC4/BLE.c ****     *                                  by the event,
 946:Generated_Source\PSoC4/BLE.c ****     *                                  CYBLE_EVT_GAPC_SCAN_PROGRESS_RESULT. This 
 947:Generated_Source\PSoC4/BLE.c ****     *                                  procedure requires the scanType sub-parameter
 948:Generated_Source\PSoC4/BLE.c ****     *                                  to be active scanning.
 949:Generated_Source\PSoC4/BLE.c ****     *   
 950:Generated_Source\PSoC4/BLE.c ****     *   Every Advertisement / Scan response packet received results in a new event, 
 951:Generated_Source\PSoC4/BLE.c ****     *   CYBLE_EVT_GAPC_SCAN_PROGRESS_RESULT.
 952:Generated_Source\PSoC4/BLE.c ****     *   If 'scanTo' sub-parameter is a non-zero value, then upon commencement of 
 953:Generated_Source\PSoC4/BLE.c ****     *   discovery procedure and elapsed time = 'scanTo', CYBLE_EVT_TIMEOUT event
 954:Generated_Source\PSoC4/BLE.c ****     *   is generated with the event parameter indicating CYBLE_GAP_SCAN_TO.
 955:Generated_Source\PSoC4/BLE.c ****     *   Possible generated events are:
 956:Generated_Source\PSoC4/BLE.c ****     *   * CYBLE_EVT_GAPC_SCAN_START_STOP: If a device started or stopped scanning. 
 957:Generated_Source\PSoC4/BLE.c ****     *                                     Use CyBle_GetState() to determine the 
 958:Generated_Source\PSoC4/BLE.c ****     *                                     state. Sequential scanning could be 
 959:Generated_Source\PSoC4/BLE.c ****     *                                     started when CYBLE_STATE_DISCONNECTED 
 960:Generated_Source\PSoC4/BLE.c ****     *                                     state is returned. 
 961:Generated_Source\PSoC4/BLE.c ****     *   * CYBLE_EVT_GAPC_SCAN_PROGRESS_RESULT 
 962:Generated_Source\PSoC4/BLE.c ****     *   * CYBLE_EVT_TIMEOUT (CYBLE_GAP_SCAN_TO)
 963:Generated_Source\PSoC4/BLE.c ****     * 
 964:Generated_Source\PSoC4/BLE.c ****     *   \param scanningIntervalType:  Fast or slow scanning interval with
 965:Generated_Source\PSoC4/BLE.c ****     *       timings entered in Scan settings section of the customizer.
 966:Generated_Source\PSoC4/BLE.c ****     * 	  * CYBLE_SCANNING_FAST   0x00u
 967:Generated_Source\PSoC4/BLE.c ****     * 	  * CYBLE_SCANNING_SLOW   0x01u
 968:Generated_Source\PSoC4/BLE.c ****     * 	  * CYBLE_SCANNING_CUSTOM 0x02u
 969:Generated_Source\PSoC4/BLE.c ****     * 
 970:Generated_Source\PSoC4/BLE.c ****     * \return
 971:Generated_Source\PSoC4/BLE.c ****     *  CYBLE_API_RESULT_T : Return value indicates if the function succeeded or
 972:Generated_Source\PSoC4/BLE.c ****     *  failed. Following are the possible error codes.
 973:Generated_Source\PSoC4/BLE.c ****     *
 974:Generated_Source\PSoC4/BLE.c ****     *   Errors codes                       | Description
 975:Generated_Source\PSoC4/BLE.c ****     *   ---------------------------------- | -----------------------------------
 976:Generated_Source\PSoC4/BLE.c ****     *   CYBLE_ERROR_OK                     | On successful operation.
 977:Generated_Source\PSoC4/BLE.c ****     *   CYBLE_ERROR_STACK_INTERNAL         | An error occurred in the BLE stack.
 978:Generated_Source\PSoC4/BLE.c ****     *   CYBLE_ERROR_INVALID_PARAMETER      | On passing an invalid parameter.
 979:Generated_Source\PSoC4/BLE.c ****     *  
 980:Generated_Source\PSoC4/BLE.c ****     *******************************************************************************/
 981:Generated_Source\PSoC4/BLE.c ****     CYBLE_API_RESULT_T CyBle_GapcStartScan(uint8 scanningIntervalType)
 982:Generated_Source\PSoC4/BLE.c ****     {
 983:Generated_Source\PSoC4/BLE.c ****         CYBLE_API_RESULT_T apiResult;
 984:Generated_Source\PSoC4/BLE.c **** 
 985:Generated_Source\PSoC4/BLE.c ****         if(scanningIntervalType > CYBLE_SCANNING_CUSTOM)
 986:Generated_Source\PSoC4/BLE.c ****         {
 987:Generated_Source\PSoC4/BLE.c ****             apiResult = CYBLE_ERROR_INVALID_PARAMETER;
 988:Generated_Source\PSoC4/BLE.c ****         }
 989:Generated_Source\PSoC4/BLE.c ****         else
 990:Generated_Source\PSoC4/BLE.c ****         {
 991:Generated_Source\PSoC4/BLE.c ****             if(scanningIntervalType == CYBLE_SCANNING_FAST)
 992:Generated_Source\PSoC4/BLE.c ****             {
 993:Generated_Source\PSoC4/BLE.c ****                 cyBle_discoveryInfo.scanTo = CYBLE_FAST_SCAN_TIMEOUT;
 994:Generated_Source\PSoC4/BLE.c ****                 cyBle_discoveryInfo.scanIntv = CYBLE_FAST_SCAN_INTERVAL;
 995:Generated_Source\PSoC4/BLE.c ****                 cyBle_discoveryInfo.scanWindow = CYBLE_FAST_SCAN_WINDOW;
 996:Generated_Source\PSoC4/BLE.c ****             }
 997:Generated_Source\PSoC4/BLE.c ****             else if(scanningIntervalType == CYBLE_SCANNING_SLOW)
 998:Generated_Source\PSoC4/BLE.c ****             {
 999:Generated_Source\PSoC4/BLE.c ****                 cyBle_discoveryInfo.scanTo = CYBLE_SLOW_SCAN_TIMEOUT;
1000:Generated_Source\PSoC4/BLE.c ****                 cyBle_discoveryInfo.scanIntv = CYBLE_SLOW_SCAN_INTERVAL;
ARM GAS  C:\Users\user\AppData\Local\Temp\ccfIoC7d.s 			page 19


1001:Generated_Source\PSoC4/BLE.c ****                 cyBle_discoveryInfo.scanWindow = CYBLE_SLOW_SCAN_WINDOW;
1002:Generated_Source\PSoC4/BLE.c ****             }       
1003:Generated_Source\PSoC4/BLE.c ****             else /* Do not update scanning intervals */
1004:Generated_Source\PSoC4/BLE.c ****             {
1005:Generated_Source\PSoC4/BLE.c ****             }
1006:Generated_Source\PSoC4/BLE.c ****             
1007:Generated_Source\PSoC4/BLE.c ****             cyBle_scanningIntervalType = scanningIntervalType;
1008:Generated_Source\PSoC4/BLE.c ****             apiResult = CyBle_GapcStartDiscovery(&cyBle_discoveryInfo);
1009:Generated_Source\PSoC4/BLE.c ****         
1010:Generated_Source\PSoC4/BLE.c ****             if(apiResult == CYBLE_ERROR_OK)
1011:Generated_Source\PSoC4/BLE.c ****             {
1012:Generated_Source\PSoC4/BLE.c ****                 cyBle_eventHandlerFlag |= CYBLE_START_FLAG;
1013:Generated_Source\PSoC4/BLE.c ****             }
1014:Generated_Source\PSoC4/BLE.c ****         }
1015:Generated_Source\PSoC4/BLE.c ****        
1016:Generated_Source\PSoC4/BLE.c ****         return (apiResult);
1017:Generated_Source\PSoC4/BLE.c ****     }
1018:Generated_Source\PSoC4/BLE.c ****     
1019:Generated_Source\PSoC4/BLE.c ****     
1020:Generated_Source\PSoC4/BLE.c ****     /******************************************************************************
1021:Generated_Source\PSoC4/BLE.c ****     * Function Name: CyBle_GapcStopScan
1022:Generated_Source\PSoC4/BLE.c ****     ***************************************************************************//**
1023:Generated_Source\PSoC4/BLE.c ****     * 
1024:Generated_Source\PSoC4/BLE.c ****     *   This function used to stop the discovery of devices. On stopping discovery
1025:Generated_Source\PSoC4/BLE.c ****     *   operation, CYBLE_EVT_GAPC_SCAN_START_STOP event is generated. Application
1026:Generated_Source\PSoC4/BLE.c ****     *   layer needs to keep track of the function call made before receiving this
1027:Generated_Source\PSoC4/BLE.c ****     *   event to associate this event with either the start or stop discovery
1028:Generated_Source\PSoC4/BLE.c ****     *   function.
1029:Generated_Source\PSoC4/BLE.c ****     * 
1030:Generated_Source\PSoC4/BLE.c ****     *   Possible events generated are:
1031:Generated_Source\PSoC4/BLE.c ****     *    * CYBLE_EVT_GAPC_SCAN_START_STOP
1032:Generated_Source\PSoC4/BLE.c ****     * 
1033:Generated_Source\PSoC4/BLE.c ****     *  \return
1034:Generated_Source\PSoC4/BLE.c ****     *   None
1035:Generated_Source\PSoC4/BLE.c ****     * 
1036:Generated_Source\PSoC4/BLE.c ****     *******************************************************************************/
1037:Generated_Source\PSoC4/BLE.c ****     void CyBle_GapcStopScan(void)
1038:Generated_Source\PSoC4/BLE.c ****     {
1039:Generated_Source\PSoC4/BLE.c ****         CyBle_GapcStopDiscovery();
1040:Generated_Source\PSoC4/BLE.c ****         
1041:Generated_Source\PSoC4/BLE.c ****         cyBle_eventHandlerFlag |= CYBLE_STOP_FLAG;
1042:Generated_Source\PSoC4/BLE.c ****     }
1043:Generated_Source\PSoC4/BLE.c **** 
1044:Generated_Source\PSoC4/BLE.c ****     
1045:Generated_Source\PSoC4/BLE.c **** #endif /* CYBLE_GAP_ROLE_CENTRAL || CYBLE_GAP_ROLE_OBSERVER */
1046:Generated_Source\PSoC4/BLE.c **** 
1047:Generated_Source\PSoC4/BLE.c **** 
1048:Generated_Source\PSoC4/BLE.c **** #if(CYBLE_GAP_ROLE_CENTRAL)
1049:Generated_Source\PSoC4/BLE.c **** 
1050:Generated_Source\PSoC4/BLE.c ****     /******************************************************************************
1051:Generated_Source\PSoC4/BLE.c ****     * Function Name: CyBle_GapcConnectDevice
1052:Generated_Source\PSoC4/BLE.c ****     ***************************************************************************//**
1053:Generated_Source\PSoC4/BLE.c ****     * 
1054:Generated_Source\PSoC4/BLE.c ****     *  This function is used to send a connection request to the remote device with
1055:Generated_Source\PSoC4/BLE.c ****     *  the connection parameters set in the component customizer. This function needs
1056:Generated_Source\PSoC4/BLE.c ****     *  to be called only once after the target device is discovered by 
1057:Generated_Source\PSoC4/BLE.c ****     *  CyBle_GapcStartScan() and further scanning has stopped. Scanning is 
ARM GAS  C:\Users\user\AppData\Local\Temp\ccfIoC7d.s 			page 20


1058:Generated_Source\PSoC4/BLE.c ****     *  successfully stopped on invoking CyBle_GapcStopScan() and then receiving the
1059:Generated_Source\PSoC4/BLE.c ****     *  event CYBLE_EVT_GAPC_SCAN_START_STOP with sub-parameter 'success' = 0x01u.
1060:Generated_Source\PSoC4/BLE.c ****     *  
1061:Generated_Source\PSoC4/BLE.c ****     *  On successful connection, the following events are generated at the GAP 
1062:Generated_Source\PSoC4/BLE.c ****     *  Central device (as well as the GAP Peripheral device), in the following order.
1063:Generated_Source\PSoC4/BLE.c ****     *  * CYBLE_EVT_GATT_CONNECT_IND
1064:Generated_Source\PSoC4/BLE.c ****     *  * CYBLE_EVT_GAP_DEVICE_CONNECTED - If the device connects to a GAP Central and 
1065:Generated_Source\PSoC4/BLE.c ****     *    Link Layer Privacy is disabled in component customizer.
1066:Generated_Source\PSoC4/BLE.c ****     *  * CYBLE_EVT_GAP_ENHANCE_CONN_COMPLETE - If the device connects to a GAP Central and 
1067:Generated_Source\PSoC4/BLE.c ****     *    Link Layer Privacy is enabled in component customizer.
1068:Generated_Source\PSoC4/BLE.c ****     *  * CYBLE_EVT_GAP_DEVICE_CONNECTED
1069:Generated_Source\PSoC4/BLE.c ****     *  
1070:Generated_Source\PSoC4/BLE.c ****     *  A procedure is considered to have timed out if a connection response packet is 
1071:Generated_Source\PSoC4/BLE.c ****     *  not received within time set by cyBle_connectingTimeout global variable
1072:Generated_Source\PSoC4/BLE.c ****     *  (30 seconds by default). CYBLE_EVT_TIMEOUT event with CYBLE_GENERIC_TO parameter
1073:Generated_Source\PSoC4/BLE.c ****     *  will indicate about connection procedure timeout. Connection will automatically
1074:Generated_Source\PSoC4/BLE.c ****     *  be canceled and state will be changed to CYBLE_STATE_DISCONNECTED.
1075:Generated_Source\PSoC4/BLE.c ****     * 
1076:Generated_Source\PSoC4/BLE.c ****     *  \param address: The device address of the remote device to connect to. 
1077:Generated_Source\PSoC4/BLE.c ****     *  
1078:Generated_Source\PSoC4/BLE.c ****     * \return
1079:Generated_Source\PSoC4/BLE.c ****     *  CYBLE_API_RESULT_T : Return value indicates if the function succeeded or 
1080:Generated_Source\PSoC4/BLE.c ****     *  failed. Following are the possible error codes.
1081:Generated_Source\PSoC4/BLE.c ****     *
1082:Generated_Source\PSoC4/BLE.c ****     *   Errors codes                       | Description
1083:Generated_Source\PSoC4/BLE.c ****     *   ------------                       | -----------
1084:Generated_Source\PSoC4/BLE.c ****     *   CYBLE_ERROR_OK                     | On successful operation.
1085:Generated_Source\PSoC4/BLE.c ****     *   CYBLE_ERROR_STACK_INTERNAL         | On error occurred in the BLE stack.
1086:Generated_Source\PSoC4/BLE.c ****     *   CYBLE_ERROR_INVALID_PARAMETER      | On passing an invalid parameter.
1087:Generated_Source\PSoC4/BLE.c ****     *   CYBLE_ERROR_INVALID_STATE          | On calling this function not in Disconnected state.
1088:Generated_Source\PSoC4/BLE.c ****     *  
1089:Generated_Source\PSoC4/BLE.c ****     ******************************************************************************/
1090:Generated_Source\PSoC4/BLE.c ****     CYBLE_API_RESULT_T CyBle_GapcConnectDevice(const CYBLE_GAP_BD_ADDR_T * address)
1091:Generated_Source\PSoC4/BLE.c ****     {
1092:Generated_Source\PSoC4/BLE.c ****         CYBLE_API_RESULT_T apiResult;
1093:Generated_Source\PSoC4/BLE.c ****         uint8 i;
1094:Generated_Source\PSoC4/BLE.c **** 
1095:Generated_Source\PSoC4/BLE.c ****         if(CyBle_GetState() != CYBLE_STATE_DISCONNECTED)
1096:Generated_Source\PSoC4/BLE.c ****         {
1097:Generated_Source\PSoC4/BLE.c ****             apiResult = CYBLE_ERROR_INVALID_STATE;
1098:Generated_Source\PSoC4/BLE.c ****         }
1099:Generated_Source\PSoC4/BLE.c ****         else if(address == NULL)
1100:Generated_Source\PSoC4/BLE.c ****         {
1101:Generated_Source\PSoC4/BLE.c ****             apiResult = CYBLE_ERROR_INVALID_PARAMETER;
1102:Generated_Source\PSoC4/BLE.c ****         }
1103:Generated_Source\PSoC4/BLE.c ****         else
1104:Generated_Source\PSoC4/BLE.c ****         {
1105:Generated_Source\PSoC4/BLE.c ****             for(i = 0u; i < CYBLE_GAP_BD_ADDR_SIZE; i++)
1106:Generated_Source\PSoC4/BLE.c ****             {
1107:Generated_Source\PSoC4/BLE.c ****                 cyBle_connectionParameters.peerBdAddr[i] = address->bdAddr[i];
1108:Generated_Source\PSoC4/BLE.c ****             }
1109:Generated_Source\PSoC4/BLE.c ****             cyBle_connectionParameters.peerAddrType = address -> type;
1110:Generated_Source\PSoC4/BLE.c ****             apiResult = CyBle_GapcInitConnection(&cyBle_connectionParameters);
1111:Generated_Source\PSoC4/BLE.c ****             
1112:Generated_Source\PSoC4/BLE.c ****             if(apiResult == CYBLE_ERROR_OK)
1113:Generated_Source\PSoC4/BLE.c ****             {
1114:Generated_Source\PSoC4/BLE.c ****                 CyBle_SetState(CYBLE_STATE_CONNECTING);
ARM GAS  C:\Users\user\AppData\Local\Temp\ccfIoC7d.s 			page 21


1115:Generated_Source\PSoC4/BLE.c ****                 if(cyBle_connectingTimeout != 0u)
1116:Generated_Source\PSoC4/BLE.c ****                 {
1117:Generated_Source\PSoC4/BLE.c ****                     (void)CyBle_StartTimer(cyBle_connectingTimeout);
1118:Generated_Source\PSoC4/BLE.c ****                 }
1119:Generated_Source\PSoC4/BLE.c ****             }
1120:Generated_Source\PSoC4/BLE.c ****         }
1121:Generated_Source\PSoC4/BLE.c ****         return (apiResult);
1122:Generated_Source\PSoC4/BLE.c ****     }
1123:Generated_Source\PSoC4/BLE.c ****     
1124:Generated_Source\PSoC4/BLE.c **** 
1125:Generated_Source\PSoC4/BLE.c ****     /******************************************************************************
1126:Generated_Source\PSoC4/BLE.c ****     * Function Name: CyBle_GapcCancelDeviceConnection
1127:Generated_Source\PSoC4/BLE.c ****     ***************************************************************************//**
1128:Generated_Source\PSoC4/BLE.c ****     * 
1129:Generated_Source\PSoC4/BLE.c ****     *  This function cancels a previously initiated connection with the remote 
1130:Generated_Source\PSoC4/BLE.c ****     *  device. It is a blocking function. No event is generated on calling this 
1131:Generated_Source\PSoC4/BLE.c ****     *  function. If the devices are already connected then this function should not
1132:Generated_Source\PSoC4/BLE.c ****     *  be used. If you intend to disconnect from an existing connection, the function
1133:Generated_Source\PSoC4/BLE.c ****     *  CyBle_GapDisconnect() should be used.
1134:Generated_Source\PSoC4/BLE.c ****     * 
1135:Generated_Source\PSoC4/BLE.c ****     * \return
1136:Generated_Source\PSoC4/BLE.c ****     *  CYBLE_API_RESULT_T : Return value indicates if the function succeeded or 
1137:Generated_Source\PSoC4/BLE.c ****     *  failed. Following are the possible error codes.
1138:Generated_Source\PSoC4/BLE.c ****     *
1139:Generated_Source\PSoC4/BLE.c ****     *   Errors codes                       | Description
1140:Generated_Source\PSoC4/BLE.c ****     *   ---------------------------------- | --------------------------------------
1141:Generated_Source\PSoC4/BLE.c ****     *   CYBLE_ERROR_OK                     | On successful operation.
1142:Generated_Source\PSoC4/BLE.c ****     *   CYBLE_ERROR_STACK_INTERNAL         | An error occurred in the BLE stack.
1143:Generated_Source\PSoC4/BLE.c ****     *   CYBLE_ERROR_INVALID_STATE          | On calling this function not in Connecting state.
1144:Generated_Source\PSoC4/BLE.c ****     *  
1145:Generated_Source\PSoC4/BLE.c ****     *******************************************************************************/
1146:Generated_Source\PSoC4/BLE.c ****     CYBLE_API_RESULT_T CyBle_GapcCancelDeviceConnection(void)
1147:Generated_Source\PSoC4/BLE.c ****     {
1148:Generated_Source\PSoC4/BLE.c ****         CYBLE_API_RESULT_T apiResult;
1149:Generated_Source\PSoC4/BLE.c ****         
1150:Generated_Source\PSoC4/BLE.c ****         if(CyBle_GetState() != CYBLE_STATE_CONNECTING)
1151:Generated_Source\PSoC4/BLE.c ****         {
1152:Generated_Source\PSoC4/BLE.c ****             apiResult = CYBLE_ERROR_INVALID_STATE;
1153:Generated_Source\PSoC4/BLE.c ****         }
1154:Generated_Source\PSoC4/BLE.c ****         else 
1155:Generated_Source\PSoC4/BLE.c ****         {
1156:Generated_Source\PSoC4/BLE.c ****             apiResult = CyBle_GapcCancelConnection();
1157:Generated_Source\PSoC4/BLE.c ****             
1158:Generated_Source\PSoC4/BLE.c ****             if(cyBle_connectingTimeout != 0u)
1159:Generated_Source\PSoC4/BLE.c ****             {
1160:Generated_Source\PSoC4/BLE.c ****                 (void)CyBle_StopTimer();
1161:Generated_Source\PSoC4/BLE.c ****             }
1162:Generated_Source\PSoC4/BLE.c **** 
1163:Generated_Source\PSoC4/BLE.c ****             if(apiResult == CYBLE_ERROR_OK)
1164:Generated_Source\PSoC4/BLE.c ****             {
1165:Generated_Source\PSoC4/BLE.c ****                 CyBle_SetState(CYBLE_STATE_DISCONNECTED);
1166:Generated_Source\PSoC4/BLE.c ****             }
1167:Generated_Source\PSoC4/BLE.c ****         }
1168:Generated_Source\PSoC4/BLE.c ****         return (apiResult);
1169:Generated_Source\PSoC4/BLE.c ****     }    
1170:Generated_Source\PSoC4/BLE.c **** 
1171:Generated_Source\PSoC4/BLE.c ****     
ARM GAS  C:\Users\user\AppData\Local\Temp\ccfIoC7d.s 			page 22


1172:Generated_Source\PSoC4/BLE.c **** #endif /* CYBLE_GAP_ROLE_CENTRAL */
1173:Generated_Source\PSoC4/BLE.c **** 
1174:Generated_Source\PSoC4/BLE.c **** 
1175:Generated_Source\PSoC4/BLE.c **** #if(CYBLE_GATT_ROLE_SERVER)
1176:Generated_Source\PSoC4/BLE.c **** 
1177:Generated_Source\PSoC4/BLE.c **** #if(CYBLE_GAP_ROLE_PERIPHERAL)
1178:Generated_Source\PSoC4/BLE.c **** 
1179:Generated_Source\PSoC4/BLE.c ****         /******************************************************************************
1180:Generated_Source\PSoC4/BLE.c ****         * Function Name: CyBle_ChangeAdLocalName
1181:Generated_Source\PSoC4/BLE.c ****         ***************************************************************************//**
1182:Generated_Source\PSoC4/BLE.c ****         *  This function is used to set the local device name in the advertisement or 
1183:Generated_Source\PSoC4/BLE.c ****         *  scan response data structure.
1184:Generated_Source\PSoC4/BLE.c ****         * 
1185:Generated_Source\PSoC4/BLE.c ****         *  \param name: The local device name string to be set in advertisement data 
1186:Generated_Source\PSoC4/BLE.c ****         *            structure.
1187:Generated_Source\PSoC4/BLE.c ****         *  \param dest: 0 - advertisement structure, not zero value selects scan response
1188:Generated_Source\PSoC4/BLE.c ****         *              structure.
1189:Generated_Source\PSoC4/BLE.c ****         * 
1190:Generated_Source\PSoC4/BLE.c ****         * \return
1191:Generated_Source\PSoC4/BLE.c ****         *  None
1192:Generated_Source\PSoC4/BLE.c ****         *  
1193:Generated_Source\PSoC4/BLE.c ****         *******************************************************************************/
1194:Generated_Source\PSoC4/BLE.c ****         static void CyBle_ChangeAdLocalName(const char8 name[], uint8 dest)
1195:Generated_Source\PSoC4/BLE.c ****         {
  27              		.loc 1 1195 0
  28              		.cfi_startproc
  29              		@ args = 0, pretend = 0, frame = 0
  30              		@ frame_needed = 0, uses_anonymous_args = 0
  31              	.LVL0:
  32 0000 70B5     		push	{r4, r5, r6, lr}
  33              		.cfi_def_cfa_offset 16
  34              		.cfi_offset 4, -16
  35              		.cfi_offset 5, -12
  36              		.cfi_offset 6, -8
  37              		.cfi_offset 14, -4
  38 0002 1C4B     		ldr	r3, .L20
1196:Generated_Source\PSoC4/BLE.c ****             uint8 i;
1197:Generated_Source\PSoC4/BLE.c ****             uint8 flag = 0u;
1198:Generated_Source\PSoC4/BLE.c ****             uint8 adLength = 0u;
1199:Generated_Source\PSoC4/BLE.c ****             uint8 byteCounter = 0u;
1200:Generated_Source\PSoC4/BLE.c ****             uint8 *destBuffer;
1201:Generated_Source\PSoC4/BLE.c ****             uint8 maxLength;
1202:Generated_Source\PSoC4/BLE.c ****             
1203:Generated_Source\PSoC4/BLE.c ****             if(dest == 0u)      /* Destination - advertising structure */
  39              		.loc 1 1203 0
  40 0004 0029     		cmp	r1, #0
  41 0006 05D1     		bne	.L2
  42              	.LVL1:
1204:Generated_Source\PSoC4/BLE.c ****             {
1205:Generated_Source\PSoC4/BLE.c ****                 destBuffer = cyBle_discoveryData.advData;
1206:Generated_Source\PSoC4/BLE.c ****                 maxLength = cyBle_discoveryData.advDataLen;
  43              		.loc 1 1206 0
  44 0008 DE7F     		ldrb	r6, [r3, #31]
  45              	.LVL2:
  46              	.L16:
1205:Generated_Source\PSoC4/BLE.c ****                 maxLength = cyBle_discoveryData.advDataLen;
  47              		.loc 1 1205 0
ARM GAS  C:\Users\user\AppData\Local\Temp\ccfIoC7d.s 			page 23


  48 000a 1900     		movs	r1, r3
  49              	.LVL3:
1207:Generated_Source\PSoC4/BLE.c ****             }
1208:Generated_Source\PSoC4/BLE.c ****             else                /* Destination - scan response structure */
1209:Generated_Source\PSoC4/BLE.c ****             {
1210:Generated_Source\PSoC4/BLE.c ****                 destBuffer = cyBle_scanRspData.scanRspData;
1211:Generated_Source\PSoC4/BLE.c ****                 maxLength = cyBle_scanRspData.scanRspDataLen;
1212:Generated_Source\PSoC4/BLE.c ****             }
1213:Generated_Source\PSoC4/BLE.c ****             
1214:Generated_Source\PSoC4/BLE.c ****             while((byteCounter < maxLength) && (flag == 0u))
1215:Generated_Source\PSoC4/BLE.c ****             {
1216:Generated_Source\PSoC4/BLE.c ****                 adLength = destBuffer[byteCounter];
1217:Generated_Source\PSoC4/BLE.c ****                 
1218:Generated_Source\PSoC4/BLE.c ****                 if(0u != adLength)
1219:Generated_Source\PSoC4/BLE.c ****                 {
1220:Generated_Source\PSoC4/BLE.c ****                     /* Increment byte counter so it can point to AD type */
1221:Generated_Source\PSoC4/BLE.c ****                     byteCounter++;
1222:Generated_Source\PSoC4/BLE.c ****                     
1223:Generated_Source\PSoC4/BLE.c ****                     if((destBuffer[byteCounter] == CYBLE_SHORT_LOCAL_NAME) || 
1224:Generated_Source\PSoC4/BLE.c ****                        (destBuffer[byteCounter] == CYBLE_COMPLETE_LOCAL_NAME))
1225:Generated_Source\PSoC4/BLE.c ****                     {
1226:Generated_Source\PSoC4/BLE.c ****                         /* Start of the Local Name AD type was fount. Set flag and exit the loop. *
1227:Generated_Source\PSoC4/BLE.c ****                         flag = 1u;
  50              		.loc 1 1227 0
  51 000c 0023     		movs	r3, #0
  52 000e 1A00     		movs	r2, r3
  53 0010 1C00     		movs	r4, r3
  54 0012 11E0     		b	.L3
  55              	.LVL4:
  56              	.L2:
1211:Generated_Source\PSoC4/BLE.c ****             }
  57              		.loc 1 1211 0
  58 0014 1A00     		movs	r2, r3
  59 0016 3F32     		adds	r2, r2, #63
  60 0018 1678     		ldrb	r6, [r2]
  61              	.LVL5:
1210:Generated_Source\PSoC4/BLE.c ****                 maxLength = cyBle_scanRspData.scanRspDataLen;
  62              		.loc 1 1210 0
  63 001a 2033     		adds	r3, r3, #32
  64 001c F5E7     		b	.L16
  65              	.LVL6:
  66              	.L18:
1214:Generated_Source\PSoC4/BLE.c ****             {
  67              		.loc 1 1214 0 discriminator 1
  68 001e 002C     		cmp	r4, #0
  69 0020 11D1     		bne	.L10
1216:Generated_Source\PSoC4/BLE.c ****                 
  70              		.loc 1 1216 0
  71 0022 CA5C     		ldrb	r2, [r1, r3]
  72              	.LVL7:
1218:Generated_Source\PSoC4/BLE.c ****                 {
  73              		.loc 1 1218 0
  74 0024 002A     		cmp	r2, #0
  75 0026 23D0     		beq	.L1
1221:Generated_Source\PSoC4/BLE.c ****                     
  76              		.loc 1 1221 0
  77 0028 0133     		adds	r3, r3, #1
ARM GAS  C:\Users\user\AppData\Local\Temp\ccfIoC7d.s 			page 24


  78              	.LVL8:
  79 002a DBB2     		uxtb	r3, r3
  80              	.LVL9:
1223:Generated_Source\PSoC4/BLE.c ****                        (destBuffer[byteCounter] == CYBLE_COMPLETE_LOCAL_NAME))
  81              		.loc 1 1223 0
  82 002c CD5C     		ldrb	r5, [r1, r3]
  83 002e 083D     		subs	r5, r5, #8
  84 0030 012D     		cmp	r5, #1
  85 0032 04D9     		bls	.L14
1228:Generated_Source\PSoC4/BLE.c ****                     }
1229:Generated_Source\PSoC4/BLE.c ****                     else
1230:Generated_Source\PSoC4/BLE.c ****                     {
1231:Generated_Source\PSoC4/BLE.c ****                         byteCounter += adLength;
  86              		.loc 1 1231 0
  87 0034 D318     		adds	r3, r2, r3
  88              	.LVL10:
  89 0036 DBB2     		uxtb	r3, r3
  90              	.LVL11:
  91              	.L3:
1214:Generated_Source\PSoC4/BLE.c ****             {
  92              		.loc 1 1214 0
  93 0038 B342     		cmp	r3, r6
  94 003a F0D3     		bcc	.L18
  95 003c 01E0     		b	.L7
  96              	.L14:
1227:Generated_Source\PSoC4/BLE.c ****                     }
  97              		.loc 1 1227 0
  98 003e 0124     		movs	r4, #1
  99              	.LVL12:
 100 0040 FAE7     		b	.L3
 101              	.LVL13:
 102              	.L7:
1232:Generated_Source\PSoC4/BLE.c ****                     }
1233:Generated_Source\PSoC4/BLE.c ****                 }
1234:Generated_Source\PSoC4/BLE.c ****                 else
1235:Generated_Source\PSoC4/BLE.c ****                 {
1236:Generated_Source\PSoC4/BLE.c ****                     /* The end of advertisement data structure was encountered though exit the loop
1237:Generated_Source\PSoC4/BLE.c ****                     break;
1238:Generated_Source\PSoC4/BLE.c ****                 }
1239:Generated_Source\PSoC4/BLE.c ****             }
1240:Generated_Source\PSoC4/BLE.c ****             
1241:Generated_Source\PSoC4/BLE.c ****             if(0u != flag)
 103              		.loc 1 1241 0
 104 0042 002C     		cmp	r4, #0
 105 0044 14D0     		beq	.L1
 106              	.L10:
1242:Generated_Source\PSoC4/BLE.c ****             {
1243:Generated_Source\PSoC4/BLE.c ****                 /* Reuse "adLength" to hold location of the last character of local name in 
1244:Generated_Source\PSoC4/BLE.c ****                    AD structure. */
1245:Generated_Source\PSoC4/BLE.c ****                 adLength += byteCounter;
 107              		.loc 1 1245 0
 108 0046 D218     		adds	r2, r2, r3
 109              	.LVL14:
1246:Generated_Source\PSoC4/BLE.c ****                 
1247:Generated_Source\PSoC4/BLE.c ****                 /* Increment byte counter to point to start of the local Name string */
1248:Generated_Source\PSoC4/BLE.c ****                 byteCounter++;
 110              		.loc 1 1248 0
ARM GAS  C:\Users\user\AppData\Local\Temp\ccfIoC7d.s 			page 25


 111 0048 0133     		adds	r3, r3, #1
 112              	.LVL15:
 113 004a DBB2     		uxtb	r3, r3
1245:Generated_Source\PSoC4/BLE.c ****                 
 114              		.loc 1 1245 0
 115 004c D4B2     		uxtb	r4, r2
 116              	.LVL16:
1249:Generated_Source\PSoC4/BLE.c ****                 
1250:Generated_Source\PSoC4/BLE.c ****                 for(i = byteCounter; ((i < (adLength)) && (CYBLE_NULL_CHARCTER != name[i - byteCoun
 117              		.loc 1 1250 0
 118 004e 1A00     		movs	r2, r3
 119 0050 06E0     		b	.L9
 120              	.LVL17:
 121              	.L19:
 122              		.loc 1 1250 0 is_stmt 0 discriminator 3
 123 0052 D51A     		subs	r5, r2, r3
 124 0054 455D     		ldrb	r5, [r0, r5]
 125 0056 002D     		cmp	r5, #0
 126 0058 05D0     		beq	.L13
1251:Generated_Source\PSoC4/BLE.c ****                 {
1252:Generated_Source\PSoC4/BLE.c ****                     destBuffer[i] = (uint8)name[i - byteCounter];
 127              		.loc 1 1252 0 is_stmt 1 discriminator 4
 128 005a 8D54     		strb	r5, [r1, r2]
1250:Generated_Source\PSoC4/BLE.c ****                 {
 129              		.loc 1 1250 0 discriminator 4
 130 005c 0132     		adds	r2, r2, #1
 131              	.LVL18:
 132 005e D2B2     		uxtb	r2, r2
 133              	.LVL19:
 134              	.L9:
1250:Generated_Source\PSoC4/BLE.c ****                 {
 135              		.loc 1 1250 0 is_stmt 0 discriminator 1
 136 0060 A242     		cmp	r2, r4
 137 0062 F6D3     		bcc	.L19
 138 0064 04E0     		b	.L1
 139              	.L13:
1253:Generated_Source\PSoC4/BLE.c ****                 }
1254:Generated_Source\PSoC4/BLE.c ****                 
1255:Generated_Source\PSoC4/BLE.c ****                 /* This loop handles the case when new local name is shorted than old one.
1256:Generated_Source\PSoC4/BLE.c ****                    In this case all remaining characters should be null characters. */
1257:Generated_Source\PSoC4/BLE.c ****                 while(adLength > i)
1258:Generated_Source\PSoC4/BLE.c ****                 {
1259:Generated_Source\PSoC4/BLE.c ****                     /* Terminate string */
1260:Generated_Source\PSoC4/BLE.c ****                     destBuffer[i] = (uint8)CYBLE_NULL_CHARCTER;
 140              		.loc 1 1260 0 is_stmt 1
 141 0066 8D54     		strb	r5, [r1, r2]
1261:Generated_Source\PSoC4/BLE.c ****                     i++;
 142              		.loc 1 1261 0
 143 0068 0132     		adds	r2, r2, #1
 144              	.LVL20:
 145 006a D2B2     		uxtb	r2, r2
 146              	.LVL21:
1257:Generated_Source\PSoC4/BLE.c ****                 {
 147              		.loc 1 1257 0
 148 006c 9442     		cmp	r4, r2
 149 006e FAD8     		bhi	.L13
 150              	.LVL22:
ARM GAS  C:\Users\user\AppData\Local\Temp\ccfIoC7d.s 			page 26


 151              	.L1:
1262:Generated_Source\PSoC4/BLE.c ****                 }
1263:Generated_Source\PSoC4/BLE.c ****             }
1264:Generated_Source\PSoC4/BLE.c ****         }
 152              		.loc 1 1264 0
 153              		@ sp needed
 154              	.LVL23:
 155 0070 70BD     		pop	{r4, r5, r6, pc}
 156              	.L21:
 157 0072 C046     		.align	2
 158              	.L20:
 159 0074 00000000 		.word	.LANCHOR0
 160              		.cfi_endproc
 161              	.LFE11:
 162              		.size	CyBle_ChangeAdLocalName, .-CyBle_ChangeAdLocalName
 163              		.section	.text.CyBle_ServiceInit,"ax",%progbits
 164              		.align	1
 165              		.global	CyBle_ServiceInit
 166              		.code	16
 167              		.thumb_func
 168              		.type	CyBle_ServiceInit, %function
 169              	CyBle_ServiceInit:
 170              	.LFB3:
 199:Generated_Source\PSoC4/BLE.c ****     #if(CYBLE_GATT_ROLE_CLIENT)
 171              		.loc 1 199 0
 172              		.cfi_startproc
 173              		@ args = 0, pretend = 0, frame = 0
 174              		@ frame_needed = 0, uses_anonymous_args = 0
 175 0000 10B5     		push	{r4, lr}
 176              		.cfi_def_cfa_offset 8
 177              		.cfi_offset 4, -8
 178              		.cfi_offset 14, -4
 225:Generated_Source\PSoC4/BLE.c ****     #endif /* CYBLE_BAS */
 179              		.loc 1 225 0
 180 0002 FFF7FEFF 		bl	CyBle_BasInit
 181              	.LVL24:
 347:Generated_Source\PSoC4/BLE.c **** 
 182              		.loc 1 347 0
 183              		@ sp needed
 237:Generated_Source\PSoC4/BLE.c ****     #endif /* CYBLE_BMS */
 184              		.loc 1 237 0
 185 0006 FFF7FEFF 		bl	CyBle_BmsInit
 186              	.LVL25:
 241:Generated_Source\PSoC4/BLE.c ****     #endif /* CYBLE_CGMS */
 187              		.loc 1 241 0
 188 000a FFF7FEFF 		bl	CyBle_CgmsInit
 189              	.LVL26:
 257:Generated_Source\PSoC4/BLE.c ****     #endif /* CYBLE_CUSTOM */
 190              		.loc 1 257 0
 191 000e FFF7FEFF 		bl	CyBle_CustomInit
 192              	.LVL27:
 261:Generated_Source\PSoC4/BLE.c ****     #endif /* CYBLE_DIS */
 193              		.loc 1 261 0
 194 0012 FFF7FEFF 		bl	CyBle_DisInit
 195              	.LVL28:
 347:Generated_Source\PSoC4/BLE.c **** 
 196              		.loc 1 347 0
ARM GAS  C:\Users\user\AppData\Local\Temp\ccfIoC7d.s 			page 27


 197 0016 10BD     		pop	{r4, pc}
 198              		.cfi_endproc
 199              	.LFE3:
 200              		.size	CyBle_ServiceInit, .-CyBle_ServiceInit
 201              		.section	.text.CyBle_Init,"ax",%progbits
 202              		.align	1
 203              		.global	CyBle_Init
 204              		.code	16
 205              		.thumb_func
 206              		.type	CyBle_Init, %function
 207              	CyBle_Init:
 208              	.LFB2:
 150:Generated_Source\PSoC4/BLE.c ****     cyBle_eventHandlerFlag = 0u;
 209              		.loc 1 150 0
 210              		.cfi_startproc
 211              		@ args = 0, pretend = 0, frame = 0
 212              		@ frame_needed = 0, uses_anonymous_args = 0
 213 0000 10B5     		push	{r4, lr}
 214              		.cfi_def_cfa_offset 8
 215              		.cfi_offset 4, -8
 216              		.cfi_offset 14, -4
 151:Generated_Source\PSoC4/BLE.c ****     cyBle_busyStatus = CYBLE_STACK_STATE_FREE;
 217              		.loc 1 151 0
 218 0002 0024     		movs	r4, #0
 219 0004 064B     		ldr	r3, .L24
 185:Generated_Source\PSoC4/BLE.c **** 
 220              		.loc 1 185 0
 221              		@ sp needed
 151:Generated_Source\PSoC4/BLE.c ****     cyBle_busyStatus = CYBLE_STACK_STATE_FREE;
 222              		.loc 1 151 0
 223 0006 1C70     		strb	r4, [r3]
 152:Generated_Source\PSoC4/BLE.c **** 
 224              		.loc 1 152 0
 225 0008 064B     		ldr	r3, .L24+4
 226 000a 1C70     		strb	r4, [r3]
 155:Generated_Source\PSoC4/BLE.c ****     #endif /* (CYBLE_GAP_ROLE_PERIPHERAL || CYBLE_GAP_ROLE_BROADCASTER)  */
 227              		.loc 1 155 0
 228 000c 064B     		ldr	r3, .L24+8
 229 000e 1C70     		strb	r4, [r3]
 178:Generated_Source\PSoC4/BLE.c **** 
 230              		.loc 1 178 0
 231 0010 FFF7FEFF 		bl	CyBle_ServiceInit
 232              	.LVL29:
 181:Generated_Source\PSoC4/BLE.c ****         cyBle_peerBonding = CYBLE_GAP_BONDING_NONE;
 233              		.loc 1 181 0
 234 0014 054B     		ldr	r3, .L24+12
 235 0016 1C70     		strb	r4, [r3]
 182:Generated_Source\PSoC4/BLE.c ****     #endif  /* (CYBLE_BONDING_REQUIREMENT == CYBLE_BONDING_YES) */
 236              		.loc 1 182 0
 237 0018 054B     		ldr	r3, .L24+16
 238 001a 1C70     		strb	r4, [r3]
 185:Generated_Source\PSoC4/BLE.c **** 
 239              		.loc 1 185 0
 240 001c 10BD     		pop	{r4, pc}
 241              	.L25:
 242 001e C046     		.align	2
 243              	.L24:
ARM GAS  C:\Users\user\AppData\Local\Temp\ccfIoC7d.s 			page 28


 244 0020 00000000 		.word	cyBle_eventHandlerFlag
 245 0024 00000000 		.word	cyBle_busyStatus
 246 0028 00000000 		.word	cyBle_advertisingIntervalType
 247 002c 00000000 		.word	cyBle_pendingFlashWrite
 248 0030 00000000 		.word	cyBle_peerBonding
 249              		.cfi_endproc
 250              	.LFE2:
 251              		.size	CyBle_Init, .-CyBle_Init
 252              		.section	.text.CyBle_Start,"ax",%progbits
 253              		.align	1
 254              		.global	CyBle_Start
 255              		.code	16
 256              		.thumb_func
 257              		.type	CyBle_Start, %function
 258              	CyBle_Start:
 259              	.LFB4:
 409:Generated_Source\PSoC4/BLE.c ****     CYBLE_API_RESULT_T apiResult = CYBLE_ERROR_OK;
 260              		.loc 1 409 0
 261              		.cfi_startproc
 262              		@ args = 0, pretend = 0, frame = 48
 263              		@ frame_needed = 0, uses_anonymous_args = 0
 264              	.LVL30:
 265 0000 30B5     		push	{r4, r5, lr}
 266              		.cfi_def_cfa_offset 12
 267              		.cfi_offset 4, -12
 268              		.cfi_offset 5, -8
 269              		.cfi_offset 14, -4
 270 0002 91B0     		sub	sp, sp, #68
 271              		.cfi_def_cfa_offset 80
 409:Generated_Source\PSoC4/BLE.c ****     CYBLE_API_RESULT_T apiResult = CYBLE_ERROR_OK;
 272              		.loc 1 409 0
 273 0004 0400     		movs	r4, r0
 414:Generated_Source\PSoC4/BLE.c ****     {
 274              		.loc 1 414 0
 275 0006 1422     		movs	r2, #20
 276 0008 1E49     		ldr	r1, .L30
 277 000a 0BA8     		add	r0, sp, #44
 278              	.LVL31:
 279 000c FFF7FEFF 		bl	memcpy
 280              	.LVL32:
 426:Generated_Source\PSoC4/BLE.c ****     {
 281              		.loc 1 426 0
 282 0010 1D4D     		ldr	r5, .L30+4
 283 0012 2B78     		ldrb	r3, [r5]
 284 0014 002B     		cmp	r3, #0
 285 0016 03D1     		bne	.L27
 428:Generated_Source\PSoC4/BLE.c ****         cyBle_initVar = 1u;
 286              		.loc 1 428 0
 287 0018 FFF7FEFF 		bl	CyBle_Init
 288              	.LVL33:
 429:Generated_Source\PSoC4/BLE.c ****     }
 289              		.loc 1 429 0
 290 001c 0123     		movs	r3, #1
 291 001e 2B70     		strb	r3, [r5]
 292              	.L27:
 522:Generated_Source\PSoC4/BLE.c ****     }
 293              		.loc 1 522 0
ARM GAS  C:\Users\user\AppData\Local\Temp\ccfIoC7d.s 			page 29


 294 0020 0120     		movs	r0, #1
 432:Generated_Source\PSoC4/BLE.c ****     {
 295              		.loc 1 432 0
 296 0022 002C     		cmp	r4, #0
 297 0024 2CD0     		beq	.L28
 298              	.LBB2:
 457:Generated_Source\PSoC4/BLE.c ****                                        CYBLE_SECURE_CONN_FEATURE;
 299              		.loc 1 457 0
 300 0026 0021     		movs	r1, #0
 301              	.LBE2:
 434:Generated_Source\PSoC4/BLE.c ****         
 302              		.loc 1 434 0
 303 0028 184B     		ldr	r3, .L30+8
 304              	.LBB3:
 453:Generated_Source\PSoC4/BLE.c ****             stackConfig.dleConfig = &dleConfigParams;
 305              		.loc 1 453 0
 306 002a 08A8     		add	r0, sp, #32
 307              	.LBE3:
 434:Generated_Source\PSoC4/BLE.c ****         
 308              		.loc 1 434 0
 309 002c 1C60     		str	r4, [r3]
 310              	.LBB4:
 457:Generated_Source\PSoC4/BLE.c ****                                        CYBLE_SECURE_CONN_FEATURE;
 311              		.loc 1 457 0
 312 002e 0181     		strh	r1, [r0, #8]
 454:Generated_Source\PSoC4/BLE.c ****             
 313              		.loc 1 454 0
 314 0030 06AB     		add	r3, sp, #24
 461:Generated_Source\PSoC4/BLE.c ****             dleConfigParams.dleMaxRxCapability = CYBLE_LL_MAX_RX_PAYLOAD_SIZE;
 315              		.loc 1 461 0
 316 0032 1B31     		adds	r1, r1, #27
 317 0034 1980     		strh	r1, [r3]
 462:Generated_Source\PSoC4/BLE.c ****             dleConfigParams.dleNumTxBuffer = CYBLE_LL_DEFAULT_NUM_ACL_TX_PACKETS;
 318              		.loc 1 462 0
 319 0036 5980     		strh	r1, [r3, #2]
 463:Generated_Source\PSoC4/BLE.c ****         #if(CYBLE_DLE_FEATURE_ENABLED)
 320              		.loc 1 463 0
 321 0038 1739     		subs	r1, r1, #23
 322 003a 1971     		strb	r1, [r3, #4]
 454:Generated_Source\PSoC4/BLE.c ****             
 323              		.loc 1 454 0
 324 003c 0893     		str	r3, [sp, #32]
 469:Generated_Source\PSoC4/BLE.c ****         #if(CYBLE_LL_PRIVACY_FEATURE_ENABLED)
 325              		.loc 1 469 0
 326 003e 0823     		movs	r3, #8
 474:Generated_Source\PSoC4/BLE.c ****             }
 327              		.loc 1 474 0
 328 0040 1231     		adds	r1, r1, #18
 453:Generated_Source\PSoC4/BLE.c ****             stackConfig.dleConfig = &dleConfigParams;
 329              		.loc 1 453 0
 330 0042 05AA     		add	r2, sp, #20
 474:Generated_Source\PSoC4/BLE.c ****             }
 331              		.loc 1 474 0
 332 0044 6944     		add	r1, r1, sp
 453:Generated_Source\PSoC4/BLE.c ****             stackConfig.dleConfig = &dleConfigParams;
 333              		.loc 1 453 0
 334 0046 4260     		str	r2, [r0, #4]
ARM GAS  C:\Users\user\AppData\Local\Temp\ccfIoC7d.s 			page 30


 469:Generated_Source\PSoC4/BLE.c ****         #if(CYBLE_LL_PRIVACY_FEATURE_ENABLED)
 335              		.loc 1 469 0
 336 0048 1370     		strb	r3, [r2]
 474:Generated_Source\PSoC4/BLE.c ****             }
 337              		.loc 1 474 0
 338 004a FFF7FEFF 		bl	CyBle_StackSetFeatureConfig
 339              	.LVL34:
 340              	.LBE4:
 477:Generated_Source\PSoC4/BLE.c ****         {
 341              		.loc 1 477 0
 342 004e 0028     		cmp	r0, #0
 343 0050 16D1     		bne	.L28
 482:Generated_Source\PSoC4/BLE.c ****                     CYBLE_STACK_RAM_SIZE - CYBLE_GATT_PREPARE_WRITE_BUFF_LEN, cyBle_stackDataBuff, 
 344              		.loc 1 482 0
 345 0052 0F4B     		ldr	r3, .L30+12
 346 0054 AE22     		movs	r2, #174
 347 0056 0293     		str	r3, [sp, #8]
 348 0058 0E4B     		ldr	r3, .L30+16
 349 005a 1201     		lsls	r2, r2, #4
 350 005c 0193     		str	r3, [sp, #4]
 351 005e 0523     		movs	r3, #5
 352 0060 0D49     		ldr	r1, .L30+20
 353 0062 0093     		str	r3, [sp]
 354 0064 0D48     		ldr	r0, .L30+24
 355              	.LVL35:
 356 0066 0BAB     		add	r3, sp, #44
 357 0068 FFF7FEFF 		bl	CyBle_StackInit
 358              	.LVL36:
 506:Generated_Source\PSoC4/BLE.c ****             {
 359              		.loc 1 506 0
 360 006c 0028     		cmp	r0, #0
 361 006e 07D1     		bne	.L28
 508:Generated_Source\PSoC4/BLE.c ****                 
 362              		.loc 1 508 0
 363 0070 0122     		movs	r2, #1
 364 0072 0B4B     		ldr	r3, .L30+28
 515:Generated_Source\PSoC4/BLE.c ****             #endif /* CYBLE_GATT_ROLE_SERVER */
 365              		.loc 1 515 0
 366 0074 5021     		movs	r1, #80
 508:Generated_Source\PSoC4/BLE.c ****                 
 367              		.loc 1 508 0
 368 0076 1A70     		strb	r2, [r3]
 515:Generated_Source\PSoC4/BLE.c ****             #endif /* CYBLE_GATT_ROLE_SERVER */
 369              		.loc 1 515 0
 370 0078 0A48     		ldr	r0, .L30+32
 371              	.LVL37:
 372 007a 0E32     		adds	r2, r2, #14
 373 007c FFF7FEFF 		bl	CyBle_GattsDbRegister
 374              	.LVL38:
 375              	.L28:
 526:Generated_Source\PSoC4/BLE.c **** 
 376              		.loc 1 526 0
 377 0080 11B0     		add	sp, sp, #68
 378              		@ sp needed
 379              	.LVL39:
 380 0082 30BD     		pop	{r4, r5, pc}
 381              	.L31:
ARM GAS  C:\Users\user\AppData\Local\Temp\ccfIoC7d.s 			page 31


 382              		.align	2
 383              	.L30:
 384 0084 00000000 		.word	.LANCHOR1
 385 0088 00000000 		.word	.LANCHOR2
 386 008c 00000000 		.word	CyBle_ApplCallback
 387 0090 79020000 		.word	633
 388 0094 00000000 		.word	cyBle_flashStorage
 389 0098 00000000 		.word	.LANCHOR3
 390 009c 00000000 		.word	CyBle_EventHandler
 391 00a0 00000000 		.word	cyBle_state
 392 00a4 00000000 		.word	cyBle_gattDB
 393              		.cfi_endproc
 394              	.LFE4:
 395              		.size	CyBle_Start, .-CyBle_Start
 396              		.section	.text.CyBle_Stop,"ax",%progbits
 397              		.align	1
 398              		.global	CyBle_Stop
 399              		.code	16
 400              		.thumb_func
 401              		.type	CyBle_Stop, %function
 402              	CyBle_Stop:
 403              	.LFB5:
 542:Generated_Source\PSoC4/BLE.c ****     CyBle_Shutdown();                         /* Stop all ongoing activities */
 404              		.loc 1 542 0
 405              		.cfi_startproc
 406              		@ args = 0, pretend = 0, frame = 0
 407              		@ frame_needed = 0, uses_anonymous_args = 0
 408 0000 10B5     		push	{r4, lr}
 409              		.cfi_def_cfa_offset 8
 410              		.cfi_offset 4, -8
 411              		.cfi_offset 14, -4
 543:Generated_Source\PSoC4/BLE.c ****     CyBle_SetState(CYBLE_STATE_STOPPED);
 412              		.loc 1 543 0
 413 0002 FFF7FEFF 		bl	CyBle_Shutdown
 414              	.LVL40:
 544:Generated_Source\PSoC4/BLE.c ****     #if(CYBLE_SHARING_MODE_EXPORT)
 415              		.loc 1 544 0
 416 0006 0022     		movs	r2, #0
 417 0008 014B     		ldr	r3, .L33
 551:Generated_Source\PSoC4/BLE.c **** 
 418              		.loc 1 551 0
 419              		@ sp needed
 544:Generated_Source\PSoC4/BLE.c ****     #if(CYBLE_SHARING_MODE_EXPORT)
 420              		.loc 1 544 0
 421 000a 1A70     		strb	r2, [r3]
 551:Generated_Source\PSoC4/BLE.c **** 
 422              		.loc 1 551 0
 423 000c 10BD     		pop	{r4, pc}
 424              	.L34:
 425 000e C046     		.align	2
 426              	.L33:
 427 0010 00000000 		.word	cyBle_state
 428              		.cfi_endproc
 429              	.LFE5:
 430              		.size	CyBle_Stop, .-CyBle_Stop
 431              		.section	.text.CyBle_StoreBondingData,"ax",%progbits
 432              		.align	1
ARM GAS  C:\Users\user\AppData\Local\Temp\ccfIoC7d.s 			page 32


 433              		.global	CyBle_StoreBondingData
 434              		.code	16
 435              		.thumb_func
 436              		.type	CyBle_StoreBondingData, %function
 437              	CyBle_StoreBondingData:
 438              	.LFB6:
 598:Generated_Source\PSoC4/BLE.c ****     CYBLE_API_RESULT_T apiResult = CYBLE_ERROR_OK;
 439              		.loc 1 598 0
 440              		.cfi_startproc
 441              		@ args = 0, pretend = 0, frame = 104
 442              		@ frame_needed = 0, uses_anonymous_args = 0
 443              	.LVL41:
 444 0000 70B5     		push	{r4, r5, r6, lr}
 445              		.cfi_def_cfa_offset 16
 446              		.cfi_offset 4, -16
 447              		.cfi_offset 5, -12
 448              		.cfi_offset 6, -8
 449              		.cfi_offset 14, -4
 602:Generated_Source\PSoC4/BLE.c ****     {
 450              		.loc 1 602 0
 451 0002 0126     		movs	r6, #1
 452 0004 304C     		ldr	r4, .L64
 598:Generated_Source\PSoC4/BLE.c ****     CYBLE_API_RESULT_T apiResult = CYBLE_ERROR_OK;
 453              		.loc 1 598 0
 454 0006 9AB0     		sub	sp, sp, #104
 455              		.cfi_def_cfa_offset 120
 602:Generated_Source\PSoC4/BLE.c ****     {
 456              		.loc 1 602 0
 457 0008 2378     		ldrb	r3, [r4]
 598:Generated_Source\PSoC4/BLE.c ****     CYBLE_API_RESULT_T apiResult = CYBLE_ERROR_OK;
 458              		.loc 1 598 0
 459 000a 0500     		movs	r5, r0
 602:Generated_Source\PSoC4/BLE.c ****     {
 460              		.loc 1 602 0
 461 000c 3342     		tst	r3, r6
 462 000e 57D0     		beq	.L36
 604:Generated_Source\PSoC4/BLE.c ****         if(apiResult == CYBLE_ERROR_OK)
 463              		.loc 1 604 0
 464 0010 FFF7FEFF 		bl	CyBle_StoreStackData
 465              	.LVL42:
 605:Generated_Source\PSoC4/BLE.c ****         {
 466              		.loc 1 605 0
 467 0014 0028     		cmp	r0, #0
 468 0016 06D1     		bne	.L37
 607:Generated_Source\PSoC4/BLE.c ****             /* Change apiResult if there are more pending data to store */
 469              		.loc 1 607 0
 470 0018 2378     		ldrb	r3, [r4]
 471 001a 1A00     		movs	r2, r3
 472 001c B243     		bics	r2, r6
 473 001e 2270     		strb	r2, [r4]
 609:Generated_Source\PSoC4/BLE.c ****             {
 474              		.loc 1 609 0
 475 0020 9B07     		lsls	r3, r3, #30
 476 0022 4DD5     		bpl	.L36
 611:Generated_Source\PSoC4/BLE.c ****             }
 477              		.loc 1 611 0
 478 0024 2820     		movs	r0, #40
ARM GAS  C:\Users\user\AppData\Local\Temp\ccfIoC7d.s 			page 33


 479              	.LVL43:
 480              	.L37:
 617:Generated_Source\PSoC4/BLE.c ****         ((cyBle_pendingFlashWrite & CYBLE_PENDING_CCCD_FLASH_WRITE_BIT) != 0u) &&
 481              		.loc 1 617 0
 482 0026 002D     		cmp	r5, #0
 483 0028 4CD0     		beq	.L52
 484              	.LVL44:
 485              	.L45:
 617:Generated_Source\PSoC4/BLE.c ****         ((cyBle_pendingFlashWrite & CYBLE_PENDING_CCCD_FLASH_WRITE_BIT) != 0u) &&
 486              		.loc 1 617 0 is_stmt 0 discriminator 3
 487 002a 0226     		movs	r6, #2
 488 002c 2378     		ldrb	r3, [r4]
 489 002e 3342     		tst	r3, r6
 490 0030 13D0     		beq	.L38
 619:Generated_Source\PSoC4/BLE.c ****     {
 491              		.loc 1 619 0 is_stmt 1
 492 0032 264B     		ldr	r3, .L64+4
 493 0034 1978     		ldrb	r1, [r3]
 618:Generated_Source\PSoC4/BLE.c ****         (cyBle_connHandle.bdHandle <= CYBLE_GAP_MAX_BONDED_DEVICE))
 494              		.loc 1 618 0
 495 0036 0429     		cmp	r1, #4
 496 0038 0FD8     		bhi	.L38
 621:Generated_Source\PSoC4/BLE.c ****                         cyBle_connHandle.bdHandle], CYBLE_GATT_DB_CCCD_COUNT, isForceWrite);
 497              		.loc 1 621 0
 498 003a 1422     		movs	r2, #20
 499 003c 5143     		muls	r1, r2
 500 003e 244B     		ldr	r3, .L64+8
 501 0040 2448     		ldr	r0, .L64+12
 502 0042 5918     		adds	r1, r3, r1
 503 0044 244B     		ldr	r3, .L64+16
 504 0046 C918     		adds	r1, r1, r3
 505 0048 2B00     		movs	r3, r5
 506 004a FFF7FEFF 		bl	CyBle_StoreAppData
 507              	.LVL45:
 623:Generated_Source\PSoC4/BLE.c ****         {
 508              		.loc 1 623 0
 509 004e 0028     		cmp	r0, #0
 510 0050 05D1     		bne	.L39
 625:Generated_Source\PSoC4/BLE.c ****         }
 511              		.loc 1 625 0
 512 0052 2378     		ldrb	r3, [r4]
 513 0054 B343     		bics	r3, r6
 514 0056 2370     		strb	r3, [r4]
 515              	.LVL46:
 516 0058 03E0     		b	.L40
 517              	.LVL47:
 518              	.L38:
 629:Generated_Source\PSoC4/BLE.c ****         ((cyBle_pendingFlashWrite & CYBLE_PENDING_CCCD_FLASH_CLEAR_MASK) != 0u) )
 519              		.loc 1 629 0
 520 005a 0028     		cmp	r0, #0
 521 005c 01D0     		beq	.L40
 522              	.LVL48:
 523              	.L39:
 629:Generated_Source\PSoC4/BLE.c ****         ((cyBle_pendingFlashWrite & CYBLE_PENDING_CCCD_FLASH_CLEAR_MASK) != 0u) )
 524              		.loc 1 629 0 is_stmt 0 discriminator 2
 525 005e 002D     		cmp	r5, #0
 526 0060 30D0     		beq	.L52
ARM GAS  C:\Users\user\AppData\Local\Temp\ccfIoC7d.s 			page 34


 527              	.LVL49:
 528              	.L40:
 629:Generated_Source\PSoC4/BLE.c ****         ((cyBle_pendingFlashWrite & CYBLE_PENDING_CCCD_FLASH_CLEAR_MASK) != 0u) )
 529              		.loc 1 629 0 discriminator 3
 530 0062 0C23     		movs	r3, #12
 630:Generated_Source\PSoC4/BLE.c ****     {
 531              		.loc 1 630 0 is_stmt 1 discriminator 3
 532 0064 2178     		ldrb	r1, [r4]
 629:Generated_Source\PSoC4/BLE.c ****         ((cyBle_pendingFlashWrite & CYBLE_PENDING_CCCD_FLASH_CLEAR_MASK) != 0u) )
 533              		.loc 1 629 0 discriminator 3
 534 0066 1942     		tst	r1, r3
 535 0068 2CD0     		beq	.L52
 632:Generated_Source\PSoC4/BLE.c ****         {
 536              		.loc 1 632 0
 537 006a 0826     		movs	r6, #8
 538 006c 3140     		ands	r1, r6
 539 006e 0FD0     		beq	.L42
 540              	.LBB5:
 637:Generated_Source\PSoC4/BLE.c **** 
 541              		.loc 1 637 0
 542 0070 6422     		movs	r2, #100
 543 0072 0021     		movs	r1, #0
 544 0074 01A8     		add	r0, sp, #4
 545 0076 FFF7FEFF 		bl	memset
 546              	.LVL50:
 639:Generated_Source\PSoC4/BLE.c ****                 (const uint8 *)cyBle_flashStorage.attValuesCCCDFlashMemory, sizeof(defaultValuesCCC
 547              		.loc 1 639 0
 548 007a 2B00     		movs	r3, r5
 549 007c 6422     		movs	r2, #100
 550 007e 1749     		ldr	r1, .L64+20
 551 0080 01A8     		add	r0, sp, #4
 552 0082 FFF7FEFF 		bl	CyBle_StoreAppData
 553              	.LVL51:
 641:Generated_Source\PSoC4/BLE.c ****             {
 554              		.loc 1 641 0
 555 0086 0028     		cmp	r0, #0
 556 0088 1CD1     		bne	.L52
 643:Generated_Source\PSoC4/BLE.c ****             }
 557              		.loc 1 643 0
 558 008a 2378     		ldrb	r3, [r4]
 559 008c B343     		bics	r3, r6
 560 008e 15E0     		b	.L63
 561              	.LVL52:
 562              	.L42:
 563              	.LBE5:
 564              	.LBB6:
 648:Generated_Source\PSoC4/BLE.c ****             
 565              		.loc 1 648 0
 566 0090 1426     		movs	r6, #20
 567 0092 01A8     		add	r0, sp, #4
 568 0094 3200     		movs	r2, r6
 569 0096 FFF7FEFF 		bl	memset
 570              	.LVL53:
 650:Generated_Source\PSoC4/BLE.c ****                                     cyBle_pendingFlashClearCccdHandle], CYBLE_GATT_DB_CCCD_COUNT, i
 571              		.loc 1 650 0
 572 009a 114B     		ldr	r3, .L64+24
 573 009c 3200     		movs	r2, r6
ARM GAS  C:\Users\user\AppData\Local\Temp\ccfIoC7d.s 			page 35


 574 009e 5978     		ldrb	r1, [r3, #1]
 575 00a0 0B4B     		ldr	r3, .L64+8
 576 00a2 7143     		muls	r1, r6
 577 00a4 5918     		adds	r1, r3, r1
 578 00a6 0C4B     		ldr	r3, .L64+16
 579 00a8 01A8     		add	r0, sp, #4
 580 00aa C918     		adds	r1, r1, r3
 581 00ac 2B00     		movs	r3, r5
 582 00ae FFF7FEFF 		bl	CyBle_StoreAppData
 583              	.LVL54:
 652:Generated_Source\PSoC4/BLE.c ****             {
 584              		.loc 1 652 0
 585 00b2 0028     		cmp	r0, #0
 586 00b4 06D1     		bne	.L52
 654:Generated_Source\PSoC4/BLE.c ****             }
 587              		.loc 1 654 0
 588 00b6 0422     		movs	r2, #4
 589 00b8 2378     		ldrb	r3, [r4]
 590 00ba 9343     		bics	r3, r2
 591              	.LVL55:
 592              	.L63:
 593 00bc 2370     		strb	r3, [r4]
 594 00be 01E0     		b	.L52
 595              	.L36:
 596              	.LVL56:
 597              	.LBE6:
 598:Generated_Source\PSoC4/BLE.c ****     CYBLE_API_RESULT_T apiResult = CYBLE_ERROR_OK;
 598              		.loc 1 598 0
 599 00c0 0020     		movs	r0, #0
 600 00c2 B2E7     		b	.L45
 601              	.LVL57:
 602              	.L52:
 660:Generated_Source\PSoC4/BLE.c **** 
 603              		.loc 1 660 0
 604 00c4 1AB0     		add	sp, sp, #104
 605              		@ sp needed
 606 00c6 70BD     		pop	{r4, r5, r6, pc}
 607              	.L65:
 608              		.align	2
 609              	.L64:
 610 00c8 00000000 		.word	cyBle_pendingFlashWrite
 611 00cc 00000000 		.word	cyBle_connHandle
 612 00d0 00000000 		.word	cyBle_flashStorage
 613 00d4 00000000 		.word	cyBle_attValuesCCCD
 614 00d8 79020000 		.word	633
 615 00dc 79020000 		.word	cyBle_flashStorage+633
 616 00e0 00000000 		.word	.LANCHOR2
 617              		.cfi_endproc
 618              	.LFE6:
 619              		.size	CyBle_StoreBondingData, .-CyBle_StoreBondingData
 620              		.section	.text.CyBle_GapRemoveBondedDevice,"ax",%progbits
 621              		.align	1
 622              		.global	CyBle_GapRemoveBondedDevice
 623              		.code	16
 624              		.thumb_func
 625              		.type	CyBle_GapRemoveBondedDevice, %function
 626              	CyBle_GapRemoveBondedDevice:
ARM GAS  C:\Users\user\AppData\Local\Temp\ccfIoC7d.s 			page 36


 627              	.LFB7:
 696:Generated_Source\PSoC4/BLE.c ****     CYBLE_API_RESULT_T apiResult = CYBLE_ERROR_OK;
 628              		.loc 1 696 0
 629              		.cfi_startproc
 630              		@ args = 0, pretend = 0, frame = 16
 631              		@ frame_needed = 0, uses_anonymous_args = 0
 632              	.LVL58:
 633 0000 7FB5     		push	{r0, r1, r2, r3, r4, r5, r6, lr}
 634              		.cfi_def_cfa_offset 32
 635              		.cfi_offset 0, -32
 636              		.cfi_offset 1, -28
 637              		.cfi_offset 2, -24
 638              		.cfi_offset 3, -20
 639              		.cfi_offset 4, -16
 640              		.cfi_offset 5, -12
 641              		.cfi_offset 6, -8
 642              		.cfi_offset 14, -4
 699:Generated_Source\PSoC4/BLE.c ****     {
 643              		.loc 1 699 0
 644 0002 144C     		ldr	r4, .L73
 696:Generated_Source\PSoC4/BLE.c ****     CYBLE_API_RESULT_T apiResult = CYBLE_ERROR_OK;
 645              		.loc 1 696 0
 646 0004 0500     		movs	r5, r0
 699:Generated_Source\PSoC4/BLE.c ****     {
 647              		.loc 1 699 0
 648 0006 2178     		ldrb	r1, [r4]
 731:Generated_Source\PSoC4/BLE.c ****     }
 649              		.loc 1 731 0
 650 0008 0220     		movs	r0, #2
 651              	.LVL59:
 699:Generated_Source\PSoC4/BLE.c ****     {
 652              		.loc 1 699 0
 653 000a 0029     		cmp	r1, #0
 654 000c 1FD1     		bne	.L72
 655              	.LBB7:
 705:Generated_Source\PSoC4/BLE.c **** 
 656              		.loc 1 705 0
 657 000e 0722     		movs	r2, #7
 658 0010 02A8     		add	r0, sp, #8
 659 0012 FFF7FEFF 		bl	memset
 660              	.LVL60:
 707:Generated_Source\PSoC4/BLE.c **** 	    {
 661              		.loc 1 707 0
 662 0016 0622     		movs	r2, #6
 663 0018 02A9     		add	r1, sp, #8
 664 001a 2800     		movs	r0, r5
 665 001c FFF7FEFF 		bl	memcmp
 666              	.LVL61:
 667 0020 0028     		cmp	r0, #0
 668 0022 02D1     		bne	.L68
 710:Generated_Source\PSoC4/BLE.c ****         }
 669              		.loc 1 710 0
 670 0024 0823     		movs	r3, #8
 671 0026 2370     		strb	r3, [r4]
 672 0028 0EE0     		b	.L69
 673              	.L68:
 715:Generated_Source\PSoC4/BLE.c ****             if(apiResult == CYBLE_ERROR_OK)
ARM GAS  C:\Users\user\AppData\Local\Temp\ccfIoC7d.s 			page 37


 674              		.loc 1 715 0
 675 002a 6B46     		mov	r3, sp
 676 002c DE1D     		adds	r6, r3, #7
 677 002e 2900     		movs	r1, r5
 678 0030 3000     		movs	r0, r6
 679 0032 FFF7FEFF 		bl	CyBle_GapGetPeerBdHandle
 680              	.LVL62:
 716:Generated_Source\PSoC4/BLE.c ****             {
 681              		.loc 1 716 0
 682 0036 0028     		cmp	r0, #0
 683 0038 09D1     		bne	.L72
 719:Generated_Source\PSoC4/BLE.c ****                 cyBle_pendingFlashClearCccdHandle = bDevHandle;
 684              		.loc 1 719 0
 685 003a 0422     		movs	r2, #4
 686 003c 2378     		ldrb	r3, [r4]
 687 003e 1343     		orrs	r3, r2
 688 0040 2370     		strb	r3, [r4]
 720:Generated_Source\PSoC4/BLE.c ****             }
 689              		.loc 1 720 0
 690 0042 3278     		ldrb	r2, [r6]
 691 0044 044B     		ldr	r3, .L73+4
 692 0046 5A70     		strb	r2, [r3, #1]
 693              	.LVL63:
 694              	.L69:
 726:Generated_Source\PSoC4/BLE.c ****         }
 695              		.loc 1 726 0
 696 0048 2800     		movs	r0, r5
 697 004a FFF7FEFF 		bl	CyBle_GapRemoveDeviceFromWhiteList
 698              	.LVL64:
 699              	.L72:
 700              	.LBE7:
 735:Generated_Source\PSoC4/BLE.c **** 
 701              		.loc 1 735 0
 702 004e 04B0     		add	sp, sp, #16
 703              		@ sp needed
 704              	.LVL65:
 705 0050 70BD     		pop	{r4, r5, r6, pc}
 706              	.L74:
 707 0052 C046     		.align	2
 708              	.L73:
 709 0054 00000000 		.word	cyBle_pendingFlashWrite
 710 0058 00000000 		.word	.LANCHOR2
 711              		.cfi_endproc
 712              	.LFE7:
 713              		.size	CyBle_GapRemoveBondedDevice, .-CyBle_GapRemoveBondedDevice
 714              		.section	.text.CyBle_GappStartAdvertisement,"ax",%progbits
 715              		.align	1
 716              		.global	CyBle_GappStartAdvertisement
 717              		.code	16
 718              		.thumb_func
 719              		.type	CyBle_GappStartAdvertisement, %function
 720              	CyBle_GappStartAdvertisement:
 721              	.LFB8:
 793:Generated_Source\PSoC4/BLE.c ****         CYBLE_API_RESULT_T apiResult;
 722              		.loc 1 793 0
 723              		.cfi_startproc
 724              		@ args = 0, pretend = 0, frame = 0
ARM GAS  C:\Users\user\AppData\Local\Temp\ccfIoC7d.s 			page 38


 725              		@ frame_needed = 0, uses_anonymous_args = 0
 726              	.LVL66:
 727 0000 0200     		movs	r2, r0
 728 0002 10B5     		push	{r4, lr}
 729              		.cfi_def_cfa_offset 8
 730              		.cfi_offset 4, -8
 731              		.cfi_offset 14, -4
 798:Generated_Source\PSoC4/BLE.c ****         }
 732              		.loc 1 798 0
 733 0004 0120     		movs	r0, #1
 734              	.LVL67:
 796:Generated_Source\PSoC4/BLE.c ****         {
 735              		.loc 1 796 0
 736 0006 022A     		cmp	r2, #2
 737 0008 2FD8     		bhi	.L76
 800:Generated_Source\PSoC4/BLE.c ****         {   
 738              		.loc 1 800 0
 739 000a 184B     		ldr	r3, .L83
 740 000c 1B78     		ldrb	r3, [r3]
 741 000e 042B     		cmp	r3, #4
 742 0010 29D1     		bne	.L81
 800:Generated_Source\PSoC4/BLE.c ****         {   
 743              		.loc 1 800 0 is_stmt 0 discriminator 1
 744 0012 174C     		ldr	r4, .L83+4
 745 0014 2178     		ldrb	r1, [r4]
 746 0016 1942     		tst	r1, r3
 747 0018 25D1     		bne	.L81
 748 001a 164B     		ldr	r3, .L83+8
 802:Generated_Source\PSoC4/BLE.c ****             {
 749              		.loc 1 802 0 is_stmt 1
 750 001c 002A     		cmp	r2, #0
 751 001e 08D1     		bne	.L77
 804:Generated_Source\PSoC4/BLE.c ****                 cyBle_discoveryModeInfo.advParam->advIntvMin = CYBLE_FAST_ADV_INT_MIN;
 752              		.loc 1 804 0
 753 0020 1900     		movs	r1, r3
 754 0022 1D30     		adds	r0, r0, #29
 755 0024 5031     		adds	r1, r1, #80
 756 0026 0880     		strh	r0, [r1]
 805:Generated_Source\PSoC4/BLE.c ****                 cyBle_discoveryModeInfo.advParam->advIntvMax = CYBLE_FAST_ADV_INT_MAX;
 757              		.loc 1 805 0
 758 0028 596C     		ldr	r1, [r3, #68]
 759 002a 0230     		adds	r0, r0, #2
 760 002c 0880     		strh	r0, [r1]
 806:Generated_Source\PSoC4/BLE.c ****             }
 761              		.loc 1 806 0
 762 002e 1030     		adds	r0, r0, #16
 763 0030 0BE0     		b	.L82
 764              	.L77:
 808:Generated_Source\PSoC4/BLE.c ****             {
 765              		.loc 1 808 0
 766 0032 012A     		cmp	r2, #1
 767 0034 0AD1     		bne	.L78
 810:Generated_Source\PSoC4/BLE.c ****                 cyBle_discoveryModeInfo.advParam->advIntvMin = CYBLE_SLOW_ADV_INT_MIN;
 768              		.loc 1 810 0
 769 0036 1900     		movs	r1, r3
 770 0038 9620     		movs	r0, #150
 771 003a 5031     		adds	r1, r1, #80
ARM GAS  C:\Users\user\AppData\Local\Temp\ccfIoC7d.s 			page 39


 772 003c 0880     		strh	r0, [r1]
 811:Generated_Source\PSoC4/BLE.c ****                 cyBle_discoveryModeInfo.advParam->advIntvMax = CYBLE_SLOW_ADV_INT_MAX;
 773              		.loc 1 811 0
 774 003e C820     		movs	r0, #200
 775 0040 596C     		ldr	r1, [r3, #68]
 776 0042 C000     		lsls	r0, r0, #3
 777 0044 0880     		strh	r0, [r1]
 812:Generated_Source\PSoC4/BLE.c ****             }       
 778              		.loc 1 812 0
 779 0046 FA20     		movs	r0, #250
 780 0048 0001     		lsls	r0, r0, #4
 781              	.L82:
 782 004a 4880     		strh	r0, [r1, #2]
 783              	.L78:
 817:Generated_Source\PSoC4/BLE.c ****             apiResult = CyBle_GappEnterDiscoveryMode(&cyBle_discoveryModeInfo);
 784              		.loc 1 817 0
 785 004c 0A49     		ldr	r1, .L83+12
 818:Generated_Source\PSoC4/BLE.c ****         
 786              		.loc 1 818 0
 787 004e 4033     		adds	r3, r3, #64
 788 0050 1800     		movs	r0, r3
 817:Generated_Source\PSoC4/BLE.c ****             apiResult = CyBle_GappEnterDiscoveryMode(&cyBle_discoveryModeInfo);
 789              		.loc 1 817 0
 790 0052 0A70     		strb	r2, [r1]
 818:Generated_Source\PSoC4/BLE.c ****         
 791              		.loc 1 818 0
 792 0054 FFF7FEFF 		bl	CyBle_GappEnterDiscoveryMode
 793              	.LVL68:
 820:Generated_Source\PSoC4/BLE.c ****             {
 794              		.loc 1 820 0
 795 0058 0028     		cmp	r0, #0
 796 005a 06D1     		bne	.L76
 822:Generated_Source\PSoC4/BLE.c ****             }
 797              		.loc 1 822 0
 798 005c 0422     		movs	r2, #4
 799 005e 2378     		ldrb	r3, [r4]
 800 0060 1343     		orrs	r3, r2
 801 0062 2370     		strb	r3, [r4]
 802 0064 01E0     		b	.L76
 803              	.LVL69:
 804              	.L81:
 827:Generated_Source\PSoC4/BLE.c ****         }
 805              		.loc 1 827 0
 806 0066 0420     		movs	r0, #4
 807 0068 FF30     		adds	r0, r0, #255
 808              	.L76:
 809              	.LVL70:
 831:Generated_Source\PSoC4/BLE.c **** 
 810              		.loc 1 831 0
 811              		@ sp needed
 812 006a 10BD     		pop	{r4, pc}
 813              	.L84:
 814              		.align	2
 815              	.L83:
 816 006c 00000000 		.word	cyBle_state
 817 0070 00000000 		.word	cyBle_eventHandlerFlag
 818 0074 00000000 		.word	.LANCHOR0
ARM GAS  C:\Users\user\AppData\Local\Temp\ccfIoC7d.s 			page 40


 819 0078 00000000 		.word	cyBle_advertisingIntervalType
 820              		.cfi_endproc
 821              	.LFE8:
 822              		.size	CyBle_GappStartAdvertisement, .-CyBle_GappStartAdvertisement
 823              		.section	.text.CyBle_GappStopAdvertisement,"ax",%progbits
 824              		.align	1
 825              		.global	CyBle_GappStopAdvertisement
 826              		.code	16
 827              		.thumb_func
 828              		.type	CyBle_GappStopAdvertisement, %function
 829              	CyBle_GappStopAdvertisement:
 830              	.LFB9:
 854:Generated_Source\PSoC4/BLE.c ****         CyBle_GappExitDiscoveryMode();
 831              		.loc 1 854 0
 832              		.cfi_startproc
 833              		@ args = 0, pretend = 0, frame = 0
 834              		@ frame_needed = 0, uses_anonymous_args = 0
 835 0000 10B5     		push	{r4, lr}
 836              		.cfi_def_cfa_offset 8
 837              		.cfi_offset 4, -8
 838              		.cfi_offset 14, -4
 855:Generated_Source\PSoC4/BLE.c ****         cyBle_eventHandlerFlag |= CYBLE_STOP_FLAG;
 839              		.loc 1 855 0
 840 0002 FFF7FEFF 		bl	CyBle_GappExitDiscoveryMode
 841              	.LVL71:
 856:Generated_Source\PSoC4/BLE.c ****     }
 842              		.loc 1 856 0
 843 0006 0821     		movs	r1, #8
 844 0008 024A     		ldr	r2, .L86
 857:Generated_Source\PSoC4/BLE.c ****     
 845              		.loc 1 857 0
 846              		@ sp needed
 856:Generated_Source\PSoC4/BLE.c ****     }
 847              		.loc 1 856 0
 848 000a 1378     		ldrb	r3, [r2]
 849 000c 0B43     		orrs	r3, r1
 850 000e 1370     		strb	r3, [r2]
 857:Generated_Source\PSoC4/BLE.c ****     
 851              		.loc 1 857 0
 852 0010 10BD     		pop	{r4, pc}
 853              	.L87:
 854 0012 C046     		.align	2
 855              	.L86:
 856 0014 00000000 		.word	cyBle_eventHandlerFlag
 857              		.cfi_endproc
 858              	.LFE9:
 859              		.size	CyBle_GappStopAdvertisement, .-CyBle_GappStopAdvertisement
 860              		.section	.text.CyBle_ChangeAdDeviceAddress,"ax",%progbits
 861              		.align	1
 862              		.global	CyBle_ChangeAdDeviceAddress
 863              		.code	16
 864              		.thumb_func
 865              		.type	CyBle_ChangeAdDeviceAddress, %function
 866              	CyBle_ChangeAdDeviceAddress:
 867              	.LFB10:
 876:Generated_Source\PSoC4/BLE.c ****         uint8 i;
 868              		.loc 1 876 0
ARM GAS  C:\Users\user\AppData\Local\Temp\ccfIoC7d.s 			page 41


 869              		.cfi_startproc
 870              		@ args = 0, pretend = 0, frame = 0
 871              		@ frame_needed = 0, uses_anonymous_args = 0
 872              		@ link register save eliminated.
 873              	.LVL72:
 903:Generated_Source\PSoC4/BLE.c ****   
 874              		.loc 1 903 0
 875              		@ sp needed
 876 0000 7047     		bx	lr
 877              		.cfi_endproc
 878              	.LFE10:
 879              		.size	CyBle_ChangeAdDeviceAddress, .-CyBle_ChangeAdDeviceAddress
 880              		.section	.text.CyBle_GapSetLocalName,"ax",%progbits
 881              		.align	1
 882              		.global	CyBle_GapSetLocalName
 883              		.code	16
 884              		.thumb_func
 885              		.type	CyBle_GapSetLocalName, %function
 886              	CyBle_GapSetLocalName:
 887              	.LFB12:
1265:Generated_Source\PSoC4/BLE.c ****         
1266:Generated_Source\PSoC4/BLE.c **** #endif /* (CYBLE_GAP_ROLE_PERIPHERAL) */  
1267:Generated_Source\PSoC4/BLE.c ****     
1268:Generated_Source\PSoC4/BLE.c ****     
1269:Generated_Source\PSoC4/BLE.c ****     /******************************************************************************
1270:Generated_Source\PSoC4/BLE.c ****     * Function Name: CyBle_GapSetLocalName
1271:Generated_Source\PSoC4/BLE.c ****     ***************************************************************************//**
1272:Generated_Source\PSoC4/BLE.c ****     *  This function is used to set the local device name - a Characteristic of the 
1273:Generated_Source\PSoC4/BLE.c ****     *  GAP Service. If the characteristic length entered in the component customizer
1274:Generated_Source\PSoC4/BLE.c ****     *  is shorter than the string specified by the "name" parameter, the local device
1275:Generated_Source\PSoC4/BLE.c ****     *  name will be cut to the length specified in the customizer.
1276:Generated_Source\PSoC4/BLE.c ****     * 
1277:Generated_Source\PSoC4/BLE.c ****     *  \param name: The local device name string. The name string to be written as
1278:Generated_Source\PSoC4/BLE.c ****     *              the local device name. It represents a UTF-8 encoded User
1279:Generated_Source\PSoC4/BLE.c ****     *              Friendly Descriptive Name for the device. The length of the local
1280:Generated_Source\PSoC4/BLE.c ****     *              device string is entered into the component customizer and it can
1281:Generated_Source\PSoC4/BLE.c ****     *              be set to a value from 0 to 248 bytes. If the name contained in
1282:Generated_Source\PSoC4/BLE.c ****     *              the parameter is shorter than the length from the customizer, the
1283:Generated_Source\PSoC4/BLE.c ****     *              end of the name is indicated by a NULL octet (0x00).
1284:Generated_Source\PSoC4/BLE.c ****     * 
1285:Generated_Source\PSoC4/BLE.c ****     * \return
1286:Generated_Source\PSoC4/BLE.c ****     *  CYBLE_API_RESULT_T : Return value indicates if the function succeeded or 
1287:Generated_Source\PSoC4/BLE.c ****     *  failed. Following are the possible error codes.
1288:Generated_Source\PSoC4/BLE.c ****     *
1289:Generated_Source\PSoC4/BLE.c ****     *   Errors codes                       | Description
1290:Generated_Source\PSoC4/BLE.c ****     *   ------------                       | -----------
1291:Generated_Source\PSoC4/BLE.c ****     *   CYBLE_ERROR_OK                     | Function completed successfully.
1292:Generated_Source\PSoC4/BLE.c ****     *   CYBLE_ERROR_INVALID_PARAMETER      | On specifying NULL as input parameter
1293:Generated_Source\PSoC4/BLE.c ****     *  
1294:Generated_Source\PSoC4/BLE.c ****     *******************************************************************************/
1295:Generated_Source\PSoC4/BLE.c ****     CYBLE_API_RESULT_T CyBle_GapSetLocalName(const char8 name[])
1296:Generated_Source\PSoC4/BLE.c ****     {
 888              		.loc 1 1296 0
 889              		.cfi_startproc
 890              		@ args = 0, pretend = 0, frame = 0
 891              		@ frame_needed = 0, uses_anonymous_args = 0
 892              	.LVL73:
ARM GAS  C:\Users\user\AppData\Local\Temp\ccfIoC7d.s 			page 42


 893 0000 10B5     		push	{r4, lr}
 894              		.cfi_def_cfa_offset 8
 895              		.cfi_offset 4, -8
 896              		.cfi_offset 14, -4
 897              		.loc 1 1296 0
 898 0002 0400     		movs	r4, r0
1297:Generated_Source\PSoC4/BLE.c ****         CYBLE_API_RESULT_T apiResult = CYBLE_ERROR_OK;
1298:Generated_Source\PSoC4/BLE.c ****         uint8 i;
1299:Generated_Source\PSoC4/BLE.c ****         char8 *ptr;
1300:Generated_Source\PSoC4/BLE.c ****         uint8 charLen;
1301:Generated_Source\PSoC4/BLE.c **** 
1302:Generated_Source\PSoC4/BLE.c ****         if(NULL != name)
1303:Generated_Source\PSoC4/BLE.c ****         {
1304:Generated_Source\PSoC4/BLE.c ****             /* Get the pointer to the Device Name characteristic  */
1305:Generated_Source\PSoC4/BLE.c ****             ptr = (char8 *) CYBLE_GATT_DB_ATTR_GET_ATTR_GEN_PTR(cyBle_gaps.deviceNameCharHandle);
1306:Generated_Source\PSoC4/BLE.c **** 
1307:Generated_Source\PSoC4/BLE.c ****             /* First need to get the maximum length of the characteristic data in the GATT
1308:Generated_Source\PSoC4/BLE.c ****                 database to make sure there is enough place for the data. The length
1309:Generated_Source\PSoC4/BLE.c ****                 can't be longer than 248, so only the LSB of 16 bit of length is to
1310:Generated_Source\PSoC4/BLE.c ****                 be used. */
1311:Generated_Source\PSoC4/BLE.c ****             charLen = (uint8)CYBLE_GATT_DB_ATTR_GET_ATTR_GEN_MAX_LEN(cyBle_gaps.deviceNameCharHandl
1312:Generated_Source\PSoC4/BLE.c **** 
1313:Generated_Source\PSoC4/BLE.c ****             /* Copy name into characteristic */
1314:Generated_Source\PSoC4/BLE.c ****             for(i = 0u; ((i < charLen) && (CYBLE_NULL_CHARCTER != name[i])); i++)
1315:Generated_Source\PSoC4/BLE.c ****             {
1316:Generated_Source\PSoC4/BLE.c ****                 ptr[i] = name[i];
1317:Generated_Source\PSoC4/BLE.c ****             }
1318:Generated_Source\PSoC4/BLE.c **** 
1319:Generated_Source\PSoC4/BLE.c ****             if(i < charLen)
1320:Generated_Source\PSoC4/BLE.c ****             {
1321:Generated_Source\PSoC4/BLE.c ****                 /* Terminate string */
1322:Generated_Source\PSoC4/BLE.c ****                 ptr[i] = CYBLE_NULL_CHARCTER;
1323:Generated_Source\PSoC4/BLE.c ****             }
1324:Generated_Source\PSoC4/BLE.c ****             
1325:Generated_Source\PSoC4/BLE.c ****             /* Set new actual length */
1326:Generated_Source\PSoC4/BLE.c ****             
1327:Generated_Source\PSoC4/BLE.c ****             /* Update device name in advertising and scan response structure */
1328:Generated_Source\PSoC4/BLE.c ****             #if(CYBLE_GAP_ROLE_PERIPHERAL)
1329:Generated_Source\PSoC4/BLE.c ****                 CyBle_ChangeAdLocalName(name, 0u);
1330:Generated_Source\PSoC4/BLE.c ****                 CyBle_ChangeAdLocalName(name, 1u);
1331:Generated_Source\PSoC4/BLE.c ****             #endif /* (CYBLE_GAP_ROLE_PERIPHERAL) */
1332:Generated_Source\PSoC4/BLE.c ****         }
1333:Generated_Source\PSoC4/BLE.c ****         else
1334:Generated_Source\PSoC4/BLE.c ****         {
1335:Generated_Source\PSoC4/BLE.c ****             apiResult = CYBLE_ERROR_INVALID_PARAMETER;
 899              		.loc 1 1335 0
 900 0004 0120     		movs	r0, #1
 901              	.LVL74:
1302:Generated_Source\PSoC4/BLE.c ****         {
 902              		.loc 1 1302 0
 903 0006 002C     		cmp	r4, #0
 904 0008 1CD0     		beq	.L90
1305:Generated_Source\PSoC4/BLE.c **** 
 905              		.loc 1 1305 0
 906 000a 1422     		movs	r2, #20
 907 000c 0E4B     		ldr	r3, .L95
 908 000e 5B88     		ldrh	r3, [r3, #2]
ARM GAS  C:\Users\user\AppData\Local\Temp\ccfIoC7d.s 			page 43


 909 0010 013B     		subs	r3, r3, #1
 910 0012 5343     		muls	r3, r2
 911 0014 0D4A     		ldr	r2, .L95+4
 912 0016 D318     		adds	r3, r2, r3
 913 0018 1A69     		ldr	r2, [r3, #16]
1311:Generated_Source\PSoC4/BLE.c **** 
 914              		.loc 1 1311 0
 915 001a 187B     		ldrb	r0, [r3, #12]
1314:Generated_Source\PSoC4/BLE.c ****             {
 916              		.loc 1 1314 0
 917 001c 0023     		movs	r3, #0
1305:Generated_Source\PSoC4/BLE.c **** 
 918              		.loc 1 1305 0
 919 001e 5168     		ldr	r1, [r2, #4]
 920              	.LVL75:
 921              	.L91:
1314:Generated_Source\PSoC4/BLE.c ****             {
 922              		.loc 1 1314 0 discriminator 1
 923 0020 DAB2     		uxtb	r2, r3
 924 0022 9042     		cmp	r0, r2
 925 0024 05D9     		bls	.L92
1314:Generated_Source\PSoC4/BLE.c ****             {
 926              		.loc 1 1314 0 is_stmt 0 discriminator 3
 927 0026 E25C     		ldrb	r2, [r4, r3]
1316:Generated_Source\PSoC4/BLE.c ****             }
 928              		.loc 1 1316 0 is_stmt 1 discriminator 3
 929 0028 CA54     		strb	r2, [r1, r3]
1314:Generated_Source\PSoC4/BLE.c ****             {
 930              		.loc 1 1314 0 discriminator 3
 931 002a 002A     		cmp	r2, #0
 932 002c 01D0     		beq	.L92
 933              	.LVL76:
 934 002e 0133     		adds	r3, r3, #1
 935              	.LVL77:
 936 0030 F6E7     		b	.L91
 937              	.LVL78:
 938              	.L92:
1329:Generated_Source\PSoC4/BLE.c ****                 CyBle_ChangeAdLocalName(name, 1u);
 939              		.loc 1 1329 0
 940 0032 0021     		movs	r1, #0
 941              	.LVL79:
 942 0034 2000     		movs	r0, r4
 943              	.LVL80:
 944 0036 FFF7FEFF 		bl	CyBle_ChangeAdLocalName
 945              	.LVL81:
1330:Generated_Source\PSoC4/BLE.c ****             #endif /* (CYBLE_GAP_ROLE_PERIPHERAL) */
 946              		.loc 1 1330 0
 947 003a 2000     		movs	r0, r4
 948 003c 0121     		movs	r1, #1
 949 003e FFF7FEFF 		bl	CyBle_ChangeAdLocalName
 950              	.LVL82:
1297:Generated_Source\PSoC4/BLE.c ****         uint8 i;
 951              		.loc 1 1297 0
 952 0042 0020     		movs	r0, #0
 953              	.L90:
 954              	.LVL83:
1336:Generated_Source\PSoC4/BLE.c ****         }
ARM GAS  C:\Users\user\AppData\Local\Temp\ccfIoC7d.s 			page 44


1337:Generated_Source\PSoC4/BLE.c ****         
1338:Generated_Source\PSoC4/BLE.c ****         return(apiResult);
1339:Generated_Source\PSoC4/BLE.c ****     }
 955              		.loc 1 1339 0
 956              		@ sp needed
 957              	.LVL84:
 958 0044 10BD     		pop	{r4, pc}
 959              	.L96:
 960 0046 C046     		.align	2
 961              	.L95:
 962 0048 00000000 		.word	cyBle_gaps
 963 004c 00000000 		.word	cyBle_gattDB
 964              		.cfi_endproc
 965              	.LFE12:
 966              		.size	CyBle_GapSetLocalName, .-CyBle_GapSetLocalName
 967              		.section	.text.CyBle_GapGetLocalName,"ax",%progbits
 968              		.align	1
 969              		.global	CyBle_GapGetLocalName
 970              		.code	16
 971              		.thumb_func
 972              		.type	CyBle_GapGetLocalName, %function
 973              	CyBle_GapGetLocalName:
 974              	.LFB13:
1340:Generated_Source\PSoC4/BLE.c **** 
1341:Generated_Source\PSoC4/BLE.c **** 
1342:Generated_Source\PSoC4/BLE.c ****     /******************************************************************************
1343:Generated_Source\PSoC4/BLE.c ****     * Function Name: CyBle_GapGetLocalName
1344:Generated_Source\PSoC4/BLE.c ****     ***************************************************************************//**
1345:Generated_Source\PSoC4/BLE.c ****     *  
1346:Generated_Source\PSoC4/BLE.c ****     *  This function is used to read the local device name - a Characteristic of the 
1347:Generated_Source\PSoC4/BLE.c ****     *  GAP Service.
1348:Generated_Source\PSoC4/BLE.c ****     * 
1349:Generated_Source\PSoC4/BLE.c ****     * \param name: The local device name string. Used to read the local name to the
1350:Generated_Source\PSoC4/BLE.c ****     *             given string array. It represents a UTF-8 encoded User Friendly 
1351:Generated_Source\PSoC4/BLE.c ****     *             Descriptive Name for the device. The length of the local device
1352:Generated_Source\PSoC4/BLE.c ****     *             string is entered into the component customizer and it can be set
1353:Generated_Source\PSoC4/BLE.c ****     *             to a value from 0 to 248 bytes. If the name contained in the
1354:Generated_Source\PSoC4/BLE.c ****     *             parameter is shorter than the length from the customizer, the end
1355:Generated_Source\PSoC4/BLE.c ****     *             of the name is indicated by a NULL octet (0x00).
1356:Generated_Source\PSoC4/BLE.c ****     * 
1357:Generated_Source\PSoC4/BLE.c ****     * \return
1358:Generated_Source\PSoC4/BLE.c ****     *  CYBLE_API_RESULT_T : Return value indicates if the function succeeded or 
1359:Generated_Source\PSoC4/BLE.c ****     *  failed. Following are the possible error codes.
1360:Generated_Source\PSoC4/BLE.c ****     *
1361:Generated_Source\PSoC4/BLE.c ****     *   Errors codes                       | Description
1362:Generated_Source\PSoC4/BLE.c ****     *   ------------                       | -----------
1363:Generated_Source\PSoC4/BLE.c ****     *   CYBLE_ERROR_OK                     | Function completed successfully.
1364:Generated_Source\PSoC4/BLE.c ****     *   CYBLE_ERROR_INVALID_PARAMETER      | On specifying NULL as input parameter
1365:Generated_Source\PSoC4/BLE.c ****     *
1366:Generated_Source\PSoC4/BLE.c ****     *******************************************************************************/
1367:Generated_Source\PSoC4/BLE.c ****     CYBLE_API_RESULT_T CyBle_GapGetLocalName(char8 name[])
1368:Generated_Source\PSoC4/BLE.c ****     {
 975              		.loc 1 1368 0
 976              		.cfi_startproc
 977              		@ args = 0, pretend = 0, frame = 0
 978              		@ frame_needed = 0, uses_anonymous_args = 0
 979              	.LVL85:
ARM GAS  C:\Users\user\AppData\Local\Temp\ccfIoC7d.s 			page 45


 980 0000 0100     		movs	r1, r0
 981 0002 10B5     		push	{r4, lr}
 982              		.cfi_def_cfa_offset 8
 983              		.cfi_offset 4, -8
 984              		.cfi_offset 14, -4
1369:Generated_Source\PSoC4/BLE.c ****         CYBLE_API_RESULT_T apiResult = CYBLE_ERROR_OK;
1370:Generated_Source\PSoC4/BLE.c ****         uint8 charLen;
1371:Generated_Source\PSoC4/BLE.c ****         uint8 i;
1372:Generated_Source\PSoC4/BLE.c ****         char8 *ptr;
1373:Generated_Source\PSoC4/BLE.c **** 
1374:Generated_Source\PSoC4/BLE.c ****         if(NULL != name)
1375:Generated_Source\PSoC4/BLE.c ****         {
1376:Generated_Source\PSoC4/BLE.c ****             /* Get the pointer to the Device Name characteristic  */
1377:Generated_Source\PSoC4/BLE.c ****             ptr = (char8 *) CYBLE_GATT_DB_ATTR_GET_ATTR_GEN_PTR(cyBle_gaps.deviceNameCharHandle);
1378:Generated_Source\PSoC4/BLE.c **** 
1379:Generated_Source\PSoC4/BLE.c ****             /* First need to get the length of the characteristic data in the GATT
1380:Generated_Source\PSoC4/BLE.c ****                 database to make sure there is enough place for the data. The length
1381:Generated_Source\PSoC4/BLE.c ****                 can't be longer than 248, so only the LSB of 16 bit of length is to
1382:Generated_Source\PSoC4/BLE.c ****                 be used. */
1383:Generated_Source\PSoC4/BLE.c ****             charLen = (uint8)CYBLE_GATT_DB_ATTR_GET_ATTR_GEN_LEN(cyBle_gaps.deviceNameCharHandle);
1384:Generated_Source\PSoC4/BLE.c **** 
1385:Generated_Source\PSoC4/BLE.c ****             /* Copy name from characteristic */
1386:Generated_Source\PSoC4/BLE.c ****             for(i = 0u; ((i < charLen) && (CYBLE_NULL_CHARCTER != ptr[i])); i++)
1387:Generated_Source\PSoC4/BLE.c ****             {
1388:Generated_Source\PSoC4/BLE.c ****                 name[i] = ptr[i];
1389:Generated_Source\PSoC4/BLE.c ****             }
1390:Generated_Source\PSoC4/BLE.c **** 
1391:Generated_Source\PSoC4/BLE.c ****             /* Terminate string */
1392:Generated_Source\PSoC4/BLE.c ****             name[i] = CYBLE_NULL_CHARCTER;
1393:Generated_Source\PSoC4/BLE.c ****         }
1394:Generated_Source\PSoC4/BLE.c ****         else
1395:Generated_Source\PSoC4/BLE.c ****         {
1396:Generated_Source\PSoC4/BLE.c ****             apiResult = CYBLE_ERROR_INVALID_PARAMETER;
 985              		.loc 1 1396 0
 986 0004 0120     		movs	r0, #1
 987              	.LVL86:
1374:Generated_Source\PSoC4/BLE.c ****         {
 988              		.loc 1 1374 0
 989 0006 0029     		cmp	r1, #0
 990 0008 18D0     		beq	.L98
1377:Generated_Source\PSoC4/BLE.c **** 
 991              		.loc 1 1377 0
 992 000a 1422     		movs	r2, #20
 993 000c 0C4B     		ldr	r3, .L104
 994 000e 5B88     		ldrh	r3, [r3, #2]
 995 0010 013B     		subs	r3, r3, #1
 996 0012 5343     		muls	r3, r2
 997 0014 0B4A     		ldr	r2, .L104+4
 998 0016 D318     		adds	r3, r2, r3
 999 0018 1B69     		ldr	r3, [r3, #16]
 1000 001a 5868     		ldr	r0, [r3, #4]
 1001              	.LVL87:
1383:Generated_Source\PSoC4/BLE.c **** 
 1002              		.loc 1 1383 0
 1003 001c 1C78     		ldrb	r4, [r3]
 1004              	.LVL88:
1386:Generated_Source\PSoC4/BLE.c ****             {
ARM GAS  C:\Users\user\AppData\Local\Temp\ccfIoC7d.s 			page 46


 1005              		.loc 1 1386 0
 1006 001e 0023     		movs	r3, #0
 1007              	.LVL89:
 1008              	.L99:
1386:Generated_Source\PSoC4/BLE.c ****             {
 1009              		.loc 1 1386 0 is_stmt 0 discriminator 1
 1010 0020 DAB2     		uxtb	r2, r3
 1011 0022 A242     		cmp	r2, r4
 1012 0024 04D3     		bcc	.L100
 1013              	.L102:
1392:Generated_Source\PSoC4/BLE.c ****         }
 1014              		.loc 1 1392 0 is_stmt 1
 1015 0026 0022     		movs	r2, #0
 1016 0028 DBB2     		uxtb	r3, r3
 1017 002a CA54     		strb	r2, [r1, r3]
1369:Generated_Source\PSoC4/BLE.c ****         uint8 charLen;
 1018              		.loc 1 1369 0
 1019 002c 1000     		movs	r0, r2
 1020              	.LVL90:
 1021 002e 05E0     		b	.L98
 1022              	.LVL91:
 1023              	.L100:
1386:Generated_Source\PSoC4/BLE.c ****             {
 1024              		.loc 1 1386 0 discriminator 3
 1025 0030 C25C     		ldrb	r2, [r0, r3]
 1026 0032 002A     		cmp	r2, #0
 1027 0034 F7D0     		beq	.L102
1388:Generated_Source\PSoC4/BLE.c ****             }
 1028              		.loc 1 1388 0 discriminator 4
 1029 0036 CA54     		strb	r2, [r1, r3]
 1030              	.LVL92:
 1031 0038 0133     		adds	r3, r3, #1
 1032              	.LVL93:
 1033 003a F1E7     		b	.L99
 1034              	.LVL94:
 1035              	.L98:
1397:Generated_Source\PSoC4/BLE.c ****         }
1398:Generated_Source\PSoC4/BLE.c ****         
1399:Generated_Source\PSoC4/BLE.c ****         return(apiResult);
1400:Generated_Source\PSoC4/BLE.c ****     }
 1036              		.loc 1 1400 0
 1037              		@ sp needed
 1038 003c 10BD     		pop	{r4, pc}
 1039              	.L105:
 1040 003e C046     		.align	2
 1041              	.L104:
 1042 0040 00000000 		.word	cyBle_gaps
 1043 0044 00000000 		.word	cyBle_gattDB
 1044              		.cfi_endproc
 1045              	.LFE13:
 1046              		.size	CyBle_GapGetLocalName, .-CyBle_GapGetLocalName
 1047              		.section	.text.CyBle_Get16ByPtr,"ax",%progbits
 1048              		.align	1
 1049              		.global	CyBle_Get16ByPtr
 1050              		.code	16
 1051              		.thumb_func
 1052              		.type	CyBle_Get16ByPtr, %function
ARM GAS  C:\Users\user\AppData\Local\Temp\ccfIoC7d.s 			page 47


 1053              	CyBle_Get16ByPtr:
 1054              	.LFB14:
1401:Generated_Source\PSoC4/BLE.c **** 
1402:Generated_Source\PSoC4/BLE.c **** #endif /* (CYBLE_GATT_ROLE_SERVER) */
1403:Generated_Source\PSoC4/BLE.c **** 
1404:Generated_Source\PSoC4/BLE.c **** 
1405:Generated_Source\PSoC4/BLE.c **** /******************************************************************************
1406:Generated_Source\PSoC4/BLE.c **** * Function Name: CyBle_Get16ByPtr
1407:Generated_Source\PSoC4/BLE.c **** ***************************************************************************//**
1408:Generated_Source\PSoC4/BLE.c **** * 
1409:Generated_Source\PSoC4/BLE.c **** *  Returns the two-bytes value by using a pointer to the LSB.
1410:Generated_Source\PSoC4/BLE.c **** * 
1411:Generated_Source\PSoC4/BLE.c **** *  \param ptr: Pointer to the LSB of two-bytes data (little endian).
1412:Generated_Source\PSoC4/BLE.c **** * 
1413:Generated_Source\PSoC4/BLE.c **** *  \return
1414:Generated_Source\PSoC4/BLE.c **** *  uint16: Two-bytes data.
1415:Generated_Source\PSoC4/BLE.c **** * 
1416:Generated_Source\PSoC4/BLE.c **** ******************************************************************************/
1417:Generated_Source\PSoC4/BLE.c **** uint16 CyBle_Get16ByPtr(const uint8 ptr[])
1418:Generated_Source\PSoC4/BLE.c **** {
 1055              		.loc 1 1418 0
 1056              		.cfi_startproc
 1057              		@ args = 0, pretend = 0, frame = 0
 1058              		@ frame_needed = 0, uses_anonymous_args = 0
 1059              		@ link register save eliminated.
 1060              	.LVL95:
1419:Generated_Source\PSoC4/BLE.c ****     return ((uint16) ptr[0u] | ((uint16) (((uint16) ptr[1u]) << 8u)));
 1061              		.loc 1 1419 0
 1062 0000 0378     		ldrb	r3, [r0]
 1063 0002 4078     		ldrb	r0, [r0, #1]
 1064              	.LVL96:
1420:Generated_Source\PSoC4/BLE.c **** }
 1065              		.loc 1 1420 0
 1066              		@ sp needed
1419:Generated_Source\PSoC4/BLE.c ****     return ((uint16) ptr[0u] | ((uint16) (((uint16) ptr[1u]) << 8u)));
 1067              		.loc 1 1419 0
 1068 0004 0002     		lsls	r0, r0, #8
 1069 0006 1843     		orrs	r0, r3
 1070              		.loc 1 1420 0
 1071 0008 7047     		bx	lr
 1072              		.cfi_endproc
 1073              	.LFE14:
 1074              		.size	CyBle_Get16ByPtr, .-CyBle_Get16ByPtr
 1075              		.section	.text.CyBle_Set16ByPtr,"ax",%progbits
 1076              		.align	1
 1077              		.global	CyBle_Set16ByPtr
 1078              		.code	16
 1079              		.thumb_func
 1080              		.type	CyBle_Set16ByPtr, %function
 1081              	CyBle_Set16ByPtr:
 1082              	.LFB15:
1421:Generated_Source\PSoC4/BLE.c **** 
1422:Generated_Source\PSoC4/BLE.c **** 
1423:Generated_Source\PSoC4/BLE.c **** /******************************************************************************
1424:Generated_Source\PSoC4/BLE.c **** * Function Name: CyBle_Set16ByPtr
1425:Generated_Source\PSoC4/BLE.c **** ***************************************************************************//**
1426:Generated_Source\PSoC4/BLE.c **** * 
ARM GAS  C:\Users\user\AppData\Local\Temp\ccfIoC7d.s 			page 48


1427:Generated_Source\PSoC4/BLE.c **** *  Sets the two-bytes value by using a pointer to the LSB.
1428:Generated_Source\PSoC4/BLE.c **** * 
1429:Generated_Source\PSoC4/BLE.c **** *  \param ptr:    Pointer to the LSB of two-bytes data (little endian).
1430:Generated_Source\PSoC4/BLE.c **** *  \param value:  Two-bytes data to be written.
1431:Generated_Source\PSoC4/BLE.c **** * 
1432:Generated_Source\PSoC4/BLE.c **** *  \return
1433:Generated_Source\PSoC4/BLE.c **** *  None
1434:Generated_Source\PSoC4/BLE.c **** * 
1435:Generated_Source\PSoC4/BLE.c **** ******************************************************************************/
1436:Generated_Source\PSoC4/BLE.c **** void CyBle_Set16ByPtr(uint8 ptr[], uint16 value)
1437:Generated_Source\PSoC4/BLE.c **** {
 1083              		.loc 1 1437 0
 1084              		.cfi_startproc
 1085              		@ args = 0, pretend = 0, frame = 0
 1086              		@ frame_needed = 0, uses_anonymous_args = 0
 1087              		@ link register save eliminated.
 1088              	.LVL97:
1438:Generated_Source\PSoC4/BLE.c ****     ptr[0u] = (uint8) value;
 1089              		.loc 1 1438 0
 1090 0000 0170     		strb	r1, [r0]
1439:Generated_Source\PSoC4/BLE.c ****     ptr[1u] = (uint8) (value >> 8u);
 1091              		.loc 1 1439 0
 1092 0002 090A     		lsrs	r1, r1, #8
 1093              	.LVL98:
 1094 0004 4170     		strb	r1, [r0, #1]
1440:Generated_Source\PSoC4/BLE.c **** }
 1095              		.loc 1 1440 0
 1096              		@ sp needed
 1097 0006 7047     		bx	lr
 1098              		.cfi_endproc
 1099              	.LFE15:
 1100              		.size	CyBle_Set16ByPtr, .-CyBle_Set16ByPtr
 1101              		.global	cyBle_sflashDeviceAddress
 1102              		.global	cyBle_deviceAddress
 1103              		.comm	CyBle_ApplCallback,4,4
 1104              		.comm	cyBle_pendingFlashWrite,1,1
 1105              		.comm	cyBle_peerBonding,1,1
 1106              		.global	cyBle_discoveryModeInfo
 1107              		.global	cyBle_scanRspData
 1108              		.global	cyBle_discoveryData
 1109              		.global	cyBle_discoveryParam
 1110              		.global	cyBle_stackMemoryRam
 1111              		.global	cyBle_initVar
 1112              		.section	.rodata
 1113              		.align	1
 1114              		.set	.LANCHOR1,. + 0
 1115              	.LC0:
 1116 0000 2400     		.short	36
 1117 0002 03       		.byte	3
 1118 0003 00       		.space	1
 1119 0004 3000     		.short	48
 1120 0006 01       		.byte	1
 1121 0007 00       		.space	1
 1122 0008 2800     		.short	40
 1123 000a 02       		.byte	2
 1124 000b 00       		.space	1
 1125 000c 2400     		.short	36
ARM GAS  C:\Users\user\AppData\Local\Temp\ccfIoC7d.s 			page 49


 1126 000e 01       		.byte	1
 1127 000f 00       		.space	1
 1128 0010 2400     		.short	36
 1129 0012 01       		.byte	1
 1130 0013 00       		.space	1
 1131              		.data
 1132              		.align	2
 1133              		.set	.LANCHOR0,. + 0
 1134              		.type	cyBle_discoveryData, %object
 1135              		.size	cyBle_discoveryData, 32
 1136              	cyBle_discoveryData:
 1137 0000 02       		.byte	2
 1138 0001 01       		.byte	1
 1139 0002 06       		.byte	6
 1140 0003 0F       		.byte	15
 1141 0004 09       		.byte	9
 1142 0005 43       		.byte	67
 1143 0006 47       		.byte	71
 1144 0007 4D       		.byte	77
 1145 0008 20       		.byte	32
 1146 0009 47       		.byte	71
 1147 000a 54       		.byte	84
 1148 000b 31       		.byte	49
 1149 000c 32       		.byte	50
 1150 000d 33       		.byte	51
 1151 000e 34       		.byte	52
 1152 000f 35       		.byte	53
 1153 0010 36       		.byte	54
 1154 0011 37       		.byte	55
 1155 0012 4D       		.byte	77
 1156 0013 04       		.byte	4
 1157 0014 FF       		.byte	-1
 1158 0015 F9       		.byte	-7
 1159 0016 01       		.byte	1
 1160 0017 00       		.byte	0
 1161 0018 05       		.byte	5
 1162 0019 02       		.byte	2
 1163 001a 82       		.byte	-126
 1164 001b FE       		.byte	-2
 1165 001c 1F       		.byte	31
 1166 001d 18       		.byte	24
 1167 001e 00       		.space	1
 1168 001f 1E       		.byte	30
 1169              		.type	cyBle_scanRspData, %object
 1170              		.size	cyBle_scanRspData, 32
 1171              	cyBle_scanRspData:
 1172 0020 02       		.byte	2
 1173 0021 0A       		.byte	10
 1174 0022 00       		.byte	0
 1175 0023 00000000 		.space	28
 1175      00000000 
 1175      00000000 
 1175      00000000 
 1175      00000000 
 1176 003f 03       		.byte	3
 1177              		.type	cyBle_discoveryModeInfo, %object
 1178              		.size	cyBle_discoveryModeInfo, 20
ARM GAS  C:\Users\user\AppData\Local\Temp\ccfIoC7d.s 			page 50


 1179              	cyBle_discoveryModeInfo:
 1180 0040 02       		.byte	2
 1181 0041 000000   		.space	3
 1182 0044 00000000 		.word	cyBle_discoveryParam
 1183 0048 00000000 		.word	cyBle_discoveryData
 1184 004c 00000000 		.word	cyBle_scanRspData
 1185 0050 1E00     		.short	30
 1186 0052 0000     		.space	2
 1187              		.type	cyBle_sflashDeviceAddress, %object
 1188              		.size	cyBle_sflashDeviceAddress, 4
 1189              	cyBle_sflashDeviceAddress:
 1190 0054 00F4FF0F 		.word	268432384
 1191              		.type	cyBle_deviceAddress, %object
 1192              		.size	cyBle_deviceAddress, 7
 1193              	cyBle_deviceAddress:
 1194 0058 48       		.byte	72
 1195 0059 0D       		.byte	13
 1196 005a 84       		.byte	-124
 1197 005b A2       		.byte	-94
 1198 005c 16       		.byte	22
 1199 005d DC       		.byte	-36
 1200 005e 00       		.byte	0
 1201 005f 00       		.space	1
 1202              		.type	cyBle_discoveryParam, %object
 1203              		.size	cyBle_discoveryParam, 16
 1204              	cyBle_discoveryParam:
 1205 0060 2000     		.short	32
 1206 0062 3000     		.short	48
 1207 0064 00       		.byte	0
 1208 0065 00       		.byte	0
 1209 0066 00       		.byte	0
 1210 0067 48       		.byte	72
 1211 0068 0D       		.byte	13
 1212 0069 84       		.byte	-124
 1213 006a A2       		.byte	-94
 1214 006b 16       		.byte	22
 1215 006c DC       		.byte	-36
 1216 006d 07       		.byte	7
 1217 006e 00       		.byte	0
 1218 006f 00       		.space	1
 1219              		.section	.noinit,"aw",%progbits
 1220              		.align	3
 1221              		.set	.LANCHOR3,. + 0
 1222              		.type	cyBle_stackMemoryRam, %object
 1223              		.size	cyBle_stackMemoryRam, 2784
 1224              	cyBle_stackMemoryRam:
 1225 0000 00000000 		.space	2784
 1225      00000000 
 1225      00000000 
 1225      00000000 
 1225      00000000 
 1226              		.bss
 1227              		.set	.LANCHOR2,. + 0
 1228              		.type	cyBle_initVar, %object
 1229              		.size	cyBle_initVar, 1
 1230              	cyBle_initVar:
 1231 0000 00       		.space	1
ARM GAS  C:\Users\user\AppData\Local\Temp\ccfIoC7d.s 			page 51


 1232              		.type	cyBle_pendingFlashClearCccdHandle, %object
 1233              		.size	cyBle_pendingFlashClearCccdHandle, 1
 1234              	cyBle_pendingFlashClearCccdHandle:
 1235 0001 00       		.space	1
 1236              		.text
 1237              	.Letext0:
 1238              		.file 2 "Generated_Source\\PSoC4\\cytypes.h"
 1239              		.file 3 "Generated_Source\\PSoC4\\BLE_Stack.h"
 1240              		.file 4 "Generated_Source\\PSoC4\\BLE_StackGap.h"
 1241              		.file 5 "Generated_Source\\PSoC4\\BLE_StackGatt.h"
 1242              		.file 6 "Generated_Source\\PSoC4\\BLE_StackGattDb.h"
 1243              		.file 7 "Generated_Source\\PSoC4\\BLE.h"
 1244              		.file 8 "Generated_Source\\PSoC4\\BLE_gatt.h"
 1245              		.file 9 "Generated_Source\\PSoC4\\BLE_bms.h"
 1246              		.file 10 "Generated_Source\\PSoC4\\BLE_cgms.h"
 1247              		.file 11 "Generated_Source\\PSoC4\\BLE_dis.h"
 1248              		.file 12 "Generated_Source\\PSoC4\\BLE_eventHandler.h"
 1249              		.file 13 "Generated_Source\\PSoC4\\BLE_bas.h"
 1250              		.file 14 "Generated_Source\\PSoC4\\BLE_custom.h"
 1251              		.file 15 "Generated_Source\\PSoC4\\BLE_StackHostMain.h"
 1252              		.file 16 "c:\\program files (x86)\\cypress\\psoc creator\\4.4\\psoc creator\\import\\gnu\\arm\\5.4