ARM GAS  C:\Users\user\AppData\Local\Temp\cchzEqxM.s 			page 1


   1              		.syntax unified
   2              		.cpu cortex-m0
   3              		.fpu softvfp
   4              		.eabi_attribute 20, 1
   5              		.eabi_attribute 21, 1
   6              		.eabi_attribute 23, 3
   7              		.eabi_attribute 24, 1
   8              		.eabi_attribute 25, 1
   9              		.eabi_attribute 26, 1
  10              		.eabi_attribute 30, 4
  11              		.eabi_attribute 34, 0
  12              		.eabi_attribute 18, 4
  13              		.thumb
  14              		.syntax unified
  15              		.file	"BLE_bms.c"
  16              		.text
  17              	.Ltext0:
  18              		.cfi_sections	.debug_frame
  19              		.section	.text.CyBle_BmsInit,"ax",%progbits
  20              		.align	1
  21              		.global	CyBle_BmsInit
  22              		.code	16
  23              		.thumb_func
  24              		.type	CyBle_BmsInit, %function
  25              	CyBle_BmsInit:
  26              	.LFB2:
  27              		.file 1 "Generated_Source\\PSoC4\\BLE_bms.c"
   1:Generated_Source\PSoC4/BLE_bms.c **** /***************************************************************************//**
   2:Generated_Source\PSoC4/BLE_bms.c **** * \file CYBLE_bms.c
   3:Generated_Source\PSoC4/BLE_bms.c **** * \version 3.66
   4:Generated_Source\PSoC4/BLE_bms.c **** * 
   5:Generated_Source\PSoC4/BLE_bms.c **** * \brief
   6:Generated_Source\PSoC4/BLE_bms.c **** *  This file contains the source code for the Bond Management Service
   7:Generated_Source\PSoC4/BLE_bms.c **** *  of the BLE Component.
   8:Generated_Source\PSoC4/BLE_bms.c **** * 
   9:Generated_Source\PSoC4/BLE_bms.c **** ********************************************************************************
  10:Generated_Source\PSoC4/BLE_bms.c **** * \copyright
  11:Generated_Source\PSoC4/BLE_bms.c **** * Copyright 2014-2020, Cypress Semiconductor Corporation.  All rights reserved.
  12:Generated_Source\PSoC4/BLE_bms.c **** * You may use this file only in accordance with the license, terms, conditions,
  13:Generated_Source\PSoC4/BLE_bms.c **** * disclaimers, and limitations in the end user license agreement accompanying
  14:Generated_Source\PSoC4/BLE_bms.c **** * the software package with which this file was provided.
  15:Generated_Source\PSoC4/BLE_bms.c **** *******************************************************************************/
  16:Generated_Source\PSoC4/BLE_bms.c **** 
  17:Generated_Source\PSoC4/BLE_bms.c **** 
  18:Generated_Source\PSoC4/BLE_bms.c **** #include "BLE_eventHandler.h"
  19:Generated_Source\PSoC4/BLE_bms.c **** 
  20:Generated_Source\PSoC4/BLE_bms.c **** static CYBLE_CALLBACK_T CyBle_BmsApplCallback;
  21:Generated_Source\PSoC4/BLE_bms.c **** 
  22:Generated_Source\PSoC4/BLE_bms.c **** #ifdef CYBLE_BMS_SERVER
  23:Generated_Source\PSoC4/BLE_bms.c **** 
  24:Generated_Source\PSoC4/BLE_bms.c **** /* Service GATT DB handles structure */
  25:Generated_Source\PSoC4/BLE_bms.c **** const CYBLE_BMSS_T cyBle_bmss =
  26:Generated_Source\PSoC4/BLE_bms.c **** {
  27:Generated_Source\PSoC4/BLE_bms.c ****     0x004Cu,    /* Handle of the BMS service */
  28:Generated_Source\PSoC4/BLE_bms.c ****     {
  29:Generated_Source\PSoC4/BLE_bms.c ****         
  30:Generated_Source\PSoC4/BLE_bms.c ****         /* Bond Management Control Point characteristic */
ARM GAS  C:\Users\user\AppData\Local\Temp\cchzEqxM.s 			page 2


  31:Generated_Source\PSoC4/BLE_bms.c ****         {
  32:Generated_Source\PSoC4/BLE_bms.c ****             0x004Eu, /* Handle of the Bond Management Control Point characteristic */ 
  33:Generated_Source\PSoC4/BLE_bms.c ****             
  34:Generated_Source\PSoC4/BLE_bms.c ****             /* Array of Descriptors handles */
  35:Generated_Source\PSoC4/BLE_bms.c ****             {
  36:Generated_Source\PSoC4/BLE_bms.c ****                 CYBLE_GATT_INVALID_ATTR_HANDLE_VALUE, /* Handle of the Characteristic Extended Prop
  37:Generated_Source\PSoC4/BLE_bms.c ****             }, 
  38:Generated_Source\PSoC4/BLE_bms.c ****         }, 
  39:Generated_Source\PSoC4/BLE_bms.c ****         
  40:Generated_Source\PSoC4/BLE_bms.c ****         /* Bond Management Features characteristic */
  41:Generated_Source\PSoC4/BLE_bms.c ****         {
  42:Generated_Source\PSoC4/BLE_bms.c ****             0x0050u, /* Handle of the Bond Management Feature characteristic */ 
  43:Generated_Source\PSoC4/BLE_bms.c ****             
  44:Generated_Source\PSoC4/BLE_bms.c ****             /* Array of Descriptors handles */
  45:Generated_Source\PSoC4/BLE_bms.c ****             {
  46:Generated_Source\PSoC4/BLE_bms.c ****                 CYBLE_GATT_INVALID_ATTR_HANDLE_VALUE, 
  47:Generated_Source\PSoC4/BLE_bms.c ****             }, 
  48:Generated_Source\PSoC4/BLE_bms.c ****         }, 
  49:Generated_Source\PSoC4/BLE_bms.c ****     },
  50:Generated_Source\PSoC4/BLE_bms.c **** };
  51:Generated_Source\PSoC4/BLE_bms.c **** 
  52:Generated_Source\PSoC4/BLE_bms.c **** #endif /* CYBLE_BMS_SERVER */
  53:Generated_Source\PSoC4/BLE_bms.c **** 
  54:Generated_Source\PSoC4/BLE_bms.c **** #ifdef CYBLE_BMS_CLIENT
  55:Generated_Source\PSoC4/BLE_bms.c ****     
  56:Generated_Source\PSoC4/BLE_bms.c **** /* Server's BM Service GATT DB handles structure */
  57:Generated_Source\PSoC4/BLE_bms.c **** CYBLE_BMSC_T cyBle_bmsc;
  58:Generated_Source\PSoC4/BLE_bms.c **** 
  59:Generated_Source\PSoC4/BLE_bms.c **** /* Internal storage for last request handle to check response */
  60:Generated_Source\PSoC4/BLE_bms.c **** static CYBLE_GATT_DB_ATTR_HANDLE_T cyBle_bmscReqHandle;
  61:Generated_Source\PSoC4/BLE_bms.c **** #endif /* CYBLE_BMS_CLIENT */
  62:Generated_Source\PSoC4/BLE_bms.c **** 
  63:Generated_Source\PSoC4/BLE_bms.c **** 
  64:Generated_Source\PSoC4/BLE_bms.c **** /****************************************************************************** 
  65:Generated_Source\PSoC4/BLE_bms.c **** * Function Name: CyBle_BmsInit
  66:Generated_Source\PSoC4/BLE_bms.c **** ***************************************************************************//**
  67:Generated_Source\PSoC4/BLE_bms.c **** * 
  68:Generated_Source\PSoC4/BLE_bms.c **** *  Initializes the profile internals.
  69:Generated_Source\PSoC4/BLE_bms.c **** * 
  70:Generated_Source\PSoC4/BLE_bms.c **** ******************************************************************************/
  71:Generated_Source\PSoC4/BLE_bms.c **** void CyBle_BmsInit(void)
  72:Generated_Source\PSoC4/BLE_bms.c **** {
  28              		.loc 1 72 0
  29              		.cfi_startproc
  30              		@ args = 0, pretend = 0, frame = 0
  31              		@ frame_needed = 0, uses_anonymous_args = 0
  32              		@ link register save eliminated.
  73:Generated_Source\PSoC4/BLE_bms.c **** #ifdef CYBLE_BMS_CLIENT
  74:Generated_Source\PSoC4/BLE_bms.c ****     if(cyBle_serverInfo[CYBLE_SRVI_BMS].range.startHandle == CYBLE_GATT_INVALID_ATTR_HANDLE_VALUE)
  75:Generated_Source\PSoC4/BLE_bms.c ****     {
  76:Generated_Source\PSoC4/BLE_bms.c ****         (void)memset(&cyBle_bmsc, 0, sizeof(cyBle_bmsc));
  77:Generated_Source\PSoC4/BLE_bms.c ****     }
  78:Generated_Source\PSoC4/BLE_bms.c ****     cyBle_bmscReqHandle = CYBLE_GATT_INVALID_ATTR_HANDLE_VALUE;
  79:Generated_Source\PSoC4/BLE_bms.c **** #endif /* CYBLE_GATT_ROLE_CLIENT */
  80:Generated_Source\PSoC4/BLE_bms.c **** }
  33              		.loc 1 80 0
  34              		@ sp needed
ARM GAS  C:\Users\user\AppData\Local\Temp\cchzEqxM.s 			page 3


  35 0000 7047     		bx	lr
  36              		.cfi_endproc
  37              	.LFE2:
  38              		.size	CyBle_BmsInit, .-CyBle_BmsInit
  39              		.section	.text.CyBle_BmsRegisterAttrCallback,"ax",%progbits
  40              		.align	1
  41              		.global	CyBle_BmsRegisterAttrCallback
  42              		.code	16
  43              		.thumb_func
  44              		.type	CyBle_BmsRegisterAttrCallback, %function
  45              	CyBle_BmsRegisterAttrCallback:
  46              	.LFB3:
  81:Generated_Source\PSoC4/BLE_bms.c **** 
  82:Generated_Source\PSoC4/BLE_bms.c **** 
  83:Generated_Source\PSoC4/BLE_bms.c **** /******************************************************************************
  84:Generated_Source\PSoC4/BLE_bms.c **** * Function Name: CyBle_BmsRegisterAttrCallback
  85:Generated_Source\PSoC4/BLE_bms.c **** ***************************************************************************//**
  86:Generated_Source\PSoC4/BLE_bms.c **** * 
  87:Generated_Source\PSoC4/BLE_bms.c **** *  Registers a callback function for service specific attribute operations.
  88:Generated_Source\PSoC4/BLE_bms.c **** *  Service specific write requests from peer device will not be handled with
  89:Generated_Source\PSoC4/BLE_bms.c **** *  unregistered callback function.
  90:Generated_Source\PSoC4/BLE_bms.c **** * 
  91:Generated_Source\PSoC4/BLE_bms.c **** *  \param callbackFunc: An application layer event callback function to 
  92:Generated_Source\PSoC4/BLE_bms.c **** *                       receive events from the BLE Component. The definition 
  93:Generated_Source\PSoC4/BLE_bms.c **** *                       of CYBLE_CALLBACK_T for BM Service is:\n
  94:Generated_Source\PSoC4/BLE_bms.c **** *                       typedef void (* CYBLE_CALLBACK_T) (uint32 eventCode, 
  95:Generated_Source\PSoC4/BLE_bms.c **** *                       void *eventParam)
  96:Generated_Source\PSoC4/BLE_bms.c **** *                         * eventCode indicates the event that triggered this 
  97:Generated_Source\PSoC4/BLE_bms.c **** *                           callback.
  98:Generated_Source\PSoC4/BLE_bms.c **** *                         * eventParam contains the parameters corresponding 
  99:Generated_Source\PSoC4/BLE_bms.c **** *                           to the current event.
 100:Generated_Source\PSoC4/BLE_bms.c **** * 
 101:Generated_Source\PSoC4/BLE_bms.c **** * \sideeffect The *eventParams in the callback function should not be used by
 102:Generated_Source\PSoC4/BLE_bms.c **** *             the application once the callback function execution is 
 103:Generated_Source\PSoC4/BLE_bms.c **** *             finished. Otherwise this data may become corrupted.
 104:Generated_Source\PSoC4/BLE_bms.c **** * 
 105:Generated_Source\PSoC4/BLE_bms.c **** ******************************************************************************/
 106:Generated_Source\PSoC4/BLE_bms.c **** void CyBle_BmsRegisterAttrCallback(CYBLE_CALLBACK_T callbackFunc)
 107:Generated_Source\PSoC4/BLE_bms.c **** {
  47              		.loc 1 107 0
  48              		.cfi_startproc
  49              		@ args = 0, pretend = 0, frame = 0
  50              		@ frame_needed = 0, uses_anonymous_args = 0
  51              		@ link register save eliminated.
  52              	.LVL0:
 108:Generated_Source\PSoC4/BLE_bms.c ****     CyBle_BmsApplCallback = callbackFunc;
  53              		.loc 1 108 0
  54 0000 014B     		ldr	r3, .L3
 109:Generated_Source\PSoC4/BLE_bms.c **** }
  55              		.loc 1 109 0
  56              		@ sp needed
 108:Generated_Source\PSoC4/BLE_bms.c ****     CyBle_BmsApplCallback = callbackFunc;
  57              		.loc 1 108 0
  58 0002 1860     		str	r0, [r3]
  59              		.loc 1 109 0
  60 0004 7047     		bx	lr
  61              	.L4:
ARM GAS  C:\Users\user\AppData\Local\Temp\cchzEqxM.s 			page 4


  62 0006 C046     		.align	2
  63              	.L3:
  64 0008 00000000 		.word	.LANCHOR0
  65              		.cfi_endproc
  66              	.LFE3:
  67              		.size	CyBle_BmsRegisterAttrCallback, .-CyBle_BmsRegisterAttrCallback
  68              		.section	.text.CyBle_BmssSetCharacteristicValue,"ax",%progbits
  69              		.align	1
  70              		.global	CyBle_BmssSetCharacteristicValue
  71              		.code	16
  72              		.thumb_func
  73              		.type	CyBle_BmssSetCharacteristicValue, %function
  74              	CyBle_BmssSetCharacteristicValue:
  75              	.LFB4:
 110:Generated_Source\PSoC4/BLE_bms.c **** 
 111:Generated_Source\PSoC4/BLE_bms.c **** 
 112:Generated_Source\PSoC4/BLE_bms.c **** #ifdef CYBLE_BMS_SERVER
 113:Generated_Source\PSoC4/BLE_bms.c **** 
 114:Generated_Source\PSoC4/BLE_bms.c **** 
 115:Generated_Source\PSoC4/BLE_bms.c **** /******************************************************************************
 116:Generated_Source\PSoC4/BLE_bms.c **** * Function Name: CyBle_BmssSetCharacteristicValue
 117:Generated_Source\PSoC4/BLE_bms.c **** ***************************************************************************//**
 118:Generated_Source\PSoC4/BLE_bms.c **** * 
 119:Generated_Source\PSoC4/BLE_bms.c **** *  Sets a characteristic value of the service identified by charIndex.
 120:Generated_Source\PSoC4/BLE_bms.c **** * 
 121:Generated_Source\PSoC4/BLE_bms.c **** *  \param charIndex: The index of a service characteristic.
 122:Generated_Source\PSoC4/BLE_bms.c **** *  \param attrSize:  The size of the characteristic value attribute.
 123:Generated_Source\PSoC4/BLE_bms.c **** *  \param attrValue: The pointer to the characteristic value data that should 
 124:Generated_Source\PSoC4/BLE_bms.c **** *                    be stored in the GATT database.
 125:Generated_Source\PSoC4/BLE_bms.c **** * 
 126:Generated_Source\PSoC4/BLE_bms.c **** * \return
 127:Generated_Source\PSoC4/BLE_bms.c **** *  The return value is of type CYBLE_API_RESULT_T.
 128:Generated_Source\PSoC4/BLE_bms.c **** *  * CYBLE_ERROR_OK - The request handled successfully.
 129:Generated_Source\PSoC4/BLE_bms.c **** *  * CYBLE_ERROR_INVALID_PARAMETER - Validation of the input parameter failed.
 130:Generated_Source\PSoC4/BLE_bms.c **** *  * CYBLE_ERROR_GATT_DB_INVALID_ATTR_HANDLE - An optional characteristic is 
 131:Generated_Source\PSoC4/BLE_bms.c **** *                                              absent.
 132:Generated_Source\PSoC4/BLE_bms.c **** *
 133:Generated_Source\PSoC4/BLE_bms.c **** ******************************************************************************/
 134:Generated_Source\PSoC4/BLE_bms.c **** CYBLE_API_RESULT_T CyBle_BmssSetCharacteristicValue(CYBLE_BMS_CHAR_INDEX_T charIndex, uint8 attrSiz
 135:Generated_Source\PSoC4/BLE_bms.c **** {
  76              		.loc 1 135 0
  77              		.cfi_startproc
  78              		@ args = 0, pretend = 0, frame = 16
  79              		@ frame_needed = 0, uses_anonymous_args = 0
  80              	.LVL1:
  81 0000 1FB5     		push	{r0, r1, r2, r3, r4, lr}
  82              		.cfi_def_cfa_offset 24
  83              		.cfi_offset 0, -24
  84              		.cfi_offset 1, -20
  85              		.cfi_offset 2, -16
  86              		.cfi_offset 3, -12
  87              		.cfi_offset 4, -8
  88              		.cfi_offset 14, -4
  89              		.loc 1 135 0
  90 0002 0300     		movs	r3, r0
 136:Generated_Source\PSoC4/BLE_bms.c ****     CYBLE_API_RESULT_T apiResult;
 137:Generated_Source\PSoC4/BLE_bms.c ****     
ARM GAS  C:\Users\user\AppData\Local\Temp\cchzEqxM.s 			page 5


 138:Generated_Source\PSoC4/BLE_bms.c ****     /* Check parameters */
 139:Generated_Source\PSoC4/BLE_bms.c ****     if(charIndex >= CYBLE_BMS_CHAR_COUNT) 
 140:Generated_Source\PSoC4/BLE_bms.c ****     {
 141:Generated_Source\PSoC4/BLE_bms.c ****         apiResult = CYBLE_ERROR_INVALID_PARAMETER;
  91              		.loc 1 141 0
  92 0004 0120     		movs	r0, #1
  93              	.LVL2:
 139:Generated_Source\PSoC4/BLE_bms.c ****     {
  94              		.loc 1 139 0
  95 0006 8342     		cmp	r3, r0
  96 0008 12D8     		bhi	.L6
 142:Generated_Source\PSoC4/BLE_bms.c ****     }
 143:Generated_Source\PSoC4/BLE_bms.c ****     else if(cyBle_bmss.charInfo[charIndex].charHandle == CYBLE_GATT_INVALID_ATTR_HANDLE_VALUE)
  97              		.loc 1 143 0
  98 000a 0A48     		ldr	r0, .L11
  99 000c 9B00     		lsls	r3, r3, #2
 100 000e C318     		adds	r3, r0, r3
 101 0010 5B88     		ldrh	r3, [r3, #2]
 144:Generated_Source\PSoC4/BLE_bms.c ****     {
 145:Generated_Source\PSoC4/BLE_bms.c ****         apiResult = CYBLE_ERROR_GATT_DB_INVALID_ATTR_HANDLE;
 102              		.loc 1 145 0
 103 0012 1320     		movs	r0, #19
 143:Generated_Source\PSoC4/BLE_bms.c ****     {
 104              		.loc 1 143 0
 105 0014 002B     		cmp	r3, #0
 106 0016 0BD0     		beq	.L6
 107              	.LBB2:
 146:Generated_Source\PSoC4/BLE_bms.c ****     }
 147:Generated_Source\PSoC4/BLE_bms.c ****     else
 148:Generated_Source\PSoC4/BLE_bms.c ****     {
 149:Generated_Source\PSoC4/BLE_bms.c ****         CYBLE_GATT_HANDLE_VALUE_PAIR_T locHandleValuePair;
 150:Generated_Source\PSoC4/BLE_bms.c ****         
 151:Generated_Source\PSoC4/BLE_bms.c ****         /* Store characteristic value into GATT database */
 152:Generated_Source\PSoC4/BLE_bms.c ****         locHandleValuePair.attrHandle = cyBle_bmss.charInfo[charIndex].charHandle;
 108              		.loc 1 152 0
 109 0018 01A8     		add	r0, sp, #4
 110 001a 0381     		strh	r3, [r0, #8]
 153:Generated_Source\PSoC4/BLE_bms.c ****         locHandleValuePair.value.len = attrSize;
 154:Generated_Source\PSoC4/BLE_bms.c ****         locHandleValuePair.value.val = attrValue;
 155:Generated_Source\PSoC4/BLE_bms.c ****         
 156:Generated_Source\PSoC4/BLE_bms.c ****         if(CYBLE_GATT_ERR_NONE != CyBle_GattsWriteAttributeValue(&locHandleValuePair,
 111              		.loc 1 156 0
 112 001c 0023     		movs	r3, #0
 153:Generated_Source\PSoC4/BLE_bms.c ****         locHandleValuePair.value.len = attrSize;
 113              		.loc 1 153 0
 114 001e 8180     		strh	r1, [r0, #4]
 154:Generated_Source\PSoC4/BLE_bms.c ****         
 115              		.loc 1 154 0
 116 0020 0192     		str	r2, [sp, #4]
 117              		.loc 1 156 0
 118 0022 1900     		movs	r1, r3
 119              	.LVL3:
 120 0024 1A00     		movs	r2, r3
 121              	.LVL4:
 122 0026 FFF7FEFF 		bl	CyBle_GattsWriteAttributeValue
 123              	.LVL5:
 157:Generated_Source\PSoC4/BLE_bms.c ****                                     0u, NULL, CYBLE_GATT_DB_LOCALLY_INITIATED))
ARM GAS  C:\Users\user\AppData\Local\Temp\cchzEqxM.s 			page 6


 158:Generated_Source\PSoC4/BLE_bms.c ****         {
 159:Generated_Source\PSoC4/BLE_bms.c ****             apiResult = CYBLE_ERROR_INVALID_PARAMETER;
 124              		.loc 1 159 0
 125 002a 431E     		subs	r3, r0, #1
 126 002c 9841     		sbcs	r0, r0, r3
 127 002e 80B2     		uxth	r0, r0
 128              	.LVL6:
 129              	.L6:
 130              	.LBE2:
 160:Generated_Source\PSoC4/BLE_bms.c ****         }
 161:Generated_Source\PSoC4/BLE_bms.c ****         else
 162:Generated_Source\PSoC4/BLE_bms.c ****         {
 163:Generated_Source\PSoC4/BLE_bms.c ****             apiResult = CYBLE_ERROR_OK;
 164:Generated_Source\PSoC4/BLE_bms.c ****         }
 165:Generated_Source\PSoC4/BLE_bms.c ****     }
 166:Generated_Source\PSoC4/BLE_bms.c **** 
 167:Generated_Source\PSoC4/BLE_bms.c ****     return (apiResult);
 168:Generated_Source\PSoC4/BLE_bms.c **** }
 131              		.loc 1 168 0
 132 0030 05B0     		add	sp, sp, #20
 133              		@ sp needed
 134 0032 00BD     		pop	{pc}
 135              	.L12:
 136              		.align	2
 137              	.L11:
 138 0034 00000000 		.word	.LANCHOR1
 139              		.cfi_endproc
 140              	.LFE4:
 141              		.size	CyBle_BmssSetCharacteristicValue, .-CyBle_BmssSetCharacteristicValue
 142              		.section	.text.CyBle_BmssGetCharacteristicValue,"ax",%progbits
 143              		.align	1
 144              		.global	CyBle_BmssGetCharacteristicValue
 145              		.code	16
 146              		.thumb_func
 147              		.type	CyBle_BmssGetCharacteristicValue, %function
 148              	CyBle_BmssGetCharacteristicValue:
 149              	.LFB5:
 169:Generated_Source\PSoC4/BLE_bms.c **** 
 170:Generated_Source\PSoC4/BLE_bms.c **** 
 171:Generated_Source\PSoC4/BLE_bms.c **** /******************************************************************************
 172:Generated_Source\PSoC4/BLE_bms.c **** * Function Name: CyBle_BmssGetCharacteristicValue
 173:Generated_Source\PSoC4/BLE_bms.c **** ***************************************************************************//**
 174:Generated_Source\PSoC4/BLE_bms.c **** * 
 175:Generated_Source\PSoC4/BLE_bms.c **** *  Gets a characteristic value of the service, which is identified by charIndex.
 176:Generated_Source\PSoC4/BLE_bms.c **** * 
 177:Generated_Source\PSoC4/BLE_bms.c **** *  \param charIndex: The index of a service characteristic.
 178:Generated_Source\PSoC4/BLE_bms.c **** *  \param attrSize:  The size of the characteristic value attribute.
 179:Generated_Source\PSoC4/BLE_bms.c **** *  \param attrValue: The pointer to the location where Characteristic value 
 180:Generated_Source\PSoC4/BLE_bms.c **** *                    data should be stored.
 181:Generated_Source\PSoC4/BLE_bms.c **** * 
 182:Generated_Source\PSoC4/BLE_bms.c **** * \return
 183:Generated_Source\PSoC4/BLE_bms.c **** *  The return value is of type CYBLE_API_RESULT_T.
 184:Generated_Source\PSoC4/BLE_bms.c **** *  * CYBLE_ERROR_OK - The request handled successfully.
 185:Generated_Source\PSoC4/BLE_bms.c **** *  * CYBLE_ERROR_INVALID_PARAMETER - Validation of the input parameter failed.
 186:Generated_Source\PSoC4/BLE_bms.c **** *  * CYBLE_ERROR_GATT_DB_INVALID_ATTR_HANDLE - An optional characteristic is 
 187:Generated_Source\PSoC4/BLE_bms.c **** *                                              absent.
 188:Generated_Source\PSoC4/BLE_bms.c **** *
ARM GAS  C:\Users\user\AppData\Local\Temp\cchzEqxM.s 			page 7


 189:Generated_Source\PSoC4/BLE_bms.c **** ******************************************************************************/
 190:Generated_Source\PSoC4/BLE_bms.c **** CYBLE_API_RESULT_T CyBle_BmssGetCharacteristicValue(CYBLE_BMS_CHAR_INDEX_T charIndex, uint8 attrSiz
 191:Generated_Source\PSoC4/BLE_bms.c **** {
 150              		.loc 1 191 0
 151              		.cfi_startproc
 152              		@ args = 0, pretend = 0, frame = 16
 153              		@ frame_needed = 0, uses_anonymous_args = 0
 154              	.LVL7:
 155 0000 1FB5     		push	{r0, r1, r2, r3, r4, lr}
 156              		.cfi_def_cfa_offset 24
 157              		.cfi_offset 0, -24
 158              		.cfi_offset 1, -20
 159              		.cfi_offset 2, -16
 160              		.cfi_offset 3, -12
 161              		.cfi_offset 4, -8
 162              		.cfi_offset 14, -4
 163              		.loc 1 191 0
 164 0002 0300     		movs	r3, r0
 192:Generated_Source\PSoC4/BLE_bms.c ****     CYBLE_API_RESULT_T apiResult;
 193:Generated_Source\PSoC4/BLE_bms.c ****     
 194:Generated_Source\PSoC4/BLE_bms.c ****     /* Check parameters */
 195:Generated_Source\PSoC4/BLE_bms.c ****     if(charIndex >= CYBLE_BMS_CHAR_COUNT)
 196:Generated_Source\PSoC4/BLE_bms.c ****     {
 197:Generated_Source\PSoC4/BLE_bms.c ****         apiResult = CYBLE_ERROR_INVALID_PARAMETER;
 165              		.loc 1 197 0
 166 0004 0120     		movs	r0, #1
 167              	.LVL8:
 195:Generated_Source\PSoC4/BLE_bms.c ****     {
 168              		.loc 1 195 0
 169 0006 8342     		cmp	r3, r0
 170 0008 11D8     		bhi	.L14
 198:Generated_Source\PSoC4/BLE_bms.c ****     }
 199:Generated_Source\PSoC4/BLE_bms.c ****     else if(cyBle_bmss.charInfo[charIndex].charHandle == CYBLE_GATT_INVALID_ATTR_HANDLE_VALUE)
 171              		.loc 1 199 0
 172 000a 0A48     		ldr	r0, .L18
 173 000c 9B00     		lsls	r3, r3, #2
 174 000e C318     		adds	r3, r0, r3
 175 0010 5B88     		ldrh	r3, [r3, #2]
 200:Generated_Source\PSoC4/BLE_bms.c ****     {
 201:Generated_Source\PSoC4/BLE_bms.c ****         apiResult = CYBLE_ERROR_GATT_DB_INVALID_ATTR_HANDLE;
 176              		.loc 1 201 0
 177 0012 1320     		movs	r0, #19
 199:Generated_Source\PSoC4/BLE_bms.c ****     {
 178              		.loc 1 199 0
 179 0014 002B     		cmp	r3, #0
 180 0016 0AD0     		beq	.L14
 181              	.LBB3:
 202:Generated_Source\PSoC4/BLE_bms.c ****     }
 203:Generated_Source\PSoC4/BLE_bms.c ****     else
 204:Generated_Source\PSoC4/BLE_bms.c ****     {
 205:Generated_Source\PSoC4/BLE_bms.c ****         CYBLE_GATT_HANDLE_VALUE_PAIR_T locHandleValuePair;
 206:Generated_Source\PSoC4/BLE_bms.c ****         
 207:Generated_Source\PSoC4/BLE_bms.c ****         /* Get characteristic value from GATT database */
 208:Generated_Source\PSoC4/BLE_bms.c ****         locHandleValuePair.attrHandle = cyBle_bmss.charInfo[charIndex].charHandle;
 209:Generated_Source\PSoC4/BLE_bms.c ****         locHandleValuePair.value.len = attrSize;
 210:Generated_Source\PSoC4/BLE_bms.c ****         locHandleValuePair.value.val = attrValue;
 182              		.loc 1 210 0
ARM GAS  C:\Users\user\AppData\Local\Temp\cchzEqxM.s 			page 8


 183 0018 0192     		str	r2, [sp, #4]
 211:Generated_Source\PSoC4/BLE_bms.c ****         
 212:Generated_Source\PSoC4/BLE_bms.c ****         if(CYBLE_GATT_ERR_NONE != CyBle_GattsReadAttributeValue(&locHandleValuePair,
 184              		.loc 1 212 0
 185 001a 0022     		movs	r2, #0
 186              	.LVL9:
 208:Generated_Source\PSoC4/BLE_bms.c ****         locHandleValuePair.value.len = attrSize;
 187              		.loc 1 208 0
 188 001c 01A8     		add	r0, sp, #4
 189              	.LVL10:
 209:Generated_Source\PSoC4/BLE_bms.c ****         locHandleValuePair.value.val = attrValue;
 190              		.loc 1 209 0
 191 001e 8180     		strh	r1, [r0, #4]
 192              		.loc 1 212 0
 193 0020 1100     		movs	r1, r2
 194              	.LVL11:
 208:Generated_Source\PSoC4/BLE_bms.c ****         locHandleValuePair.value.len = attrSize;
 195              		.loc 1 208 0
 196 0022 0381     		strh	r3, [r0, #8]
 197              		.loc 1 212 0
 198 0024 FFF7FEFF 		bl	CyBle_GattsReadAttributeValue
 199              	.LVL12:
 213:Generated_Source\PSoC4/BLE_bms.c ****                                     0u, CYBLE_GATT_DB_LOCALLY_INITIATED))
 214:Generated_Source\PSoC4/BLE_bms.c ****         {
 215:Generated_Source\PSoC4/BLE_bms.c ****             apiResult = CYBLE_ERROR_INVALID_PARAMETER;
 200              		.loc 1 215 0
 201 0028 431E     		subs	r3, r0, #1
 202 002a 9841     		sbcs	r0, r0, r3
 203 002c 80B2     		uxth	r0, r0
 204              	.LVL13:
 205              	.L14:
 206              	.LBE3:
 216:Generated_Source\PSoC4/BLE_bms.c ****         }
 217:Generated_Source\PSoC4/BLE_bms.c ****         else
 218:Generated_Source\PSoC4/BLE_bms.c ****         {
 219:Generated_Source\PSoC4/BLE_bms.c ****             apiResult = CYBLE_ERROR_OK;
 220:Generated_Source\PSoC4/BLE_bms.c ****         }
 221:Generated_Source\PSoC4/BLE_bms.c ****     }
 222:Generated_Source\PSoC4/BLE_bms.c **** 
 223:Generated_Source\PSoC4/BLE_bms.c ****     return (apiResult);
 224:Generated_Source\PSoC4/BLE_bms.c **** }
 207              		.loc 1 224 0
 208 002e 05B0     		add	sp, sp, #20
 209              		@ sp needed
 210 0030 00BD     		pop	{pc}
 211              	.L19:
 212 0032 C046     		.align	2
 213              	.L18:
 214 0034 00000000 		.word	.LANCHOR1
 215              		.cfi_endproc
 216              	.LFE5:
 217              		.size	CyBle_BmssGetCharacteristicValue, .-CyBle_BmssGetCharacteristicValue
 218              		.section	.text.CyBle_BmssSetCharacteristicDescriptor,"ax",%progbits
 219              		.align	1
 220              		.global	CyBle_BmssSetCharacteristicDescriptor
 221              		.code	16
 222              		.thumb_func
ARM GAS  C:\Users\user\AppData\Local\Temp\cchzEqxM.s 			page 9


 223              		.type	CyBle_BmssSetCharacteristicDescriptor, %function
 224              	CyBle_BmssSetCharacteristicDescriptor:
 225              	.LFB6:
 225:Generated_Source\PSoC4/BLE_bms.c **** 
 226:Generated_Source\PSoC4/BLE_bms.c **** 
 227:Generated_Source\PSoC4/BLE_bms.c **** /****************************************************************************** 
 228:Generated_Source\PSoC4/BLE_bms.c **** * Function Name: CyBle_BmssSetCharacteristicDescriptor
 229:Generated_Source\PSoC4/BLE_bms.c **** ***************************************************************************//**
 230:Generated_Source\PSoC4/BLE_bms.c **** * 
 231:Generated_Source\PSoC4/BLE_bms.c **** *  Sets a characteristic descriptor of a specified characteristic of the 
 232:Generated_Source\PSoC4/BLE_bms.c **** *  service.
 233:Generated_Source\PSoC4/BLE_bms.c **** * 
 234:Generated_Source\PSoC4/BLE_bms.c **** *  \param charIndex:  The index of a service characteristic of type 
 235:Generated_Source\PSoC4/BLE_bms.c **** *                     CYBLE_BMS_CHAR_INDEX_T.
 236:Generated_Source\PSoC4/BLE_bms.c **** *  \param descrIndex: The index of a service characteristic descriptor of type 
 237:Generated_Source\PSoC4/BLE_bms.c **** *                     CYBLE_BMS_DESCR_INDEX_T.
 238:Generated_Source\PSoC4/BLE_bms.c **** *  \param attrSize:   The size of the characteristic descriptor attribute.
 239:Generated_Source\PSoC4/BLE_bms.c **** *  \param attrValue:  The pointer to the descriptor value data that should 
 240:Generated_Source\PSoC4/BLE_bms.c **** *                     be stored to the GATT database. 
 241:Generated_Source\PSoC4/BLE_bms.c **** * 
 242:Generated_Source\PSoC4/BLE_bms.c **** * \return
 243:Generated_Source\PSoC4/BLE_bms.c **** *  The return value is of type CYBLE_API_RESULT_T.
 244:Generated_Source\PSoC4/BLE_bms.c **** *  * CYBLE_ERROR_OK - The request is handled successfully.
 245:Generated_Source\PSoC4/BLE_bms.c **** *  * CYBLE_ERROR_INVALID_PARAMETER - Validation of the input parameter failed.
 246:Generated_Source\PSoC4/BLE_bms.c **** *
 247:Generated_Source\PSoC4/BLE_bms.c **** ******************************************************************************/
 248:Generated_Source\PSoC4/BLE_bms.c **** CYBLE_API_RESULT_T CyBle_BmssSetCharacteristicDescriptor(CYBLE_BMS_CHAR_INDEX_T charIndex,
 249:Generated_Source\PSoC4/BLE_bms.c ****     CYBLE_BMS_DESCR_INDEX_T descrIndex, uint8 attrSize, uint8 *attrValue)
 250:Generated_Source\PSoC4/BLE_bms.c **** {
 226              		.loc 1 250 0
 227              		.cfi_startproc
 228              		@ args = 0, pretend = 0, frame = 16
 229              		@ frame_needed = 0, uses_anonymous_args = 0
 230              	.LVL14:
 231 0000 30B5     		push	{r4, r5, lr}
 232              		.cfi_def_cfa_offset 12
 233              		.cfi_offset 4, -12
 234              		.cfi_offset 5, -8
 235              		.cfi_offset 14, -4
 236 0002 0400     		movs	r4, r0
 251:Generated_Source\PSoC4/BLE_bms.c ****     CYBLE_API_RESULT_T apiResult = CYBLE_ERROR_OK;
 252:Generated_Source\PSoC4/BLE_bms.c ****     CYBLE_GATT_HANDLE_VALUE_PAIR_T locHandleValuePair;
 253:Generated_Source\PSoC4/BLE_bms.c **** 
 254:Generated_Source\PSoC4/BLE_bms.c ****     if((charIndex >= CYBLE_BMS_CHAR_COUNT) || (descrIndex >= CYBLE_BMS_DESCR_COUNT))
 255:Generated_Source\PSoC4/BLE_bms.c ****     {
 256:Generated_Source\PSoC4/BLE_bms.c ****         apiResult = CYBLE_ERROR_INVALID_PARAMETER;
 237              		.loc 1 256 0
 238 0004 0120     		movs	r0, #1
 239              	.LVL15:
 250:Generated_Source\PSoC4/BLE_bms.c ****     CYBLE_API_RESULT_T apiResult = CYBLE_ERROR_OK;
 240              		.loc 1 250 0
 241 0006 85B0     		sub	sp, sp, #20
 242              		.cfi_def_cfa_offset 32
 254:Generated_Source\PSoC4/BLE_bms.c ****     {
 243              		.loc 1 254 0
 244 0008 8442     		cmp	r4, r0
 245 000a 10D8     		bhi	.L21
ARM GAS  C:\Users\user\AppData\Local\Temp\cchzEqxM.s 			page 10


 254:Generated_Source\PSoC4/BLE_bms.c ****     {
 246              		.loc 1 254 0 is_stmt 0 discriminator 1
 247 000c 0029     		cmp	r1, #0
 248 000e 0ED1     		bne	.L21
 257:Generated_Source\PSoC4/BLE_bms.c ****     }
 258:Generated_Source\PSoC4/BLE_bms.c ****     else
 259:Generated_Source\PSoC4/BLE_bms.c ****     {
 260:Generated_Source\PSoC4/BLE_bms.c ****         locHandleValuePair.attrHandle = cyBle_bmss.charInfo[charIndex].descrHandle[descrIndex];
 249              		.loc 1 260 0 is_stmt 1
 250 0010 084D     		ldr	r5, .L24
 251 0012 A400     		lsls	r4, r4, #2
 252 0014 2C19     		adds	r4, r5, r4
 253 0016 01A8     		add	r0, sp, #4
 254 0018 A488     		ldrh	r4, [r4, #4]
 261:Generated_Source\PSoC4/BLE_bms.c ****         locHandleValuePair.value.len = attrSize;
 255              		.loc 1 261 0
 256 001a 8280     		strh	r2, [r0, #4]
 262:Generated_Source\PSoC4/BLE_bms.c ****         locHandleValuePair.value.val = attrValue;
 257              		.loc 1 262 0
 258 001c 0193     		str	r3, [sp, #4]
 263:Generated_Source\PSoC4/BLE_bms.c ****         if(CYBLE_GATT_ERR_NONE !=
 264:Generated_Source\PSoC4/BLE_bms.c ****                 CyBle_GattsWriteAttributeValue(&locHandleValuePair, 0u, NULL, CYBLE_GATT_DB_LOCALLY
 259              		.loc 1 264 0
 260 001e 0A00     		movs	r2, r1
 261              	.LVL16:
 262 0020 0B00     		movs	r3, r1
 263              	.LVL17:
 260:Generated_Source\PSoC4/BLE_bms.c ****         locHandleValuePair.value.len = attrSize;
 264              		.loc 1 260 0
 265 0022 0481     		strh	r4, [r0, #8]
 266              		.loc 1 264 0
 267 0024 FFF7FEFF 		bl	CyBle_GattsWriteAttributeValue
 268              	.LVL18:
 256:Generated_Source\PSoC4/BLE_bms.c ****     }
 269              		.loc 1 256 0
 270 0028 431E     		subs	r3, r0, #1
 271 002a 9841     		sbcs	r0, r0, r3
 272 002c 80B2     		uxth	r0, r0
 273              	.L21:
 274              	.LVL19:
 265:Generated_Source\PSoC4/BLE_bms.c ****         {
 266:Generated_Source\PSoC4/BLE_bms.c ****             apiResult = CYBLE_ERROR_INVALID_PARAMETER;
 267:Generated_Source\PSoC4/BLE_bms.c ****         }
 268:Generated_Source\PSoC4/BLE_bms.c ****     }
 269:Generated_Source\PSoC4/BLE_bms.c ****     return (apiResult);
 270:Generated_Source\PSoC4/BLE_bms.c **** }
 275              		.loc 1 270 0
 276 002e 05B0     		add	sp, sp, #20
 277              		@ sp needed
 278 0030 30BD     		pop	{r4, r5, pc}
 279              	.L25:
 280 0032 C046     		.align	2
 281              	.L24:
 282 0034 00000000 		.word	.LANCHOR1
 283              		.cfi_endproc
 284              	.LFE6:
 285              		.size	CyBle_BmssSetCharacteristicDescriptor, .-CyBle_BmssSetCharacteristicDescriptor
ARM GAS  C:\Users\user\AppData\Local\Temp\cchzEqxM.s 			page 11


 286              		.section	.text.CyBle_BmssGetCharacteristicDescriptor,"ax",%progbits
 287              		.align	1
 288              		.global	CyBle_BmssGetCharacteristicDescriptor
 289              		.code	16
 290              		.thumb_func
 291              		.type	CyBle_BmssGetCharacteristicDescriptor, %function
 292              	CyBle_BmssGetCharacteristicDescriptor:
 293              	.LFB7:
 271:Generated_Source\PSoC4/BLE_bms.c **** 
 272:Generated_Source\PSoC4/BLE_bms.c **** 
 273:Generated_Source\PSoC4/BLE_bms.c **** /****************************************************************************** 
 274:Generated_Source\PSoC4/BLE_bms.c **** * Function Name: CyBle_BmssGetCharacteristicDescriptor
 275:Generated_Source\PSoC4/BLE_bms.c **** ***************************************************************************//**
 276:Generated_Source\PSoC4/BLE_bms.c **** * 
 277:Generated_Source\PSoC4/BLE_bms.c **** *  Gets a characteristic descriptor of a specified characteristic of the 
 278:Generated_Source\PSoC4/BLE_bms.c **** *  service.
 279:Generated_Source\PSoC4/BLE_bms.c **** * 
 280:Generated_Source\PSoC4/BLE_bms.c **** *  \param charIndex:  The index of a service characteristic of type 
 281:Generated_Source\PSoC4/BLE_bms.c **** *                     CYBLE_BMS_CHAR_INDEX_T.
 282:Generated_Source\PSoC4/BLE_bms.c **** *  \param descrIndex: The index of a service characteristic descriptor of type 
 283:Generated_Source\PSoC4/BLE_bms.c **** *                     CYBLE_BMS_DESCR_INDEX_T.
 284:Generated_Source\PSoC4/BLE_bms.c **** *  \param attrSize:   The size of the characteristic descriptor attribute.
 285:Generated_Source\PSoC4/BLE_bms.c **** *  \param attrValue:  The pointer to the location where characteristic descriptor
 286:Generated_Source\PSoC4/BLE_bms.c **** *                     value data should be stored.
 287:Generated_Source\PSoC4/BLE_bms.c **** * 
 288:Generated_Source\PSoC4/BLE_bms.c **** * \return
 289:Generated_Source\PSoC4/BLE_bms.c **** *  The return value is of type CYBLE_API_RESULT_T.
 290:Generated_Source\PSoC4/BLE_bms.c **** *  * CYBLE_ERROR_OK - The request handled successfully.
 291:Generated_Source\PSoC4/BLE_bms.c **** *  * CYBLE_ERROR_INVALID_PARAMETER - Validation of the input parameter failed.
 292:Generated_Source\PSoC4/BLE_bms.c **** *
 293:Generated_Source\PSoC4/BLE_bms.c **** ******************************************************************************/
 294:Generated_Source\PSoC4/BLE_bms.c **** CYBLE_API_RESULT_T CyBle_BmssGetCharacteristicDescriptor(CYBLE_BMS_CHAR_INDEX_T charIndex,
 295:Generated_Source\PSoC4/BLE_bms.c ****     CYBLE_BMS_DESCR_INDEX_T descrIndex, uint8 attrSize, uint8 *attrValue)
 296:Generated_Source\PSoC4/BLE_bms.c **** {
 294              		.loc 1 296 0
 295              		.cfi_startproc
 296              		@ args = 0, pretend = 0, frame = 16
 297              		@ frame_needed = 0, uses_anonymous_args = 0
 298              	.LVL20:
 299 0000 30B5     		push	{r4, r5, lr}
 300              		.cfi_def_cfa_offset 12
 301              		.cfi_offset 4, -12
 302              		.cfi_offset 5, -8
 303              		.cfi_offset 14, -4
 304 0002 0400     		movs	r4, r0
 297:Generated_Source\PSoC4/BLE_bms.c ****     CYBLE_API_RESULT_T apiResult = CYBLE_ERROR_OK;
 298:Generated_Source\PSoC4/BLE_bms.c ****     CYBLE_GATT_HANDLE_VALUE_PAIR_T locHandleValuePair;
 299:Generated_Source\PSoC4/BLE_bms.c **** 
 300:Generated_Source\PSoC4/BLE_bms.c ****     if((charIndex >= CYBLE_BMS_CHAR_COUNT) || (descrIndex >= CYBLE_BMS_DESCR_COUNT))
 301:Generated_Source\PSoC4/BLE_bms.c ****     {
 302:Generated_Source\PSoC4/BLE_bms.c ****         apiResult = CYBLE_ERROR_INVALID_PARAMETER;
 305              		.loc 1 302 0
 306 0004 0120     		movs	r0, #1
 307              	.LVL21:
 296:Generated_Source\PSoC4/BLE_bms.c ****     CYBLE_API_RESULT_T apiResult = CYBLE_ERROR_OK;
 308              		.loc 1 296 0
 309 0006 85B0     		sub	sp, sp, #20
ARM GAS  C:\Users\user\AppData\Local\Temp\cchzEqxM.s 			page 12


 310              		.cfi_def_cfa_offset 32
 300:Generated_Source\PSoC4/BLE_bms.c ****     {
 311              		.loc 1 300 0
 312 0008 8442     		cmp	r4, r0
 313 000a 0FD8     		bhi	.L27
 300:Generated_Source\PSoC4/BLE_bms.c ****     {
 314              		.loc 1 300 0 is_stmt 0 discriminator 1
 315 000c 0029     		cmp	r1, #0
 316 000e 0DD1     		bne	.L27
 303:Generated_Source\PSoC4/BLE_bms.c ****     }
 304:Generated_Source\PSoC4/BLE_bms.c ****     else
 305:Generated_Source\PSoC4/BLE_bms.c ****     {
 306:Generated_Source\PSoC4/BLE_bms.c ****         locHandleValuePair.attrHandle = cyBle_bmss.charInfo[charIndex].descrHandle[descrIndex];
 317              		.loc 1 306 0 is_stmt 1
 318 0010 074D     		ldr	r5, .L30
 319 0012 A400     		lsls	r4, r4, #2
 320 0014 2C19     		adds	r4, r5, r4
 321 0016 01A8     		add	r0, sp, #4
 322 0018 A488     		ldrh	r4, [r4, #4]
 307:Generated_Source\PSoC4/BLE_bms.c ****         locHandleValuePair.value.len = attrSize;
 323              		.loc 1 307 0
 324 001a 8280     		strh	r2, [r0, #4]
 308:Generated_Source\PSoC4/BLE_bms.c ****         locHandleValuePair.value.val = attrValue;
 309:Generated_Source\PSoC4/BLE_bms.c ****         if(CYBLE_GATT_ERR_NONE !=
 310:Generated_Source\PSoC4/BLE_bms.c ****                 CyBle_GattsReadAttributeValue(&locHandleValuePair, NULL, CYBLE_GATT_DB_LOCALLY_INIT
 325              		.loc 1 310 0
 326 001c 0A00     		movs	r2, r1
 327              	.LVL22:
 308:Generated_Source\PSoC4/BLE_bms.c ****         locHandleValuePair.value.val = attrValue;
 328              		.loc 1 308 0
 329 001e 0193     		str	r3, [sp, #4]
 306:Generated_Source\PSoC4/BLE_bms.c ****         locHandleValuePair.value.len = attrSize;
 330              		.loc 1 306 0
 331 0020 0481     		strh	r4, [r0, #8]
 332              		.loc 1 310 0
 333 0022 FFF7FEFF 		bl	CyBle_GattsReadAttributeValue
 334              	.LVL23:
 302:Generated_Source\PSoC4/BLE_bms.c ****     }
 335              		.loc 1 302 0
 336 0026 431E     		subs	r3, r0, #1
 337 0028 9841     		sbcs	r0, r0, r3
 338 002a 80B2     		uxth	r0, r0
 339              	.L27:
 340              	.LVL24:
 311:Generated_Source\PSoC4/BLE_bms.c ****         {
 312:Generated_Source\PSoC4/BLE_bms.c ****             apiResult = CYBLE_ERROR_INVALID_PARAMETER;
 313:Generated_Source\PSoC4/BLE_bms.c ****         }
 314:Generated_Source\PSoC4/BLE_bms.c ****     }
 315:Generated_Source\PSoC4/BLE_bms.c ****     return (apiResult);
 316:Generated_Source\PSoC4/BLE_bms.c **** }
 341              		.loc 1 316 0
 342 002c 05B0     		add	sp, sp, #20
 343              		@ sp needed
 344 002e 30BD     		pop	{r4, r5, pc}
 345              	.L31:
 346              		.align	2
 347              	.L30:
ARM GAS  C:\Users\user\AppData\Local\Temp\cchzEqxM.s 			page 13


 348 0030 00000000 		.word	.LANCHOR1
 349              		.cfi_endproc
 350              	.LFE7:
 351              		.size	CyBle_BmssGetCharacteristicDescriptor, .-CyBle_BmssGetCharacteristicDescriptor
 352              		.section	.text.CyBle_BmssWriteEventHandler,"ax",%progbits
 353              		.align	1
 354              		.global	CyBle_BmssWriteEventHandler
 355              		.code	16
 356              		.thumb_func
 357              		.type	CyBle_BmssWriteEventHandler, %function
 358              	CyBle_BmssWriteEventHandler:
 359              	.LFB8:
 317:Generated_Source\PSoC4/BLE_bms.c **** 
 318:Generated_Source\PSoC4/BLE_bms.c **** /******************************************************************************
 319:Generated_Source\PSoC4/BLE_bms.c **** * Function Name: CyBle_BmssWriteEventHandler
 320:Generated_Source\PSoC4/BLE_bms.c **** ***************************************************************************//**
 321:Generated_Source\PSoC4/BLE_bms.c **** * 
 322:Generated_Source\PSoC4/BLE_bms.c **** *  Handles a Write Request event. Calls the registered BMS application 
 323:Generated_Source\PSoC4/BLE_bms.c **** *  callback function.
 324:Generated_Source\PSoC4/BLE_bms.c **** * 
 325:Generated_Source\PSoC4/BLE_bms.c **** * Note: Writing the attribute into GATT DB (if needed) is on the user's 
 326:Generated_Source\PSoC4/BLE_bms.c **** *  responsibility after the Authorization Code check in the registered BMS 
 327:Generated_Source\PSoC4/BLE_bms.c **** *  application callback function.
 328:Generated_Source\PSoC4/BLE_bms.c **** * 
 329:Generated_Source\PSoC4/BLE_bms.c **** *  \param eventParam: The pointer to the data structure specified by the event.
 330:Generated_Source\PSoC4/BLE_bms.c **** * 
 331:Generated_Source\PSoC4/BLE_bms.c **** * \return
 332:Generated_Source\PSoC4/BLE_bms.c **** *  CYBLE_GATT_ERR_CODE_T - A function return state if the it succeeded 
 333:Generated_Source\PSoC4/BLE_bms.c **** *  (CYBLE_GATT_ERR_NONE) or failed with error codes:
 334:Generated_Source\PSoC4/BLE_bms.c **** *   * CYBLE_GATT_ERR_OP_CODE_NOT_SUPPORTED.
 335:Generated_Source\PSoC4/BLE_bms.c **** *   * CYBLE_GATT_ERR_INSUFFICIENT_AUTHORIZATION.
 336:Generated_Source\PSoC4/BLE_bms.c **** * 
 337:Generated_Source\PSoC4/BLE_bms.c **** ******************************************************************************/
 338:Generated_Source\PSoC4/BLE_bms.c **** CYBLE_GATT_ERR_CODE_T CyBle_BmssWriteEventHandler(CYBLE_GATTS_WRITE_REQ_PARAM_T *eventParam)
 339:Generated_Source\PSoC4/BLE_bms.c **** {
 360              		.loc 1 339 0
 361              		.cfi_startproc
 362              		@ args = 0, pretend = 0, frame = 24
 363              		@ frame_needed = 0, uses_anonymous_args = 0
 364              	.LVL25:
 340:Generated_Source\PSoC4/BLE_bms.c ****     CYBLE_BMS_CHAR_VALUE_T locCharValue;
 341:Generated_Source\PSoC4/BLE_bms.c ****     locCharValue.gattErrorCode = CYBLE_GATT_ERR_NONE;
 365              		.loc 1 341 0
 366 0000 0023     		movs	r3, #0
 339:Generated_Source\PSoC4/BLE_bms.c ****     CYBLE_BMS_CHAR_VALUE_T locCharValue;
 367              		.loc 1 339 0
 368 0002 F0B5     		push	{r4, r5, r6, r7, lr}
 369              		.cfi_def_cfa_offset 20
 370              		.cfi_offset 4, -20
 371              		.cfi_offset 5, -16
 372              		.cfi_offset 6, -12
 373              		.cfi_offset 7, -8
 374              		.cfi_offset 14, -4
 342:Generated_Source\PSoC4/BLE_bms.c ****     
 343:Generated_Source\PSoC4/BLE_bms.c ****     if((NULL != CyBle_BmsApplCallback) && 
 375              		.loc 1 343 0
 376 0004 1A4E     		ldr	r6, .L40
ARM GAS  C:\Users\user\AppData\Local\Temp\cchzEqxM.s 			page 14


 339:Generated_Source\PSoC4/BLE_bms.c ****     CYBLE_BMS_CHAR_VALUE_T locCharValue;
 377              		.loc 1 339 0
 378 0006 87B0     		sub	sp, sp, #28
 379              		.cfi_def_cfa_offset 48
 341:Generated_Source\PSoC4/BLE_bms.c ****     
 380              		.loc 1 341 0
 381 0008 03AC     		add	r4, sp, #12
 382 000a 2372     		strb	r3, [r4, #8]
 383              		.loc 1 343 0
 384 000c 3368     		ldr	r3, [r6]
 339:Generated_Source\PSoC4/BLE_bms.c ****     CYBLE_BMS_CHAR_VALUE_T locCharValue;
 385              		.loc 1 339 0
 386 000e 0500     		movs	r5, r0
 387              		.loc 1 343 0
 388 0010 002B     		cmp	r3, #0
 389 0012 2AD0     		beq	.L33
 390              		.loc 1 343 0 is_stmt 0 discriminator 1
 391 0014 8089     		ldrh	r0, [r0, #12]
 392              	.LVL26:
 393 0016 4E28     		cmp	r0, #78
 394 0018 27D1     		bne	.L33
 344:Generated_Source\PSoC4/BLE_bms.c ****         (eventParam->handleValPair.attrHandle == cyBle_bmss.charInfo[CYBLE_BMS_BMCP].charHandle))
 345:Generated_Source\PSoC4/BLE_bms.c ****     {
 346:Generated_Source\PSoC4/BLE_bms.c ****         locCharValue.gattErrorCode = CyBle_GattDbCheckPermission(eventParam->handleValPair.attrHand
 395              		.loc 1 346 0 is_stmt 1
 396 001a 4222     		movs	r2, #66
 397 001c 2900     		movs	r1, r5
 398 001e FFF7FEFF 		bl	CyBle_GattDbCheckPermission
 399              	.LVL27:
 400 0022 2072     		strb	r0, [r4, #8]
 347:Generated_Source\PSoC4/BLE_bms.c ****                                                                 &eventParam->connHandle,
 348:Generated_Source\PSoC4/BLE_bms.c ****                                                                 CYBLE_GATT_DB_WRITE | CYBLE_GATT_DB
 349:Generated_Source\PSoC4/BLE_bms.c ****         
 350:Generated_Source\PSoC4/BLE_bms.c ****         if(locCharValue.gattErrorCode == CYBLE_GATT_ERR_NONE)
 401              		.loc 1 350 0
 402 0024 0028     		cmp	r0, #0
 403 0026 1BD1     		bne	.L35
 351:Generated_Source\PSoC4/BLE_bms.c ****         {
 352:Generated_Source\PSoC4/BLE_bms.c ****             locCharValue.connHandle = eventParam->connHandle;
 404              		.loc 1 352 0
 405 0028 2B88     		ldrh	r3, [r5]
 353:Generated_Source\PSoC4/BLE_bms.c ****             locCharValue.charIndex = CYBLE_BMS_BMCP;
 406              		.loc 1 353 0
 407 002a A070     		strb	r0, [r4, #2]
 354:Generated_Source\PSoC4/BLE_bms.c ****             locCharValue.value = &eventParam->handleValPair.value;
 408              		.loc 1 354 0
 409 002c 2F1D     		adds	r7, r5, #4
 355:Generated_Source\PSoC4/BLE_bms.c ****             
 356:Generated_Source\PSoC4/BLE_bms.c ****             CyBle_BmsApplCallback((uint32)CYBLE_EVT_BMSS_WRITE_CHAR, &locCharValue);
 410              		.loc 1 356 0
 411 002e 4930     		adds	r0, r0, #73
 352:Generated_Source\PSoC4/BLE_bms.c ****             locCharValue.charIndex = CYBLE_BMS_BMCP;
 412              		.loc 1 352 0
 413 0030 2380     		strh	r3, [r4]
 414              		.loc 1 356 0
 415 0032 2100     		movs	r1, r4
 354:Generated_Source\PSoC4/BLE_bms.c ****             locCharValue.value = &eventParam->handleValPair.value;
ARM GAS  C:\Users\user\AppData\Local\Temp\cchzEqxM.s 			page 15


 416              		.loc 1 354 0
 417 0034 6760     		str	r7, [r4, #4]
 418              		.loc 1 356 0
 419 0036 3368     		ldr	r3, [r6]
 420 0038 FF30     		adds	r0, r0, #255
 421 003a 9847     		blx	r3
 422              	.LVL28:
 357:Generated_Source\PSoC4/BLE_bms.c ****             
 358:Generated_Source\PSoC4/BLE_bms.c ****             if(locCharValue.gattErrorCode == CYBLE_GATT_ERR_NONE)
 423              		.loc 1 358 0
 424 003c 217A     		ldrb	r1, [r4, #8]
 425 003e 0029     		cmp	r1, #0
 426 0040 0ED1     		bne	.L35
 359:Generated_Source\PSoC4/BLE_bms.c ****             {
 360:Generated_Source\PSoC4/BLE_bms.c ****                 locCharValue.gattErrorCode = CyBle_GattsWriteAttributeValue(&eventParam->handleValP
 427              		.loc 1 360 0
 428 0042 4023     		movs	r3, #64
 429 0044 2A00     		movs	r2, r5
 430 0046 3800     		movs	r0, r7
 431 0048 FFF7FEFF 		bl	CyBle_GattsWriteAttributeValue
 432              	.LVL29:
 433 004c 2072     		strb	r0, [r4, #8]
 361:Generated_Source\PSoC4/BLE_bms.c ****             	                      0u, &eventParam->connHandle, CYBLE_GATT_DB_PEER_INITIATED);
 362:Generated_Source\PSoC4/BLE_bms.c ****                 
 363:Generated_Source\PSoC4/BLE_bms.c ****                 if(locCharValue.gattErrorCode == CYBLE_GATT_ERR_NONE)
 434              		.loc 1 363 0
 435 004e 0028     		cmp	r0, #0
 436 0050 06D1     		bne	.L35
 364:Generated_Source\PSoC4/BLE_bms.c ****                 {
 365:Generated_Source\PSoC4/BLE_bms.c ****                     CYBLE_GATT_DB_ATTR_SET_ATTR_GEN_LEN(cyBle_bmss.charInfo[CYBLE_BMS_BMCP].charHan
 437              		.loc 1 365 0
 438 0052 6368     		ldr	r3, [r4, #4]
 439 0054 074A     		ldr	r2, .L40+4
 440 0056 0849     		ldr	r1, .L40+8
 441 0058 9B88     		ldrh	r3, [r3, #4]
 442 005a 8A58     		ldr	r2, [r1, r2]
 443 005c 0192     		str	r2, [sp, #4]
 444 005e 1380     		strh	r3, [r2]
 445              	.L35:
 366:Generated_Source\PSoC4/BLE_bms.c ****                 }   
 367:Generated_Source\PSoC4/BLE_bms.c ****             }
 368:Generated_Source\PSoC4/BLE_bms.c ****         }
 369:Generated_Source\PSoC4/BLE_bms.c ****         
 370:Generated_Source\PSoC4/BLE_bms.c ****         /* Indicate that request was handled */
 371:Generated_Source\PSoC4/BLE_bms.c ****         cyBle_eventHandlerFlag &= (uint8)~CYBLE_CALLBACK;
 446              		.loc 1 371 0
 447 0060 0121     		movs	r1, #1
 448 0062 064A     		ldr	r2, .L40+12
 449 0064 1378     		ldrb	r3, [r2]
 450 0066 8B43     		bics	r3, r1
 451 0068 1370     		strb	r3, [r2]
 452              	.L33:
 372:Generated_Source\PSoC4/BLE_bms.c ****     }
 373:Generated_Source\PSoC4/BLE_bms.c **** 
 374:Generated_Source\PSoC4/BLE_bms.c ****     return (locCharValue.gattErrorCode);
 453              		.loc 1 374 0
 454 006a 207A     		ldrb	r0, [r4, #8]
ARM GAS  C:\Users\user\AppData\Local\Temp\cchzEqxM.s 			page 16


 375:Generated_Source\PSoC4/BLE_bms.c **** }
 455              		.loc 1 375 0
 456 006c 07B0     		add	sp, sp, #28
 457              		@ sp needed
 458              	.LVL30:
 459 006e F0BD     		pop	{r4, r5, r6, r7, pc}
 460              	.L41:
 461              		.align	2
 462              	.L40:
 463 0070 00000000 		.word	.LANCHOR0
 464 0074 14060000 		.word	1556
 465 0078 00000000 		.word	cyBle_gattDB
 466 007c 00000000 		.word	cyBle_eventHandlerFlag
 467              		.cfi_endproc
 468              	.LFE8:
 469              		.size	CyBle_BmssWriteEventHandler, .-CyBle_BmssWriteEventHandler
 470              		.section	.text.CyBle_BmssPrepareWriteRequestEventHandler,"ax",%progbits
 471              		.align	1
 472              		.global	CyBle_BmssPrepareWriteRequestEventHandler
 473              		.code	16
 474              		.thumb_func
 475              		.type	CyBle_BmssPrepareWriteRequestEventHandler, %function
 476              	CyBle_BmssPrepareWriteRequestEventHandler:
 477              	.LFB9:
 376:Generated_Source\PSoC4/BLE_bms.c **** 
 377:Generated_Source\PSoC4/BLE_bms.c **** /****************************************************************************** 
 378:Generated_Source\PSoC4/BLE_bms.c **** * Function Name: CyBle_BmssPrepareWriteEventHandler
 379:Generated_Source\PSoC4/BLE_bms.c **** ***************************************************************************//**
 380:Generated_Source\PSoC4/BLE_bms.c **** * 
 381:Generated_Source\PSoC4/BLE_bms.c **** *  Handles a Prepare Write Request event.
 382:Generated_Source\PSoC4/BLE_bms.c **** * 
 383:Generated_Source\PSoC4/BLE_bms.c **** *  \param CYBLE_GATTS_PREP_WRITE_REQ_PARAM_T *eventParam: The pointer to the 
 384:Generated_Source\PSoC4/BLE_bms.c **** *         data that came with a prepare write request.
 385:Generated_Source\PSoC4/BLE_bms.c **** *  
 386:Generated_Source\PSoC4/BLE_bms.c **** ******************************************************************************/
 387:Generated_Source\PSoC4/BLE_bms.c **** void CyBle_BmssPrepareWriteRequestEventHandler(CYBLE_GATTS_PREP_WRITE_REQ_PARAM_T *eventParam)
 388:Generated_Source\PSoC4/BLE_bms.c **** {
 478              		.loc 1 388 0
 479              		.cfi_startproc
 480              		@ args = 0, pretend = 0, frame = 8
 481              		@ frame_needed = 0, uses_anonymous_args = 0
 482              	.LVL31:
 483 0000 37B5     		push	{r0, r1, r2, r4, r5, lr}
 484              		.cfi_def_cfa_offset 24
 485              		.cfi_offset 0, -24
 486              		.cfi_offset 1, -20
 487              		.cfi_offset 2, -16
 488              		.cfi_offset 4, -12
 489              		.cfi_offset 5, -8
 490              		.cfi_offset 14, -4
 389:Generated_Source\PSoC4/BLE_bms.c ****     if(eventParam->baseAddr[eventParam->currentPrepWriteReqCount - 1u].handleValuePair.attrHandle =
 491              		.loc 1 389 0
 492 0002 134A     		ldr	r2, .L46
 493 0004 037A     		ldrb	r3, [r0, #8]
 388:Generated_Source\PSoC4/BLE_bms.c ****     if(eventParam->baseAddr[eventParam->currentPrepWriteReqCount - 1u].handleValuePair.attrHandle =
 494              		.loc 1 388 0
 495 0006 0400     		movs	r4, r0
ARM GAS  C:\Users\user\AppData\Local\Temp\cchzEqxM.s 			page 17


 496              		.loc 1 389 0
 497 0008 9B18     		adds	r3, r3, r2
 498 000a 4268     		ldr	r2, [r0, #4]
 499 000c 1B01     		lsls	r3, r3, #4
 500 000e D318     		adds	r3, r2, r3
 501 0010 1B89     		ldrh	r3, [r3, #8]
 502 0012 4E2B     		cmp	r3, #78
 503 0014 1BD1     		bne	.L42
 504              	.LBB4:
 390:Generated_Source\PSoC4/BLE_bms.c ****         cyBle_bmss.charInfo[CYBLE_BMS_BMCP].charHandle)
 391:Generated_Source\PSoC4/BLE_bms.c ****     {
 392:Generated_Source\PSoC4/BLE_bms.c ****         uint16 locMtu = CYBLE_GATT_MTU;
 505              		.loc 1 392 0
 506 0016 6B46     		mov	r3, sp
 507 0018 9D1D     		adds	r5, r3, #6
 508 001a 1723     		movs	r3, #23
 393:Generated_Source\PSoC4/BLE_bms.c ****         (void) CyBle_GattGetMtuSize(&locMtu);
 509              		.loc 1 393 0
 510 001c 2800     		movs	r0, r5
 511              	.LVL32:
 392:Generated_Source\PSoC4/BLE_bms.c ****         (void) CyBle_GattGetMtuSize(&locMtu);
 512              		.loc 1 392 0
 513 001e 2B80     		strh	r3, [r5]
 514              		.loc 1 393 0
 515 0020 FFF7FEFF 		bl	CyBle_GattGetMtuSize
 516              	.LVL33:
 394:Generated_Source\PSoC4/BLE_bms.c ****         
 395:Generated_Source\PSoC4/BLE_bms.c ****         if(((cyBle_bmss.charInfo[CYBLE_BMS_BMCP].descrHandle[CYBLE_BMS_CEPD] != CYBLE_GATT_INVALID_
 396:Generated_Source\PSoC4/BLE_bms.c ****             && CYBLE_IS_RELIABLE_WRITE_ENABLED(cyBle_bmss.charInfo[CYBLE_BMS_BMCP].descrHandle[CYBL
 397:Generated_Source\PSoC4/BLE_bms.c ****             (CYBLE_GATT_DB_ATTR_GET_ATTR_GEN_MAX_LEN(cyBle_bmss.charInfo[CYBLE_BMS_BMCP].charHandle
 517              		.loc 1 397 0
 518 0024 C223     		movs	r3, #194
 396:Generated_Source\PSoC4/BLE_bms.c ****             (CYBLE_GATT_DB_ATTR_GET_ATTR_GEN_MAX_LEN(cyBle_bmss.charInfo[CYBLE_BMS_BMCP].charHandle
 519              		.loc 1 396 0
 520 0026 0B4A     		ldr	r2, .L46+4
 521              		.loc 1 397 0
 522 0028 DB00     		lsls	r3, r3, #3
 396:Generated_Source\PSoC4/BLE_bms.c ****             (CYBLE_GATT_DB_ATTR_GET_ATTR_GEN_MAX_LEN(cyBle_bmss.charInfo[CYBLE_BMS_BMCP].charHandle
 523              		.loc 1 396 0
 524 002a D25A     		ldrh	r2, [r2, r3]
 525 002c 2B88     		ldrh	r3, [r5]
 526 002e 033B     		subs	r3, r3, #3
 527 0030 9A42     		cmp	r2, r3
 528 0032 05D9     		bls	.L44
 398:Generated_Source\PSoC4/BLE_bms.c ****         {   
 399:Generated_Source\PSoC4/BLE_bms.c ****             if(eventParam->currentPrepWriteReqCount == 1u) /* The first prepare write event */
 529              		.loc 1 399 0
 530 0034 207A     		ldrb	r0, [r4, #8]
 531 0036 0128     		cmp	r0, #1
 532 0038 04D1     		bne	.L45
 400:Generated_Source\PSoC4/BLE_bms.c ****             {
 401:Generated_Source\PSoC4/BLE_bms.c ****                 CyBle_GattsPrepWriteReqSupport(CYBLE_GATTS_PREP_WRITE_SUPPORT);
 533              		.loc 1 401 0
 534 003a FFF7FEFF 		bl	CyBle_GattsPrepWriteReqSupport
 535              	.LVL34:
 536 003e 01E0     		b	.L45
 537              	.L44:
ARM GAS  C:\Users\user\AppData\Local\Temp\cchzEqxM.s 			page 18


 402:Generated_Source\PSoC4/BLE_bms.c ****             }
 403:Generated_Source\PSoC4/BLE_bms.c ****         } 
 404:Generated_Source\PSoC4/BLE_bms.c ****         else
 405:Generated_Source\PSoC4/BLE_bms.c ****         {
 406:Generated_Source\PSoC4/BLE_bms.c ****             eventParam->gattErrorCode = CYBLE_GATT_ERR_ATTRIBUTE_NOT_LONG;
 538              		.loc 1 406 0
 539 0040 0B23     		movs	r3, #11
 540 0042 6372     		strb	r3, [r4, #9]
 541              	.L45:
 407:Generated_Source\PSoC4/BLE_bms.c ****         }
 408:Generated_Source\PSoC4/BLE_bms.c ****         
 409:Generated_Source\PSoC4/BLE_bms.c ****         /* Indicate that request was handled */
 410:Generated_Source\PSoC4/BLE_bms.c ****         cyBle_eventHandlerFlag &= (uint8)~CYBLE_CALLBACK;
 542              		.loc 1 410 0 discriminator 1
 543 0044 0121     		movs	r1, #1
 544 0046 044A     		ldr	r2, .L46+8
 545 0048 1378     		ldrb	r3, [r2]
 546 004a 8B43     		bics	r3, r1
 547 004c 1370     		strb	r3, [r2]
 548              	.L42:
 549              	.LBE4:
 411:Generated_Source\PSoC4/BLE_bms.c ****     }
 412:Generated_Source\PSoC4/BLE_bms.c **** }
 550              		.loc 1 412 0
 551              		@ sp needed
 552              	.LVL35:
 553 004e 37BD     		pop	{r0, r1, r2, r4, r5, pc}
 554              	.L47:
 555              		.align	2
 556              	.L46:
 557 0050 FFFFFF0F 		.word	268435455
 558 0054 00000000 		.word	cyBle_gattDB
 559 0058 00000000 		.word	cyBle_eventHandlerFlag
 560              		.cfi_endproc
 561              	.LFE9:
 562              		.size	CyBle_BmssPrepareWriteRequestEventHandler, .-CyBle_BmssPrepareWriteRequestEventHandler
 563              		.section	.text.CyBle_BmssExecuteWriteRequestEventHandler,"ax",%progbits
 564              		.align	1
 565              		.global	CyBle_BmssExecuteWriteRequestEventHandler
 566              		.code	16
 567              		.thumb_func
 568              		.type	CyBle_BmssExecuteWriteRequestEventHandler, %function
 569              	CyBle_BmssExecuteWriteRequestEventHandler:
 570              	.LFB10:
 413:Generated_Source\PSoC4/BLE_bms.c **** 
 414:Generated_Source\PSoC4/BLE_bms.c **** /****************************************************************************** 
 415:Generated_Source\PSoC4/BLE_bms.c **** * Function Name: CyBle_BmssExecuteWriteRequestEventHandler
 416:Generated_Source\PSoC4/BLE_bms.c **** ***************************************************************************//**
 417:Generated_Source\PSoC4/BLE_bms.c **** * 
 418:Generated_Source\PSoC4/BLE_bms.c **** *  Handles an Execute Write Request event.
 419:Generated_Source\PSoC4/BLE_bms.c **** * 
 420:Generated_Source\PSoC4/BLE_bms.c **** *  \param CYBLE_GATTS_EXEC_WRITE_REQ_T *eventParam: The pointer to the data 
 421:Generated_Source\PSoC4/BLE_bms.c **** *            that came with a write request.
 422:Generated_Source\PSoC4/BLE_bms.c **** * 
 423:Generated_Source\PSoC4/BLE_bms.c **** ******************************************************************************/
 424:Generated_Source\PSoC4/BLE_bms.c **** void CyBle_BmssExecuteWriteRequestEventHandler(CYBLE_GATTS_EXEC_WRITE_REQ_T *eventParam)
 425:Generated_Source\PSoC4/BLE_bms.c **** {
ARM GAS  C:\Users\user\AppData\Local\Temp\cchzEqxM.s 			page 19


 571              		.loc 1 425 0
 572              		.cfi_startproc
 573              		@ args = 0, pretend = 0, frame = 32
 574              		@ frame_needed = 0, uses_anonymous_args = 0
 575              	.LVL36:
 426:Generated_Source\PSoC4/BLE_bms.c ****     uint8 locCount;
 427:Generated_Source\PSoC4/BLE_bms.c ****     CYBLE_GATT_VALUE_T locGattValue;
 428:Generated_Source\PSoC4/BLE_bms.c ****     locGattValue.len = 0u;
 576              		.loc 1 428 0
 577 0000 0023     		movs	r3, #0
 425:Generated_Source\PSoC4/BLE_bms.c ****     uint8 locCount;
 578              		.loc 1 425 0
 579 0002 F0B5     		push	{r4, r5, r6, r7, lr}
 580              		.cfi_def_cfa_offset 20
 581              		.cfi_offset 4, -20
 582              		.cfi_offset 5, -16
 583              		.cfi_offset 6, -12
 584              		.cfi_offset 7, -8
 585              		.cfi_offset 14, -4
 586 0004 89B0     		sub	sp, sp, #36
 587              		.cfi_def_cfa_offset 56
 588              		.loc 1 428 0
 589 0006 03AD     		add	r5, sp, #12
 590 0008 AB80     		strh	r3, [r5, #4]
 429:Generated_Source\PSoC4/BLE_bms.c ****     locGattValue.val = NULL;
 591              		.loc 1 429 0
 592 000a 0393     		str	r3, [sp, #12]
 593              	.LVL37:
 430:Generated_Source\PSoC4/BLE_bms.c ****     
 431:Generated_Source\PSoC4/BLE_bms.c ****     for(locCount = 0u; locCount < eventParam->prepWriteReqCount; locCount++)
 594              		.loc 1 431 0
 595 000c 027A     		ldrb	r2, [r0, #8]
 425:Generated_Source\PSoC4/BLE_bms.c ****     uint8 locCount;
 596              		.loc 1 425 0
 597 000e 0400     		movs	r4, r0
 598              		.loc 1 431 0
 599 0010 1E00     		movs	r6, r3
 600 0012 1800     		movs	r0, r3
 601              	.LVL38:
 602 0014 1F00     		movs	r7, r3
 603 0016 0192     		str	r2, [sp, #4]
 604 0018 0093     		str	r3, [sp]
 605              	.LVL39:
 606              	.L49:
 607              		.loc 1 431 0 is_stmt 0 discriminator 1
 608 001a 0199     		ldr	r1, [sp, #4]
 609 001c DAB2     		uxtb	r2, r3
 610 001e 9142     		cmp	r1, r2
 611 0020 19D9     		bls	.L68
 432:Generated_Source\PSoC4/BLE_bms.c ****     {
 433:Generated_Source\PSoC4/BLE_bms.c ****         if(eventParam->baseAddr[locCount].handleValuePair.attrHandle ==
 612              		.loc 1 433 0 is_stmt 1
 613 0022 6168     		ldr	r1, [r4, #4]
 614 0024 1A01     		lsls	r2, r3, #4
 615 0026 8A18     		adds	r2, r1, r2
 616 0028 1189     		ldrh	r1, [r2, #8]
 617 002a 4E29     		cmp	r1, #78
ARM GAS  C:\Users\user\AppData\Local\Temp\cchzEqxM.s 			page 20


 618 002c 11D1     		bne	.L51
 434:Generated_Source\PSoC4/BLE_bms.c ****             cyBle_bmss.charInfo[CYBLE_BMS_BMCP].charHandle)
 435:Generated_Source\PSoC4/BLE_bms.c ****         {
 436:Generated_Source\PSoC4/BLE_bms.c ****             locGattValue.len = eventParam->baseAddr[locCount].offset + 
 619              		.loc 1 436 0
 620 002e 9189     		ldrh	r1, [r2, #12]
 621 0030 8C46     		mov	ip, r1
 622 0032 9188     		ldrh	r1, [r2, #4]
 623 0034 6144     		add	r1, r1, ip
 624 0036 89B2     		uxth	r1, r1
 625 0038 0091     		str	r1, [sp]
 437:Generated_Source\PSoC4/BLE_bms.c ****                                eventParam->baseAddr[locCount].handleValuePair.value.len;
 438:Generated_Source\PSoC4/BLE_bms.c **** 
 439:Generated_Source\PSoC4/BLE_bms.c ****             if(locGattValue.val == NULL)
 626              		.loc 1 439 0
 627 003a 002E     		cmp	r6, #0
 628 003c 03D1     		bne	.L52
 629 003e 0120     		movs	r0, #1
 440:Generated_Source\PSoC4/BLE_bms.c ****             {
 441:Generated_Source\PSoC4/BLE_bms.c ****                 locGattValue.val = eventParam->baseAddr[locCount].handleValuePair.value.val;
 630              		.loc 1 441 0
 631 0040 1668     		ldr	r6, [r2]
 632 0042 0700     		movs	r7, r0
 633 0044 05E0     		b	.L51
 634              	.L52:
 442:Generated_Source\PSoC4/BLE_bms.c ****             }
 443:Generated_Source\PSoC4/BLE_bms.c ****             else if(eventParam->baseAddr[locCount].offset == 0u)
 635              		.loc 1 443 0
 636 0046 6146     		mov	r1, ip
 637 0048 0127     		movs	r7, #1
 638 004a 0029     		cmp	r1, #0
 639 004c 01D1     		bne	.L51
 640 004e 3800     		movs	r0, r7
 444:Generated_Source\PSoC4/BLE_bms.c ****             {
 445:Generated_Source\PSoC4/BLE_bms.c ****                 /* The case when client wants to rewrite the value from the begin */
 446:Generated_Source\PSoC4/BLE_bms.c ****                 locGattValue.val = eventParam->baseAddr[locCount].handleValuePair.value.val;
 641              		.loc 1 446 0
 642 0050 1668     		ldr	r6, [r2]
 643              	.L51:
 644              	.LVL40:
 645 0052 0133     		adds	r3, r3, #1
 646              	.LVL41:
 647 0054 E1E7     		b	.L49
 648              	.LVL42:
 649              	.L68:
 650 0056 002F     		cmp	r7, #0
 651 0058 2DD0     		beq	.L55
 652 005a 6B46     		mov	r3, sp
 653              	.LVL43:
 654 005c 1B88     		ldrh	r3, [r3]
 655 005e AB80     		strh	r3, [r5, #4]
 656 0060 0028     		cmp	r0, #0
 657 0062 00D0     		beq	.L56
 658              	.L60:
 659 0064 0396     		str	r6, [sp, #12]
 660              	.L56:
 447:Generated_Source\PSoC4/BLE_bms.c ****             }
ARM GAS  C:\Users\user\AppData\Local\Temp\cchzEqxM.s 			page 21


 448:Generated_Source\PSoC4/BLE_bms.c ****             else
 449:Generated_Source\PSoC4/BLE_bms.c ****             {
 450:Generated_Source\PSoC4/BLE_bms.c ****                 /* do nothing */   
 451:Generated_Source\PSoC4/BLE_bms.c ****             }
 452:Generated_Source\PSoC4/BLE_bms.c ****         }
 453:Generated_Source\PSoC4/BLE_bms.c ****     }
 454:Generated_Source\PSoC4/BLE_bms.c ****     
 455:Generated_Source\PSoC4/BLE_bms.c ****     if((locGattValue.len != 0u) &&
 661              		.loc 1 455 0
 662 0066 AB88     		ldrh	r3, [r5, #4]
 663 0068 002B     		cmp	r3, #0
 664 006a 26D0     		beq	.L48
 456:Generated_Source\PSoC4/BLE_bms.c ****         (locGattValue.len <= CYBLE_GATT_DB_ATTR_GET_ATTR_GEN_MAX_LEN(cyBle_bmss.charInfo[CYBLE_BMS_
 665              		.loc 1 456 0 discriminator 1
 666 006c C222     		movs	r2, #194
 667              	.LVL44:
 668 006e 144F     		ldr	r7, .L69
 669 0070 D200     		lsls	r2, r2, #3
 455:Generated_Source\PSoC4/BLE_bms.c ****         (locGattValue.len <= CYBLE_GATT_DB_ATTR_GET_ATTR_GEN_MAX_LEN(cyBle_bmss.charInfo[CYBLE_BMS_
 670              		.loc 1 455 0 discriminator 1
 671 0072 BA5A     		ldrh	r2, [r7, r2]
 672 0074 9A42     		cmp	r2, r3
 673 0076 20D3     		bcc	.L48
 457:Generated_Source\PSoC4/BLE_bms.c ****     {
 458:Generated_Source\PSoC4/BLE_bms.c ****         /* Check the execWriteFlag before execute or cancel write long operation */
 459:Generated_Source\PSoC4/BLE_bms.c ****         if(eventParam->execWriteFlag == CYBLE_GATT_EXECUTE_WRITE_EXEC_FLAG)
 674              		.loc 1 459 0
 675 0078 637A     		ldrb	r3, [r4, #9]
 676 007a 012B     		cmp	r3, #1
 677 007c 15D1     		bne	.L58
 678              	.LBB5:
 460:Generated_Source\PSoC4/BLE_bms.c ****         {
 461:Generated_Source\PSoC4/BLE_bms.c ****             CYBLE_BMS_CHAR_VALUE_T locCharValue;
 462:Generated_Source\PSoC4/BLE_bms.c ****             locCharValue.gattErrorCode = CYBLE_GATT_ERR_NONE;
 679              		.loc 1 462 0
 680 007e 0023     		movs	r3, #0
 463:Generated_Source\PSoC4/BLE_bms.c ****             locCharValue.connHandle = eventParam->connHandle;
 464:Generated_Source\PSoC4/BLE_bms.c ****             locCharValue.value = &locGattValue;
 465:Generated_Source\PSoC4/BLE_bms.c ****             
 466:Generated_Source\PSoC4/BLE_bms.c ****             CyBle_BmsApplCallback((uint32)CYBLE_EVT_BMSS_WRITE_CHAR, &locCharValue);
 681              		.loc 1 466 0
 682 0080 A420     		movs	r0, #164
 462:Generated_Source\PSoC4/BLE_bms.c ****             locCharValue.connHandle = eventParam->connHandle;
 683              		.loc 1 462 0
 684 0082 05AE     		add	r6, sp, #20
 685 0084 3372     		strb	r3, [r6, #8]
 463:Generated_Source\PSoC4/BLE_bms.c ****             locCharValue.connHandle = eventParam->connHandle;
 686              		.loc 1 463 0
 687 0086 2388     		ldrh	r3, [r4]
 464:Generated_Source\PSoC4/BLE_bms.c ****             
 688              		.loc 1 464 0
 689 0088 0695     		str	r5, [sp, #24]
 463:Generated_Source\PSoC4/BLE_bms.c ****             locCharValue.connHandle = eventParam->connHandle;
 690              		.loc 1 463 0
 691 008a 3380     		strh	r3, [r6]
 692              		.loc 1 466 0
 693 008c 0D4B     		ldr	r3, .L69+4
ARM GAS  C:\Users\user\AppData\Local\Temp\cchzEqxM.s 			page 22


 694 008e 3100     		movs	r1, r6
 695 0090 1B68     		ldr	r3, [r3]
 696 0092 4000     		lsls	r0, r0, #1
 697 0094 9847     		blx	r3
 698              	.LVL45:
 467:Generated_Source\PSoC4/BLE_bms.c ****                        
 468:Generated_Source\PSoC4/BLE_bms.c ****             if(locCharValue.gattErrorCode == CYBLE_GATT_ERR_NONE)
 699              		.loc 1 468 0
 700 0096 337A     		ldrb	r3, [r6, #8]
 701 0098 002B     		cmp	r3, #0
 702 009a 05D1     		bne	.L59
 469:Generated_Source\PSoC4/BLE_bms.c ****             {
 470:Generated_Source\PSoC4/BLE_bms.c ****                 CYBLE_GATT_DB_ATTR_SET_ATTR_GEN_LEN(cyBle_bmss.charInfo[CYBLE_BMS_BMCP].charHandle,
 703              		.loc 1 470 0
 704 009c 0A4A     		ldr	r2, .L69+8
 705 009e BA58     		ldr	r2, [r7, r2]
 706 00a0 0092     		str	r2, [sp]
 707 00a2 AA88     		ldrh	r2, [r5, #4]
 708 00a4 0099     		ldr	r1, [sp]
 709 00a6 0A80     		strh	r2, [r1]
 710              	.L59:
 471:Generated_Source\PSoC4/BLE_bms.c ****             }
 472:Generated_Source\PSoC4/BLE_bms.c ****            
 473:Generated_Source\PSoC4/BLE_bms.c ****             eventParam->gattErrorCode = locCharValue.gattErrorCode;
 711              		.loc 1 473 0
 712 00a8 2373     		strb	r3, [r4, #12]
 713              	.L58:
 714              	.LBE5:
 474:Generated_Source\PSoC4/BLE_bms.c ****         }
 475:Generated_Source\PSoC4/BLE_bms.c ****         
 476:Generated_Source\PSoC4/BLE_bms.c ****         /* Indicate that request was handled */
 477:Generated_Source\PSoC4/BLE_bms.c ****         cyBle_eventHandlerFlag &= (uint8)~CYBLE_CALLBACK;
 715              		.loc 1 477 0
 716 00aa 0121     		movs	r1, #1
 717 00ac 074A     		ldr	r2, .L69+12
 718 00ae 1378     		ldrb	r3, [r2]
 719 00b0 8B43     		bics	r3, r1
 720 00b2 1370     		strb	r3, [r2]
 478:Generated_Source\PSoC4/BLE_bms.c ****     }
 479:Generated_Source\PSoC4/BLE_bms.c **** }
 721              		.loc 1 479 0
 722 00b4 01E0     		b	.L48
 723              	.LVL46:
 724              	.L55:
 725 00b6 0028     		cmp	r0, #0
 726 00b8 D4D1     		bne	.L60
 727              	.LVL47:
 728              	.L48:
 729 00ba 09B0     		add	sp, sp, #36
 730              		@ sp needed
 731              	.LVL48:
 732 00bc F0BD     		pop	{r4, r5, r6, r7, pc}
 733              	.L70:
 734 00be C046     		.align	2
 735              	.L69:
 736 00c0 00000000 		.word	cyBle_gattDB
 737 00c4 00000000 		.word	.LANCHOR0
ARM GAS  C:\Users\user\AppData\Local\Temp\cchzEqxM.s 			page 23


 738 00c8 14060000 		.word	1556
 739 00cc 00000000 		.word	cyBle_eventHandlerFlag
 740              		.cfi_endproc
 741              	.LFE10:
 742              		.size	CyBle_BmssExecuteWriteRequestEventHandler, .-CyBle_BmssExecuteWriteRequestEventHandler
 743              		.global	cyBle_bmss
 744              		.section	.rodata
 745              		.align	1
 746              		.set	.LANCHOR1,. + 0
 747              		.type	cyBle_bmss, %object
 748              		.size	cyBle_bmss, 10
 749              	cyBle_bmss:
 750 0000 4C00     		.short	76
 751 0002 4E00     		.short	78
 752 0004 0000     		.short	0
 753 0006 5000     		.short	80
 754 0008 0000     		.short	0
 755              		.bss
 756              		.align	2
 757              		.set	.LANCHOR0,. + 0
 758              		.type	CyBle_BmsApplCallback, %object
 759              		.size	CyBle_BmsApplCallback, 4
 760              	CyBle_BmsApplCallback:
 761 0000 00000000 		.space	4
 762              		.text
 763              	.Letext0:
 764              		.file 2 "Generated_Source\\PSoC4\\cytypes.h"
 765              		.file 3 "Generated_Source\\PSoC4\\BLE_Stack.h"
 766              		.file 4 "Generated_Source\\PSoC4\\BLE_StackGatt.h"
 767              		.file 5 "Generated_Source\\PSoC4\\BLE_StackGattServer.h"
 768              		.file 6 "Generated_Source\\PSoC4\\BLE_StackGattDb.h"
 769              		.file 7 "Generated_Source\\PSoC4\\BLE.h"
 770              		.file 8 "Generated_Source\\PSoC4\\BLE_bms.h"
 771              		.file 9 "Generated_Source\\PSoC4\\BLE_cgms.h"
 772              		.file 10 "Generated_Source\\PSoC4\\BLE_dis.h"
 773              		.file 11 "Generated_Source\\PSoC4\\BLE_eventHandler.h"
 774              		.file 12 "Generated_Source\\PSoC4\\BLE_gatt.h"