ARM GAS  C:\Users\user\AppData\Local\Temp\ccaQ91yN.s 			page 1


   1              		.syntax unified
   2              		.cpu cortex-m0
   3              		.fpu softvfp
   4              		.eabi_attribute 20, 1
   5              		.eabi_attribute 21, 1
   6              		.eabi_attribute 23, 3
   7              		.eabi_attribute 24, 1
   8              		.eabi_attribute 25, 1
   9              		.eabi_attribute 26, 1
  10              		.eabi_attribute 30, 4
  11              		.eabi_attribute 34, 0
  12              		.eabi_attribute 18, 4
  13              		.thumb
  14              		.syntax unified
  15              		.file	"BLE_bas.c"
  16              		.text
  17              	.Ltext0:
  18              		.cfi_sections	.debug_frame
  19              		.section	.text.CyBle_BasInit,"ax",%progbits
  20              		.align	1
  21              		.global	CyBle_BasInit
  22              		.code	16
  23              		.thumb_func
  24              		.type	CyBle_BasInit, %function
  25              	CyBle_BasInit:
  26              	.LFB2:
  27              		.file 1 "Generated_Source\\PSoC4\\BLE_bas.c"
   1:Generated_Source\PSoC4/BLE_bas.c **** /***************************************************************************//**
   2:Generated_Source\PSoC4/BLE_bas.c **** * \file CYBLE_bas.c
   3:Generated_Source\PSoC4/BLE_bas.c **** * \version 3.66
   4:Generated_Source\PSoC4/BLE_bas.c **** * 
   5:Generated_Source\PSoC4/BLE_bas.c **** * \brief
   6:Generated_Source\PSoC4/BLE_bas.c **** *  Contains the source code for BLE Battery Service.
   7:Generated_Source\PSoC4/BLE_bas.c **** * 
   8:Generated_Source\PSoC4/BLE_bas.c **** ********************************************************************************
   9:Generated_Source\PSoC4/BLE_bas.c **** * \copyright
  10:Generated_Source\PSoC4/BLE_bas.c **** * Copyright 2014-2020, Cypress Semiconductor Corporation.  All rights reserved.
  11:Generated_Source\PSoC4/BLE_bas.c **** * You may use this file only in accordance with the license, terms, conditions,
  12:Generated_Source\PSoC4/BLE_bas.c **** * disclaimers, and limitations in the end user license agreement accompanying
  13:Generated_Source\PSoC4/BLE_bas.c **** * the software package with which this file was provided.
  14:Generated_Source\PSoC4/BLE_bas.c **** *******************************************************************************/
  15:Generated_Source\PSoC4/BLE_bas.c **** 
  16:Generated_Source\PSoC4/BLE_bas.c **** 
  17:Generated_Source\PSoC4/BLE_bas.c **** #include "BLE_eventHandler.h"
  18:Generated_Source\PSoC4/BLE_bas.c **** 
  19:Generated_Source\PSoC4/BLE_bas.c **** static CYBLE_CALLBACK_T CyBle_BasApplCallback = NULL;
  20:Generated_Source\PSoC4/BLE_bas.c **** 
  21:Generated_Source\PSoC4/BLE_bas.c **** #ifdef CYBLE_BAS_SERVER
  22:Generated_Source\PSoC4/BLE_bas.c **** 
  23:Generated_Source\PSoC4/BLE_bas.c **** const CYBLE_BASS_T cyBle_bass[0x01u] = {
  24:Generated_Source\PSoC4/BLE_bas.c ****     {
  25:Generated_Source\PSoC4/BLE_bas.c ****         0x002Fu, /* Handle of the BAS service */ 
  26:Generated_Source\PSoC4/BLE_bas.c ****         0x0031u, /* Handle of the Battery Level characteristic */ 
  27:Generated_Source\PSoC4/BLE_bas.c ****         0x0032u, /* Handle of the Characteristic Presentation Format descriptor */ 
  28:Generated_Source\PSoC4/BLE_bas.c ****         0x0033u, /* Handle of the Client Characteristic Configuration descriptor */ 
  29:Generated_Source\PSoC4/BLE_bas.c ****     },
  30:Generated_Source\PSoC4/BLE_bas.c **** };
ARM GAS  C:\Users\user\AppData\Local\Temp\ccaQ91yN.s 			page 2


  31:Generated_Source\PSoC4/BLE_bas.c **** 
  32:Generated_Source\PSoC4/BLE_bas.c **** 
  33:Generated_Source\PSoC4/BLE_bas.c **** #endif /* CYBLE_BAS_SERVER */
  34:Generated_Source\PSoC4/BLE_bas.c **** 
  35:Generated_Source\PSoC4/BLE_bas.c **** #ifdef CYBLE_BAS_CLIENT
  36:Generated_Source\PSoC4/BLE_bas.c **** 
  37:Generated_Source\PSoC4/BLE_bas.c **** CYBLE_BASC_T cyBle_basc[CYBLE_BASC_SERVICE_COUNT];
  38:Generated_Source\PSoC4/BLE_bas.c **** static CYBLE_GATT_DB_ATTR_HANDLE_T cyBle_bascReqHandle;
  39:Generated_Source\PSoC4/BLE_bas.c **** 
  40:Generated_Source\PSoC4/BLE_bas.c **** #endif /* (CYBLE_BAS_CLIENT) */
  41:Generated_Source\PSoC4/BLE_bas.c **** 
  42:Generated_Source\PSoC4/BLE_bas.c **** 
  43:Generated_Source\PSoC4/BLE_bas.c **** /******************************************************************************
  44:Generated_Source\PSoC4/BLE_bas.c **** * Function Name: CyBle_BasInit
  45:Generated_Source\PSoC4/BLE_bas.c **** ***************************************************************************//**
  46:Generated_Source\PSoC4/BLE_bas.c **** * 
  47:Generated_Source\PSoC4/BLE_bas.c **** *  This function initializes the BAS Service.
  48:Generated_Source\PSoC4/BLE_bas.c **** *
  49:Generated_Source\PSoC4/BLE_bas.c **** ******************************************************************************/
  50:Generated_Source\PSoC4/BLE_bas.c **** void CyBle_BasInit(void)
  51:Generated_Source\PSoC4/BLE_bas.c **** {
  28              		.loc 1 51 0
  29              		.cfi_startproc
  30              		@ args = 0, pretend = 0, frame = 0
  31              		@ frame_needed = 0, uses_anonymous_args = 0
  32              		@ link register save eliminated.
  52:Generated_Source\PSoC4/BLE_bas.c **** 
  53:Generated_Source\PSoC4/BLE_bas.c **** #ifdef CYBLE_BAS_CLIENT
  54:Generated_Source\PSoC4/BLE_bas.c **** 
  55:Generated_Source\PSoC4/BLE_bas.c ****     uint8 locServIndex;
  56:Generated_Source\PSoC4/BLE_bas.c ****     for(locServIndex = 0u; locServIndex < CYBLE_BASC_SERVICE_COUNT; locServIndex++)
  57:Generated_Source\PSoC4/BLE_bas.c ****     {
  58:Generated_Source\PSoC4/BLE_bas.c ****         if(cyBle_serverInfo[CYBLE_SRVI_BAS + locServIndex].range.startHandle == CYBLE_GATT_INVALID_
  59:Generated_Source\PSoC4/BLE_bas.c ****         {
  60:Generated_Source\PSoC4/BLE_bas.c ****             (void)memset(&cyBle_basc[locServIndex], 0, sizeof(cyBle_basc[locServIndex]));
  61:Generated_Source\PSoC4/BLE_bas.c ****         }
  62:Generated_Source\PSoC4/BLE_bas.c ****     }
  63:Generated_Source\PSoC4/BLE_bas.c ****     cyBle_bascReqHandle = CYBLE_GATT_INVALID_ATTR_HANDLE_VALUE;
  64:Generated_Source\PSoC4/BLE_bas.c **** 
  65:Generated_Source\PSoC4/BLE_bas.c **** #endif /* CYBLE_BAS_CLIENT */
  66:Generated_Source\PSoC4/BLE_bas.c **** }
  33              		.loc 1 66 0
  34              		@ sp needed
  35 0000 7047     		bx	lr
  36              		.cfi_endproc
  37              	.LFE2:
  38              		.size	CyBle_BasInit, .-CyBle_BasInit
  39              		.section	.text.CyBle_BasRegisterAttrCallback,"ax",%progbits
  40              		.align	1
  41              		.global	CyBle_BasRegisterAttrCallback
  42              		.code	16
  43              		.thumb_func
  44              		.type	CyBle_BasRegisterAttrCallback, %function
  45              	CyBle_BasRegisterAttrCallback:
  46              	.LFB3:
  67:Generated_Source\PSoC4/BLE_bas.c **** 
  68:Generated_Source\PSoC4/BLE_bas.c **** 
ARM GAS  C:\Users\user\AppData\Local\Temp\ccaQ91yN.s 			page 3


  69:Generated_Source\PSoC4/BLE_bas.c **** /******************************************************************************
  70:Generated_Source\PSoC4/BLE_bas.c **** * Function Name: CyBle_BasRegisterAttrCallback
  71:Generated_Source\PSoC4/BLE_bas.c **** ***************************************************************************//**
  72:Generated_Source\PSoC4/BLE_bas.c **** * 
  73:Generated_Source\PSoC4/BLE_bas.c **** *  Registers a callback function for service specific attribute operations.
  74:Generated_Source\PSoC4/BLE_bas.c **** *  Service specific write requests from peer device will not be handled with
  75:Generated_Source\PSoC4/BLE_bas.c **** *  unregistered callback function.
  76:Generated_Source\PSoC4/BLE_bas.c **** * 
  77:Generated_Source\PSoC4/BLE_bas.c **** *  \param callbackFunc: An application layer event callback function to receive 
  78:Generated_Source\PSoC4/BLE_bas.c **** *                    battery service events from the BLE Component. The
  79:Generated_Source\PSoC4/BLE_bas.c **** *                    definition of CYBLE_CALLBACK_T for Battery Service is,\n                 
  80:Generated_Source\PSoC4/BLE_bas.c **** *                    typedef void (* CYBLE_CALLBACK_T) (uint32 eventCode, 
  81:Generated_Source\PSoC4/BLE_bas.c **** *                                                         void *eventParam)                        
  82:Generated_Source\PSoC4/BLE_bas.c **** *                    * eventCode indicates the event that triggered this 
  83:Generated_Source\PSoC4/BLE_bas.c **** *                       callback (e.g. CYBLE_EVT_BASS_NOTIFICATION_ENABLED)
  84:Generated_Source\PSoC4/BLE_bas.c **** *                    * eventParam contains the parameters corresponding to the
  85:Generated_Source\PSoC4/BLE_bas.c **** *                       current event (e.g., pointer to CYBLE_BAS_CHAR_VALUE_T
  86:Generated_Source\PSoC4/BLE_bas.c **** *                       structure that contains details of the characteristic 
  87:Generated_Source\PSoC4/BLE_bas.c **** *                       for which notification enabled event was triggered)
  88:Generated_Source\PSoC4/BLE_bas.c **** * 
  89:Generated_Source\PSoC4/BLE_bas.c **** * \sideeffect The *eventParams in the callback function should not be used 
  90:Generated_Source\PSoC4/BLE_bas.c **** *                by the application once the callback function execution is 
  91:Generated_Source\PSoC4/BLE_bas.c **** *                finished. Otherwise this data may become corrupted.
  92:Generated_Source\PSoC4/BLE_bas.c **** * 
  93:Generated_Source\PSoC4/BLE_bas.c **** ******************************************************************************/
  94:Generated_Source\PSoC4/BLE_bas.c **** void CyBle_BasRegisterAttrCallback(CYBLE_CALLBACK_T callbackFunc)
  95:Generated_Source\PSoC4/BLE_bas.c **** {
  47              		.loc 1 95 0
  48              		.cfi_startproc
  49              		@ args = 0, pretend = 0, frame = 0
  50              		@ frame_needed = 0, uses_anonymous_args = 0
  51              		@ link register save eliminated.
  52              	.LVL0:
  96:Generated_Source\PSoC4/BLE_bas.c ****     CyBle_BasApplCallback = callbackFunc;
  53              		.loc 1 96 0
  54 0000 014B     		ldr	r3, .L3
  97:Generated_Source\PSoC4/BLE_bas.c **** }
  55              		.loc 1 97 0
  56              		@ sp needed
  96:Generated_Source\PSoC4/BLE_bas.c ****     CyBle_BasApplCallback = callbackFunc;
  57              		.loc 1 96 0
  58 0002 1860     		str	r0, [r3]
  59              		.loc 1 97 0
  60 0004 7047     		bx	lr
  61              	.L4:
  62 0006 C046     		.align	2
  63              	.L3:
  64 0008 00000000 		.word	.LANCHOR0
  65              		.cfi_endproc
  66              	.LFE3:
  67              		.size	CyBle_BasRegisterAttrCallback, .-CyBle_BasRegisterAttrCallback
  68              		.section	.text.CyBle_BassSetCharacteristicValue,"ax",%progbits
  69              		.align	1
  70              		.global	CyBle_BassSetCharacteristicValue
  71              		.code	16
  72              		.thumb_func
  73              		.type	CyBle_BassSetCharacteristicValue, %function
ARM GAS  C:\Users\user\AppData\Local\Temp\ccaQ91yN.s 			page 4


  74              	CyBle_BassSetCharacteristicValue:
  75              	.LFB4:
  98:Generated_Source\PSoC4/BLE_bas.c **** 
  99:Generated_Source\PSoC4/BLE_bas.c **** #ifdef CYBLE_BAS_SERVER
 100:Generated_Source\PSoC4/BLE_bas.c **** 
 101:Generated_Source\PSoC4/BLE_bas.c **** 
 102:Generated_Source\PSoC4/BLE_bas.c **** /******************************************************************************
 103:Generated_Source\PSoC4/BLE_bas.c **** * Function Name: CyBle_BassSetCharacteristicValue
 104:Generated_Source\PSoC4/BLE_bas.c **** ***************************************************************************//**
 105:Generated_Source\PSoC4/BLE_bas.c **** * 
 106:Generated_Source\PSoC4/BLE_bas.c **** *  Sets a characteristic value of the service in the local database.
 107:Generated_Source\PSoC4/BLE_bas.c **** * 
 108:Generated_Source\PSoC4/BLE_bas.c **** *  \param serviceIndex: The index of the service instance.
 109:Generated_Source\PSoC4/BLE_bas.c **** *  \param charIndex:    The index of the service characteristic of type 
 110:Generated_Source\PSoC4/BLE_bas.c **** *                       CYBLE_BAS_CHAR_INDEX_T.
 111:Generated_Source\PSoC4/BLE_bas.c **** *  \param attrSize:     The size of the characteristic value attribute. A 
 112:Generated_Source\PSoC4/BLE_bas.c **** *                       battery level characteristic has 1 byte length.
 113:Generated_Source\PSoC4/BLE_bas.c **** *  \param attrValue:    The pointer to the characteristic value data that 
 114:Generated_Source\PSoC4/BLE_bas.c **** *                       should be stored to the GATT database.
 115:Generated_Source\PSoC4/BLE_bas.c **** * 
 116:Generated_Source\PSoC4/BLE_bas.c **** * \return
 117:Generated_Source\PSoC4/BLE_bas.c **** *  Return value is of type CYBLE_API_RESULT_T.
 118:Generated_Source\PSoC4/BLE_bas.c **** *  * CYBLE_ERROR_OK - The request handled successfully.
 119:Generated_Source\PSoC4/BLE_bas.c **** *  * CYBLE_ERROR_INVALID_PARAMETER - Validation of the input parameter failed.
 120:Generated_Source\PSoC4/BLE_bas.c **** *
 121:Generated_Source\PSoC4/BLE_bas.c **** ******************************************************************************/
 122:Generated_Source\PSoC4/BLE_bas.c **** CYBLE_API_RESULT_T CyBle_BassSetCharacteristicValue(uint8 serviceIndex, CYBLE_BAS_CHAR_INDEX_T char
 123:Generated_Source\PSoC4/BLE_bas.c ****     uint8 attrSize, uint8 *attrValue)
 124:Generated_Source\PSoC4/BLE_bas.c **** {
  76              		.loc 1 124 0
  77              		.cfi_startproc
  78              		@ args = 0, pretend = 0, frame = 16
  79              		@ frame_needed = 0, uses_anonymous_args = 0
  80              	.LVL1:
  81 0000 1FB5     		push	{r0, r1, r2, r3, r4, lr}
  82              		.cfi_def_cfa_offset 24
  83              		.cfi_offset 0, -24
  84              		.cfi_offset 1, -20
  85              		.cfi_offset 2, -16
  86              		.cfi_offset 3, -12
  87              		.cfi_offset 4, -8
  88              		.cfi_offset 14, -4
 125:Generated_Source\PSoC4/BLE_bas.c ****     CYBLE_API_RESULT_T apiResult = CYBLE_ERROR_OK;
 126:Generated_Source\PSoC4/BLE_bas.c ****     CYBLE_GATT_HANDLE_VALUE_PAIR_T locHandleValuePair;
 127:Generated_Source\PSoC4/BLE_bas.c **** 
 128:Generated_Source\PSoC4/BLE_bas.c ****     if((serviceIndex >= CYBLE_BASS_SERVICE_COUNT) || (charIndex >= CYBLE_BAS_CHAR_COUNT) ||
 129:Generated_Source\PSoC4/BLE_bas.c ****        (attrSize != CYBLE_BAS_BATTERY_LEVEL_LEN) || (*attrValue > CYBLE_BAS_MAX_BATTERY_LEVEL_VALUE
 130:Generated_Source\PSoC4/BLE_bas.c ****     {
 131:Generated_Source\PSoC4/BLE_bas.c ****         apiResult = CYBLE_ERROR_INVALID_PARAMETER;
  89              		.loc 1 131 0
  90 0002 0124     		movs	r4, #1
 128:Generated_Source\PSoC4/BLE_bas.c ****        (attrSize != CYBLE_BAS_BATTERY_LEVEL_LEN) || (*attrValue > CYBLE_BAS_MAX_BATTERY_LEVEL_VALUE
  91              		.loc 1 128 0
  92 0004 0028     		cmp	r0, #0
  93 0006 12D1     		bne	.L6
 128:Generated_Source\PSoC4/BLE_bas.c ****        (attrSize != CYBLE_BAS_BATTERY_LEVEL_LEN) || (*attrValue > CYBLE_BAS_MAX_BATTERY_LEVEL_VALUE
  94              		.loc 1 128 0 is_stmt 0 discriminator 1
ARM GAS  C:\Users\user\AppData\Local\Temp\ccaQ91yN.s 			page 5


  95 0008 0029     		cmp	r1, #0
  96 000a 10D1     		bne	.L6
 128:Generated_Source\PSoC4/BLE_bas.c ****        (attrSize != CYBLE_BAS_BATTERY_LEVEL_LEN) || (*attrValue > CYBLE_BAS_MAX_BATTERY_LEVEL_VALUE
  97              		.loc 1 128 0 discriminator 2
  98 000c A242     		cmp	r2, r4
  99 000e 0ED1     		bne	.L6
 129:Generated_Source\PSoC4/BLE_bas.c ****     {
 100              		.loc 1 129 0 is_stmt 1
 101 0010 1A78     		ldrb	r2, [r3]
 102              	.LVL2:
 103 0012 642A     		cmp	r2, #100
 104 0014 0BD8     		bhi	.L6
 105              	.LVL3:
 106              	.LBB4:
 107              	.LBB5:
 132:Generated_Source\PSoC4/BLE_bas.c ****     }
 133:Generated_Source\PSoC4/BLE_bas.c ****     else
 134:Generated_Source\PSoC4/BLE_bas.c ****     {
 135:Generated_Source\PSoC4/BLE_bas.c ****         /* Store data in database */
 136:Generated_Source\PSoC4/BLE_bas.c ****         locHandleValuePair.attrHandle = cyBle_bass[serviceIndex].batteryLevelHandle;
 108              		.loc 1 136 0
 109 0016 3122     		movs	r2, #49
 110 0018 01A8     		add	r0, sp, #4
 111              	.LVL4:
 112 001a 0281     		strh	r2, [r0, #8]
 137:Generated_Source\PSoC4/BLE_bas.c ****         locHandleValuePair.value.len = attrSize;
 138:Generated_Source\PSoC4/BLE_bas.c ****         locHandleValuePair.value.val = attrValue;
 113              		.loc 1 138 0
 114 001c 0193     		str	r3, [sp, #4]
 139:Generated_Source\PSoC4/BLE_bas.c ****         if(CYBLE_GATT_ERR_NONE !=
 140:Generated_Source\PSoC4/BLE_bas.c ****             CyBle_GattsWriteAttributeValue(&locHandleValuePair, 0u, NULL, CYBLE_GATT_DB_LOCALLY_INI
 115              		.loc 1 140 0
 116 001e 0A00     		movs	r2, r1
 117 0020 0B00     		movs	r3, r1
 118              	.LVL5:
 137:Generated_Source\PSoC4/BLE_bas.c ****         locHandleValuePair.value.len = attrSize;
 119              		.loc 1 137 0
 120 0022 8480     		strh	r4, [r0, #4]
 121              		.loc 1 140 0
 122 0024 FFF7FEFF 		bl	CyBle_GattsWriteAttributeValue
 123              	.LVL6:
 125:Generated_Source\PSoC4/BLE_bas.c ****     CYBLE_GATT_HANDLE_VALUE_PAIR_T locHandleValuePair;
 124              		.loc 1 125 0
 125 0028 441E     		subs	r4, r0, #1
 126 002a A041     		sbcs	r0, r0, r4
 127 002c 84B2     		uxth	r4, r0
 128              	.LVL7:
 129              	.L6:
 130              	.LBE5:
 131              	.LBE4:
 141:Generated_Source\PSoC4/BLE_bas.c ****         {
 142:Generated_Source\PSoC4/BLE_bas.c ****             apiResult = CYBLE_ERROR_INVALID_PARAMETER;
 143:Generated_Source\PSoC4/BLE_bas.c ****         }
 144:Generated_Source\PSoC4/BLE_bas.c ****     }
 145:Generated_Source\PSoC4/BLE_bas.c ****     return (apiResult);
 146:Generated_Source\PSoC4/BLE_bas.c **** }
 132              		.loc 1 146 0
ARM GAS  C:\Users\user\AppData\Local\Temp\ccaQ91yN.s 			page 6


 133 002e 2000     		movs	r0, r4
 134 0030 04B0     		add	sp, sp, #16
 135              		@ sp needed
 136              	.LVL8:
 137 0032 10BD     		pop	{r4, pc}
 138              		.cfi_endproc
 139              	.LFE4:
 140              		.size	CyBle_BassSetCharacteristicValue, .-CyBle_BassSetCharacteristicValue
 141              		.section	.text.CyBle_BassGetCharacteristicValue,"ax",%progbits
 142              		.align	1
 143              		.global	CyBle_BassGetCharacteristicValue
 144              		.code	16
 145              		.thumb_func
 146              		.type	CyBle_BassGetCharacteristicValue, %function
 147              	CyBle_BassGetCharacteristicValue:
 148              	.LFB5:
 147:Generated_Source\PSoC4/BLE_bas.c **** 
 148:Generated_Source\PSoC4/BLE_bas.c **** 
 149:Generated_Source\PSoC4/BLE_bas.c **** /******************************************************************************
 150:Generated_Source\PSoC4/BLE_bas.c **** * Function Name: CyBle_BassGetCharacteristicValue
 151:Generated_Source\PSoC4/BLE_bas.c **** ***************************************************************************//**
 152:Generated_Source\PSoC4/BLE_bas.c **** * 
 153:Generated_Source\PSoC4/BLE_bas.c **** *  Gets a characteristic value of the Battery service, which is identified by 
 154:Generated_Source\PSoC4/BLE_bas.c **** *  charIndex.
 155:Generated_Source\PSoC4/BLE_bas.c **** * 
 156:Generated_Source\PSoC4/BLE_bas.c **** *  \param serviceIndex: The index of the service instance. e.g. If two Battery 
 157:Generated_Source\PSoC4/BLE_bas.c **** *                       Services are supported in your design, then first 
 158:Generated_Source\PSoC4/BLE_bas.c **** *                       service will be identified by serviceIndex of 0 and the
 159:Generated_Source\PSoC4/BLE_bas.c **** *                       second by serviceIndex of 1.
 160:Generated_Source\PSoC4/BLE_bas.c **** *  \param charIndex:    The index of a service characteristic of type 
 161:Generated_Source\PSoC4/BLE_bas.c **** *                       CYBLE_BAS_CHAR_INDEX_T.
 162:Generated_Source\PSoC4/BLE_bas.c **** *  \param attrSize:     The size of the characteristic value attribute. A 
 163:Generated_Source\PSoC4/BLE_bas.c **** *                       battery level characteristic has a 1 byte length.
 164:Generated_Source\PSoC4/BLE_bas.c **** *  \param attrValue:    The pointer to the location where characteristic value 
 165:Generated_Source\PSoC4/BLE_bas.c **** *                       data should be stored.
 166:Generated_Source\PSoC4/BLE_bas.c **** * 
 167:Generated_Source\PSoC4/BLE_bas.c **** * \return
 168:Generated_Source\PSoC4/BLE_bas.c **** *  Return value is of type CYBLE_API_RESULT_T.
 169:Generated_Source\PSoC4/BLE_bas.c **** *  * CYBLE_ERROR_OK - The request handled successfully.
 170:Generated_Source\PSoC4/BLE_bas.c **** *  * CYBLE_ERROR_INVALID_PARAMETER - Validation of the input parameter failed.
 171:Generated_Source\PSoC4/BLE_bas.c **** *
 172:Generated_Source\PSoC4/BLE_bas.c **** ******************************************************************************/
 173:Generated_Source\PSoC4/BLE_bas.c **** CYBLE_API_RESULT_T CyBle_BassGetCharacteristicValue(uint8 serviceIndex, CYBLE_BAS_CHAR_INDEX_T char
 174:Generated_Source\PSoC4/BLE_bas.c ****     uint8 attrSize, uint8 *attrValue)
 175:Generated_Source\PSoC4/BLE_bas.c **** {
 149              		.loc 1 175 0
 150              		.cfi_startproc
 151              		@ args = 0, pretend = 0, frame = 16
 152              		@ frame_needed = 0, uses_anonymous_args = 0
 153              	.LVL9:
 154 0000 1FB5     		push	{r0, r1, r2, r3, r4, lr}
 155              		.cfi_def_cfa_offset 24
 156              		.cfi_offset 0, -24
 157              		.cfi_offset 1, -20
 158              		.cfi_offset 2, -16
 159              		.cfi_offset 3, -12
 160              		.cfi_offset 4, -8
ARM GAS  C:\Users\user\AppData\Local\Temp\ccaQ91yN.s 			page 7


 161              		.cfi_offset 14, -4
 176:Generated_Source\PSoC4/BLE_bas.c ****     CYBLE_API_RESULT_T apiResult = CYBLE_ERROR_OK;
 177:Generated_Source\PSoC4/BLE_bas.c ****     CYBLE_GATT_HANDLE_VALUE_PAIR_T locHandleValuePair;
 178:Generated_Source\PSoC4/BLE_bas.c **** 
 179:Generated_Source\PSoC4/BLE_bas.c ****     if((serviceIndex >= CYBLE_BASS_SERVICE_COUNT) || (charIndex >= CYBLE_BAS_CHAR_COUNT) ||
 180:Generated_Source\PSoC4/BLE_bas.c ****        (attrSize != CYBLE_BAS_BATTERY_LEVEL_LEN) )
 181:Generated_Source\PSoC4/BLE_bas.c ****     {
 182:Generated_Source\PSoC4/BLE_bas.c ****         apiResult = CYBLE_ERROR_INVALID_PARAMETER;
 162              		.loc 1 182 0
 163 0002 0124     		movs	r4, #1
 179:Generated_Source\PSoC4/BLE_bas.c ****        (attrSize != CYBLE_BAS_BATTERY_LEVEL_LEN) )
 164              		.loc 1 179 0
 165 0004 0028     		cmp	r0, #0
 166 0006 0ED1     		bne	.L13
 179:Generated_Source\PSoC4/BLE_bas.c ****        (attrSize != CYBLE_BAS_BATTERY_LEVEL_LEN) )
 167              		.loc 1 179 0 is_stmt 0 discriminator 1
 168 0008 0029     		cmp	r1, #0
 169 000a 0CD1     		bne	.L13
 179:Generated_Source\PSoC4/BLE_bas.c ****        (attrSize != CYBLE_BAS_BATTERY_LEVEL_LEN) )
 170              		.loc 1 179 0 discriminator 2
 171 000c A242     		cmp	r2, r4
 172 000e 0AD1     		bne	.L13
 183:Generated_Source\PSoC4/BLE_bas.c ****     }
 184:Generated_Source\PSoC4/BLE_bas.c ****     else
 185:Generated_Source\PSoC4/BLE_bas.c ****     {
 186:Generated_Source\PSoC4/BLE_bas.c ****         /* Read characteristic value from database */
 187:Generated_Source\PSoC4/BLE_bas.c ****         locHandleValuePair.attrHandle = cyBle_bass[serviceIndex].batteryLevelHandle;
 173              		.loc 1 187 0 is_stmt 1
 174 0010 3122     		movs	r2, #49
 175              	.LVL10:
 176 0012 01A8     		add	r0, sp, #4
 177              	.LVL11:
 178 0014 0281     		strh	r2, [r0, #8]
 188:Generated_Source\PSoC4/BLE_bas.c ****         locHandleValuePair.value.len = attrSize;
 189:Generated_Source\PSoC4/BLE_bas.c ****         locHandleValuePair.value.val = attrValue;
 190:Generated_Source\PSoC4/BLE_bas.c ****         if(CYBLE_GATT_ERR_NONE !=
 191:Generated_Source\PSoC4/BLE_bas.c ****             CyBle_GattsReadAttributeValue(&locHandleValuePair, NULL, CYBLE_GATT_DB_LOCALLY_INITIATE
 179              		.loc 1 191 0
 180 0016 0A00     		movs	r2, r1
 188:Generated_Source\PSoC4/BLE_bas.c ****         locHandleValuePair.value.len = attrSize;
 181              		.loc 1 188 0
 182 0018 8480     		strh	r4, [r0, #4]
 189:Generated_Source\PSoC4/BLE_bas.c ****         if(CYBLE_GATT_ERR_NONE !=
 183              		.loc 1 189 0
 184 001a 0193     		str	r3, [sp, #4]
 185              		.loc 1 191 0
 186 001c FFF7FEFF 		bl	CyBle_GattsReadAttributeValue
 187              	.LVL12:
 182:Generated_Source\PSoC4/BLE_bas.c ****     }
 188              		.loc 1 182 0
 189 0020 441E     		subs	r4, r0, #1
 190 0022 A041     		sbcs	r0, r0, r4
 191 0024 84B2     		uxth	r4, r0
 192              	.L13:
 193              	.LVL13:
 192:Generated_Source\PSoC4/BLE_bas.c ****         {
 193:Generated_Source\PSoC4/BLE_bas.c ****             apiResult = CYBLE_ERROR_INVALID_PARAMETER;
ARM GAS  C:\Users\user\AppData\Local\Temp\ccaQ91yN.s 			page 8


 194:Generated_Source\PSoC4/BLE_bas.c ****         }
 195:Generated_Source\PSoC4/BLE_bas.c ****     }
 196:Generated_Source\PSoC4/BLE_bas.c ****     return (apiResult);
 197:Generated_Source\PSoC4/BLE_bas.c **** }
 194              		.loc 1 197 0
 195 0026 2000     		movs	r0, r4
 196 0028 04B0     		add	sp, sp, #16
 197              		@ sp needed
 198              	.LVL14:
 199 002a 10BD     		pop	{r4, pc}
 200              		.cfi_endproc
 201              	.LFE5:
 202              		.size	CyBle_BassGetCharacteristicValue, .-CyBle_BassGetCharacteristicValue
 203              		.section	.text.CyBle_BassGetCharacteristicDescriptor,"ax",%progbits
 204              		.align	1
 205              		.global	CyBle_BassGetCharacteristicDescriptor
 206              		.code	16
 207              		.thumb_func
 208              		.type	CyBle_BassGetCharacteristicDescriptor, %function
 209              	CyBle_BassGetCharacteristicDescriptor:
 210              	.LFB6:
 198:Generated_Source\PSoC4/BLE_bas.c **** 
 199:Generated_Source\PSoC4/BLE_bas.c **** 
 200:Generated_Source\PSoC4/BLE_bas.c **** /******************************************************************************
 201:Generated_Source\PSoC4/BLE_bas.c **** * Function Name: CyBle_BassGetCharacteristicDescriptor
 202:Generated_Source\PSoC4/BLE_bas.c **** ***************************************************************************//**
 203:Generated_Source\PSoC4/BLE_bas.c **** * 
 204:Generated_Source\PSoC4/BLE_bas.c **** *  Gets a characteristic descriptor of a specified characteristic of the 
 205:Generated_Source\PSoC4/BLE_bas.c **** *   Battery service from the local GATT database.
 206:Generated_Source\PSoC4/BLE_bas.c **** * 
 207:Generated_Source\PSoC4/BLE_bas.c **** *  \param serviceIndex: The index of the service instance. e.g. If two Battery 
 208:Generated_Source\PSoC4/BLE_bas.c **** *                       Services are supported in your design, then first 
 209:Generated_Source\PSoC4/BLE_bas.c **** *                       service will be identified by serviceIndex of 0 and the
 210:Generated_Source\PSoC4/BLE_bas.c **** *                       second by serviceIndex of 1.
 211:Generated_Source\PSoC4/BLE_bas.c **** *  \param charIndex:    The index of a service characteristic of type 
 212:Generated_Source\PSoC4/BLE_bas.c **** *                       CYBLE_BAS_CHAR_INDEX_T.
 213:Generated_Source\PSoC4/BLE_bas.c **** *  \param descrIndex:   The index of a service characteristic descriptor of
 214:Generated_Source\PSoC4/BLE_bas.c **** *                       type CYBLE_BAS_DESCR_INDEX_T.
 215:Generated_Source\PSoC4/BLE_bas.c **** *  \param attrSize:     The size of the characteristic descriptor attribute.
 216:Generated_Source\PSoC4/BLE_bas.c **** *  \param attrValue:    The pointer to the location where characteristic  
 217:Generated_Source\PSoC4/BLE_bas.c **** *                       descriptor value data should be stored.
 218:Generated_Source\PSoC4/BLE_bas.c **** * 
 219:Generated_Source\PSoC4/BLE_bas.c **** * \return
 220:Generated_Source\PSoC4/BLE_bas.c **** *  Return value is of type CYBLE_API_RESULT_T.
 221:Generated_Source\PSoC4/BLE_bas.c **** *  * CYBLE_ERROR_OK - The request handled successfully.
 222:Generated_Source\PSoC4/BLE_bas.c **** *  * CYBLE_ERROR_INVALID_PARAMETER - Validation of the input parameter failed.
 223:Generated_Source\PSoC4/BLE_bas.c **** *
 224:Generated_Source\PSoC4/BLE_bas.c **** ******************************************************************************/
 225:Generated_Source\PSoC4/BLE_bas.c **** CYBLE_API_RESULT_T CyBle_BassGetCharacteristicDescriptor(uint8 serviceIndex, CYBLE_BAS_CHAR_INDEX_T
 226:Generated_Source\PSoC4/BLE_bas.c ****     CYBLE_BAS_DESCR_INDEX_T descrIndex, uint8 attrSize, uint8 *attrValue)
 227:Generated_Source\PSoC4/BLE_bas.c **** {
 211              		.loc 1 227 0
 212              		.cfi_startproc
 213              		@ args = 4, pretend = 0, frame = 16
 214              		@ frame_needed = 0, uses_anonymous_args = 0
 215              	.LVL15:
 216 0000 1FB5     		push	{r0, r1, r2, r3, r4, lr}
ARM GAS  C:\Users\user\AppData\Local\Temp\ccaQ91yN.s 			page 9


 217              		.cfi_def_cfa_offset 24
 218              		.cfi_offset 0, -24
 219              		.cfi_offset 1, -20
 220              		.cfi_offset 2, -16
 221              		.cfi_offset 3, -12
 222              		.cfi_offset 4, -8
 223              		.cfi_offset 14, -4
 224              		.loc 1 227 0
 225 0002 0400     		movs	r4, r0
 228:Generated_Source\PSoC4/BLE_bas.c ****     CYBLE_API_RESULT_T apiResult = CYBLE_ERROR_OK;
 229:Generated_Source\PSoC4/BLE_bas.c ****     CYBLE_GATT_HANDLE_VALUE_PAIR_T locHandleValuePair;
 230:Generated_Source\PSoC4/BLE_bas.c **** 
 231:Generated_Source\PSoC4/BLE_bas.c ****     if((serviceIndex >= CYBLE_BASS_SERVICE_COUNT) || (charIndex >= CYBLE_BAS_CHAR_COUNT) ||
 232:Generated_Source\PSoC4/BLE_bas.c ****        (descrIndex >= CYBLE_BAS_DESCR_COUNT))
 233:Generated_Source\PSoC4/BLE_bas.c ****     {
 234:Generated_Source\PSoC4/BLE_bas.c ****         apiResult = CYBLE_ERROR_INVALID_PARAMETER;
 226              		.loc 1 234 0
 227 0004 0120     		movs	r0, #1
 228              	.LVL16:
 231:Generated_Source\PSoC4/BLE_bas.c ****        (descrIndex >= CYBLE_BAS_DESCR_COUNT))
 229              		.loc 1 231 0
 230 0006 002C     		cmp	r4, #0
 231 0008 14D1     		bne	.L18
 231:Generated_Source\PSoC4/BLE_bas.c ****        (descrIndex >= CYBLE_BAS_DESCR_COUNT))
 232              		.loc 1 231 0 is_stmt 0 discriminator 1
 233 000a 0029     		cmp	r1, #0
 234 000c 12D1     		bne	.L18
 231:Generated_Source\PSoC4/BLE_bas.c ****        (descrIndex >= CYBLE_BAS_DESCR_COUNT))
 235              		.loc 1 231 0 discriminator 2
 236 000e 8242     		cmp	r2, r0
 237 0010 10D8     		bhi	.L18
 238 0012 01A8     		add	r0, sp, #4
 235:Generated_Source\PSoC4/BLE_bas.c ****     }
 236:Generated_Source\PSoC4/BLE_bas.c ****     else
 237:Generated_Source\PSoC4/BLE_bas.c ****     {
 238:Generated_Source\PSoC4/BLE_bas.c ****         /* Get data from database */
 239:Generated_Source\PSoC4/BLE_bas.c ****         if(descrIndex == CYBLE_BAS_BATTERY_LEVEL_CCCD)
 239              		.loc 1 239 0 is_stmt 1
 240 0014 002A     		cmp	r2, #0
 241 0016 01D1     		bne	.L19
 240:Generated_Source\PSoC4/BLE_bas.c ****         {
 241:Generated_Source\PSoC4/BLE_bas.c ****             locHandleValuePair.attrHandle = cyBle_bass[serviceIndex].cccdHandle;
 242              		.loc 1 241 0
 243 0018 3332     		adds	r2, r2, #51
 244              	.LVL17:
 245 001a 00E0     		b	.L24
 246              	.LVL18:
 247              	.L19:
 242:Generated_Source\PSoC4/BLE_bas.c ****         }
 243:Generated_Source\PSoC4/BLE_bas.c ****         else
 244:Generated_Source\PSoC4/BLE_bas.c ****         {
 245:Generated_Source\PSoC4/BLE_bas.c ****             locHandleValuePair.attrHandle = cyBle_bass[serviceIndex].cpfdHandle;
 248              		.loc 1 245 0
 249 001c 3222     		movs	r2, #50
 250              	.LVL19:
 251              	.L24:
 252 001e 0281     		strh	r2, [r0, #8]
ARM GAS  C:\Users\user\AppData\Local\Temp\ccaQ91yN.s 			page 10


 246:Generated_Source\PSoC4/BLE_bas.c ****         }
 247:Generated_Source\PSoC4/BLE_bas.c ****         locHandleValuePair.value.len = attrSize;
 248:Generated_Source\PSoC4/BLE_bas.c ****         locHandleValuePair.value.val = attrValue;
 249:Generated_Source\PSoC4/BLE_bas.c ****         if(CYBLE_GATT_ERR_NONE !=
 250:Generated_Source\PSoC4/BLE_bas.c ****             CyBle_GattsReadAttributeValue(&locHandleValuePair, NULL, CYBLE_GATT_DB_LOCALLY_INITIATE
 253              		.loc 1 250 0
 254 0020 0022     		movs	r2, #0
 247:Generated_Source\PSoC4/BLE_bas.c ****         locHandleValuePair.value.val = attrValue;
 255              		.loc 1 247 0
 256 0022 8380     		strh	r3, [r0, #4]
 248:Generated_Source\PSoC4/BLE_bas.c ****         if(CYBLE_GATT_ERR_NONE !=
 257              		.loc 1 248 0
 258 0024 069B     		ldr	r3, [sp, #24]
 259              	.LVL20:
 260              		.loc 1 250 0
 261 0026 1100     		movs	r1, r2
 262              	.LVL21:
 248:Generated_Source\PSoC4/BLE_bas.c ****         if(CYBLE_GATT_ERR_NONE !=
 263              		.loc 1 248 0
 264 0028 0193     		str	r3, [sp, #4]
 265              		.loc 1 250 0
 266 002a FFF7FEFF 		bl	CyBle_GattsReadAttributeValue
 267              	.LVL22:
 234:Generated_Source\PSoC4/BLE_bas.c ****     }
 268              		.loc 1 234 0
 269 002e 431E     		subs	r3, r0, #1
 270 0030 9841     		sbcs	r0, r0, r3
 271 0032 80B2     		uxth	r0, r0
 272              	.L18:
 273              	.LVL23:
 251:Generated_Source\PSoC4/BLE_bas.c ****         {
 252:Generated_Source\PSoC4/BLE_bas.c ****             apiResult = CYBLE_ERROR_INVALID_PARAMETER;
 253:Generated_Source\PSoC4/BLE_bas.c ****         }
 254:Generated_Source\PSoC4/BLE_bas.c ****     }
 255:Generated_Source\PSoC4/BLE_bas.c ****     return (apiResult);
 256:Generated_Source\PSoC4/BLE_bas.c **** }
 274              		.loc 1 256 0
 275 0034 04B0     		add	sp, sp, #16
 276              		@ sp needed
 277 0036 10BD     		pop	{r4, pc}
 278              		.cfi_endproc
 279              	.LFE6:
 280              		.size	CyBle_BassGetCharacteristicDescriptor, .-CyBle_BassGetCharacteristicDescriptor
 281              		.section	.text.CyBle_BassWriteEventHandler,"ax",%progbits
 282              		.align	1
 283              		.global	CyBle_BassWriteEventHandler
 284              		.code	16
 285              		.thumb_func
 286              		.type	CyBle_BassWriteEventHandler, %function
 287              	CyBle_BassWriteEventHandler:
 288              	.LFB7:
 257:Generated_Source\PSoC4/BLE_bas.c **** 
 258:Generated_Source\PSoC4/BLE_bas.c **** 
 259:Generated_Source\PSoC4/BLE_bas.c **** /******************************************************************************
 260:Generated_Source\PSoC4/BLE_bas.c **** * Function Name: CyBle_BassWriteEventHandler
 261:Generated_Source\PSoC4/BLE_bas.c **** ***************************************************************************//**
 262:Generated_Source\PSoC4/BLE_bas.c **** * 
ARM GAS  C:\Users\user\AppData\Local\Temp\ccaQ91yN.s 			page 11


 263:Generated_Source\PSoC4/BLE_bas.c **** *  Handles the Write Request Event for Battery service.
 264:Generated_Source\PSoC4/BLE_bas.c **** * 
 265:Generated_Source\PSoC4/BLE_bas.c **** *  \param void *eventParam: The pointer to the data structure specified by the
 266:Generated_Source\PSoC4/BLE_bas.c **** *                           event.
 267:Generated_Source\PSoC4/BLE_bas.c **** * 
 268:Generated_Source\PSoC4/BLE_bas.c **** * \return
 269:Generated_Source\PSoC4/BLE_bas.c **** *  Return value is of type CYBLE_GATT_ERR_CODE_T.
 270:Generated_Source\PSoC4/BLE_bas.c **** *   * CYBLE_GATT_ERR_NONE - Write request is handled successfully.
 271:Generated_Source\PSoC4/BLE_bas.c **** *   * CYBLE_GATT_ERR_REQUEST_NOT_SUPPORTED - Notification isn't supported.
 272:Generated_Source\PSoC4/BLE_bas.c **** *   * CYBLE_GATT_ERR_UNLIKELY_ERROR - Internal error while writing attribute
 273:Generated_Source\PSoC4/BLE_bas.c **** *                                     value.
 274:Generated_Source\PSoC4/BLE_bas.c **** * 
 275:Generated_Source\PSoC4/BLE_bas.c **** ******************************************************************************/
 276:Generated_Source\PSoC4/BLE_bas.c **** CYBLE_GATT_ERR_CODE_T CyBle_BassWriteEventHandler(CYBLE_GATTS_WRITE_REQ_PARAM_T *eventParam)
 277:Generated_Source\PSoC4/BLE_bas.c **** {
 289              		.loc 1 277 0
 290              		.cfi_startproc
 291              		@ args = 0, pretend = 0, frame = 16
 292              		@ frame_needed = 0, uses_anonymous_args = 0
 293              	.LVL24:
 294 0000 7FB5     		push	{r0, r1, r2, r3, r4, r5, r6, lr}
 295              		.cfi_def_cfa_offset 32
 296              		.cfi_offset 0, -32
 297              		.cfi_offset 1, -28
 298              		.cfi_offset 2, -24
 299              		.cfi_offset 3, -20
 300              		.cfi_offset 4, -16
 301              		.cfi_offset 5, -12
 302              		.cfi_offset 6, -8
 303              		.cfi_offset 14, -4
 278:Generated_Source\PSoC4/BLE_bas.c ****     uint8 locServIndex = 0u;
 279:Generated_Source\PSoC4/BLE_bas.c ****     CYBLE_BAS_CHAR_VALUE_T locCharIndex;
 280:Generated_Source\PSoC4/BLE_bas.c ****     CYBLE_GATT_ERR_CODE_T gattErr = CYBLE_GATT_ERR_NONE;
 281:Generated_Source\PSoC4/BLE_bas.c **** 
 282:Generated_Source\PSoC4/BLE_bas.c ****     if(NULL != CyBle_BasApplCallback)
 304              		.loc 1 282 0
 305 0002 204E     		ldr	r6, .L35
 277:Generated_Source\PSoC4/BLE_bas.c ****     uint8 locServIndex = 0u;
 306              		.loc 1 277 0
 307 0004 0500     		movs	r5, r0
 280:Generated_Source\PSoC4/BLE_bas.c **** 
 308              		.loc 1 280 0
 309 0006 3468     		ldr	r4, [r6]
 310              		.loc 1 282 0
 311 0008 002C     		cmp	r4, #0
 312 000a 37D0     		beq	.L26
 283:Generated_Source\PSoC4/BLE_bas.c ****     {
 284:Generated_Source\PSoC4/BLE_bas.c ****         do
 285:Generated_Source\PSoC4/BLE_bas.c ****         {
 286:Generated_Source\PSoC4/BLE_bas.c ****             /* Client Characteristic Configuration descriptor write request */
 287:Generated_Source\PSoC4/BLE_bas.c ****             if(eventParam->handleValPair.attrHandle == cyBle_bass[locServIndex].cccdHandle)
 313              		.loc 1 287 0
 314 000c 8389     		ldrh	r3, [r0, #12]
 280:Generated_Source\PSoC4/BLE_bas.c **** 
 315              		.loc 1 280 0
 316 000e 0024     		movs	r4, #0
 317              		.loc 1 287 0
ARM GAS  C:\Users\user\AppData\Local\Temp\ccaQ91yN.s 			page 12


 318 0010 332B     		cmp	r3, #51
 319 0012 33D1     		bne	.L26
 288:Generated_Source\PSoC4/BLE_bas.c ****             {
 289:Generated_Source\PSoC4/BLE_bas.c ****                 /* Verify that optional notification property is enabled for Battery Level characte
 290:Generated_Source\PSoC4/BLE_bas.c ****                 if(CYBLE_IS_NOTIFICATION_SUPPORTED(cyBle_bass[locServIndex].batteryLevelHandle))
 320              		.loc 1 290 0
 321 0014 F123     		movs	r3, #241
 322 0016 1C4A     		ldr	r2, .L35+4
 323 0018 9B00     		lsls	r3, r3, #2
 324 001a D358     		ldr	r3, [r2, r3]
 291:Generated_Source\PSoC4/BLE_bas.c ****                 {
 292:Generated_Source\PSoC4/BLE_bas.c ****                     gattErr = CyBle_GattsWriteAttributeValue(&eventParam->handleValPair, 0u, 
 293:Generated_Source\PSoC4/BLE_bas.c ****                         &eventParam->connHandle, CYBLE_GATT_DB_PEER_INITIATED);
 294:Generated_Source\PSoC4/BLE_bas.c ****                     if(gattErr == CYBLE_GATT_ERR_NONE)
 295:Generated_Source\PSoC4/BLE_bas.c ****                     {
 296:Generated_Source\PSoC4/BLE_bas.c ****                         locCharIndex.connHandle = eventParam->connHandle;
 297:Generated_Source\PSoC4/BLE_bas.c ****                         locCharIndex.serviceIndex = locServIndex;
 298:Generated_Source\PSoC4/BLE_bas.c ****                         locCharIndex.charIndex = CYBLE_BAS_BATTERY_LEVEL;
 299:Generated_Source\PSoC4/BLE_bas.c ****                         locCharIndex.value = NULL;
 300:Generated_Source\PSoC4/BLE_bas.c ****                         
 301:Generated_Source\PSoC4/BLE_bas.c ****                         if(CYBLE_IS_NOTIFICATION_ENABLED_IN_PTR(eventParam->handleValPair.value.val
 302:Generated_Source\PSoC4/BLE_bas.c ****                         {
 303:Generated_Source\PSoC4/BLE_bas.c ****                             CyBle_BasApplCallback((uint32)CYBLE_EVT_BASS_NOTIFICATION_ENABLED, &loc
 304:Generated_Source\PSoC4/BLE_bas.c ****                         }
 305:Generated_Source\PSoC4/BLE_bas.c ****                         else
 306:Generated_Source\PSoC4/BLE_bas.c ****                         {
 307:Generated_Source\PSoC4/BLE_bas.c ****                             CyBle_BasApplCallback((uint32)CYBLE_EVT_BASS_NOTIFICATION_DISABLED, &lo
 308:Generated_Source\PSoC4/BLE_bas.c ****                         }
 309:Generated_Source\PSoC4/BLE_bas.c ****                     #if((CYBLE_GAP_ROLE_PERIPHERAL || CYBLE_GAP_ROLE_CENTRAL) && \
 310:Generated_Source\PSoC4/BLE_bas.c ****                         (CYBLE_BONDING_REQUIREMENT == CYBLE_BONDING_YES))
 311:Generated_Source\PSoC4/BLE_bas.c ****                         /* Set flag to store bonding data to flash */
 312:Generated_Source\PSoC4/BLE_bas.c ****                         if(cyBle_peerBonding == CYBLE_GAP_BONDING)
 313:Generated_Source\PSoC4/BLE_bas.c ****                         {
 314:Generated_Source\PSoC4/BLE_bas.c ****                             cyBle_pendingFlashWrite |= CYBLE_PENDING_CCCD_FLASH_WRITE_BIT;
 315:Generated_Source\PSoC4/BLE_bas.c ****                         }
 316:Generated_Source\PSoC4/BLE_bas.c ****                     #endif /* (CYBLE_BONDING_REQUIREMENT == CYBLE_BONDING_YES) */
 317:Generated_Source\PSoC4/BLE_bas.c ****                     }
 318:Generated_Source\PSoC4/BLE_bas.c ****                 }
 319:Generated_Source\PSoC4/BLE_bas.c ****                 else
 320:Generated_Source\PSoC4/BLE_bas.c ****                 {
 321:Generated_Source\PSoC4/BLE_bas.c ****                     gattErr = CYBLE_GATT_ERR_REQUEST_NOT_SUPPORTED;
 325              		.loc 1 321 0
 326 001c 0634     		adds	r4, r4, #6
 290:Generated_Source\PSoC4/BLE_bas.c ****                 {
 327              		.loc 1 290 0
 328 001e 0193     		str	r3, [sp, #4]
 329 0020 DB02     		lsls	r3, r3, #11
 330 0022 26D5     		bpl	.L27
 292:Generated_Source\PSoC4/BLE_bas.c ****                         &eventParam->connHandle, CYBLE_GATT_DB_PEER_INITIATED);
 331              		.loc 1 292 0
 332 0024 0430     		adds	r0, r0, #4
 333              	.LVL25:
 334 0026 4023     		movs	r3, #64
 335 0028 2A00     		movs	r2, r5
 336 002a 0021     		movs	r1, #0
 337 002c FFF7FEFF 		bl	CyBle_GattsWriteAttributeValue
 338              	.LVL26:
ARM GAS  C:\Users\user\AppData\Local\Temp\ccaQ91yN.s 			page 13


 339 0030 041E     		subs	r4, r0, #0
 340              	.LVL27:
 294:Generated_Source\PSoC4/BLE_bas.c ****                     {
 341              		.loc 1 294 0
 342 0032 1ED1     		bne	.L27
 296:Generated_Source\PSoC4/BLE_bas.c ****                         locCharIndex.serviceIndex = locServIndex;
 343              		.loc 1 296 0
 344 0034 2B88     		ldrh	r3, [r5]
 345 0036 02AA     		add	r2, sp, #8
 346 0038 1380     		strh	r3, [r2]
 297:Generated_Source\PSoC4/BLE_bas.c ****                         locCharIndex.charIndex = CYBLE_BAS_BATTERY_LEVEL;
 347              		.loc 1 297 0
 348 003a 1300     		movs	r3, r2
 299:Generated_Source\PSoC4/BLE_bas.c ****                         
 349              		.loc 1 299 0
 350 003c 0390     		str	r0, [sp, #12]
 297:Generated_Source\PSoC4/BLE_bas.c ****                         locCharIndex.charIndex = CYBLE_BAS_BATTERY_LEVEL;
 351              		.loc 1 297 0
 352 003e 9870     		strb	r0, [r3, #2]
 298:Generated_Source\PSoC4/BLE_bas.c ****                         locCharIndex.value = NULL;
 353              		.loc 1 298 0
 354 0040 D870     		strb	r0, [r3, #3]
 301:Generated_Source\PSoC4/BLE_bas.c ****                         {
 355              		.loc 1 301 0
 356 0042 6868     		ldr	r0, [r5, #4]
 357              	.LVL28:
 358 0044 FFF7FEFF 		bl	CyBle_Get16ByPtr
 359              	.LVL29:
 360 0048 C307     		lsls	r3, r0, #31
 361 004a 04D5     		bpl	.L28
 303:Generated_Source\PSoC4/BLE_bas.c ****                         }
 362              		.loc 1 303 0
 363 004c 3220     		movs	r0, #50
 364 004e 3368     		ldr	r3, [r6]
 365 0050 02A9     		add	r1, sp, #8
 366 0052 FF30     		adds	r0, r0, #255
 367 0054 03E0     		b	.L34
 368              	.L28:
 307:Generated_Source\PSoC4/BLE_bas.c ****                         }
 369              		.loc 1 307 0
 370 0056 9920     		movs	r0, #153
 371 0058 3368     		ldr	r3, [r6]
 372 005a 02A9     		add	r1, sp, #8
 373 005c 4000     		lsls	r0, r0, #1
 374              	.L34:
 375 005e 9847     		blx	r3
 376              	.LVL30:
 312:Generated_Source\PSoC4/BLE_bas.c ****                         {
 377              		.loc 1 312 0
 378 0060 0A4B     		ldr	r3, .L35+8
 379 0062 1B78     		ldrb	r3, [r3]
 380 0064 012B     		cmp	r3, #1
 381 0066 04D1     		bne	.L27
 314:Generated_Source\PSoC4/BLE_bas.c ****                         }
 382              		.loc 1 314 0
 383 0068 0221     		movs	r1, #2
 384 006a 094A     		ldr	r2, .L35+12
ARM GAS  C:\Users\user\AppData\Local\Temp\ccaQ91yN.s 			page 14


 385 006c 1378     		ldrb	r3, [r2]
 386 006e 0B43     		orrs	r3, r1
 387 0070 1370     		strb	r3, [r2]
 388              	.L27:
 389              	.LVL31:
 322:Generated_Source\PSoC4/BLE_bas.c ****                 }
 323:Generated_Source\PSoC4/BLE_bas.c ****                 cyBle_eventHandlerFlag &= (uint8)~CYBLE_CALLBACK;
 390              		.loc 1 323 0
 391 0072 0121     		movs	r1, #1
 392 0074 074A     		ldr	r2, .L35+16
 393 0076 1378     		ldrb	r3, [r2]
 394 0078 8B43     		bics	r3, r1
 395 007a 1370     		strb	r3, [r2]
 396              	.LVL32:
 397              	.L26:
 324:Generated_Source\PSoC4/BLE_bas.c ****                 break;
 325:Generated_Source\PSoC4/BLE_bas.c ****             }
 326:Generated_Source\PSoC4/BLE_bas.c ****         locServIndex++;
 327:Generated_Source\PSoC4/BLE_bas.c ****         }while(locServIndex < CYBLE_BASS_SERVICE_COUNT);
 328:Generated_Source\PSoC4/BLE_bas.c ****     }
 329:Generated_Source\PSoC4/BLE_bas.c ****     return (gattErr);
 330:Generated_Source\PSoC4/BLE_bas.c **** }
 398              		.loc 1 330 0
 399 007c 2000     		movs	r0, r4
 400 007e 04B0     		add	sp, sp, #16
 401              		@ sp needed
 402              	.LVL33:
 403              	.LVL34:
 404 0080 70BD     		pop	{r4, r5, r6, pc}
 405              	.L36:
 406 0082 C046     		.align	2
 407              	.L35:
 408 0084 00000000 		.word	.LANCHOR0
 409 0088 00000000 		.word	cyBle_gattDB
 410 008c 00000000 		.word	cyBle_peerBonding
 411 0090 00000000 		.word	cyBle_pendingFlashWrite
 412 0094 00000000 		.word	cyBle_eventHandlerFlag
 413              		.cfi_endproc
 414              	.LFE7:
 415              		.size	CyBle_BassWriteEventHandler, .-CyBle_BassWriteEventHandler
 416              		.section	.text.CyBle_BassSendNotification,"ax",%progbits
 417              		.align	1
 418              		.global	CyBle_BassSendNotification
 419              		.code	16
 420              		.thumb_func
 421              		.type	CyBle_BassSendNotification, %function
 422              	CyBle_BassSendNotification:
 423              	.LFB8:
 331:Generated_Source\PSoC4/BLE_bas.c **** 
 332:Generated_Source\PSoC4/BLE_bas.c **** 
 333:Generated_Source\PSoC4/BLE_bas.c **** /******************************************************************************
 334:Generated_Source\PSoC4/BLE_bas.c **** * Function Name: CyBle_BassSendNotification
 335:Generated_Source\PSoC4/BLE_bas.c **** ***************************************************************************//**
 336:Generated_Source\PSoC4/BLE_bas.c **** * 
 337:Generated_Source\PSoC4/BLE_bas.c **** *  This function updates the value of the Battery Level characteristic in the 
 338:Generated_Source\PSoC4/BLE_bas.c **** *  GATT database. If the client has configured a notification on the Battery
 339:Generated_Source\PSoC4/BLE_bas.c **** *  Level characteristic, the function additionally sends this value using a 
ARM GAS  C:\Users\user\AppData\Local\Temp\ccaQ91yN.s 			page 15


 340:Generated_Source\PSoC4/BLE_bas.c **** *  GATT Notification message.
 341:Generated_Source\PSoC4/BLE_bas.c **** *
 342:Generated_Source\PSoC4/BLE_bas.c **** *  On enabling notification successfully for a service characteristic it sends 
 343:Generated_Source\PSoC4/BLE_bas.c **** *  out a 'Handle Value Notification' which results in 
 344:Generated_Source\PSoC4/BLE_bas.c **** *  CYBLE_EVT_BASC_NOTIFICATION event at the GATT Client's end.
 345:Generated_Source\PSoC4/BLE_bas.c **** * 
 346:Generated_Source\PSoC4/BLE_bas.c **** *  \param connHandle:   The BLE peer device connection handle
 347:Generated_Source\PSoC4/BLE_bas.c **** *  \param serviceIndex: The index of the service instance. e.g. If two Battery 
 348:Generated_Source\PSoC4/BLE_bas.c **** *                       Services are supported in your design, then first 
 349:Generated_Source\PSoC4/BLE_bas.c **** *                       service will be identified by serviceIndex of 0 and the
 350:Generated_Source\PSoC4/BLE_bas.c **** *                       second by serviceIndex of 1.
 351:Generated_Source\PSoC4/BLE_bas.c **** *  \param charIndex:    The index of a service characteristic of type 
 352:Generated_Source\PSoC4/BLE_bas.c **** *                       CYBLE_BAS_CHAR_INDEX_T.
 353:Generated_Source\PSoC4/BLE_bas.c **** *  \param attrSize:     The size of the characteristic value attribute. A 
 354:Generated_Source\PSoC4/BLE_bas.c **** *                       battery level characteristic has 1 byte length.
 355:Generated_Source\PSoC4/BLE_bas.c **** *  \param attrValue:    The pointer to the characteristic value data that 
 356:Generated_Source\PSoC4/BLE_bas.c **** *                       should be sent to the Client device.
 357:Generated_Source\PSoC4/BLE_bas.c **** * 
 358:Generated_Source\PSoC4/BLE_bas.c **** * \return
 359:Generated_Source\PSoC4/BLE_bas.c **** *  Return value is of type CYBLE_API_RESULT_T.
 360:Generated_Source\PSoC4/BLE_bas.c **** *   * CYBLE_ERROR_OK - The request handled successfully
 361:Generated_Source\PSoC4/BLE_bas.c **** *   * CYBLE_ERROR_INVALID_PARAMETER - Validation of the input parameter failed
 362:Generated_Source\PSoC4/BLE_bas.c **** *   * CYBLE_ERROR_INVALID_OPERATION - This operation is not permitted
 363:Generated_Source\PSoC4/BLE_bas.c **** *   * CYBLE_ERROR_INVALID_STATE - Connection with the client is not established
 364:Generated_Source\PSoC4/BLE_bas.c **** *   * CYBLE_ERROR_MEMORY_ALLOCATION_FAILED - Memory allocation failed. 
 365:Generated_Source\PSoC4/BLE_bas.c **** *   * CYBLE_ERROR_NTF_DISABLED - Notification is not enabled by the client.
 366:Generated_Source\PSoC4/BLE_bas.c **** * 
 367:Generated_Source\PSoC4/BLE_bas.c **** ******************************************************************************/
 368:Generated_Source\PSoC4/BLE_bas.c **** CYBLE_API_RESULT_T CyBle_BassSendNotification(CYBLE_CONN_HANDLE_T connHandle,
 369:Generated_Source\PSoC4/BLE_bas.c ****     uint8 serviceIndex, CYBLE_BAS_CHAR_INDEX_T charIndex, uint8 attrSize, uint8 *attrValue)
 370:Generated_Source\PSoC4/BLE_bas.c **** {
 424              		.loc 1 370 0
 425              		.cfi_startproc
 426              		@ args = 4, pretend = 0, frame = 24
 427              		@ frame_needed = 0, uses_anonymous_args = 0
 428              	.LVL35:
 429 0000 70B5     		push	{r4, r5, r6, lr}
 430              		.cfi_def_cfa_offset 16
 431              		.cfi_offset 4, -16
 432              		.cfi_offset 5, -12
 433              		.cfi_offset 6, -8
 434              		.cfi_offset 14, -4
 435 0002 0C00     		movs	r4, r1
 436 0004 1E00     		movs	r6, r3
 437 0006 86B0     		sub	sp, sp, #24
 438              		.cfi_def_cfa_offset 40
 439              		.loc 1 370 0
 440 0008 01AD     		add	r5, sp, #4
 441 000a 2880     		strh	r0, [r5]
 442 000c 1100     		movs	r1, r2
 443              	.LVL36:
 371:Generated_Source\PSoC4/BLE_bas.c ****     CYBLE_API_RESULT_T apiResult;
 372:Generated_Source\PSoC4/BLE_bas.c **** 
 373:Generated_Source\PSoC4/BLE_bas.c ****     /* Store new data in database */
 374:Generated_Source\PSoC4/BLE_bas.c ****     apiResult = CyBle_BassSetCharacteristicValue(serviceIndex, charIndex, attrSize, attrValue);
 444              		.loc 1 374 0
 445 000e 0A9B     		ldr	r3, [sp, #40]
ARM GAS  C:\Users\user\AppData\Local\Temp\ccaQ91yN.s 			page 16


 446              	.LVL37:
 447 0010 3200     		movs	r2, r6
 448              	.LVL38:
 449 0012 2000     		movs	r0, r4
 450 0014 FFF7FEFF 		bl	CyBle_BassSetCharacteristicValue
 451              	.LVL39:
 375:Generated_Source\PSoC4/BLE_bas.c ****     
 376:Generated_Source\PSoC4/BLE_bas.c ****     if(apiResult == CYBLE_ERROR_OK)  
 452              		.loc 1 376 0
 453 0018 0028     		cmp	r0, #0
 454 001a 1ED1     		bne	.L38
 377:Generated_Source\PSoC4/BLE_bas.c ****     {
 378:Generated_Source\PSoC4/BLE_bas.c ****         /* Send Notification if it is enabled and connected */
 379:Generated_Source\PSoC4/BLE_bas.c ****         if(CYBLE_STATE_CONNECTED != CyBle_GetState())
 455              		.loc 1 379 0
 456 001c 104B     		ldr	r3, .L41
 457 001e 1B78     		ldrb	r3, [r3]
 458 0020 022B     		cmp	r3, #2
 459 0022 15D1     		bne	.L39
 380:Generated_Source\PSoC4/BLE_bas.c ****         {
 381:Generated_Source\PSoC4/BLE_bas.c ****             apiResult = CYBLE_ERROR_INVALID_STATE;
 382:Generated_Source\PSoC4/BLE_bas.c ****         }
 383:Generated_Source\PSoC4/BLE_bas.c ****         else if((cyBle_bass[serviceIndex].cccdHandle == CYBLE_GATT_INVALID_ATTR_HANDLE_VALUE)
 384:Generated_Source\PSoC4/BLE_bas.c ****             || (!CYBLE_IS_NOTIFICATION_ENABLED(cyBle_bass[serviceIndex].cccdHandle)))
 460              		.loc 1 384 0
 461 0024 FE23     		movs	r3, #254
 462 0026 0F4A     		ldr	r2, .L41+4
 463 0028 9B00     		lsls	r3, r3, #2
 464 002a D358     		ldr	r3, [r2, r3]
 465 002c 5868     		ldr	r0, [r3, #4]
 466              	.LVL40:
 467 002e FFF7FEFF 		bl	CyBle_Get16ByPtr
 468              	.LVL41:
 469 0032 C307     		lsls	r3, r0, #31
 470 0034 0FD5     		bpl	.L40
 471              	.LBB6:
 385:Generated_Source\PSoC4/BLE_bas.c ****         {
 386:Generated_Source\PSoC4/BLE_bas.c ****             apiResult = CYBLE_ERROR_NTF_DISABLED;
 387:Generated_Source\PSoC4/BLE_bas.c ****         }
 388:Generated_Source\PSoC4/BLE_bas.c ****         else
 389:Generated_Source\PSoC4/BLE_bas.c ****         {
 390:Generated_Source\PSoC4/BLE_bas.c ****             CYBLE_GATTS_HANDLE_VALUE_NTF_T ntfReqParam;
 391:Generated_Source\PSoC4/BLE_bas.c ****             
 392:Generated_Source\PSoC4/BLE_bas.c ****             /* Fill all fields of write request structure ... */
 393:Generated_Source\PSoC4/BLE_bas.c ****             ntfReqParam.attrHandle = cyBle_bass[serviceIndex].batteryLevelHandle;
 472              		.loc 1 393 0
 473 0036 0C4B     		ldr	r3, .L41+8
 474 0038 E400     		lsls	r4, r4, #3
 475 003a 1C19     		adds	r4, r3, r4
 476 003c 6388     		ldrh	r3, [r4, #2]
 477 003e 03A9     		add	r1, sp, #12
 478 0040 0B81     		strh	r3, [r1, #8]
 394:Generated_Source\PSoC4/BLE_bas.c ****             ntfReqParam.value.val = attrValue;
 479              		.loc 1 394 0
 480 0042 0A9B     		ldr	r3, [sp, #40]
 395:Generated_Source\PSoC4/BLE_bas.c ****             ntfReqParam.value.len = attrSize;
 396:Generated_Source\PSoC4/BLE_bas.c ****             
ARM GAS  C:\Users\user\AppData\Local\Temp\ccaQ91yN.s 			page 17


 397:Generated_Source\PSoC4/BLE_bas.c ****             /* Send notification to client using previously filled structure */
 398:Generated_Source\PSoC4/BLE_bas.c ****             apiResult = CyBle_GattsNotification(connHandle, &ntfReqParam);
 481              		.loc 1 398 0
 482 0044 2868     		ldr	r0, [r5]
 394:Generated_Source\PSoC4/BLE_bas.c ****             ntfReqParam.value.val = attrValue;
 483              		.loc 1 394 0
 484 0046 0393     		str	r3, [sp, #12]
 395:Generated_Source\PSoC4/BLE_bas.c ****             ntfReqParam.value.len = attrSize;
 485              		.loc 1 395 0
 486 0048 8E80     		strh	r6, [r1, #4]
 487              		.loc 1 398 0
 488 004a FFF7FEFF 		bl	CyBle_GattsNotification
 489              	.LVL42:
 490 004e 04E0     		b	.L38
 491              	.L39:
 492              	.LBE6:
 381:Generated_Source\PSoC4/BLE_bas.c ****         }
 493              		.loc 1 381 0
 494 0050 0420     		movs	r0, #4
 495              	.LVL43:
 496 0052 FF30     		adds	r0, r0, #255
 497 0054 01E0     		b	.L38
 498              	.L40:
 386:Generated_Source\PSoC4/BLE_bas.c ****         }
 499              		.loc 1 386 0
 500 0056 8020     		movs	r0, #128
 501 0058 4000     		lsls	r0, r0, #1
 502              	.L38:
 503              	.LVL44:
 399:Generated_Source\PSoC4/BLE_bas.c ****         }
 400:Generated_Source\PSoC4/BLE_bas.c ****     }
 401:Generated_Source\PSoC4/BLE_bas.c ****     
 402:Generated_Source\PSoC4/BLE_bas.c ****     return (apiResult);
 403:Generated_Source\PSoC4/BLE_bas.c **** }
 504              		.loc 1 403 0
 505 005a 06B0     		add	sp, sp, #24
 506              		@ sp needed
 507 005c 70BD     		pop	{r4, r5, r6, pc}
 508              	.L42:
 509 005e C046     		.align	2
 510              	.L41:
 511 0060 00000000 		.word	cyBle_state
 512 0064 00000000 		.word	cyBle_gattDB
 513 0068 00000000 		.word	.LANCHOR1
 514              		.cfi_endproc
 515              	.LFE8:
 516              		.size	CyBle_BassSendNotification, .-CyBle_BassSendNotification
 517              		.global	cyBle_bass
 518              		.section	.rodata
 519              		.align	1
 520              		.set	.LANCHOR1,. + 0
 521              		.type	cyBle_bass, %object
 522              		.size	cyBle_bass, 8
 523              	cyBle_bass:
 524 0000 2F00     		.short	47
 525 0002 3100     		.short	49
 526 0004 3200     		.short	50
ARM GAS  C:\Users\user\AppData\Local\Temp\ccaQ91yN.s 			page 18


 527 0006 3300     		.short	51
 528              		.bss
 529              		.align	2
 530              		.set	.LANCHOR0,. + 0
 531              		.type	CyBle_BasApplCallback, %object
 532              		.size	CyBle_BasApplCallback, 4
 533              	CyBle_BasApplCallback:
 534 0000 00000000 		.space	4
 535              		.text
 536              	.Letext0:
 537              		.file 2 "Generated_Source\\PSoC4\\cytypes.h"
 538              		.file 3 "Generated_Source\\PSoC4\\BLE_Stack.h"
 539              		.file 4 "Generated_Source\\PSoC4\\BLE_StackGatt.h"
 540              		.file 5 "Generated_Source\\PSoC4\\BLE_StackGattServer.h"
 541              		.file 6 "Generated_Source\\PSoC4\\BLE_StackGattDb.h"
 542              		.file 7 "Generated_Source\\PSoC4\\BLE.h"
 543              		.file 8 "Generated_Source\\PSoC4\\BLE_bas.h"
 544              		.file 9 "Generated_Source\\PSoC4\\BLE_bms.h"
 545              		.file 10 "Generated_Source\\PSoC4\\BLE_cgms.h"
 546              		.file 11 "Generated_Source\\PSoC4\\BLE_dis.h"
 547              		.file 12 "Generated_Source\\PSoC4\\BLE_eventHandler.h"
 548              		.file 13 "Generated_Source\\PSoC4\\BLE_gatt.h"