ARM GAS  C:\Users\user\AppData\Local\Temp\ccpxaLkD.s 			page 1


   1              		.syntax unified
   2              		.cpu cortex-m0
   3              		.fpu softvfp
   4              		.eabi_attribute 20, 1
   5              		.eabi_attribute 21, 1
   6              		.eabi_attribute 23, 3
   7              		.eabi_attribute 24, 1
   8              		.eabi_attribute 25, 1
   9              		.eabi_attribute 26, 1
  10              		.eabi_attribute 30, 4
  11              		.eabi_attribute 34, 0
  12              		.eabi_attribute 18, 4
  13              		.thumb
  14              		.syntax unified
  15              		.file	"BLE_cgms.c"
  16              		.text
  17              	.Ltext0:
  18              		.cfi_sections	.debug_frame
  19              		.section	.text.CyBle_CgmsInit,"ax",%progbits
  20              		.align	1
  21              		.global	CyBle_CgmsInit
  22              		.code	16
  23              		.thumb_func
  24              		.type	CyBle_CgmsInit, %function
  25              	CyBle_CgmsInit:
  26              	.LFB2:
  27              		.file 1 "Generated_Source\\PSoC4\\BLE_cgms.c"
   1:Generated_Source\PSoC4/BLE_cgms.c **** /***************************************************************************//**
   2:Generated_Source\PSoC4/BLE_cgms.c **** * \file CYBLE_cgms.c
   3:Generated_Source\PSoC4/BLE_cgms.c **** * \version 3.66
   4:Generated_Source\PSoC4/BLE_cgms.c **** * 
   5:Generated_Source\PSoC4/BLE_cgms.c **** * \brief
   6:Generated_Source\PSoC4/BLE_cgms.c **** *  This file contains the source code for the Continuous Glucose Monitoring
   7:Generated_Source\PSoC4/BLE_cgms.c **** *  Service of the BLE Component.
   8:Generated_Source\PSoC4/BLE_cgms.c **** * 
   9:Generated_Source\PSoC4/BLE_cgms.c **** ********************************************************************************
  10:Generated_Source\PSoC4/BLE_cgms.c **** * \copyright
  11:Generated_Source\PSoC4/BLE_cgms.c **** * Copyright 2014-2020, Cypress Semiconductor Corporation.  All rights reserved.
  12:Generated_Source\PSoC4/BLE_cgms.c **** * You may use this file only in accordance with the license, terms, conditions,
  13:Generated_Source\PSoC4/BLE_cgms.c **** * disclaimers, and limitations in the end user license agreement accompanying
  14:Generated_Source\PSoC4/BLE_cgms.c **** * the software package with which this file was provided.
  15:Generated_Source\PSoC4/BLE_cgms.c **** *******************************************************************************/
  16:Generated_Source\PSoC4/BLE_cgms.c **** 
  17:Generated_Source\PSoC4/BLE_cgms.c **** 
  18:Generated_Source\PSoC4/BLE_cgms.c **** #include "BLE_eventHandler.h"
  19:Generated_Source\PSoC4/BLE_cgms.c **** 
  20:Generated_Source\PSoC4/BLE_cgms.c **** static CYBLE_CALLBACK_T CyBle_CgmsApplCallback;
  21:Generated_Source\PSoC4/BLE_cgms.c **** 
  22:Generated_Source\PSoC4/BLE_cgms.c **** #ifdef CYBLE_CGMS_SERVER
  23:Generated_Source\PSoC4/BLE_cgms.c **** 
  24:Generated_Source\PSoC4/BLE_cgms.c **** const CYBLE_CGMSS_T cyBle_cgmss =
  25:Generated_Source\PSoC4/BLE_cgms.c **** {
  26:Generated_Source\PSoC4/BLE_cgms.c ****     0x000Cu,    /* Handle of the CGMS service */
  27:Generated_Source\PSoC4/BLE_cgms.c ****     {
  28:Generated_Source\PSoC4/BLE_cgms.c ****         
  29:Generated_Source\PSoC4/BLE_cgms.c ****         /* CGM Measurement characteristic */
  30:Generated_Source\PSoC4/BLE_cgms.c ****         {
ARM GAS  C:\Users\user\AppData\Local\Temp\ccpxaLkD.s 			page 2


  31:Generated_Source\PSoC4/BLE_cgms.c ****             0x000Eu, /* Handle of the CGM Measurement characteristic */ 
  32:Generated_Source\PSoC4/BLE_cgms.c ****             
  33:Generated_Source\PSoC4/BLE_cgms.c ****             /* Array of Descriptors handles */
  34:Generated_Source\PSoC4/BLE_cgms.c ****             {
  35:Generated_Source\PSoC4/BLE_cgms.c ****                 0x000Fu, /* Handle of the Client Characteristic Configuration descriptor */ 
  36:Generated_Source\PSoC4/BLE_cgms.c ****             }, 
  37:Generated_Source\PSoC4/BLE_cgms.c ****         }, 
  38:Generated_Source\PSoC4/BLE_cgms.c ****         
  39:Generated_Source\PSoC4/BLE_cgms.c ****         /* CGM Feature characteristic */
  40:Generated_Source\PSoC4/BLE_cgms.c ****         {
  41:Generated_Source\PSoC4/BLE_cgms.c ****             0x0011u, /* Handle of the CGM Feature characteristic */ 
  42:Generated_Source\PSoC4/BLE_cgms.c ****             
  43:Generated_Source\PSoC4/BLE_cgms.c ****             /* Array of Descriptors handles */
  44:Generated_Source\PSoC4/BLE_cgms.c ****             {
  45:Generated_Source\PSoC4/BLE_cgms.c ****                 CYBLE_GATT_INVALID_ATTR_HANDLE_VALUE, 
  46:Generated_Source\PSoC4/BLE_cgms.c ****             }, 
  47:Generated_Source\PSoC4/BLE_cgms.c ****         }, 
  48:Generated_Source\PSoC4/BLE_cgms.c ****         
  49:Generated_Source\PSoC4/BLE_cgms.c ****         /* CGM Status characteristic */
  50:Generated_Source\PSoC4/BLE_cgms.c ****         {
  51:Generated_Source\PSoC4/BLE_cgms.c ****             0x0013u, /* Handle of the CGM Status characteristic */ 
  52:Generated_Source\PSoC4/BLE_cgms.c ****             
  53:Generated_Source\PSoC4/BLE_cgms.c ****             /* Array of Descriptors handles */
  54:Generated_Source\PSoC4/BLE_cgms.c ****             {
  55:Generated_Source\PSoC4/BLE_cgms.c ****                 CYBLE_GATT_INVALID_ATTR_HANDLE_VALUE, 
  56:Generated_Source\PSoC4/BLE_cgms.c ****             }, 
  57:Generated_Source\PSoC4/BLE_cgms.c ****         }, 
  58:Generated_Source\PSoC4/BLE_cgms.c ****         
  59:Generated_Source\PSoC4/BLE_cgms.c ****         /* CGM Session Start Time characteristic */
  60:Generated_Source\PSoC4/BLE_cgms.c ****         {
  61:Generated_Source\PSoC4/BLE_cgms.c ****             0x0015u, /* Handle of the CGM Session Start Time characteristic */ 
  62:Generated_Source\PSoC4/BLE_cgms.c ****             
  63:Generated_Source\PSoC4/BLE_cgms.c ****             /* Array of Descriptors handles */
  64:Generated_Source\PSoC4/BLE_cgms.c ****             {
  65:Generated_Source\PSoC4/BLE_cgms.c ****                 CYBLE_GATT_INVALID_ATTR_HANDLE_VALUE, 
  66:Generated_Source\PSoC4/BLE_cgms.c ****             }, 
  67:Generated_Source\PSoC4/BLE_cgms.c ****         }, 
  68:Generated_Source\PSoC4/BLE_cgms.c ****         
  69:Generated_Source\PSoC4/BLE_cgms.c ****         /* CGM Session Run Time characteristic */
  70:Generated_Source\PSoC4/BLE_cgms.c ****         {
  71:Generated_Source\PSoC4/BLE_cgms.c ****             0x0017u, /* Handle of the CGM Session Run Time characteristic */ 
  72:Generated_Source\PSoC4/BLE_cgms.c ****             
  73:Generated_Source\PSoC4/BLE_cgms.c ****             /* Array of Descriptors handles */
  74:Generated_Source\PSoC4/BLE_cgms.c ****             {
  75:Generated_Source\PSoC4/BLE_cgms.c ****                 CYBLE_GATT_INVALID_ATTR_HANDLE_VALUE, 
  76:Generated_Source\PSoC4/BLE_cgms.c ****             }, 
  77:Generated_Source\PSoC4/BLE_cgms.c ****         }, 
  78:Generated_Source\PSoC4/BLE_cgms.c ****         
  79:Generated_Source\PSoC4/BLE_cgms.c ****         /* Record Access Control Point characteristic */
  80:Generated_Source\PSoC4/BLE_cgms.c ****         {
  81:Generated_Source\PSoC4/BLE_cgms.c ****             0x0019u, /* Handle of the Record Access Control Point characteristic */ 
  82:Generated_Source\PSoC4/BLE_cgms.c ****             
  83:Generated_Source\PSoC4/BLE_cgms.c ****             /* Array of Descriptors handles */
  84:Generated_Source\PSoC4/BLE_cgms.c ****             {
  85:Generated_Source\PSoC4/BLE_cgms.c ****                 0x001Au, /* Handle of the Client Characteristic Configuration descriptor */ 
  86:Generated_Source\PSoC4/BLE_cgms.c ****             }, 
  87:Generated_Source\PSoC4/BLE_cgms.c ****         }, 
ARM GAS  C:\Users\user\AppData\Local\Temp\ccpxaLkD.s 			page 3


  88:Generated_Source\PSoC4/BLE_cgms.c ****         
  89:Generated_Source\PSoC4/BLE_cgms.c ****         /* CGM Specific Ops Control Point characteristic */
  90:Generated_Source\PSoC4/BLE_cgms.c ****         {
  91:Generated_Source\PSoC4/BLE_cgms.c ****             0x001Cu, /* Handle of the CGM Specific Ops Control Point characteristic */ 
  92:Generated_Source\PSoC4/BLE_cgms.c ****             
  93:Generated_Source\PSoC4/BLE_cgms.c ****             /* Array of Descriptors handles */
  94:Generated_Source\PSoC4/BLE_cgms.c ****             {
  95:Generated_Source\PSoC4/BLE_cgms.c ****                 0x001Du, /* Handle of the Client Characteristic Configuration descriptor */ 
  96:Generated_Source\PSoC4/BLE_cgms.c ****             }, 
  97:Generated_Source\PSoC4/BLE_cgms.c ****         }, 
  98:Generated_Source\PSoC4/BLE_cgms.c ****     },
  99:Generated_Source\PSoC4/BLE_cgms.c **** };
 100:Generated_Source\PSoC4/BLE_cgms.c ****     
 101:Generated_Source\PSoC4/BLE_cgms.c ****     uint8 cyBle_cgmsFlag;
 102:Generated_Source\PSoC4/BLE_cgms.c ****     
 103:Generated_Source\PSoC4/BLE_cgms.c **** static CYBLE_GATT_DB_ATTR_HANDLE_T cyBle_cgmssReqHandle;
 104:Generated_Source\PSoC4/BLE_cgms.c **** 
 105:Generated_Source\PSoC4/BLE_cgms.c **** #endif /* CYBLE_CGMS_SERVER */
 106:Generated_Source\PSoC4/BLE_cgms.c **** 
 107:Generated_Source\PSoC4/BLE_cgms.c **** #ifdef CYBLE_CGMS_CLIENT
 108:Generated_Source\PSoC4/BLE_cgms.c ****     
 109:Generated_Source\PSoC4/BLE_cgms.c **** /* Server's CGM Service characteristics GATT DB handles structure */
 110:Generated_Source\PSoC4/BLE_cgms.c **** CYBLE_CGMSC_T cyBle_cgmsc;
 111:Generated_Source\PSoC4/BLE_cgms.c **** 
 112:Generated_Source\PSoC4/BLE_cgms.c **** /* Internal storage for last request handle to check response */
 113:Generated_Source\PSoC4/BLE_cgms.c **** static CYBLE_GATT_DB_ATTR_HANDLE_T cyBle_cgmscReqHandle;
 114:Generated_Source\PSoC4/BLE_cgms.c **** #endif /* CYBLE_CGMS_CLIENT */
 115:Generated_Source\PSoC4/BLE_cgms.c **** 
 116:Generated_Source\PSoC4/BLE_cgms.c **** 
 117:Generated_Source\PSoC4/BLE_cgms.c **** /****************************************************************************** 
 118:Generated_Source\PSoC4/BLE_cgms.c **** * Function Name: CyBle_CgmsInit
 119:Generated_Source\PSoC4/BLE_cgms.c **** ***************************************************************************//**
 120:Generated_Source\PSoC4/BLE_cgms.c **** * 
 121:Generated_Source\PSoC4/BLE_cgms.c **** *  Initializes the profile internals.
 122:Generated_Source\PSoC4/BLE_cgms.c **** * 
 123:Generated_Source\PSoC4/BLE_cgms.c **** 
 124:Generated_Source\PSoC4/BLE_cgms.c **** ******************************************************************************/
 125:Generated_Source\PSoC4/BLE_cgms.c **** void CyBle_CgmsInit(void)
 126:Generated_Source\PSoC4/BLE_cgms.c **** {
  28              		.loc 1 126 0
  29              		.cfi_startproc
  30              		@ args = 0, pretend = 0, frame = 0
  31              		@ frame_needed = 0, uses_anonymous_args = 0
  32              		@ link register save eliminated.
 127:Generated_Source\PSoC4/BLE_cgms.c **** #ifdef CYBLE_CGMS_SERVER
 128:Generated_Source\PSoC4/BLE_cgms.c ****     cyBle_cgmsFlag = 0u;
  33              		.loc 1 128 0
  34 0000 0023     		movs	r3, #0
  35 0002 024A     		ldr	r2, .L2
 129:Generated_Source\PSoC4/BLE_cgms.c ****     cyBle_cgmssReqHandle = CYBLE_GATT_INVALID_ATTR_HANDLE_VALUE;
 130:Generated_Source\PSoC4/BLE_cgms.c **** #endif /* CYBLE_CGMS_SERVER */
 131:Generated_Source\PSoC4/BLE_cgms.c **** #ifdef CYBLE_CGMS_CLIENT
 132:Generated_Source\PSoC4/BLE_cgms.c ****     if(cyBle_serverInfo[CYBLE_SRVI_CGMS].range.startHandle == CYBLE_GATT_INVALID_ATTR_HANDLE_VALUE)
 133:Generated_Source\PSoC4/BLE_cgms.c ****     {
 134:Generated_Source\PSoC4/BLE_cgms.c ****         (void)memset(&cyBle_cgmsc, 0, sizeof(cyBle_cgmsc));
 135:Generated_Source\PSoC4/BLE_cgms.c ****     }
 136:Generated_Source\PSoC4/BLE_cgms.c ****     cyBle_cgmscReqHandle = CYBLE_GATT_INVALID_ATTR_HANDLE_VALUE;
ARM GAS  C:\Users\user\AppData\Local\Temp\ccpxaLkD.s 			page 4


 137:Generated_Source\PSoC4/BLE_cgms.c **** #endif /* CYBLE_GATT_ROLE_CLIENT */
 138:Generated_Source\PSoC4/BLE_cgms.c **** }
  36              		.loc 1 138 0
  37              		@ sp needed
 128:Generated_Source\PSoC4/BLE_cgms.c ****     cyBle_cgmssReqHandle = CYBLE_GATT_INVALID_ATTR_HANDLE_VALUE;
  38              		.loc 1 128 0
  39 0004 1370     		strb	r3, [r2]
 129:Generated_Source\PSoC4/BLE_cgms.c ****     cyBle_cgmssReqHandle = CYBLE_GATT_INVALID_ATTR_HANDLE_VALUE;
  40              		.loc 1 129 0
  41 0006 024A     		ldr	r2, .L2+4
  42 0008 1380     		strh	r3, [r2]
  43              		.loc 1 138 0
  44 000a 7047     		bx	lr
  45              	.L3:
  46              		.align	2
  47              	.L2:
  48 000c 00000000 		.word	cyBle_cgmsFlag
  49 0010 00000000 		.word	.LANCHOR0
  50              		.cfi_endproc
  51              	.LFE2:
  52              		.size	CyBle_CgmsInit, .-CyBle_CgmsInit
  53              		.section	.text.CyBle_CgmsRegisterAttrCallback,"ax",%progbits
  54              		.align	1
  55              		.global	CyBle_CgmsRegisterAttrCallback
  56              		.code	16
  57              		.thumb_func
  58              		.type	CyBle_CgmsRegisterAttrCallback, %function
  59              	CyBle_CgmsRegisterAttrCallback:
  60              	.LFB3:
 139:Generated_Source\PSoC4/BLE_cgms.c **** 
 140:Generated_Source\PSoC4/BLE_cgms.c **** 
 141:Generated_Source\PSoC4/BLE_cgms.c **** /******************************************************************************
 142:Generated_Source\PSoC4/BLE_cgms.c **** * Function Name: CyBle_CgmsRegisterAttrCallback
 143:Generated_Source\PSoC4/BLE_cgms.c **** ***************************************************************************//**
 144:Generated_Source\PSoC4/BLE_cgms.c **** * 
 145:Generated_Source\PSoC4/BLE_cgms.c **** *  Registers a callback function for service specific attribute operations.
 146:Generated_Source\PSoC4/BLE_cgms.c **** *  Service specific write requests from peer device will not be handled with
 147:Generated_Source\PSoC4/BLE_cgms.c **** *  unregistered callback function.
 148:Generated_Source\PSoC4/BLE_cgms.c **** * 
 149:Generated_Source\PSoC4/BLE_cgms.c **** *  \param callbackFunc:  An application layer event callback function to receive 
 150:Generated_Source\PSoC4/BLE_cgms.c **** *                    events from the BLE Component. The definition of 
 151:Generated_Source\PSoC4/BLE_cgms.c **** *                    CYBLE_CALLBACK_T for CGM Service is,       
 152:Generated_Source\PSoC4/BLE_cgms.c **** *                    typedef void (* CYBLE_CALLBACK_T) (uint32 eventCode, 
 153:Generated_Source\PSoC4/BLE_cgms.c **** *                                                       void *eventParam)
 154:Generated_Source\PSoC4/BLE_cgms.c **** *                    * eventCode indicates the event that triggered this 
 155:Generated_Source\PSoC4/BLE_cgms.c **** *                      callback.
 156:Generated_Source\PSoC4/BLE_cgms.c **** *                    * eventParam contains the parameters corresponding to the 
 157:Generated_Source\PSoC4/BLE_cgms.c **** *                      current event.
 158:Generated_Source\PSoC4/BLE_cgms.c **** * 
 159:Generated_Source\PSoC4/BLE_cgms.c **** 
 160:Generated_Source\PSoC4/BLE_cgms.c **** * \sideeffect The *eventParams in the callback function should not be used 
 161:Generated_Source\PSoC4/BLE_cgms.c **** *                by the application once the callback function execution is 
 162:Generated_Source\PSoC4/BLE_cgms.c **** *                finished. Otherwise this data may become corrupted.
 163:Generated_Source\PSoC4/BLE_cgms.c **** * 
 164:Generated_Source\PSoC4/BLE_cgms.c **** ******************************************************************************/
 165:Generated_Source\PSoC4/BLE_cgms.c **** void CyBle_CgmsRegisterAttrCallback(CYBLE_CALLBACK_T callbackFunc)
 166:Generated_Source\PSoC4/BLE_cgms.c **** {
ARM GAS  C:\Users\user\AppData\Local\Temp\ccpxaLkD.s 			page 5


  61              		.loc 1 166 0
  62              		.cfi_startproc
  63              		@ args = 0, pretend = 0, frame = 0
  64              		@ frame_needed = 0, uses_anonymous_args = 0
  65              		@ link register save eliminated.
  66              	.LVL0:
 167:Generated_Source\PSoC4/BLE_cgms.c ****     CyBle_CgmsApplCallback = callbackFunc;
  67              		.loc 1 167 0
  68 0000 014B     		ldr	r3, .L5
 168:Generated_Source\PSoC4/BLE_cgms.c **** }
  69              		.loc 1 168 0
  70              		@ sp needed
 167:Generated_Source\PSoC4/BLE_cgms.c ****     CyBle_CgmsApplCallback = callbackFunc;
  71              		.loc 1 167 0
  72 0002 5860     		str	r0, [r3, #4]
  73              		.loc 1 168 0
  74 0004 7047     		bx	lr
  75              	.L6:
  76 0006 C046     		.align	2
  77              	.L5:
  78 0008 00000000 		.word	.LANCHOR0
  79              		.cfi_endproc
  80              	.LFE3:
  81              		.size	CyBle_CgmsRegisterAttrCallback, .-CyBle_CgmsRegisterAttrCallback
  82              		.section	.text.CyBle_CgmssSetCharacteristicValue,"ax",%progbits
  83              		.align	1
  84              		.global	CyBle_CgmssSetCharacteristicValue
  85              		.code	16
  86              		.thumb_func
  87              		.type	CyBle_CgmssSetCharacteristicValue, %function
  88              	CyBle_CgmssSetCharacteristicValue:
  89              	.LFB4:
 169:Generated_Source\PSoC4/BLE_cgms.c **** 
 170:Generated_Source\PSoC4/BLE_cgms.c **** 
 171:Generated_Source\PSoC4/BLE_cgms.c **** #ifdef CYBLE_CGMS_SERVER
 172:Generated_Source\PSoC4/BLE_cgms.c **** 
 173:Generated_Source\PSoC4/BLE_cgms.c **** 
 174:Generated_Source\PSoC4/BLE_cgms.c **** /******************************************************************************
 175:Generated_Source\PSoC4/BLE_cgms.c **** * Function Name: CyBle_CgmssSetCharacteristicValue
 176:Generated_Source\PSoC4/BLE_cgms.c **** ***************************************************************************//**
 177:Generated_Source\PSoC4/BLE_cgms.c **** * 
 178:Generated_Source\PSoC4/BLE_cgms.c **** *  Sets a characteristic value of the service identified by charIndex.
 179:Generated_Source\PSoC4/BLE_cgms.c **** * 
 180:Generated_Source\PSoC4/BLE_cgms.c **** *  \param charIndex: The index of a service characteristic.
 181:Generated_Source\PSoC4/BLE_cgms.c **** *  \param attrSize: The size of the characteristic value attribute.
 182:Generated_Source\PSoC4/BLE_cgms.c **** *  \param attrValue: The pointer to the characteristic value data that should be
 183:Generated_Source\PSoC4/BLE_cgms.c **** *               stored in the GATT database.
 184:Generated_Source\PSoC4/BLE_cgms.c **** * 
 185:Generated_Source\PSoC4/BLE_cgms.c **** * \return
 186:Generated_Source\PSoC4/BLE_cgms.c **** *  The return value is of type CYBLE_API_RESULT_T.
 187:Generated_Source\PSoC4/BLE_cgms.c **** *  * CYBLE_ERROR_OK - The request handled successfully.
 188:Generated_Source\PSoC4/BLE_cgms.c **** *  * CYBLE_ERROR_INVALID_PARAMETER - Validation of the input parameter failed.
 189:Generated_Source\PSoC4/BLE_cgms.c **** *  * CYBLE_ERROR_GATT_DB_INVALID_ATTR_HANDLE - An optional characteristic is absent.
 190:Generated_Source\PSoC4/BLE_cgms.c **** 
 191:Generated_Source\PSoC4/BLE_cgms.c **** ******************************************************************************/
 192:Generated_Source\PSoC4/BLE_cgms.c **** CYBLE_API_RESULT_T CyBle_CgmssSetCharacteristicValue(CYBLE_CGMS_CHAR_INDEX_T charIndex, uint8 attrS
 193:Generated_Source\PSoC4/BLE_cgms.c **** {
ARM GAS  C:\Users\user\AppData\Local\Temp\ccpxaLkD.s 			page 6


  90              		.loc 1 193 0
  91              		.cfi_startproc
  92              		@ args = 0, pretend = 0, frame = 16
  93              		@ frame_needed = 0, uses_anonymous_args = 0
  94              	.LVL1:
  95 0000 1FB5     		push	{r0, r1, r2, r3, r4, lr}
  96              		.cfi_def_cfa_offset 24
  97              		.cfi_offset 0, -24
  98              		.cfi_offset 1, -20
  99              		.cfi_offset 2, -16
 100              		.cfi_offset 3, -12
 101              		.cfi_offset 4, -8
 102              		.cfi_offset 14, -4
 103              		.loc 1 193 0
 104 0002 0300     		movs	r3, r0
 194:Generated_Source\PSoC4/BLE_cgms.c ****     CYBLE_API_RESULT_T apiResult;
 195:Generated_Source\PSoC4/BLE_cgms.c ****     
 196:Generated_Source\PSoC4/BLE_cgms.c ****     /* Check parameters */
 197:Generated_Source\PSoC4/BLE_cgms.c ****     if(charIndex >= CYBLE_CGMS_CHAR_COUNT) 
 198:Generated_Source\PSoC4/BLE_cgms.c ****     {
 199:Generated_Source\PSoC4/BLE_cgms.c ****         apiResult = CYBLE_ERROR_INVALID_PARAMETER;
 105              		.loc 1 199 0
 106 0004 0120     		movs	r0, #1
 107              	.LVL2:
 197:Generated_Source\PSoC4/BLE_cgms.c ****     {
 108              		.loc 1 197 0
 109 0006 062B     		cmp	r3, #6
 110 0008 12D8     		bhi	.L8
 200:Generated_Source\PSoC4/BLE_cgms.c ****     }
 201:Generated_Source\PSoC4/BLE_cgms.c ****     else if(cyBle_cgmss.charInfo[charIndex].charHandle == CYBLE_GATT_INVALID_ATTR_HANDLE_VALUE)
 111              		.loc 1 201 0
 112 000a 0A48     		ldr	r0, .L13
 113 000c 9B00     		lsls	r3, r3, #2
 114 000e C318     		adds	r3, r0, r3
 115 0010 5B88     		ldrh	r3, [r3, #2]
 202:Generated_Source\PSoC4/BLE_cgms.c ****     {
 203:Generated_Source\PSoC4/BLE_cgms.c ****         apiResult = CYBLE_ERROR_GATT_DB_INVALID_ATTR_HANDLE;
 116              		.loc 1 203 0
 117 0012 1320     		movs	r0, #19
 201:Generated_Source\PSoC4/BLE_cgms.c ****     {
 118              		.loc 1 201 0
 119 0014 002B     		cmp	r3, #0
 120 0016 0BD0     		beq	.L8
 121              	.LBB2:
 204:Generated_Source\PSoC4/BLE_cgms.c ****     }
 205:Generated_Source\PSoC4/BLE_cgms.c ****     else
 206:Generated_Source\PSoC4/BLE_cgms.c ****     {
 207:Generated_Source\PSoC4/BLE_cgms.c ****         CYBLE_GATT_HANDLE_VALUE_PAIR_T locHandleValuePair;
 208:Generated_Source\PSoC4/BLE_cgms.c ****         
 209:Generated_Source\PSoC4/BLE_cgms.c ****         /* Store characteristic value into GATT database */
 210:Generated_Source\PSoC4/BLE_cgms.c ****         locHandleValuePair.attrHandle = cyBle_cgmss.charInfo[charIndex].charHandle;
 122              		.loc 1 210 0
 123 0018 01A8     		add	r0, sp, #4
 124 001a 0381     		strh	r3, [r0, #8]
 211:Generated_Source\PSoC4/BLE_cgms.c ****         locHandleValuePair.value.len = attrSize;
 212:Generated_Source\PSoC4/BLE_cgms.c ****         locHandleValuePair.value.val = attrValue;
 213:Generated_Source\PSoC4/BLE_cgms.c ****         
ARM GAS  C:\Users\user\AppData\Local\Temp\ccpxaLkD.s 			page 7


 214:Generated_Source\PSoC4/BLE_cgms.c ****         if(CYBLE_GATT_ERR_NONE != CyBle_GattsWriteAttributeValue(&locHandleValuePair,
 125              		.loc 1 214 0
 126 001c 0023     		movs	r3, #0
 211:Generated_Source\PSoC4/BLE_cgms.c ****         locHandleValuePair.value.len = attrSize;
 127              		.loc 1 211 0
 128 001e 8180     		strh	r1, [r0, #4]
 212:Generated_Source\PSoC4/BLE_cgms.c ****         
 129              		.loc 1 212 0
 130 0020 0192     		str	r2, [sp, #4]
 131              		.loc 1 214 0
 132 0022 1900     		movs	r1, r3
 133              	.LVL3:
 134 0024 1A00     		movs	r2, r3
 135              	.LVL4:
 136 0026 FFF7FEFF 		bl	CyBle_GattsWriteAttributeValue
 137              	.LVL5:
 215:Generated_Source\PSoC4/BLE_cgms.c ****                                     0u, NULL, CYBLE_GATT_DB_LOCALLY_INITIATED))
 216:Generated_Source\PSoC4/BLE_cgms.c ****         {
 217:Generated_Source\PSoC4/BLE_cgms.c ****             apiResult = CYBLE_ERROR_INVALID_PARAMETER;
 138              		.loc 1 217 0
 139 002a 431E     		subs	r3, r0, #1
 140 002c 9841     		sbcs	r0, r0, r3
 141 002e 80B2     		uxth	r0, r0
 142              	.LVL6:
 143              	.L8:
 144              	.LBE2:
 218:Generated_Source\PSoC4/BLE_cgms.c ****         }
 219:Generated_Source\PSoC4/BLE_cgms.c ****         else
 220:Generated_Source\PSoC4/BLE_cgms.c ****         {
 221:Generated_Source\PSoC4/BLE_cgms.c ****             apiResult = CYBLE_ERROR_OK;
 222:Generated_Source\PSoC4/BLE_cgms.c ****         }
 223:Generated_Source\PSoC4/BLE_cgms.c ****     }
 224:Generated_Source\PSoC4/BLE_cgms.c **** 
 225:Generated_Source\PSoC4/BLE_cgms.c ****     return (apiResult);
 226:Generated_Source\PSoC4/BLE_cgms.c **** }
 145              		.loc 1 226 0
 146 0030 05B0     		add	sp, sp, #20
 147              		@ sp needed
 148 0032 00BD     		pop	{pc}
 149              	.L14:
 150              		.align	2
 151              	.L13:
 152 0034 00000000 		.word	.LANCHOR1
 153              		.cfi_endproc
 154              	.LFE4:
 155              		.size	CyBle_CgmssSetCharacteristicValue, .-CyBle_CgmssSetCharacteristicValue
 156              		.section	.text.CyBle_CgmssGetCharacteristicValue,"ax",%progbits
 157              		.align	1
 158              		.global	CyBle_CgmssGetCharacteristicValue
 159              		.code	16
 160              		.thumb_func
 161              		.type	CyBle_CgmssGetCharacteristicValue, %function
 162              	CyBle_CgmssGetCharacteristicValue:
 163              	.LFB5:
 227:Generated_Source\PSoC4/BLE_cgms.c **** 
 228:Generated_Source\PSoC4/BLE_cgms.c **** 
 229:Generated_Source\PSoC4/BLE_cgms.c **** /******************************************************************************
ARM GAS  C:\Users\user\AppData\Local\Temp\ccpxaLkD.s 			page 8


 230:Generated_Source\PSoC4/BLE_cgms.c **** * Function Name: CyBle_CgmssGetCharacteristicValue
 231:Generated_Source\PSoC4/BLE_cgms.c **** ***************************************************************************//**
 232:Generated_Source\PSoC4/BLE_cgms.c **** * 
 233:Generated_Source\PSoC4/BLE_cgms.c **** *  Gets a characteristic value of the service identified by charIndex.
 234:Generated_Source\PSoC4/BLE_cgms.c **** * 
 235:Generated_Source\PSoC4/BLE_cgms.c **** *  \param charIndex: The index of a service characteristic.
 236:Generated_Source\PSoC4/BLE_cgms.c **** *  \param attrSize: The size of the characteristic value attribute.
 237:Generated_Source\PSoC4/BLE_cgms.c **** *  \param attrValue: The pointer to the location where Characteristic value data should 
 238:Generated_Source\PSoC4/BLE_cgms.c **** *               be stored.
 239:Generated_Source\PSoC4/BLE_cgms.c **** * 
 240:Generated_Source\PSoC4/BLE_cgms.c **** * \return
 241:Generated_Source\PSoC4/BLE_cgms.c **** *  The return value is of type CYBLE_API_RESULT_T.
 242:Generated_Source\PSoC4/BLE_cgms.c **** *  * CYBLE_ERROR_OK - The request handled successfully.
 243:Generated_Source\PSoC4/BLE_cgms.c **** *  * CYBLE_ERROR_INVALID_PARAMETER - Validation of the input parameter failed.
 244:Generated_Source\PSoC4/BLE_cgms.c **** *  * CYBLE_ERROR_GATT_DB_INVALID_ATTR_HANDLE - An optional characteristic is absent.
 245:Generated_Source\PSoC4/BLE_cgms.c **** *
 246:Generated_Source\PSoC4/BLE_cgms.c **** ******************************************************************************/
 247:Generated_Source\PSoC4/BLE_cgms.c **** CYBLE_API_RESULT_T CyBle_CgmssGetCharacteristicValue(CYBLE_CGMS_CHAR_INDEX_T charIndex, uint8 attrS
 248:Generated_Source\PSoC4/BLE_cgms.c **** {
 164              		.loc 1 248 0
 165              		.cfi_startproc
 166              		@ args = 0, pretend = 0, frame = 16
 167              		@ frame_needed = 0, uses_anonymous_args = 0
 168              	.LVL7:
 169 0000 1FB5     		push	{r0, r1, r2, r3, r4, lr}
 170              		.cfi_def_cfa_offset 24
 171              		.cfi_offset 0, -24
 172              		.cfi_offset 1, -20
 173              		.cfi_offset 2, -16
 174              		.cfi_offset 3, -12
 175              		.cfi_offset 4, -8
 176              		.cfi_offset 14, -4
 177              		.loc 1 248 0
 178 0002 0300     		movs	r3, r0
 249:Generated_Source\PSoC4/BLE_cgms.c ****     CYBLE_API_RESULT_T apiResult;
 250:Generated_Source\PSoC4/BLE_cgms.c ****     
 251:Generated_Source\PSoC4/BLE_cgms.c ****     /* Check the parameters */
 252:Generated_Source\PSoC4/BLE_cgms.c ****     if(charIndex >= CYBLE_CGMS_CHAR_COUNT)
 253:Generated_Source\PSoC4/BLE_cgms.c ****     {
 254:Generated_Source\PSoC4/BLE_cgms.c ****         apiResult = CYBLE_ERROR_INVALID_PARAMETER;
 179              		.loc 1 254 0
 180 0004 0120     		movs	r0, #1
 181              	.LVL8:
 252:Generated_Source\PSoC4/BLE_cgms.c ****     {
 182              		.loc 1 252 0
 183 0006 062B     		cmp	r3, #6
 184 0008 11D8     		bhi	.L16
 255:Generated_Source\PSoC4/BLE_cgms.c ****     }
 256:Generated_Source\PSoC4/BLE_cgms.c ****     else if(cyBle_cgmss.charInfo[charIndex].charHandle == CYBLE_GATT_INVALID_ATTR_HANDLE_VALUE)
 185              		.loc 1 256 0
 186 000a 0A48     		ldr	r0, .L20
 187 000c 9B00     		lsls	r3, r3, #2
 188 000e C318     		adds	r3, r0, r3
 189 0010 5B88     		ldrh	r3, [r3, #2]
 257:Generated_Source\PSoC4/BLE_cgms.c ****     {
 258:Generated_Source\PSoC4/BLE_cgms.c ****         apiResult = CYBLE_ERROR_GATT_DB_INVALID_ATTR_HANDLE;
 190              		.loc 1 258 0
ARM GAS  C:\Users\user\AppData\Local\Temp\ccpxaLkD.s 			page 9


 191 0012 1320     		movs	r0, #19
 256:Generated_Source\PSoC4/BLE_cgms.c ****     {
 192              		.loc 1 256 0
 193 0014 002B     		cmp	r3, #0
 194 0016 0AD0     		beq	.L16
 195              	.LBB3:
 259:Generated_Source\PSoC4/BLE_cgms.c ****     }
 260:Generated_Source\PSoC4/BLE_cgms.c ****     else
 261:Generated_Source\PSoC4/BLE_cgms.c ****     {
 262:Generated_Source\PSoC4/BLE_cgms.c ****         CYBLE_GATT_HANDLE_VALUE_PAIR_T locHandleValuePair;
 263:Generated_Source\PSoC4/BLE_cgms.c ****         
 264:Generated_Source\PSoC4/BLE_cgms.c ****         /* Get characteristic value from GATT database */
 265:Generated_Source\PSoC4/BLE_cgms.c ****         locHandleValuePair.attrHandle = cyBle_cgmss.charInfo[charIndex].charHandle;
 266:Generated_Source\PSoC4/BLE_cgms.c ****         locHandleValuePair.value.len = attrSize;
 267:Generated_Source\PSoC4/BLE_cgms.c ****         locHandleValuePair.value.val = attrValue;
 196              		.loc 1 267 0
 197 0018 0192     		str	r2, [sp, #4]
 268:Generated_Source\PSoC4/BLE_cgms.c ****         
 269:Generated_Source\PSoC4/BLE_cgms.c ****         if(CYBLE_GATT_ERR_NONE != CyBle_GattsReadAttributeValue(&locHandleValuePair,
 198              		.loc 1 269 0
 199 001a 0022     		movs	r2, #0
 200              	.LVL9:
 265:Generated_Source\PSoC4/BLE_cgms.c ****         locHandleValuePair.value.len = attrSize;
 201              		.loc 1 265 0
 202 001c 01A8     		add	r0, sp, #4
 203              	.LVL10:
 266:Generated_Source\PSoC4/BLE_cgms.c ****         locHandleValuePair.value.val = attrValue;
 204              		.loc 1 266 0
 205 001e 8180     		strh	r1, [r0, #4]
 206              		.loc 1 269 0
 207 0020 1100     		movs	r1, r2
 208              	.LVL11:
 265:Generated_Source\PSoC4/BLE_cgms.c ****         locHandleValuePair.value.len = attrSize;
 209              		.loc 1 265 0
 210 0022 0381     		strh	r3, [r0, #8]
 211              		.loc 1 269 0
 212 0024 FFF7FEFF 		bl	CyBle_GattsReadAttributeValue
 213              	.LVL12:
 270:Generated_Source\PSoC4/BLE_cgms.c ****                                     0u, CYBLE_GATT_DB_LOCALLY_INITIATED))
 271:Generated_Source\PSoC4/BLE_cgms.c ****         {
 272:Generated_Source\PSoC4/BLE_cgms.c ****             apiResult = CYBLE_ERROR_INVALID_PARAMETER;
 214              		.loc 1 272 0
 215 0028 431E     		subs	r3, r0, #1
 216 002a 9841     		sbcs	r0, r0, r3
 217 002c 80B2     		uxth	r0, r0
 218              	.LVL13:
 219              	.L16:
 220              	.LBE3:
 273:Generated_Source\PSoC4/BLE_cgms.c ****         }
 274:Generated_Source\PSoC4/BLE_cgms.c ****         else
 275:Generated_Source\PSoC4/BLE_cgms.c ****         {
 276:Generated_Source\PSoC4/BLE_cgms.c ****             apiResult = CYBLE_ERROR_OK;
 277:Generated_Source\PSoC4/BLE_cgms.c ****         }
 278:Generated_Source\PSoC4/BLE_cgms.c ****     }
 279:Generated_Source\PSoC4/BLE_cgms.c **** 
 280:Generated_Source\PSoC4/BLE_cgms.c ****     return (apiResult);
 281:Generated_Source\PSoC4/BLE_cgms.c **** }
ARM GAS  C:\Users\user\AppData\Local\Temp\ccpxaLkD.s 			page 10


 221              		.loc 1 281 0
 222 002e 05B0     		add	sp, sp, #20
 223              		@ sp needed
 224 0030 00BD     		pop	{pc}
 225              	.L21:
 226 0032 C046     		.align	2
 227              	.L20:
 228 0034 00000000 		.word	.LANCHOR1
 229              		.cfi_endproc
 230              	.LFE5:
 231              		.size	CyBle_CgmssGetCharacteristicValue, .-CyBle_CgmssGetCharacteristicValue
 232              		.section	.text.CyBle_CgmssSetCharacteristicDescriptor,"ax",%progbits
 233              		.align	1
 234              		.global	CyBle_CgmssSetCharacteristicDescriptor
 235              		.code	16
 236              		.thumb_func
 237              		.type	CyBle_CgmssSetCharacteristicDescriptor, %function
 238              	CyBle_CgmssSetCharacteristicDescriptor:
 239              	.LFB6:
 282:Generated_Source\PSoC4/BLE_cgms.c **** 
 283:Generated_Source\PSoC4/BLE_cgms.c **** 
 284:Generated_Source\PSoC4/BLE_cgms.c **** /****************************************************************************** 
 285:Generated_Source\PSoC4/BLE_cgms.c **** * Function Name: CyBle_CgmssSetCharacteristicDescriptor
 286:Generated_Source\PSoC4/BLE_cgms.c **** ***************************************************************************//**
 287:Generated_Source\PSoC4/BLE_cgms.c **** * 
 288:Generated_Source\PSoC4/BLE_cgms.c **** *  Sets a characteristic descriptor of a specified characteristic of the service.
 289:Generated_Source\PSoC4/BLE_cgms.c **** * 
 290:Generated_Source\PSoC4/BLE_cgms.c **** *  \param charIndex:       The index of a service characteristic of type 
 291:Generated_Source\PSoC4/BLE_cgms.c **** *                   CYBLE_CGMS_CHAR_INDEX_T.
 292:Generated_Source\PSoC4/BLE_cgms.c **** *  \param descrIndex:      The index of a service characteristic descriptor of type 
 293:Generated_Source\PSoC4/BLE_cgms.c **** *                   CYBLE_CGMS_DESCR_INDEX_T.
 294:Generated_Source\PSoC4/BLE_cgms.c **** *  \param attrSize:        The size of the characteristic descriptor attribute.
 295:Generated_Source\PSoC4/BLE_cgms.c **** *  \param attrValue:      The pointer to the descriptor value data that should 
 296:Generated_Source\PSoC4/BLE_cgms.c **** *                   be stored to the GATT database. 
 297:Generated_Source\PSoC4/BLE_cgms.c **** * 
 298:Generated_Source\PSoC4/BLE_cgms.c **** * \return
 299:Generated_Source\PSoC4/BLE_cgms.c **** *  The return value is of type CYBLE_API_RESULT_T.
 300:Generated_Source\PSoC4/BLE_cgms.c **** *  * CYBLE_ERROR_OK - The request is handled successfully.
 301:Generated_Source\PSoC4/BLE_cgms.c **** *  * CYBLE_ERROR_INVALID_PARAMETER - Validation of the input parameter failed.
 302:Generated_Source\PSoC4/BLE_cgms.c **** *
 303:Generated_Source\PSoC4/BLE_cgms.c **** ******************************************************************************/
 304:Generated_Source\PSoC4/BLE_cgms.c **** CYBLE_API_RESULT_T CyBle_CgmssSetCharacteristicDescriptor(CYBLE_CGMS_CHAR_INDEX_T charIndex,
 305:Generated_Source\PSoC4/BLE_cgms.c ****     CYBLE_CGMS_DESCR_INDEX_T descrIndex, uint8 attrSize, uint8 *attrValue)
 306:Generated_Source\PSoC4/BLE_cgms.c **** {
 240              		.loc 1 306 0
 241              		.cfi_startproc
 242              		@ args = 0, pretend = 0, frame = 16
 243              		@ frame_needed = 0, uses_anonymous_args = 0
 244              	.LVL14:
 245 0000 30B5     		push	{r4, r5, lr}
 246              		.cfi_def_cfa_offset 12
 247              		.cfi_offset 4, -12
 248              		.cfi_offset 5, -8
 249              		.cfi_offset 14, -4
 250 0002 0400     		movs	r4, r0
 251 0004 85B0     		sub	sp, sp, #20
 252              		.cfi_def_cfa_offset 32
ARM GAS  C:\Users\user\AppData\Local\Temp\ccpxaLkD.s 			page 11


 307:Generated_Source\PSoC4/BLE_cgms.c ****     CYBLE_API_RESULT_T apiResult = CYBLE_ERROR_OK;
 308:Generated_Source\PSoC4/BLE_cgms.c ****     CYBLE_GATT_HANDLE_VALUE_PAIR_T locHandleValuePair;
 309:Generated_Source\PSoC4/BLE_cgms.c **** 
 310:Generated_Source\PSoC4/BLE_cgms.c ****     if((charIndex >= CYBLE_CGMS_CHAR_COUNT) || (descrIndex >= CYBLE_CGMS_DESCR_COUNT))
 311:Generated_Source\PSoC4/BLE_cgms.c ****     {
 312:Generated_Source\PSoC4/BLE_cgms.c ****         apiResult = CYBLE_ERROR_INVALID_PARAMETER;
 253              		.loc 1 312 0
 254 0006 0120     		movs	r0, #1
 255              	.LVL15:
 310:Generated_Source\PSoC4/BLE_cgms.c ****     {
 256              		.loc 1 310 0
 257 0008 062C     		cmp	r4, #6
 258 000a 10D8     		bhi	.L23
 310:Generated_Source\PSoC4/BLE_cgms.c ****     {
 259              		.loc 1 310 0 is_stmt 0 discriminator 1
 260 000c 0029     		cmp	r1, #0
 261 000e 0ED1     		bne	.L23
 313:Generated_Source\PSoC4/BLE_cgms.c ****     }
 314:Generated_Source\PSoC4/BLE_cgms.c ****     else
 315:Generated_Source\PSoC4/BLE_cgms.c ****     {
 316:Generated_Source\PSoC4/BLE_cgms.c ****         locHandleValuePair.attrHandle = cyBle_cgmss.charInfo[charIndex].descrHandle[descrIndex];
 262              		.loc 1 316 0 is_stmt 1
 263 0010 084D     		ldr	r5, .L26
 264 0012 A400     		lsls	r4, r4, #2
 265 0014 2C19     		adds	r4, r5, r4
 266 0016 01A8     		add	r0, sp, #4
 267 0018 A488     		ldrh	r4, [r4, #4]
 317:Generated_Source\PSoC4/BLE_cgms.c ****         locHandleValuePair.value.len = attrSize;
 268              		.loc 1 317 0
 269 001a 8280     		strh	r2, [r0, #4]
 318:Generated_Source\PSoC4/BLE_cgms.c ****         locHandleValuePair.value.val = attrValue;
 270              		.loc 1 318 0
 271 001c 0193     		str	r3, [sp, #4]
 319:Generated_Source\PSoC4/BLE_cgms.c ****         if(CYBLE_GATT_ERR_NONE !=
 320:Generated_Source\PSoC4/BLE_cgms.c ****                 CyBle_GattsWriteAttributeValue(&locHandleValuePair, 0u, NULL, CYBLE_GATT_DB_LOCALLY
 272              		.loc 1 320 0
 273 001e 0A00     		movs	r2, r1
 274              	.LVL16:
 275 0020 0B00     		movs	r3, r1
 276              	.LVL17:
 316:Generated_Source\PSoC4/BLE_cgms.c ****         locHandleValuePair.value.len = attrSize;
 277              		.loc 1 316 0
 278 0022 0481     		strh	r4, [r0, #8]
 279              		.loc 1 320 0
 280 0024 FFF7FEFF 		bl	CyBle_GattsWriteAttributeValue
 281              	.LVL18:
 312:Generated_Source\PSoC4/BLE_cgms.c ****     }
 282              		.loc 1 312 0
 283 0028 431E     		subs	r3, r0, #1
 284 002a 9841     		sbcs	r0, r0, r3
 285 002c 80B2     		uxth	r0, r0
 286              	.L23:
 287              	.LVL19:
 321:Generated_Source\PSoC4/BLE_cgms.c ****         {
 322:Generated_Source\PSoC4/BLE_cgms.c ****             apiResult = CYBLE_ERROR_INVALID_PARAMETER;
 323:Generated_Source\PSoC4/BLE_cgms.c ****         }
 324:Generated_Source\PSoC4/BLE_cgms.c ****     }
ARM GAS  C:\Users\user\AppData\Local\Temp\ccpxaLkD.s 			page 12


 325:Generated_Source\PSoC4/BLE_cgms.c ****     return (apiResult);
 326:Generated_Source\PSoC4/BLE_cgms.c **** }
 288              		.loc 1 326 0
 289 002e 05B0     		add	sp, sp, #20
 290              		@ sp needed
 291 0030 30BD     		pop	{r4, r5, pc}
 292              	.L27:
 293 0032 C046     		.align	2
 294              	.L26:
 295 0034 00000000 		.word	.LANCHOR1
 296              		.cfi_endproc
 297              	.LFE6:
 298              		.size	CyBle_CgmssSetCharacteristicDescriptor, .-CyBle_CgmssSetCharacteristicDescriptor
 299              		.section	.text.CyBle_CgmssGetCharacteristicDescriptor,"ax",%progbits
 300              		.align	1
 301              		.global	CyBle_CgmssGetCharacteristicDescriptor
 302              		.code	16
 303              		.thumb_func
 304              		.type	CyBle_CgmssGetCharacteristicDescriptor, %function
 305              	CyBle_CgmssGetCharacteristicDescriptor:
 306              	.LFB7:
 327:Generated_Source\PSoC4/BLE_cgms.c **** 
 328:Generated_Source\PSoC4/BLE_cgms.c **** 
 329:Generated_Source\PSoC4/BLE_cgms.c **** /****************************************************************************** 
 330:Generated_Source\PSoC4/BLE_cgms.c **** * Function Name: CyBle_CgmssGetCharacteristicDescriptor
 331:Generated_Source\PSoC4/BLE_cgms.c **** ***************************************************************************//**
 332:Generated_Source\PSoC4/BLE_cgms.c **** * 
 333:Generated_Source\PSoC4/BLE_cgms.c **** *  Gets a characteristic descriptor of a specified characteristic of the service.
 334:Generated_Source\PSoC4/BLE_cgms.c **** * 
 335:Generated_Source\PSoC4/BLE_cgms.c **** *  \param charIndex:       The index of a service characteristic of type 
 336:Generated_Source\PSoC4/BLE_cgms.c **** *                   CYBLE_CGMS_CHAR_INDEX_T.
 337:Generated_Source\PSoC4/BLE_cgms.c **** *  \param descrIndex:      The index of a service characteristic descriptor of type 
 338:Generated_Source\PSoC4/BLE_cgms.c **** *                   CYBLE_CGMS_DESCR_INDEX_T.
 339:Generated_Source\PSoC4/BLE_cgms.c **** *  \param attrSize:        The size of the characteristic descriptor attribute.
 340:Generated_Source\PSoC4/BLE_cgms.c **** *  \param attrValue:      The pointer to the location where characteristic descriptor
 341:Generated_Source\PSoC4/BLE_cgms.c **** *                   value data should be stored.
 342:Generated_Source\PSoC4/BLE_cgms.c **** * 
 343:Generated_Source\PSoC4/BLE_cgms.c **** * \return
 344:Generated_Source\PSoC4/BLE_cgms.c **** *  The return value is of type CYBLE_API_RESULT_T.
 345:Generated_Source\PSoC4/BLE_cgms.c **** *  * CYBLE_ERROR_OK - The request handled successfully.
 346:Generated_Source\PSoC4/BLE_cgms.c **** *  * CYBLE_ERROR_INVALID_PARAMETER - Validation of the input parameter failed.
 347:Generated_Source\PSoC4/BLE_cgms.c **** *
 348:Generated_Source\PSoC4/BLE_cgms.c **** ******************************************************************************/
 349:Generated_Source\PSoC4/BLE_cgms.c **** CYBLE_API_RESULT_T CyBle_CgmssGetCharacteristicDescriptor(CYBLE_CGMS_CHAR_INDEX_T charIndex,
 350:Generated_Source\PSoC4/BLE_cgms.c ****     CYBLE_CGMS_DESCR_INDEX_T descrIndex, uint8 attrSize, uint8 *attrValue)
 351:Generated_Source\PSoC4/BLE_cgms.c **** {
 307              		.loc 1 351 0
 308              		.cfi_startproc
 309              		@ args = 0, pretend = 0, frame = 16
 310              		@ frame_needed = 0, uses_anonymous_args = 0
 311              	.LVL20:
 312 0000 30B5     		push	{r4, r5, lr}
 313              		.cfi_def_cfa_offset 12
 314              		.cfi_offset 4, -12
 315              		.cfi_offset 5, -8
 316              		.cfi_offset 14, -4
 317 0002 0400     		movs	r4, r0
ARM GAS  C:\Users\user\AppData\Local\Temp\ccpxaLkD.s 			page 13


 318 0004 85B0     		sub	sp, sp, #20
 319              		.cfi_def_cfa_offset 32
 352:Generated_Source\PSoC4/BLE_cgms.c ****     CYBLE_API_RESULT_T apiResult = CYBLE_ERROR_OK;
 353:Generated_Source\PSoC4/BLE_cgms.c ****     CYBLE_GATT_HANDLE_VALUE_PAIR_T locHandleValuePair;
 354:Generated_Source\PSoC4/BLE_cgms.c **** 
 355:Generated_Source\PSoC4/BLE_cgms.c ****     if((charIndex >= CYBLE_CGMS_CHAR_COUNT) || (descrIndex >= CYBLE_CGMS_DESCR_COUNT))
 356:Generated_Source\PSoC4/BLE_cgms.c ****     {
 357:Generated_Source\PSoC4/BLE_cgms.c ****         apiResult = CYBLE_ERROR_INVALID_PARAMETER;
 320              		.loc 1 357 0
 321 0006 0120     		movs	r0, #1
 322              	.LVL21:
 355:Generated_Source\PSoC4/BLE_cgms.c ****     {
 323              		.loc 1 355 0
 324 0008 062C     		cmp	r4, #6
 325 000a 0FD8     		bhi	.L29
 355:Generated_Source\PSoC4/BLE_cgms.c ****     {
 326              		.loc 1 355 0 is_stmt 0 discriminator 1
 327 000c 0029     		cmp	r1, #0
 328 000e 0DD1     		bne	.L29
 358:Generated_Source\PSoC4/BLE_cgms.c ****     }
 359:Generated_Source\PSoC4/BLE_cgms.c ****     else
 360:Generated_Source\PSoC4/BLE_cgms.c ****     {
 361:Generated_Source\PSoC4/BLE_cgms.c ****         locHandleValuePair.attrHandle = cyBle_cgmss.charInfo[charIndex].descrHandle[descrIndex];
 329              		.loc 1 361 0 is_stmt 1
 330 0010 074D     		ldr	r5, .L32
 331 0012 A400     		lsls	r4, r4, #2
 332 0014 2C19     		adds	r4, r5, r4
 333 0016 01A8     		add	r0, sp, #4
 334 0018 A488     		ldrh	r4, [r4, #4]
 362:Generated_Source\PSoC4/BLE_cgms.c ****         locHandleValuePair.value.len = attrSize;
 335              		.loc 1 362 0
 336 001a 8280     		strh	r2, [r0, #4]
 363:Generated_Source\PSoC4/BLE_cgms.c ****         locHandleValuePair.value.val = attrValue;
 364:Generated_Source\PSoC4/BLE_cgms.c ****         if(CYBLE_GATT_ERR_NONE !=
 365:Generated_Source\PSoC4/BLE_cgms.c ****                 CyBle_GattsReadAttributeValue(&locHandleValuePair, NULL, CYBLE_GATT_DB_LOCALLY_INIT
 337              		.loc 1 365 0
 338 001c 0A00     		movs	r2, r1
 339              	.LVL22:
 363:Generated_Source\PSoC4/BLE_cgms.c ****         locHandleValuePair.value.val = attrValue;
 340              		.loc 1 363 0
 341 001e 0193     		str	r3, [sp, #4]
 361:Generated_Source\PSoC4/BLE_cgms.c ****         locHandleValuePair.value.len = attrSize;
 342              		.loc 1 361 0
 343 0020 0481     		strh	r4, [r0, #8]
 344              		.loc 1 365 0
 345 0022 FFF7FEFF 		bl	CyBle_GattsReadAttributeValue
 346              	.LVL23:
 357:Generated_Source\PSoC4/BLE_cgms.c ****     }
 347              		.loc 1 357 0
 348 0026 431E     		subs	r3, r0, #1
 349 0028 9841     		sbcs	r0, r0, r3
 350 002a 80B2     		uxth	r0, r0
 351              	.L29:
 352              	.LVL24:
 366:Generated_Source\PSoC4/BLE_cgms.c ****         {
 367:Generated_Source\PSoC4/BLE_cgms.c ****             apiResult = CYBLE_ERROR_INVALID_PARAMETER;
 368:Generated_Source\PSoC4/BLE_cgms.c ****         }
ARM GAS  C:\Users\user\AppData\Local\Temp\ccpxaLkD.s 			page 14


 369:Generated_Source\PSoC4/BLE_cgms.c ****     }
 370:Generated_Source\PSoC4/BLE_cgms.c ****     return (apiResult);
 371:Generated_Source\PSoC4/BLE_cgms.c **** }
 353              		.loc 1 371 0
 354 002c 05B0     		add	sp, sp, #20
 355              		@ sp needed
 356 002e 30BD     		pop	{r4, r5, pc}
 357              	.L33:
 358              		.align	2
 359              	.L32:
 360 0030 00000000 		.word	.LANCHOR1
 361              		.cfi_endproc
 362              	.LFE7:
 363              		.size	CyBle_CgmssGetCharacteristicDescriptor, .-CyBle_CgmssGetCharacteristicDescriptor
 364              		.section	.text.CyBle_CgmssSendNotification,"ax",%progbits
 365              		.align	1
 366              		.global	CyBle_CgmssSendNotification
 367              		.code	16
 368              		.thumb_func
 369              		.type	CyBle_CgmssSendNotification, %function
 370              	CyBle_CgmssSendNotification:
 371              	.LFB8:
 372:Generated_Source\PSoC4/BLE_cgms.c **** 
 373:Generated_Source\PSoC4/BLE_cgms.c **** 
 374:Generated_Source\PSoC4/BLE_cgms.c **** /******************************************************************************
 375:Generated_Source\PSoC4/BLE_cgms.c **** * Function Name: CyBle_CgmssSendNotification
 376:Generated_Source\PSoC4/BLE_cgms.c **** ***************************************************************************//**
 377:Generated_Source\PSoC4/BLE_cgms.c **** * 
 378:Generated_Source\PSoC4/BLE_cgms.c **** *  Sends a notification of the specified characteristic to the client device, 
 379:Generated_Source\PSoC4/BLE_cgms.c **** *  as defined by the charIndex value.
 380:Generated_Source\PSoC4/BLE_cgms.c **** *
 381:Generated_Source\PSoC4/BLE_cgms.c **** *  On enabling notification successfully for a service characteristic it sends 
 382:Generated_Source\PSoC4/BLE_cgms.c **** *  out a 'Handle Value Notification' which results in 
 383:Generated_Source\PSoC4/BLE_cgms.c **** *  CYBLE_EVT_CGMSC_NOTIFICATION event at the GATT Client's end.
 384:Generated_Source\PSoC4/BLE_cgms.c **** * 
 385:Generated_Source\PSoC4/BLE_cgms.c **** *  \param connHandle: The connection handle which consists of the device ID and ATT 
 386:Generated_Source\PSoC4/BLE_cgms.c **** *               connection ID.
 387:Generated_Source\PSoC4/BLE_cgms.c **** *  \param charIndex: The index of the service characteristic.
 388:Generated_Source\PSoC4/BLE_cgms.c **** *  \param attrSize: The size of the characteristic value attribute.
 389:Generated_Source\PSoC4/BLE_cgms.c **** *  \param attrValue: The pointer to the Characteristic value data that should be sent 
 390:Generated_Source\PSoC4/BLE_cgms.c **** *               to the client device.
 391:Generated_Source\PSoC4/BLE_cgms.c **** * 
 392:Generated_Source\PSoC4/BLE_cgms.c **** * \return
 393:Generated_Source\PSoC4/BLE_cgms.c **** *  The return value is of type CYBLE_API_RESULT_T.
 394:Generated_Source\PSoC4/BLE_cgms.c **** *   * CYBLE_ERROR_OK - The request handled successfully
 395:Generated_Source\PSoC4/BLE_cgms.c **** *   * CYBLE_ERROR_INVALID_PARAMETER - Validation of the input parameter failed.
 396:Generated_Source\PSoC4/BLE_cgms.c **** *   * CYBLE_ERROR_INVALID_OPERATION - Operation is invalid for this 
 397:Generated_Source\PSoC4/BLE_cgms.c **** *                                      characteristic.
 398:Generated_Source\PSoC4/BLE_cgms.c **** *   * CYBLE_ERROR_GATT_DB_INVALID_ATTR_HANDLE - An optional characteristic is absent.
 399:Generated_Source\PSoC4/BLE_cgms.c **** *   * CYBLE_ERROR_INVALID_STATE - Connection with the client is not established.
 400:Generated_Source\PSoC4/BLE_cgms.c **** *   * CYBLE_ERROR_MEMORY_ALLOCATION_FAILED - Memory allocation failed.
 401:Generated_Source\PSoC4/BLE_cgms.c **** *   * CYBLE_ERROR_NTF_DISABLED - Notification is not enabled by the client.
 402:Generated_Source\PSoC4/BLE_cgms.c **** *
 403:Generated_Source\PSoC4/BLE_cgms.c **** ******************************************************************************/
 404:Generated_Source\PSoC4/BLE_cgms.c **** CYBLE_API_RESULT_T CyBle_CgmssSendNotification(CYBLE_CONN_HANDLE_T connHandle,
 405:Generated_Source\PSoC4/BLE_cgms.c ****                     CYBLE_CGMS_CHAR_INDEX_T charIndex, uint8 attrSize, uint8 *attrValue)
 406:Generated_Source\PSoC4/BLE_cgms.c **** {
ARM GAS  C:\Users\user\AppData\Local\Temp\ccpxaLkD.s 			page 15


 372              		.loc 1 406 0
 373              		.cfi_startproc
 374              		@ args = 0, pretend = 0, frame = 24
 375              		@ frame_needed = 0, uses_anonymous_args = 0
 376              	.LVL25:
 377 0000 F0B5     		push	{r4, r5, r6, r7, lr}
 378              		.cfi_def_cfa_offset 20
 379              		.cfi_offset 4, -20
 380              		.cfi_offset 5, -16
 381              		.cfi_offset 6, -12
 382              		.cfi_offset 7, -8
 383              		.cfi_offset 14, -4
 384 0002 87B0     		sub	sp, sp, #28
 385              		.cfi_def_cfa_offset 48
 386              		.loc 1 406 0
 387 0004 01AC     		add	r4, sp, #4
 388 0006 1E00     		movs	r6, r3
 407:Generated_Source\PSoC4/BLE_cgms.c ****     CYBLE_API_RESULT_T apiResult;
 408:Generated_Source\PSoC4/BLE_cgms.c ****     
 409:Generated_Source\PSoC4/BLE_cgms.c ****     /* Send notification if it is enabled and connected */
 410:Generated_Source\PSoC4/BLE_cgms.c ****     if(CYBLE_STATE_CONNECTED != CyBle_GetState())
 389              		.loc 1 410 0
 390 0008 154B     		ldr	r3, .L41
 391              	.LVL26:
 406:Generated_Source\PSoC4/BLE_cgms.c ****     CYBLE_API_RESULT_T apiResult;
 392              		.loc 1 406 0
 393 000a 2080     		strh	r0, [r4]
 394              		.loc 1 410 0
 395 000c 1B78     		ldrb	r3, [r3]
 406:Generated_Source\PSoC4/BLE_cgms.c ****     CYBLE_API_RESULT_T apiResult;
 396              		.loc 1 406 0
 397 000e 1500     		movs	r5, r2
 398              		.loc 1 410 0
 399 0010 022B     		cmp	r3, #2
 400 0012 1DD1     		bne	.L36
 411:Generated_Source\PSoC4/BLE_cgms.c ****     {
 412:Generated_Source\PSoC4/BLE_cgms.c ****         apiResult = CYBLE_ERROR_INVALID_STATE;
 413:Generated_Source\PSoC4/BLE_cgms.c ****     }
 414:Generated_Source\PSoC4/BLE_cgms.c ****     else if(charIndex >= CYBLE_CGMS_CHAR_COUNT)
 415:Generated_Source\PSoC4/BLE_cgms.c ****     {
 416:Generated_Source\PSoC4/BLE_cgms.c ****         apiResult = CYBLE_ERROR_INVALID_PARAMETER;
 401              		.loc 1 416 0
 402 0014 0120     		movs	r0, #1
 414:Generated_Source\PSoC4/BLE_cgms.c ****     {
 403              		.loc 1 414 0
 404 0016 0629     		cmp	r1, #6
 405 0018 1FD8     		bhi	.L35
 417:Generated_Source\PSoC4/BLE_cgms.c ****     }
 418:Generated_Source\PSoC4/BLE_cgms.c ****     else if(cyBle_cgmss.charInfo[charIndex].charHandle == CYBLE_GATT_INVALID_ATTR_HANDLE_VALUE)
 406              		.loc 1 418 0
 407 001a 124B     		ldr	r3, .L41+4
 408 001c 8900     		lsls	r1, r1, #2
 409              	.LVL27:
 410 001e 5918     		adds	r1, r3, r1
 411 0020 4F88     		ldrh	r7, [r1, #2]
 419:Generated_Source\PSoC4/BLE_cgms.c ****     {
 420:Generated_Source\PSoC4/BLE_cgms.c ****         apiResult = CYBLE_ERROR_GATT_DB_INVALID_ATTR_HANDLE;
ARM GAS  C:\Users\user\AppData\Local\Temp\ccpxaLkD.s 			page 16


 412              		.loc 1 420 0
 413 0022 1230     		adds	r0, r0, #18
 418:Generated_Source\PSoC4/BLE_cgms.c ****     {
 414              		.loc 1 418 0
 415 0024 002F     		cmp	r7, #0
 416 0026 18D0     		beq	.L35
 421:Generated_Source\PSoC4/BLE_cgms.c ****     }
 422:Generated_Source\PSoC4/BLE_cgms.c ****     else if(!CYBLE_IS_NOTIFICATION_ENABLED(cyBle_cgmss.charInfo[charIndex].descrHandle[CYBLE_CGMS_C
 417              		.loc 1 422 0
 418 0028 1422     		movs	r2, #20
 419              	.LVL28:
 420 002a 8B88     		ldrh	r3, [r1, #4]
 421 002c 013B     		subs	r3, r3, #1
 422 002e 5343     		muls	r3, r2
 423 0030 0D4A     		ldr	r2, .L41+8
 424 0032 D318     		adds	r3, r2, r3
 425 0034 1B69     		ldr	r3, [r3, #16]
 426 0036 5868     		ldr	r0, [r3, #4]
 427 0038 FFF7FEFF 		bl	CyBle_Get16ByPtr
 428              	.LVL29:
 429 003c C307     		lsls	r3, r0, #31
 430 003e 0AD5     		bpl	.L39
 431              	.LBB4:
 423:Generated_Source\PSoC4/BLE_cgms.c ****     {
 424:Generated_Source\PSoC4/BLE_cgms.c ****         apiResult = CYBLE_ERROR_NTF_DISABLED;
 425:Generated_Source\PSoC4/BLE_cgms.c ****     }
 426:Generated_Source\PSoC4/BLE_cgms.c ****     else
 427:Generated_Source\PSoC4/BLE_cgms.c ****     {
 428:Generated_Source\PSoC4/BLE_cgms.c ****         CYBLE_GATTS_HANDLE_VALUE_NTF_T ntfParam;
 429:Generated_Source\PSoC4/BLE_cgms.c ****         
 430:Generated_Source\PSoC4/BLE_cgms.c ****         /* Fill all fields of write request structure ... */
 431:Generated_Source\PSoC4/BLE_cgms.c ****         ntfParam.attrHandle = cyBle_cgmss.charInfo[charIndex].charHandle; 
 432              		.loc 1 431 0
 433 0040 03A9     		add	r1, sp, #12
 432:Generated_Source\PSoC4/BLE_cgms.c ****         ntfParam.value.val = attrValue;
 433:Generated_Source\PSoC4/BLE_cgms.c ****         ntfParam.value.len = attrSize;
 434:Generated_Source\PSoC4/BLE_cgms.c ****         
 435:Generated_Source\PSoC4/BLE_cgms.c ****         /* Send notification to client using previously filled structure */
 436:Generated_Source\PSoC4/BLE_cgms.c ****         apiResult = CyBle_GattsNotification(connHandle, &ntfParam);
 434              		.loc 1 436 0
 435 0042 2068     		ldr	r0, [r4]
 431:Generated_Source\PSoC4/BLE_cgms.c ****         ntfParam.value.val = attrValue;
 436              		.loc 1 431 0
 437 0044 0F81     		strh	r7, [r1, #8]
 432:Generated_Source\PSoC4/BLE_cgms.c ****         ntfParam.value.val = attrValue;
 438              		.loc 1 432 0
 439 0046 0396     		str	r6, [sp, #12]
 433:Generated_Source\PSoC4/BLE_cgms.c ****         
 440              		.loc 1 433 0
 441 0048 8D80     		strh	r5, [r1, #4]
 442              		.loc 1 436 0
 443 004a FFF7FEFF 		bl	CyBle_GattsNotification
 444              	.LVL30:
 445 004e 04E0     		b	.L35
 446              	.LVL31:
 447              	.L36:
 448              	.LBE4:
ARM GAS  C:\Users\user\AppData\Local\Temp\ccpxaLkD.s 			page 17


 412:Generated_Source\PSoC4/BLE_cgms.c ****     }
 449              		.loc 1 412 0
 450 0050 0420     		movs	r0, #4
 451 0052 FF30     		adds	r0, r0, #255
 452 0054 01E0     		b	.L35
 453              	.LVL32:
 454              	.L39:
 424:Generated_Source\PSoC4/BLE_cgms.c ****     }
 455              		.loc 1 424 0
 456 0056 8020     		movs	r0, #128
 457 0058 4000     		lsls	r0, r0, #1
 458              	.L35:
 459              	.LVL33:
 437:Generated_Source\PSoC4/BLE_cgms.c ****     }
 438:Generated_Source\PSoC4/BLE_cgms.c **** 
 439:Generated_Source\PSoC4/BLE_cgms.c ****     return (apiResult);
 440:Generated_Source\PSoC4/BLE_cgms.c **** }
 460              		.loc 1 440 0
 461 005a 07B0     		add	sp, sp, #28
 462              		@ sp needed
 463              	.LVL34:
 464 005c F0BD     		pop	{r4, r5, r6, r7, pc}
 465              	.L42:
 466 005e C046     		.align	2
 467              	.L41:
 468 0060 00000000 		.word	cyBle_state
 469 0064 00000000 		.word	.LANCHOR1
 470 0068 00000000 		.word	cyBle_gattDB
 471              		.cfi_endproc
 472              	.LFE8:
 473              		.size	CyBle_CgmssSendNotification, .-CyBle_CgmssSendNotification
 474              		.section	.text.CyBle_CgmssSendIndication,"ax",%progbits
 475              		.align	1
 476              		.global	CyBle_CgmssSendIndication
 477              		.code	16
 478              		.thumb_func
 479              		.type	CyBle_CgmssSendIndication, %function
 480              	CyBle_CgmssSendIndication:
 481              	.LFB9:
 441:Generated_Source\PSoC4/BLE_cgms.c **** 
 442:Generated_Source\PSoC4/BLE_cgms.c **** 
 443:Generated_Source\PSoC4/BLE_cgms.c **** /******************************************************************************
 444:Generated_Source\PSoC4/BLE_cgms.c **** * Function Name: CyBle_CgmssSendIndication
 445:Generated_Source\PSoC4/BLE_cgms.c **** ***************************************************************************//**
 446:Generated_Source\PSoC4/BLE_cgms.c **** * 
 447:Generated_Source\PSoC4/BLE_cgms.c **** *  Sends an indication of the specified characteristic to the client device, as
 448:Generated_Source\PSoC4/BLE_cgms.c **** *  defined by the charIndex value.
 449:Generated_Source\PSoC4/BLE_cgms.c **** *  
 450:Generated_Source\PSoC4/BLE_cgms.c **** *  On enabling indication successfully it sends out a 'Handle Value Indication'
 451:Generated_Source\PSoC4/BLE_cgms.c **** *  which results in CYBLE_EVT_CGMSC_INDICATION or 
 452:Generated_Source\PSoC4/BLE_cgms.c **** *  CYBLE_EVT_GATTC_HANDLE_VALUE_IND (if service specific callback function is 
 453:Generated_Source\PSoC4/BLE_cgms.c **** *  not registered) event at the GATT Client's end.
 454:Generated_Source\PSoC4/BLE_cgms.c **** *
 455:Generated_Source\PSoC4/BLE_cgms.c **** *  \param connHandle: The connection handle which consists of the device ID and ATT 
 456:Generated_Source\PSoC4/BLE_cgms.c **** *               connection ID.
 457:Generated_Source\PSoC4/BLE_cgms.c **** *  \param charIndex: The index of the service characteristic.
 458:Generated_Source\PSoC4/BLE_cgms.c **** *  \param attrSize: The size of the characteristic value attribute.
ARM GAS  C:\Users\user\AppData\Local\Temp\ccpxaLkD.s 			page 18


 459:Generated_Source\PSoC4/BLE_cgms.c **** *  \param attrValue: The pointer to the Characteristic value data that should be sent 
 460:Generated_Source\PSoC4/BLE_cgms.c **** *               to Client device.
 461:Generated_Source\PSoC4/BLE_cgms.c **** * 
 462:Generated_Source\PSoC4/BLE_cgms.c **** * \return
 463:Generated_Source\PSoC4/BLE_cgms.c **** *  The return value is of type CYBLE_API_RESULT_T.
 464:Generated_Source\PSoC4/BLE_cgms.c **** *   * CYBLE_ERROR_OK - The request handled successfully
 465:Generated_Source\PSoC4/BLE_cgms.c **** *   * CYBLE_ERROR_INVALID_PARAMETER - Validation of the input parameter failed.
 466:Generated_Source\PSoC4/BLE_cgms.c **** *   * CYBLE_ERROR_INVALID_OPERATION - Operation is invalid for this 
 467:Generated_Source\PSoC4/BLE_cgms.c **** *                                      characteristic.
 468:Generated_Source\PSoC4/BLE_cgms.c **** *   * CYBLE_ERROR_GATT_DB_INVALID_ATTR_HANDLE - An optional characteristic is absent.
 469:Generated_Source\PSoC4/BLE_cgms.c **** *   * CYBLE_ERROR_INVALID_STATE - Connection with the client is not established.
 470:Generated_Source\PSoC4/BLE_cgms.c **** *   * CYBLE_ERROR_MEMORY_ALLOCATION_FAILED - Memory allocation failed.
 471:Generated_Source\PSoC4/BLE_cgms.c **** *   * CYBLE_ERROR_IND_DISABLED - Indication is not enabled by the client.
 472:Generated_Source\PSoC4/BLE_cgms.c **** *
 473:Generated_Source\PSoC4/BLE_cgms.c **** * \events
 474:Generated_Source\PSoC4/BLE_cgms.c **** *  In case of successful execution (return value = CYBLE_ERROR_OK)
 475:Generated_Source\PSoC4/BLE_cgms.c **** *  the next events can appear: \n
 476:Generated_Source\PSoC4/BLE_cgms.c **** *   If the CGMS service-specific callback is registered 
 477:Generated_Source\PSoC4/BLE_cgms.c **** *      (with CyBle_CgmsRegisterAttrCallback):
 478:Generated_Source\PSoC4/BLE_cgms.c **** *  * CYBLE_EVT_CGMSS_INDICATION_CONFIRMED - in case if the indication is
 479:Generated_Source\PSoC4/BLE_cgms.c **** *                                successfully delivered to the peer device.
 480:Generated_Source\PSoC4/BLE_cgms.c **** *  .
 481:Generated_Source\PSoC4/BLE_cgms.c **** *   Otherwise (if the CGMS service-specific callback is not registered):
 482:Generated_Source\PSoC4/BLE_cgms.c **** *  * CYBLE_EVT_GATTS_HANDLE_VALUE_CNF - in case if the indication is
 483:Generated_Source\PSoC4/BLE_cgms.c **** *                                successfully delivered to the peer device.
 484:Generated_Source\PSoC4/BLE_cgms.c **** *
 485:Generated_Source\PSoC4/BLE_cgms.c **** ******************************************************************************/
 486:Generated_Source\PSoC4/BLE_cgms.c **** CYBLE_API_RESULT_T CyBle_CgmssSendIndication(CYBLE_CONN_HANDLE_T connHandle,
 487:Generated_Source\PSoC4/BLE_cgms.c ****                     CYBLE_CGMS_CHAR_INDEX_T charIndex, uint8 attrSize, uint8 *attrValue)
 488:Generated_Source\PSoC4/BLE_cgms.c **** {
 482              		.loc 1 488 0
 483              		.cfi_startproc
 484              		@ args = 0, pretend = 0, frame = 24
 485              		@ frame_needed = 0, uses_anonymous_args = 0
 486              	.LVL35:
 487 0000 F0B5     		push	{r4, r5, r6, r7, lr}
 488              		.cfi_def_cfa_offset 20
 489              		.cfi_offset 4, -20
 490              		.cfi_offset 5, -16
 491              		.cfi_offset 6, -12
 492              		.cfi_offset 7, -8
 493              		.cfi_offset 14, -4
 494 0002 87B0     		sub	sp, sp, #28
 495              		.cfi_def_cfa_offset 48
 496              		.loc 1 488 0
 497 0004 01AE     		add	r6, sp, #4
 498 0006 1F00     		movs	r7, r3
 489:Generated_Source\PSoC4/BLE_cgms.c ****     CYBLE_API_RESULT_T apiResult;
 490:Generated_Source\PSoC4/BLE_cgms.c ****     
 491:Generated_Source\PSoC4/BLE_cgms.c ****     /* Send indication if it is enabled and connected */
 492:Generated_Source\PSoC4/BLE_cgms.c ****     if(CYBLE_STATE_CONNECTED != CyBle_GetState())
 499              		.loc 1 492 0
 500 0008 174B     		ldr	r3, .L52
 501              	.LVL36:
 488:Generated_Source\PSoC4/BLE_cgms.c ****     CYBLE_API_RESULT_T apiResult;
 502              		.loc 1 488 0
 503 000a 3080     		strh	r0, [r6]
ARM GAS  C:\Users\user\AppData\Local\Temp\ccpxaLkD.s 			page 19


 504              		.loc 1 492 0
 505 000c 1D78     		ldrb	r5, [r3]
 488:Generated_Source\PSoC4/BLE_cgms.c ****     CYBLE_API_RESULT_T apiResult;
 506              		.loc 1 488 0
 507 000e 0092     		str	r2, [sp]
 493:Generated_Source\PSoC4/BLE_cgms.c ****     {
 494:Generated_Source\PSoC4/BLE_cgms.c ****         apiResult = CYBLE_ERROR_INVALID_STATE;
 508              		.loc 1 494 0
 509 0010 0420     		movs	r0, #4
 492:Generated_Source\PSoC4/BLE_cgms.c ****     {
 510              		.loc 1 492 0
 511 0012 022D     		cmp	r5, #2
 512 0014 25D1     		bne	.L51
 495:Generated_Source\PSoC4/BLE_cgms.c ****     }
 496:Generated_Source\PSoC4/BLE_cgms.c ****     else if(charIndex >= CYBLE_CGMS_CHAR_COUNT)
 497:Generated_Source\PSoC4/BLE_cgms.c ****     {
 498:Generated_Source\PSoC4/BLE_cgms.c ****         apiResult = CYBLE_ERROR_INVALID_PARAMETER;
 513              		.loc 1 498 0
 514 0016 0120     		movs	r0, #1
 496:Generated_Source\PSoC4/BLE_cgms.c ****     {
 515              		.loc 1 496 0
 516 0018 0629     		cmp	r1, #6
 517 001a 23D8     		bhi	.L44
 499:Generated_Source\PSoC4/BLE_cgms.c ****     }
 500:Generated_Source\PSoC4/BLE_cgms.c ****     else if(cyBle_cgmss.charInfo[charIndex].descrHandle[CYBLE_CGMS_CCCD] == CYBLE_GATT_INVALID_ATTR
 518              		.loc 1 500 0
 519 001c 134C     		ldr	r4, .L52+4
 520 001e 8900     		lsls	r1, r1, #2
 521              	.LVL37:
 522 0020 6418     		adds	r4, r4, r1
 523 0022 A388     		ldrh	r3, [r4, #4]
 501:Generated_Source\PSoC4/BLE_cgms.c ****     {
 502:Generated_Source\PSoC4/BLE_cgms.c ****         apiResult = CYBLE_ERROR_GATT_DB_INVALID_ATTR_HANDLE;
 524              		.loc 1 502 0
 525 0024 1230     		adds	r0, r0, #18
 500:Generated_Source\PSoC4/BLE_cgms.c ****     {
 526              		.loc 1 500 0
 527 0026 002B     		cmp	r3, #0
 528 0028 1CD0     		beq	.L44
 503:Generated_Source\PSoC4/BLE_cgms.c ****     }
 504:Generated_Source\PSoC4/BLE_cgms.c ****     else if(!CYBLE_IS_INDICATION_ENABLED(cyBle_cgmss.charInfo[charIndex].descrHandle[CYBLE_CGMS_CCC
 529              		.loc 1 504 0
 530 002a 1422     		movs	r2, #20
 531              	.LVL38:
 532 002c 013B     		subs	r3, r3, #1
 533 002e 5343     		muls	r3, r2
 534 0030 0F4A     		ldr	r2, .L52+8
 535 0032 D318     		adds	r3, r2, r3
 536 0034 1B69     		ldr	r3, [r3, #16]
 537 0036 5868     		ldr	r0, [r3, #4]
 538 0038 FFF7FEFF 		bl	CyBle_Get16ByPtr
 539              	.LVL39:
 540 003c 2842     		tst	r0, r5
 541 003e 0FD0     		beq	.L49
 542              	.LBB5:
 505:Generated_Source\PSoC4/BLE_cgms.c ****     {
 506:Generated_Source\PSoC4/BLE_cgms.c ****         apiResult = CYBLE_ERROR_IND_DISABLED;
ARM GAS  C:\Users\user\AppData\Local\Temp\ccpxaLkD.s 			page 20


 507:Generated_Source\PSoC4/BLE_cgms.c ****     }
 508:Generated_Source\PSoC4/BLE_cgms.c ****     else
 509:Generated_Source\PSoC4/BLE_cgms.c ****     {
 510:Generated_Source\PSoC4/BLE_cgms.c ****         CYBLE_GATTS_HANDLE_VALUE_IND_T indParam;
 511:Generated_Source\PSoC4/BLE_cgms.c ****         
 512:Generated_Source\PSoC4/BLE_cgms.c ****         /* Fill all fields of write request structure ... */
 513:Generated_Source\PSoC4/BLE_cgms.c ****         indParam.attrHandle = cyBle_cgmss.charInfo[charIndex].charHandle; 
 543              		.loc 1 513 0
 544 0040 6388     		ldrh	r3, [r4, #2]
 545 0042 03AD     		add	r5, sp, #12
 546 0044 2B81     		strh	r3, [r5, #8]
 514:Generated_Source\PSoC4/BLE_cgms.c ****         indParam.value.val = attrValue;
 515:Generated_Source\PSoC4/BLE_cgms.c ****         indParam.value.len = attrSize;
 547              		.loc 1 515 0
 548 0046 009B     		ldr	r3, [sp]
 516:Generated_Source\PSoC4/BLE_cgms.c ****         
 517:Generated_Source\PSoC4/BLE_cgms.c ****         /* Send notification to client using previously filled structure */
 518:Generated_Source\PSoC4/BLE_cgms.c ****         apiResult = CyBle_GattsIndication(connHandle, &indParam);
 549              		.loc 1 518 0
 550 0048 2900     		movs	r1, r5
 551 004a 3068     		ldr	r0, [r6]
 514:Generated_Source\PSoC4/BLE_cgms.c ****         indParam.value.val = attrValue;
 552              		.loc 1 514 0
 553 004c 0397     		str	r7, [sp, #12]
 515:Generated_Source\PSoC4/BLE_cgms.c ****         
 554              		.loc 1 515 0
 555 004e AB80     		strh	r3, [r5, #4]
 556              		.loc 1 518 0
 557 0050 FFF7FEFF 		bl	CyBle_GattsIndication
 558              	.LVL40:
 519:Generated_Source\PSoC4/BLE_cgms.c ****         
 520:Generated_Source\PSoC4/BLE_cgms.c ****         if(apiResult == CYBLE_ERROR_OK)
 559              		.loc 1 520 0
 560 0054 0028     		cmp	r0, #0
 561 0056 05D1     		bne	.L44
 521:Generated_Source\PSoC4/BLE_cgms.c ****         {
 522:Generated_Source\PSoC4/BLE_cgms.c ****             /* Save handle to support service specific value confirmation response from client */
 523:Generated_Source\PSoC4/BLE_cgms.c ****             cyBle_cgmssReqHandle = indParam.attrHandle;
 562              		.loc 1 523 0
 563 0058 2A89     		ldrh	r2, [r5, #8]
 564 005a 064B     		ldr	r3, .L52+12
 565 005c 1A80     		strh	r2, [r3]
 566 005e 01E0     		b	.L44
 567              	.LVL41:
 568              	.L49:
 569              	.LBE5:
 506:Generated_Source\PSoC4/BLE_cgms.c ****     }
 570              		.loc 1 506 0
 571 0060 0220     		movs	r0, #2
 572              	.L51:
 573 0062 FF30     		adds	r0, r0, #255
 574              	.L44:
 575              	.LVL42:
 524:Generated_Source\PSoC4/BLE_cgms.c ****         }
 525:Generated_Source\PSoC4/BLE_cgms.c ****     }
 526:Generated_Source\PSoC4/BLE_cgms.c **** 
 527:Generated_Source\PSoC4/BLE_cgms.c ****     return (apiResult);
ARM GAS  C:\Users\user\AppData\Local\Temp\ccpxaLkD.s 			page 21


 528:Generated_Source\PSoC4/BLE_cgms.c **** }
 576              		.loc 1 528 0
 577 0064 07B0     		add	sp, sp, #28
 578              		@ sp needed
 579              	.LVL43:
 580 0066 F0BD     		pop	{r4, r5, r6, r7, pc}
 581              	.L53:
 582              		.align	2
 583              	.L52:
 584 0068 00000000 		.word	cyBle_state
 585 006c 00000000 		.word	.LANCHOR1
 586 0070 00000000 		.word	cyBle_gattDB
 587 0074 00000000 		.word	.LANCHOR0
 588              		.cfi_endproc
 589              	.LFE9:
 590              		.size	CyBle_CgmssSendIndication, .-CyBle_CgmssSendIndication
 591              		.section	.text.CyBle_CgmssConfirmationEventHandler,"ax",%progbits
 592              		.align	1
 593              		.global	CyBle_CgmssConfirmationEventHandler
 594              		.code	16
 595              		.thumb_func
 596              		.type	CyBle_CgmssConfirmationEventHandler, %function
 597              	CyBle_CgmssConfirmationEventHandler:
 598              	.LFB10:
 529:Generated_Source\PSoC4/BLE_cgms.c **** 
 530:Generated_Source\PSoC4/BLE_cgms.c **** 
 531:Generated_Source\PSoC4/BLE_cgms.c **** /******************************************************************************
 532:Generated_Source\PSoC4/BLE_cgms.c **** * Function Name: CyBle_CgmssConfirmationEventHandler
 533:Generated_Source\PSoC4/BLE_cgms.c **** ***************************************************************************//**
 534:Generated_Source\PSoC4/BLE_cgms.c **** * 
 535:Generated_Source\PSoC4/BLE_cgms.c **** *  Handles a Value Confirmation request event from the BLE stack.
 536:Generated_Source\PSoC4/BLE_cgms.c **** * 
 537:Generated_Source\PSoC4/BLE_cgms.c **** *  \param eventParam: The pointer to a structure of type CYBLE_CONN_HANDLE_T
 538:Generated_Source\PSoC4/BLE_cgms.c **** * 
 539:Generated_Source\PSoC4/BLE_cgms.c **** ******************************************************************************/
 540:Generated_Source\PSoC4/BLE_cgms.c **** void CyBle_CgmssConfirmationEventHandler(const CYBLE_CONN_HANDLE_T *eventParam)
 541:Generated_Source\PSoC4/BLE_cgms.c **** {
 599              		.loc 1 541 0
 600              		.cfi_startproc
 601              		@ args = 0, pretend = 0, frame = 24
 602              		@ frame_needed = 0, uses_anonymous_args = 0
 603              	.LVL44:
 604 0000 F0B5     		push	{r4, r5, r6, r7, lr}
 605              		.cfi_def_cfa_offset 20
 606              		.cfi_offset 4, -20
 607              		.cfi_offset 5, -16
 608              		.cfi_offset 6, -12
 609              		.cfi_offset 7, -8
 610              		.cfi_offset 14, -4
 542:Generated_Source\PSoC4/BLE_cgms.c ****     if((NULL != CyBle_CgmsApplCallback) 
 611              		.loc 1 542 0
 612 0002 1A4D     		ldr	r5, .L64
 541:Generated_Source\PSoC4/BLE_cgms.c ****     if((NULL != CyBle_CgmsApplCallback) 
 613              		.loc 1 541 0
 614 0004 87B0     		sub	sp, sp, #28
 615              		.cfi_def_cfa_offset 48
 616              		.loc 1 542 0
ARM GAS  C:\Users\user\AppData\Local\Temp\ccpxaLkD.s 			page 22


 617 0006 6B68     		ldr	r3, [r5, #4]
 541:Generated_Source\PSoC4/BLE_cgms.c ****     if((NULL != CyBle_CgmsApplCallback) 
 618              		.loc 1 541 0
 619 0008 0190     		str	r0, [sp, #4]
 620              		.loc 1 542 0
 621 000a 002B     		cmp	r3, #0
 622 000c 2BD0     		beq	.L54
 543:Generated_Source\PSoC4/BLE_cgms.c ****         && (cyBle_cgmss.charInfo[CYBLE_CGMS_RACP].charHandle == cyBle_cgmssReqHandle))
 623              		.loc 1 543 0
 624 000e 2B88     		ldrh	r3, [r5]
 625 0010 192B     		cmp	r3, #25
 626 0012 28D1     		bne	.L54
 627              	.LBB6:
 544:Generated_Source\PSoC4/BLE_cgms.c ****     {   
 545:Generated_Source\PSoC4/BLE_cgms.c ****         CYBLE_CGMS_CHAR_VALUE_T locCharIndex;
 546:Generated_Source\PSoC4/BLE_cgms.c ****         
 547:Generated_Source\PSoC4/BLE_cgms.c ****         for(locCharIndex.charIndex = CYBLE_CGMS_RACP;
 628              		.loc 1 547 0
 629 0014 03AC     		add	r4, sp, #12
 630 0016 143B     		subs	r3, r3, #20
 631              	.LVL45:
 632              	.L63:
 548:Generated_Source\PSoC4/BLE_cgms.c ****                     locCharIndex.charIndex < CYBLE_CGMS_CHAR_COUNT; locCharIndex.charIndex++)
 633              		.loc 1 548 0 discriminator 1
 634 0018 A370     		strb	r3, [r4, #2]
 635 001a A678     		ldrb	r6, [r4, #2]
 547:Generated_Source\PSoC4/BLE_cgms.c ****                     locCharIndex.charIndex < CYBLE_CGMS_CHAR_COUNT; locCharIndex.charIndex++)
 636              		.loc 1 547 0 discriminator 1
 637 001c 062E     		cmp	r6, #6
 638 001e 22D8     		bhi	.L54
 549:Generated_Source\PSoC4/BLE_cgms.c **** 	    {
 550:Generated_Source\PSoC4/BLE_cgms.c ****             if(cyBle_cgmss.charInfo[locCharIndex.charIndex].charHandle == cyBle_cgmssReqHandle)
 639              		.loc 1 550 0
 640 0020 134A     		ldr	r2, .L64+4
 641 0022 B300     		lsls	r3, r6, #2
 642 0024 D318     		adds	r3, r2, r3
 643 0026 5A88     		ldrh	r2, [r3, #2]
 644 0028 2B88     		ldrh	r3, [r5]
 645 002a 9A42     		cmp	r2, r3
 646 002c 18D1     		bne	.L57
 551:Generated_Source\PSoC4/BLE_cgms.c **** 	        {
 552:Generated_Source\PSoC4/BLE_cgms.c ****                 cyBle_cgmssReqHandle = CYBLE_GATT_INVALID_ATTR_HANDLE_VALUE;
 647              		.loc 1 552 0
 648 002e 0027     		movs	r7, #0
 553:Generated_Source\PSoC4/BLE_cgms.c ****                 locCharIndex.connHandle = *eventParam;
 649              		.loc 1 553 0
 650 0030 0222     		movs	r2, #2
 651 0032 0199     		ldr	r1, [sp, #4]
 652 0034 2000     		movs	r0, r4
 552:Generated_Source\PSoC4/BLE_cgms.c ****                 locCharIndex.connHandle = *eventParam;
 653              		.loc 1 552 0
 654 0036 2F80     		strh	r7, [r5]
 655              		.loc 1 553 0
 656 0038 FFF7FEFF 		bl	memcpy
 657              	.LVL46:
 554:Generated_Source\PSoC4/BLE_cgms.c ****                 locCharIndex.value = NULL;
 658              		.loc 1 554 0
ARM GAS  C:\Users\user\AppData\Local\Temp\ccpxaLkD.s 			page 23


 659 003c 6760     		str	r7, [r4, #4]
 555:Generated_Source\PSoC4/BLE_cgms.c ****                 
 556:Generated_Source\PSoC4/BLE_cgms.c ****                 if(locCharIndex.charIndex == CYBLE_CGMS_RACP)
 660              		.loc 1 556 0
 661 003e 052E     		cmp	r6, #5
 662 0040 04D1     		bne	.L58
 557:Generated_Source\PSoC4/BLE_cgms.c ****                 {
 558:Generated_Source\PSoC4/BLE_cgms.c ****                     cyBle_cgmsFlag &= (uint8) ~CYBLE_CGMS_FLAG_PROCESS;
 663              		.loc 1 558 0
 664 0042 0121     		movs	r1, #1
 665 0044 0B4A     		ldr	r2, .L64+8
 666 0046 1378     		ldrb	r3, [r2]
 667 0048 8B43     		bics	r3, r1
 668 004a 1370     		strb	r3, [r2]
 669              	.L58:
 559:Generated_Source\PSoC4/BLE_cgms.c ****                 }
 560:Generated_Source\PSoC4/BLE_cgms.c ****                 
 561:Generated_Source\PSoC4/BLE_cgms.c ****                 cyBle_eventHandlerFlag &= (uint8)~CYBLE_CALLBACK;
 670              		.loc 1 561 0
 671 004c 0121     		movs	r1, #1
 562:Generated_Source\PSoC4/BLE_cgms.c ****                 CyBle_CgmsApplCallback((uint32)CYBLE_EVT_CGMSS_INDICATION_CONFIRMED, &locCharIndex)
 672              		.loc 1 562 0
 673 004e A720     		movs	r0, #167
 561:Generated_Source\PSoC4/BLE_cgms.c ****                 CyBle_CgmsApplCallback((uint32)CYBLE_EVT_CGMSS_INDICATION_CONFIRMED, &locCharIndex)
 674              		.loc 1 561 0
 675 0050 094A     		ldr	r2, .L64+12
 676              		.loc 1 562 0
 677 0052 4000     		lsls	r0, r0, #1
 561:Generated_Source\PSoC4/BLE_cgms.c ****                 CyBle_CgmsApplCallback((uint32)CYBLE_EVT_CGMSS_INDICATION_CONFIRMED, &locCharIndex)
 678              		.loc 1 561 0
 679 0054 1378     		ldrb	r3, [r2]
 680 0056 8B43     		bics	r3, r1
 681 0058 1370     		strb	r3, [r2]
 682              		.loc 1 562 0
 683 005a 2100     		movs	r1, r4
 684 005c 6B68     		ldr	r3, [r5, #4]
 685 005e 9847     		blx	r3
 686              	.LVL47:
 687              	.L57:
 548:Generated_Source\PSoC4/BLE_cgms.c **** 	    {
 688              		.loc 1 548 0 discriminator 1
 689 0060 A378     		ldrb	r3, [r4, #2]
 690 0062 0133     		adds	r3, r3, #1
 691 0064 D8E7     		b	.L63
 692              	.L54:
 693              	.LBE6:
 563:Generated_Source\PSoC4/BLE_cgms.c ****             }
 564:Generated_Source\PSoC4/BLE_cgms.c ****         }
 565:Generated_Source\PSoC4/BLE_cgms.c ****     }
 566:Generated_Source\PSoC4/BLE_cgms.c **** }
 694              		.loc 1 566 0
 695 0066 07B0     		add	sp, sp, #28
 696              		@ sp needed
 697 0068 F0BD     		pop	{r4, r5, r6, r7, pc}
 698              	.L65:
 699 006a C046     		.align	2
 700              	.L64:
ARM GAS  C:\Users\user\AppData\Local\Temp\ccpxaLkD.s 			page 24


 701 006c 00000000 		.word	.LANCHOR0
 702 0070 00000000 		.word	.LANCHOR1
 703 0074 00000000 		.word	cyBle_cgmsFlag
 704 0078 00000000 		.word	cyBle_eventHandlerFlag
 705              		.cfi_endproc
 706              	.LFE10:
 707              		.size	CyBle_CgmssConfirmationEventHandler, .-CyBle_CgmssConfirmationEventHandler
 708              		.section	.text.CyBle_CgmssWriteEventHandler,"ax",%progbits
 709              		.align	1
 710              		.global	CyBle_CgmssWriteEventHandler
 711              		.code	16
 712              		.thumb_func
 713              		.type	CyBle_CgmssWriteEventHandler, %function
 714              	CyBle_CgmssWriteEventHandler:
 715              	.LFB11:
 567:Generated_Source\PSoC4/BLE_cgms.c **** 
 568:Generated_Source\PSoC4/BLE_cgms.c **** 
 569:Generated_Source\PSoC4/BLE_cgms.c **** /******************************************************************************
 570:Generated_Source\PSoC4/BLE_cgms.c **** * Function Name: CyBle_CgmssWriteEventHandler
 571:Generated_Source\PSoC4/BLE_cgms.c **** ***************************************************************************//**
 572:Generated_Source\PSoC4/BLE_cgms.c **** * 
 573:Generated_Source\PSoC4/BLE_cgms.c **** *  Handles a Write Request event. Calls the registered CGMS application 
 574:Generated_Source\PSoC4/BLE_cgms.c **** *  callback function.
 575:Generated_Source\PSoC4/BLE_cgms.c **** * 
 576:Generated_Source\PSoC4/BLE_cgms.c **** * Note: Writing the attribute into GATT DB (if needed) is on the user's responsibility,
 577:Generated_Source\PSoC4/BLE_cgms.c **** *  after the characteristic content check in the registered CGMS application 
 578:Generated_Source\PSoC4/BLE_cgms.c **** *  callback function.
 579:Generated_Source\PSoC4/BLE_cgms.c **** * 
 580:Generated_Source\PSoC4/BLE_cgms.c **** *  \param eventParam: The pointer to the data structure specified by the event.
 581:Generated_Source\PSoC4/BLE_cgms.c **** * 
 582:Generated_Source\PSoC4/BLE_cgms.c **** * \return
 583:Generated_Source\PSoC4/BLE_cgms.c **** *  CYBLE_GATT_ERR_CODE_T - A function return state if its succeeded 
 584:Generated_Source\PSoC4/BLE_cgms.c **** *  (CYBLE_GATT_ERR_NONE) or failed with error codes:
 585:Generated_Source\PSoC4/BLE_cgms.c **** *   * CYBLE_GATTS_ERR_PROCEDURE_ALREADY_IN_PROGRESS
 586:Generated_Source\PSoC4/BLE_cgms.c **** *   * CYBLE_GATTS_ERR_CCCD_IMPROPERLY_CONFIGURED
 587:Generated_Source\PSoC4/BLE_cgms.c **** * 
 588:Generated_Source\PSoC4/BLE_cgms.c **** ******************************************************************************/
 589:Generated_Source\PSoC4/BLE_cgms.c **** CYBLE_GATT_ERR_CODE_T CyBle_CgmssWriteEventHandler(CYBLE_GATTS_WRITE_REQ_PARAM_T *eventParam)
 590:Generated_Source\PSoC4/BLE_cgms.c **** {
 716              		.loc 1 590 0
 717              		.cfi_startproc
 718              		@ args = 0, pretend = 0, frame = 24
 719              		@ frame_needed = 0, uses_anonymous_args = 0
 720              	.LVL48:
 591:Generated_Source\PSoC4/BLE_cgms.c ****     CYBLE_CGMS_CHAR_VALUE_T locCharValue;
 592:Generated_Source\PSoC4/BLE_cgms.c ****     locCharValue.gattErrorCode = CYBLE_GATT_ERR_NONE;
 721              		.loc 1 592 0
 722 0000 0023     		movs	r3, #0
 590:Generated_Source\PSoC4/BLE_cgms.c ****     CYBLE_CGMS_CHAR_VALUE_T locCharValue;
 723              		.loc 1 590 0
 724 0002 F0B5     		push	{r4, r5, r6, r7, lr}
 725              		.cfi_def_cfa_offset 20
 726              		.cfi_offset 4, -20
 727              		.cfi_offset 5, -16
 728              		.cfi_offset 6, -12
 729              		.cfi_offset 7, -8
 730              		.cfi_offset 14, -4
ARM GAS  C:\Users\user\AppData\Local\Temp\ccpxaLkD.s 			page 25


 593:Generated_Source\PSoC4/BLE_cgms.c ****     
 594:Generated_Source\PSoC4/BLE_cgms.c ****     if(CyBle_CgmsApplCallback != NULL)
 731              		.loc 1 594 0
 732 0004 3F4F     		ldr	r7, .L90
 590:Generated_Source\PSoC4/BLE_cgms.c ****     CYBLE_CGMS_CHAR_VALUE_T locCharValue;
 733              		.loc 1 590 0
 734 0006 87B0     		sub	sp, sp, #28
 735              		.cfi_def_cfa_offset 48
 736              		.loc 1 594 0
 737 0008 7A68     		ldr	r2, [r7, #4]
 592:Generated_Source\PSoC4/BLE_cgms.c ****     
 738              		.loc 1 592 0
 739 000a 03AC     		add	r4, sp, #12
 590:Generated_Source\PSoC4/BLE_cgms.c ****     CYBLE_CGMS_CHAR_VALUE_T locCharValue;
 740              		.loc 1 590 0
 741 000c 0500     		movs	r5, r0
 592:Generated_Source\PSoC4/BLE_cgms.c ****     
 742              		.loc 1 592 0
 743 000e 2372     		strb	r3, [r4, #8]
 744              		.loc 1 594 0
 745 0010 9A42     		cmp	r2, r3
 746 0012 74D0     		beq	.L83
 595:Generated_Source\PSoC4/BLE_cgms.c ****     {
 596:Generated_Source\PSoC4/BLE_cgms.c ****         locCharValue.connHandle = eventParam->connHandle;
 597:Generated_Source\PSoC4/BLE_cgms.c **** 	
 598:Generated_Source\PSoC4/BLE_cgms.c **** 	    for(locCharValue.charIndex = CYBLE_CGMS_CGMT;
 599:Generated_Source\PSoC4/BLE_cgms.c ****                     locCharValue.charIndex < CYBLE_CGMS_CHAR_COUNT; locCharValue.charIndex++)
 600:Generated_Source\PSoC4/BLE_cgms.c **** 	    {
 601:Generated_Source\PSoC4/BLE_cgms.c ****             if(eventParam->handleValPair.attrHandle == cyBle_cgmss.charInfo[locCharValue.charIndex]
 602:Generated_Source\PSoC4/BLE_cgms.c **** 	        {   
 603:Generated_Source\PSoC4/BLE_cgms.c ****                 locCharValue.value = &eventParam->handleValPair.value;
 604:Generated_Source\PSoC4/BLE_cgms.c ****                 
 605:Generated_Source\PSoC4/BLE_cgms.c ****                 if(locCharValue.charIndex == CYBLE_CGMS_RACP)
 606:Generated_Source\PSoC4/BLE_cgms.c ****                 {
 607:Generated_Source\PSoC4/BLE_cgms.c ****                     if(CYBLE_CGMS_IS_PROCEDURE_IN_PROGRESS)
 608:Generated_Source\PSoC4/BLE_cgms.c ****                     {
 609:Generated_Source\PSoC4/BLE_cgms.c ****                         if(eventParam->handleValPair.value.val[0u] == CYBLE_CGMS_RACP_OPCODE_ABORT)
 610:Generated_Source\PSoC4/BLE_cgms.c ****                         {
 611:Generated_Source\PSoC4/BLE_cgms.c ****                             cyBle_cgmsFlag &= (uint8) ~CYBLE_CGMS_FLAG_PROCESS;
 612:Generated_Source\PSoC4/BLE_cgms.c ****                         }
 613:Generated_Source\PSoC4/BLE_cgms.c ****                         else
 614:Generated_Source\PSoC4/BLE_cgms.c ****                         {
 615:Generated_Source\PSoC4/BLE_cgms.c ****                             locCharValue.gattErrorCode = CYBLE_GATT_ERR_PROCEDURE_ALREADY_IN_PROGRE
 616:Generated_Source\PSoC4/BLE_cgms.c ****                         }
 617:Generated_Source\PSoC4/BLE_cgms.c ****                     }
 618:Generated_Source\PSoC4/BLE_cgms.c ****                     else if(!CYBLE_IS_INDICATION_ENABLED(cyBle_cgmss.charInfo[CYBLE_CGMS_RACP].desc
 619:Generated_Source\PSoC4/BLE_cgms.c ****                     {
 620:Generated_Source\PSoC4/BLE_cgms.c ****                         locCharValue.gattErrorCode = CYBLE_GATT_ERR_CCCD_IMPROPERLY_CONFIGURED;
 621:Generated_Source\PSoC4/BLE_cgms.c ****                     }
 622:Generated_Source\PSoC4/BLE_cgms.c ****                     else
 623:Generated_Source\PSoC4/BLE_cgms.c ****                     {
 624:Generated_Source\PSoC4/BLE_cgms.c ****                         cyBle_cgmsFlag |= CYBLE_CGMS_FLAG_PROCESS;
 625:Generated_Source\PSoC4/BLE_cgms.c ****                     }
 626:Generated_Source\PSoC4/BLE_cgms.c ****                 }
 627:Generated_Source\PSoC4/BLE_cgms.c ****                 else
 628:Generated_Source\PSoC4/BLE_cgms.c ****                 {
 629:Generated_Source\PSoC4/BLE_cgms.c ****                     /* CYBLE_CGMS_SOCP or CYBLE_CGMS_SSTM */
ARM GAS  C:\Users\user\AppData\Local\Temp\ccpxaLkD.s 			page 26


 630:Generated_Source\PSoC4/BLE_cgms.c ****                 }
 631:Generated_Source\PSoC4/BLE_cgms.c ****                 
 632:Generated_Source\PSoC4/BLE_cgms.c ****                 if(locCharValue.gattErrorCode == CYBLE_GATT_ERR_NONE)
 633:Generated_Source\PSoC4/BLE_cgms.c ****     	        {
 634:Generated_Source\PSoC4/BLE_cgms.c ****                     CyBle_CgmsApplCallback((uint32)CYBLE_EVT_CGMSS_WRITE_CHAR, &locCharValue);
 635:Generated_Source\PSoC4/BLE_cgms.c ****                 }
 636:Generated_Source\PSoC4/BLE_cgms.c ****                 
 637:Generated_Source\PSoC4/BLE_cgms.c ****                 if(locCharValue.gattErrorCode == CYBLE_GATT_ERR_NONE)
 638:Generated_Source\PSoC4/BLE_cgms.c ****     	        {
 639:Generated_Source\PSoC4/BLE_cgms.c ****                     locCharValue.gattErrorCode = CyBle_GattsWriteAttributeValue(&eventParam->handle
 640:Generated_Source\PSoC4/BLE_cgms.c ****                              0u, &eventParam->connHandle, CYBLE_GATT_DB_PEER_INITIATED);
 641:Generated_Source\PSoC4/BLE_cgms.c ****                 }
 642:Generated_Source\PSoC4/BLE_cgms.c ****     			
 643:Generated_Source\PSoC4/BLE_cgms.c ****                 /* Clear callback flag indicating that request was handled */
 644:Generated_Source\PSoC4/BLE_cgms.c ****     			cyBle_eventHandlerFlag &= (uint8)~CYBLE_CALLBACK;
 645:Generated_Source\PSoC4/BLE_cgms.c ****                 locCharValue.charIndex = CYBLE_CGMS_CHAR_COUNT; /* instead of break */
 646:Generated_Source\PSoC4/BLE_cgms.c ****     	    }
 647:Generated_Source\PSoC4/BLE_cgms.c ****     	    else if(eventParam->handleValPair.attrHandle == cyBle_cgmss.charInfo[locCharValue.charInde
 648:Generated_Source\PSoC4/BLE_cgms.c ****             {
 649:Generated_Source\PSoC4/BLE_cgms.c ****                 locCharValue.value = NULL;
 650:Generated_Source\PSoC4/BLE_cgms.c ****                 locCharValue.gattErrorCode = CyBle_GattsWriteAttributeValue(&eventParam->handleValP
 651:Generated_Source\PSoC4/BLE_cgms.c ****                              0u, &eventParam->connHandle, CYBLE_GATT_DB_PEER_INITIATED);
 652:Generated_Source\PSoC4/BLE_cgms.c ****                 if(locCharValue.gattErrorCode == CYBLE_GATT_ERR_NONE)
 653:Generated_Source\PSoC4/BLE_cgms.c ****                 {
 654:Generated_Source\PSoC4/BLE_cgms.c ****                     uint32 eventCode;
 655:Generated_Source\PSoC4/BLE_cgms.c ****                     
 656:Generated_Source\PSoC4/BLE_cgms.c ****                     if(locCharValue.charIndex == CYBLE_CGMS_CGMT)
 657:Generated_Source\PSoC4/BLE_cgms.c ****                     {
 658:Generated_Source\PSoC4/BLE_cgms.c ****                         if(CYBLE_IS_NOTIFICATION_ENABLED_IN_PTR(eventParam->handleValPair.value.val
 659:Generated_Source\PSoC4/BLE_cgms.c ****                         {
 660:Generated_Source\PSoC4/BLE_cgms.c ****                             eventCode = (uint32)CYBLE_EVT_CGMSS_NOTIFICATION_ENABLED;
 661:Generated_Source\PSoC4/BLE_cgms.c ****                         }
 662:Generated_Source\PSoC4/BLE_cgms.c ****                         else
 663:Generated_Source\PSoC4/BLE_cgms.c ****                         {
 664:Generated_Source\PSoC4/BLE_cgms.c ****                             eventCode = (uint32)CYBLE_EVT_CGMSS_NOTIFICATION_DISABLED;
 665:Generated_Source\PSoC4/BLE_cgms.c ****                         }
 666:Generated_Source\PSoC4/BLE_cgms.c ****                     }
 667:Generated_Source\PSoC4/BLE_cgms.c ****                     else
 668:Generated_Source\PSoC4/BLE_cgms.c ****                     {
 669:Generated_Source\PSoC4/BLE_cgms.c ****                         if(CYBLE_IS_INDICATION_ENABLED_IN_PTR(eventParam->handleValPair.value.val))
 670:Generated_Source\PSoC4/BLE_cgms.c ****                         {
 671:Generated_Source\PSoC4/BLE_cgms.c ****                             eventCode = (uint32)CYBLE_EVT_CGMSS_INDICATION_ENABLED;
 672:Generated_Source\PSoC4/BLE_cgms.c ****                         }
 673:Generated_Source\PSoC4/BLE_cgms.c ****                         else
 674:Generated_Source\PSoC4/BLE_cgms.c ****                         {
 675:Generated_Source\PSoC4/BLE_cgms.c ****                             eventCode = (uint32)CYBLE_EVT_CGMSS_INDICATION_DISABLED;
 676:Generated_Source\PSoC4/BLE_cgms.c ****                         }
 677:Generated_Source\PSoC4/BLE_cgms.c ****                     }
 678:Generated_Source\PSoC4/BLE_cgms.c ****                     
 679:Generated_Source\PSoC4/BLE_cgms.c ****                     CyBle_CgmsApplCallback(eventCode, &locCharValue);
 680:Generated_Source\PSoC4/BLE_cgms.c ****                 
 681:Generated_Source\PSoC4/BLE_cgms.c ****                 #if((CYBLE_GAP_ROLE_PERIPHERAL || CYBLE_GAP_ROLE_CENTRAL) && \
 682:Generated_Source\PSoC4/BLE_cgms.c ****                     (CYBLE_BONDING_REQUIREMENT == CYBLE_BONDING_YES))
 683:Generated_Source\PSoC4/BLE_cgms.c ****                     /* Set flag to store bonding data to flash */
 684:Generated_Source\PSoC4/BLE_cgms.c ****                     if(cyBle_peerBonding == CYBLE_GAP_BONDING)
 685:Generated_Source\PSoC4/BLE_cgms.c ****                     {
 686:Generated_Source\PSoC4/BLE_cgms.c ****                         cyBle_pendingFlashWrite |= CYBLE_PENDING_CCCD_FLASH_WRITE_BIT;
ARM GAS  C:\Users\user\AppData\Local\Temp\ccpxaLkD.s 			page 27


 687:Generated_Source\PSoC4/BLE_cgms.c ****                     }
 688:Generated_Source\PSoC4/BLE_cgms.c ****                 #endif /* (CYBLE_BONDING_REQUIREMENT == CYBLE_BONDING_YES) */
 689:Generated_Source\PSoC4/BLE_cgms.c **** 				}
 690:Generated_Source\PSoC4/BLE_cgms.c ****                 
 691:Generated_Source\PSoC4/BLE_cgms.c ****                 /* Clear callback flag indicating that request was handled */
 692:Generated_Source\PSoC4/BLE_cgms.c ****                 cyBle_eventHandlerFlag &= (uint8)~CYBLE_CALLBACK;
 747              		.loc 1 692 0
 748 0014 0126     		movs	r6, #1
 596:Generated_Source\PSoC4/BLE_cgms.c **** 	
 749              		.loc 1 596 0
 750 0016 0288     		ldrh	r2, [r0]
 598:Generated_Source\PSoC4/BLE_cgms.c ****                     locCharValue.charIndex < CYBLE_CGMS_CHAR_COUNT; locCharValue.charIndex++)
 751              		.loc 1 598 0
 752 0018 A370     		strb	r3, [r4, #2]
 596:Generated_Source\PSoC4/BLE_cgms.c **** 	
 753              		.loc 1 596 0
 754 001a 2280     		strh	r2, [r4]
 755              	.LVL49:
 756              	.L68:
 599:Generated_Source\PSoC4/BLE_cgms.c **** 	    {
 757              		.loc 1 599 0 discriminator 1
 758 001c A278     		ldrb	r2, [r4, #2]
 598:Generated_Source\PSoC4/BLE_cgms.c ****                     locCharValue.charIndex < CYBLE_CGMS_CHAR_COUNT; locCharValue.charIndex++)
 759              		.loc 1 598 0 discriminator 1
 760 001e 062A     		cmp	r2, #6
 761 0020 6DD8     		bhi	.L83
 601:Generated_Source\PSoC4/BLE_cgms.c **** 	        {   
 762              		.loc 1 601 0
 763 0022 3948     		ldr	r0, .L90+4
 764 0024 9300     		lsls	r3, r2, #2
 765 0026 C318     		adds	r3, r0, r3
 766 0028 A989     		ldrh	r1, [r5, #12]
 767 002a 5888     		ldrh	r0, [r3, #2]
 768 002c 8842     		cmp	r0, r1
 769 002e 32D1     		bne	.L69
 603:Generated_Source\PSoC4/BLE_cgms.c ****                 
 770              		.loc 1 603 0
 771 0030 2B1D     		adds	r3, r5, #4
 772 0032 0193     		str	r3, [sp, #4]
 773 0034 6360     		str	r3, [r4, #4]
 605:Generated_Source\PSoC4/BLE_cgms.c ****                 {
 774              		.loc 1 605 0
 775 0036 052A     		cmp	r2, #5
 776 0038 1BD1     		bne	.L70
 607:Generated_Source\PSoC4/BLE_cgms.c ****                     {
 777              		.loc 1 607 0
 778 003a 344B     		ldr	r3, .L90+8
 779 003c 1B78     		ldrb	r3, [r3]
 780 003e 3342     		tst	r3, r6
 781 0040 06D0     		beq	.L71
 609:Generated_Source\PSoC4/BLE_cgms.c ****                         {
 782              		.loc 1 609 0
 783 0042 6A68     		ldr	r2, [r5, #4]
 611:Generated_Source\PSoC4/BLE_cgms.c ****                         }
 784              		.loc 1 611 0
 785 0044 B343     		bics	r3, r6
 609:Generated_Source\PSoC4/BLE_cgms.c ****                         {
ARM GAS  C:\Users\user\AppData\Local\Temp\ccpxaLkD.s 			page 28


 786              		.loc 1 609 0
 787 0046 1278     		ldrb	r2, [r2]
 788 0048 032A     		cmp	r2, #3
 789 004a 10D0     		beq	.L88
 615:Generated_Source\PSoC4/BLE_cgms.c ****                         }
 790              		.loc 1 615 0
 791 004c FE23     		movs	r3, #254
 792 004e 09E0     		b	.L87
 793              	.L71:
 618:Generated_Source\PSoC4/BLE_cgms.c ****                     {
 794              		.loc 1 618 0
 795 0050 8123     		movs	r3, #129
 796 0052 2F4A     		ldr	r2, .L90+12
 797 0054 9B00     		lsls	r3, r3, #2
 798 0056 D358     		ldr	r3, [r2, r3]
 799 0058 5868     		ldr	r0, [r3, #4]
 800 005a FFF7FEFF 		bl	CyBle_Get16ByPtr
 801              	.LVL50:
 802 005e 8307     		lsls	r3, r0, #30
 803 0060 02D4     		bmi	.L73
 620:Generated_Source\PSoC4/BLE_cgms.c ****                     }
 804              		.loc 1 620 0
 805 0062 FD23     		movs	r3, #253
 806              	.L87:
 807 0064 2372     		strb	r3, [r4, #8]
 808 0066 04E0     		b	.L70
 809              	.L73:
 624:Generated_Source\PSoC4/BLE_cgms.c ****                     }
 810              		.loc 1 624 0
 811 0068 284B     		ldr	r3, .L90+8
 812 006a 1B78     		ldrb	r3, [r3]
 813 006c 3343     		orrs	r3, r6
 814              	.L88:
 815 006e 274A     		ldr	r2, .L90+8
 816 0070 1370     		strb	r3, [r2]
 817              	.L70:
 632:Generated_Source\PSoC4/BLE_cgms.c ****     	        {
 818              		.loc 1 632 0
 819 0072 237A     		ldrb	r3, [r4, #8]
 820 0074 002B     		cmp	r3, #0
 821 0076 04D1     		bne	.L74
 634:Generated_Source\PSoC4/BLE_cgms.c ****                 }
 822              		.loc 1 634 0
 823 0078 5220     		movs	r0, #82
 824 007a 2100     		movs	r1, r4
 825 007c FF30     		adds	r0, r0, #255
 826 007e 7B68     		ldr	r3, [r7, #4]
 827 0080 9847     		blx	r3
 828              	.LVL51:
 829              	.L74:
 637:Generated_Source\PSoC4/BLE_cgms.c ****     	        {
 830              		.loc 1 637 0
 831 0082 217A     		ldrb	r1, [r4, #8]
 832 0084 0029     		cmp	r1, #0
 833 0086 30D1     		bne	.L78
 639:Generated_Source\PSoC4/BLE_cgms.c ****                              0u, &eventParam->connHandle, CYBLE_GATT_DB_PEER_INITIATED);
 834              		.loc 1 639 0
ARM GAS  C:\Users\user\AppData\Local\Temp\ccpxaLkD.s 			page 29


 835 0088 4023     		movs	r3, #64
 836 008a 2A00     		movs	r2, r5
 837 008c 281D     		adds	r0, r5, #4
 838 008e FFF7FEFF 		bl	CyBle_GattsWriteAttributeValue
 839              	.LVL52:
 840 0092 2072     		strb	r0, [r4, #8]
 841 0094 29E0     		b	.L78
 842              	.L69:
 647:Generated_Source\PSoC4/BLE_cgms.c ****             {
 843              		.loc 1 647 0
 844 0096 9B88     		ldrh	r3, [r3, #4]
 845 0098 8B42     		cmp	r3, r1
 846 009a 2CD1     		bne	.L76
 649:Generated_Source\PSoC4/BLE_cgms.c ****                 locCharValue.gattErrorCode = CyBle_GattsWriteAttributeValue(&eventParam->handleValP
 847              		.loc 1 649 0
 848 009c 0021     		movs	r1, #0
 650:Generated_Source\PSoC4/BLE_cgms.c ****                              0u, &eventParam->connHandle, CYBLE_GATT_DB_PEER_INITIATED);
 849              		.loc 1 650 0
 850 009e 281D     		adds	r0, r5, #4
 851 00a0 4023     		movs	r3, #64
 852 00a2 2A00     		movs	r2, r5
 649:Generated_Source\PSoC4/BLE_cgms.c ****                 locCharValue.gattErrorCode = CyBle_GattsWriteAttributeValue(&eventParam->handleValP
 853              		.loc 1 649 0
 854 00a4 6160     		str	r1, [r4, #4]
 650:Generated_Source\PSoC4/BLE_cgms.c ****                              0u, &eventParam->connHandle, CYBLE_GATT_DB_PEER_INITIATED);
 855              		.loc 1 650 0
 856 00a6 FFF7FEFF 		bl	CyBle_GattsWriteAttributeValue
 857              	.LVL53:
 858 00aa 2072     		strb	r0, [r4, #8]
 652:Generated_Source\PSoC4/BLE_cgms.c ****                 {
 859              		.loc 1 652 0
 860 00ac 0028     		cmp	r0, #0
 861 00ae 1CD1     		bne	.L78
 862              	.LBB7:
 656:Generated_Source\PSoC4/BLE_cgms.c ****                     {
 863              		.loc 1 656 0
 864 00b0 A378     		ldrb	r3, [r4, #2]
 658:Generated_Source\PSoC4/BLE_cgms.c ****                         {
 865              		.loc 1 658 0
 866 00b2 6868     		ldr	r0, [r5, #4]
 656:Generated_Source\PSoC4/BLE_cgms.c ****                     {
 867              		.loc 1 656 0
 868 00b4 002B     		cmp	r3, #0
 869 00b6 05D1     		bne	.L79
 658:Generated_Source\PSoC4/BLE_cgms.c ****                         {
 870              		.loc 1 658 0
 871 00b8 FFF7FEFF 		bl	CyBle_Get16ByPtr
 872              	.LVL54:
 664:Generated_Source\PSoC4/BLE_cgms.c ****                         }
 873              		.loc 1 664 0
 874 00bc A823     		movs	r3, #168
 875 00be 3040     		ands	r0, r6
 876 00c0 5B00     		lsls	r3, r3, #1
 877 00c2 05E0     		b	.L89
 878              	.L79:
 669:Generated_Source\PSoC4/BLE_cgms.c ****                         {
 879              		.loc 1 669 0
ARM GAS  C:\Users\user\AppData\Local\Temp\ccpxaLkD.s 			page 30


 880 00c4 FFF7FEFF 		bl	CyBle_Get16ByPtr
 881              	.LVL55:
 675:Generated_Source\PSoC4/BLE_cgms.c ****                         }
 882              		.loc 1 675 0
 883 00c8 4E23     		movs	r3, #78
 669:Generated_Source\PSoC4/BLE_cgms.c ****                         {
 884              		.loc 1 669 0
 885 00ca 8007     		lsls	r0, r0, #30
 675:Generated_Source\PSoC4/BLE_cgms.c ****                         }
 886              		.loc 1 675 0
 887 00cc C00F     		lsrs	r0, r0, #31
 888 00ce FF33     		adds	r3, r3, #255
 889              	.L89:
 890 00d0 181A     		subs	r0, r3, r0
 891              	.LVL56:
 679:Generated_Source\PSoC4/BLE_cgms.c ****                 
 892              		.loc 1 679 0
 893 00d2 2100     		movs	r1, r4
 894 00d4 7B68     		ldr	r3, [r7, #4]
 895 00d6 9847     		blx	r3
 896              	.LVL57:
 684:Generated_Source\PSoC4/BLE_cgms.c ****                     {
 897              		.loc 1 684 0
 898 00d8 0E4B     		ldr	r3, .L90+16
 899 00da 1B78     		ldrb	r3, [r3]
 900 00dc 012B     		cmp	r3, #1
 901 00de 04D1     		bne	.L78
 686:Generated_Source\PSoC4/BLE_cgms.c ****                     }
 902              		.loc 1 686 0
 903 00e0 0221     		movs	r1, #2
 904 00e2 0D4A     		ldr	r2, .L90+20
 905 00e4 1378     		ldrb	r3, [r2]
 906 00e6 0B43     		orrs	r3, r1
 907 00e8 1370     		strb	r3, [r2]
 908              	.L78:
 909              	.LBE7:
 910              		.loc 1 692 0
 911 00ea 0C4A     		ldr	r2, .L90+24
 912 00ec 1378     		ldrb	r3, [r2]
 913 00ee B343     		bics	r3, r6
 914 00f0 1370     		strb	r3, [r2]
 693:Generated_Source\PSoC4/BLE_cgms.c ****                 locCharValue.charIndex = CYBLE_CGMS_CHAR_COUNT; /* instead of break */
 915              		.loc 1 693 0
 916 00f2 0723     		movs	r3, #7
 917 00f4 A370     		strb	r3, [r4, #2]
 918              	.L76:
 599:Generated_Source\PSoC4/BLE_cgms.c **** 	    {
 919              		.loc 1 599 0 discriminator 1
 920 00f6 A378     		ldrb	r3, [r4, #2]
 921 00f8 0133     		adds	r3, r3, #1
 922 00fa A370     		strb	r3, [r4, #2]
 923 00fc 8EE7     		b	.L68
 924              	.L83:
 694:Generated_Source\PSoC4/BLE_cgms.c **** 			}
 695:Generated_Source\PSoC4/BLE_cgms.c ****             else
 696:Generated_Source\PSoC4/BLE_cgms.c ****             {
 697:Generated_Source\PSoC4/BLE_cgms.c ****                 /* Nothing else */    
ARM GAS  C:\Users\user\AppData\Local\Temp\ccpxaLkD.s 			page 31


 698:Generated_Source\PSoC4/BLE_cgms.c ****             }
 699:Generated_Source\PSoC4/BLE_cgms.c ****         }
 700:Generated_Source\PSoC4/BLE_cgms.c ****     }
 701:Generated_Source\PSoC4/BLE_cgms.c **** 
 702:Generated_Source\PSoC4/BLE_cgms.c ****     return (locCharValue.gattErrorCode);
 925              		.loc 1 702 0
 926 00fe 207A     		ldrb	r0, [r4, #8]
 703:Generated_Source\PSoC4/BLE_cgms.c **** }
 927              		.loc 1 703 0
 928 0100 07B0     		add	sp, sp, #28
 929              		@ sp needed
 930              	.LVL58:
 931 0102 F0BD     		pop	{r4, r5, r6, r7, pc}
 932              	.L91:
 933              		.align	2
 934              	.L90:
 935 0104 00000000 		.word	.LANCHOR0
 936 0108 00000000 		.word	.LANCHOR1
 937 010c 00000000 		.word	cyBle_cgmsFlag
 938 0110 00000000 		.word	cyBle_gattDB
 939 0114 00000000 		.word	cyBle_peerBonding
 940 0118 00000000 		.word	cyBle_pendingFlashWrite
 941 011c 00000000 		.word	cyBle_eventHandlerFlag
 942              		.cfi_endproc
 943              	.LFE11:
 944              		.size	CyBle_CgmssWriteEventHandler, .-CyBle_CgmssWriteEventHandler
 945              		.comm	cyBle_cgmsFlag,1,1
 946              		.global	cyBle_cgmss
 947              		.section	.rodata
 948              		.align	1
 949              		.set	.LANCHOR1,. + 0
 950              		.type	cyBle_cgmss, %object
 951              		.size	cyBle_cgmss, 30
 952              	cyBle_cgmss:
 953 0000 0C00     		.short	12
 954 0002 0E00     		.short	14
 955 0004 0F00     		.short	15
 956 0006 1100     		.short	17
 957 0008 0000     		.short	0
 958 000a 1300     		.short	19
 959 000c 0000     		.short	0
 960 000e 1500     		.short	21
 961 0010 0000     		.short	0
 962 0012 1700     		.short	23
 963 0014 0000     		.short	0
 964 0016 1900     		.short	25
 965 0018 1A00     		.short	26
 966 001a 1C00     		.short	28
 967 001c 1D00     		.short	29
 968              		.bss
 969              		.align	2
 970              		.set	.LANCHOR0,. + 0
 971              		.type	cyBle_cgmssReqHandle, %object
 972              		.size	cyBle_cgmssReqHandle, 2
 973              	cyBle_cgmssReqHandle:
 974 0000 0000     		.space	2
 975 0002 0000     		.space	2
ARM GAS  C:\Users\user\AppData\Local\Temp\ccpxaLkD.s 			page 32


 976              		.type	CyBle_CgmsApplCallback, %object
 977              		.size	CyBle_CgmsApplCallback, 4
 978              	CyBle_CgmsApplCallback:
 979 0004 00000000 		.space	4
 980              		.text
 981              	.Letext0:
 982              		.file 2 "Generated_Source\\PSoC4\\cytypes.h"
 983              		.file 3 "Generated_Source\\PSoC4\\BLE_Stack.h"
 984              		.file 4 "Generated_Source\\PSoC4\\BLE_StackGatt.h"
 985              		.file 5 "Generated_Source\\PSoC4\\BLE_StackGattServer.h"
 986              		.file 6 "Generated_Source\\PSoC4\\BLE_StackGattDb.h"
 987              		.file 7 "Generated_Source\\PSoC4\\BLE.h"
 988              		.file 8 "Generated_Source\\PSoC4\\BLE_bms.h"
 989              		.file 9 "Generated_Source\\PSoC4\\BLE_cgms.h"
 990              		.file 10 "Generated_Source\\PSoC4\\BLE_dis.h"
 991              		.file 11 "Generated_Source\\PSoC4\\BLE_eventHandler.h"
 992              		.file 12 "Generated_Source\\PSoC4\\BLE_gatt.h"