ARM GAS  C:\Users\user\AppData\Local\Temp\ccsRUCLw.s 			page 1


   1              		.syntax unified
   2              		.cpu cortex-m0
   3              		.fpu softvfp
   4              		.eabi_attribute 20, 1
   5              		.eabi_attribute 21, 1
   6              		.eabi_attribute 23, 3
   7              		.eabi_attribute 24, 1
   8              		.eabi_attribute 25, 1
   9              		.eabi_attribute 26, 1
  10              		.eabi_attribute 30, 4
  11              		.eabi_attribute 34, 0
  12              		.eabi_attribute 18, 4
  13              		.thumb
  14              		.syntax unified
  15              		.file	"bmss.c"
  16              		.text
  17              	.Ltext0:
  18              		.cfi_sections	.debug_frame
  19              		.section	.text.BmsCallBack,"ax",%progbits
  20              		.align	1
  21              		.global	BmsCallBack
  22              		.code	16
  23              		.thumb_func
  24              		.type	BmsCallBack, %function
  25              	BmsCallBack:
  26              	.LFB37:
  27              		.file 1 "bmss.c"
   1:bmss.c        **** /*******************************************************************************
   2:bmss.c        **** * File Name: bmss.c
   3:bmss.c        **** *
   4:bmss.c        **** * Version 1.0
   5:bmss.c        **** *
   6:bmss.c        **** * Description:
   7:bmss.c        **** *  This file contains the Bond Management Service related code.
   8:bmss.c        **** *
   9:bmss.c        **** * Hardware Dependency:
  10:bmss.c        **** *  CY8CKIT-042 BLE
  11:bmss.c        **** *
  12:bmss.c        **** ********************************************************************************
  13:bmss.c        **** * Copyright 2016, Cypress Semiconductor Corporation.  All rights reserved.
  14:bmss.c        **** * You may use this file only in accordance with the license, terms, conditions,
  15:bmss.c        **** * disclaimers, and limitations in the end user license agreement accompanying
  16:bmss.c        **** * the software package with which this file was provided.
  17:bmss.c        **** *******************************************************************************/
  18:bmss.c        **** 
  19:bmss.c        **** #include "bmss.h"
  20:bmss.c        **** 
  21:bmss.c        **** CYBLE_GAP_BONDED_DEV_ADDR_LIST_T bdList;
  22:bmss.c        **** CYBLE_GAP_BD_ADDR_T peerBdAddr;
  23:bmss.c        **** uint8 unbond = 0u;
  24:bmss.c        **** uint8 bmcp = 0u;
  25:bmss.c        **** 
  26:bmss.c        **** char8 *authCode = "0abcdef";
  27:bmss.c        **** 
  28:bmss.c        **** 
  29:bmss.c        **** /******************************************************************************
  30:bmss.c        **** ##Function Name: BmsInit
ARM GAS  C:\Users\user\AppData\Local\Temp\ccsRUCLw.s 			page 2


  31:bmss.c        **** *******************************************************************************
  32:bmss.c        **** 
  33:bmss.c        **** Summary:
  34:bmss.c        ****   Registers the BMS CallBack.
  35:bmss.c        **** 
  36:bmss.c        **** ******************************************************************************/
  37:bmss.c        **** void BmsInit(void)
  38:bmss.c        **** {
  39:bmss.c        ****     CyBle_BmsRegisterAttrCallback(BmsCallBack);
  40:bmss.c        **** }
  41:bmss.c        **** 
  42:bmss.c        **** 
  43:bmss.c        **** /******************************************************************************
  44:bmss.c        **** ##Function Name: BmsCallBack
  45:bmss.c        **** *******************************************************************************
  46:bmss.c        **** 
  47:bmss.c        **** Summary:
  48:bmss.c        ****   A CallBack function to handle BMS specific events.
  49:bmss.c        **** 
  50:bmss.c        **** ******************************************************************************/
  51:bmss.c        **** 
  52:bmss.c        **** void BmsCallBack(uint32 event, void* eventParam)
  53:bmss.c        **** {   
  28              		.loc 1 53 0
  29              		.cfi_startproc
  30              		@ args = 0, pretend = 0, frame = 16
  31              		@ frame_needed = 0, uses_anonymous_args = 0
  32              	.LVL0:
  54:bmss.c        ****     switch(event)
  33              		.loc 1 54 0
  34 0000 A423     		movs	r3, #164
  53:bmss.c        ****     switch(event)
  35              		.loc 1 53 0
  36 0002 F0B5     		push	{r4, r5, r6, r7, lr}
  37              		.cfi_def_cfa_offset 20
  38              		.cfi_offset 4, -20
  39              		.cfi_offset 5, -16
  40              		.cfi_offset 6, -12
  41              		.cfi_offset 7, -8
  42              		.cfi_offset 14, -4
  43              		.loc 1 54 0
  44 0004 5B00     		lsls	r3, r3, #1
  53:bmss.c        ****     switch(event)
  45              		.loc 1 53 0
  46 0006 85B0     		sub	sp, sp, #20
  47              		.cfi_def_cfa_offset 40
  53:bmss.c        ****     switch(event)
  48              		.loc 1 53 0
  49 0008 0D00     		movs	r5, r1
  50              		.loc 1 54 0
  51 000a 9842     		cmp	r0, r3
  52 000c 75D1     		bne	.L32
  53              	.LVL1:
  54              	.LBB2:
  55:bmss.c        ****     {
  56:bmss.c        ****         case CYBLE_EVT_BMSS_WRITE_CHAR:
  57:bmss.c        ****             {
ARM GAS  C:\Users\user\AppData\Local\Temp\ccsRUCLw.s 			page 3


  58:bmss.c        ****                 uint8 features[3u];
  59:bmss.c        ****                 uint8 byteNumber;
  60:bmss.c        ****                 uint8 opCodeFlag;
  61:bmss.c        ****                 uint8 authCodeFlag;
  62:bmss.c        ****                 
  63:bmss.c        ****                 CYBLE_GATT_ERR_CODE_T bmsGattError = CYBLE_GATT_ERR_NONE;
  64:bmss.c        ****                 
  65:bmss.c        ****                 DBG_PRINTF("BMCP write request: ");
  55              		.loc 1 65 0
  56 000e 4E48     		ldr	r0, .L44
  57              	.LVL2:
  58 0010 FFF7FEFF 		bl	printf
  59              	.LVL3:
  66:bmss.c        ****                 for(i = 0; i < ((CYBLE_BMS_CHAR_VALUE_T*)eventParam)->value->len; i++)
  60              		.loc 1 66 0
  61 0014 0023     		movs	r3, #0
  62 0016 4D4C     		ldr	r4, .L44+4
  63              	.L37:
  64              		.loc 1 66 0 is_stmt 0 discriminator 3
  65 0018 6A68     		ldr	r2, [r5, #4]
  66 001a 2380     		strh	r3, [r4]
  67 001c 2388     		ldrh	r3, [r4]
  68 001e 9188     		ldrh	r1, [r2, #4]
  69 0020 9942     		cmp	r1, r3
  70 0022 07D9     		bls	.L42
  67:bmss.c        ****                 {
  68:bmss.c        ****                     DBG_PRINTF("%2.2x ", ((CYBLE_BMS_CHAR_VALUE_T*)eventParam)->value->val[i]);
  71              		.loc 1 68 0 is_stmt 1 discriminator 3
  72 0024 1268     		ldr	r2, [r2]
  73 0026 4A48     		ldr	r0, .L44+8
  74 0028 D15C     		ldrb	r1, [r2, r3]
  75 002a FFF7FEFF 		bl	printf
  76              	.LVL4:
  66:bmss.c        ****                 for(i = 0; i < ((CYBLE_BMS_CHAR_VALUE_T*)eventParam)->value->len; i++)
  77              		.loc 1 66 0 discriminator 3
  78 002e 2388     		ldrh	r3, [r4]
  79 0030 0133     		adds	r3, r3, #1
  80 0032 F1E7     		b	.L37
  81              	.L42:
  69:bmss.c        ****                 }
  70:bmss.c        ****                 DBG_PRINTF("\r\n");
  82              		.loc 1 70 0
  83 0034 4748     		ldr	r0, .L44+12
  84 0036 FFF7FEFF 		bl	puts
  85              	.LVL5:
  71:bmss.c        ****                 
  72:bmss.c        ****                 bmcp = ((CYBLE_BMS_CHAR_VALUE_T*)eventParam)->value->val[0];
  86              		.loc 1 72 0
  87 003a 6B68     		ldr	r3, [r5, #4]
  88 003c 4649     		ldr	r1, .L44+16
  89 003e 1A68     		ldr	r2, [r3]
  90 0040 1378     		ldrb	r3, [r2]
  91 0042 0B70     		strb	r3, [r1]
  73:bmss.c        ****                 
  74:bmss.c        ****                 switch(bmcp)
  92              		.loc 1 74 0
  93 0044 062B     		cmp	r3, #6
ARM GAS  C:\Users\user\AppData\Local\Temp\ccsRUCLw.s 			page 4


  94 0046 0AD0     		beq	.L7
  95 0048 092B     		cmp	r3, #9
  96 004a 10D0     		beq	.L8
  97 004c 032B     		cmp	r3, #3
  98 004e 15D1     		bne	.L33
  75:bmss.c        ****                 {
  76:bmss.c        ****                     case CYBLE_BMS_BMCP_OPC_RD:
  77:bmss.c        ****                         DBG_PRINTF("OpCode: Delete bond of requesting device\r\n");
  99              		.loc 1 77 0
 100 0050 4248     		ldr	r0, .L44+20
 101 0052 FFF7FEFF 		bl	puts
 102              	.LVL6:
  78:bmss.c        ****                         byteNumber = CYBLE_BMS_BMFT_FIRST_BYTE;
  79:bmss.c        ****                         opCodeFlag = (uint8) CYBLE_BMS_BMFT_RD;
  80:bmss.c        ****                         authCodeFlag = (uint8) CYBLE_BMS_BMFT_RC;
 103              		.loc 1 80 0
 104 0056 2026     		movs	r6, #32
  79:bmss.c        ****                         authCodeFlag = (uint8) CYBLE_BMS_BMFT_RC;
 105              		.loc 1 79 0
 106 0058 1027     		movs	r7, #16
  78:bmss.c        ****                         byteNumber = CYBLE_BMS_BMFT_FIRST_BYTE;
 107              		.loc 1 78 0
 108 005a 0023     		movs	r3, #0
 109 005c 05E0     		b	.L40
 110              	.LVL7:
 111              	.L7:
  81:bmss.c        ****                         break;
  82:bmss.c        ****                         
  83:bmss.c        ****                     case CYBLE_BMS_BMCP_OPC_AB:
  84:bmss.c        ****                         DBG_PRINTF("OpCode: Delete all bonds on server\r\n");
 112              		.loc 1 84 0
 113 005e 4048     		ldr	r0, .L44+24
 114 0060 FFF7FEFF 		bl	puts
 115              	.LVL8:
  85:bmss.c        ****                         byteNumber = CYBLE_BMS_BMFT_SECOND_BYTE;
  86:bmss.c        ****                         opCodeFlag = (uint8) (CYBLE_BMS_BMFT_AB >> (8 * CYBLE_BMS_BMFT_SECOND_BYTE)
  87:bmss.c        ****                         authCodeFlag = (uint8) (CYBLE_BMS_BMFT_AC >> (8 * CYBLE_BMS_BMFT_SECOND_BYT
 116              		.loc 1 87 0
 117 0064 0826     		movs	r6, #8
  86:bmss.c        ****                         authCodeFlag = (uint8) (CYBLE_BMS_BMFT_AC >> (8 * CYBLE_BMS_BMFT_SECOND_BYT
 118              		.loc 1 86 0
 119 0066 0427     		movs	r7, #4
  85:bmss.c        ****                         byteNumber = CYBLE_BMS_BMFT_SECOND_BYTE;
 120              		.loc 1 85 0
 121 0068 0123     		movs	r3, #1
 122              	.LVL9:
 123              	.L40:
 124 006a 0193     		str	r3, [sp, #4]
  88:bmss.c        ****                         break;
 125              		.loc 1 88 0
 126 006c 0BE0     		b	.L10
 127              	.L8:
  89:bmss.c        ****                             
  90:bmss.c        ****                     case CYBLE_BMS_BMCP_OPC_BA:
  91:bmss.c        ****                         DBG_PRINTF("OpCode: Delete all but the active bond on server\r\n");
  92:bmss.c        ****                         byteNumber = CYBLE_BMS_BMFT_THIRD_BYTE;
  93:bmss.c        ****                         opCodeFlag = (uint8) (CYBLE_BMS_BMFT_BA >> (8 * CYBLE_BMS_BMFT_THIRD_BYTE))
ARM GAS  C:\Users\user\AppData\Local\Temp\ccsRUCLw.s 			page 5


  94:bmss.c        ****                         authCodeFlag = (uint8) (CYBLE_BMS_BMFT_BC >> (8 * CYBLE_BMS_BMFT_THIRD_BYTE
 128              		.loc 1 94 0
 129 006e 0226     		movs	r6, #2
  91:bmss.c        ****                         byteNumber = CYBLE_BMS_BMFT_THIRD_BYTE;
 130              		.loc 1 91 0
 131 0070 3C48     		ldr	r0, .L44+28
 132 0072 FFF7FEFF 		bl	puts
 133              	.LVL10:
  93:bmss.c        ****                         authCodeFlag = (uint8) (CYBLE_BMS_BMFT_BC >> (8 * CYBLE_BMS_BMFT_THIRD_BYTE
 134              		.loc 1 93 0
 135 0076 0127     		movs	r7, #1
  92:bmss.c        ****                         opCodeFlag = (uint8) (CYBLE_BMS_BMFT_BA >> (8 * CYBLE_BMS_BMFT_THIRD_BYTE))
 136              		.loc 1 92 0
 137 0078 0196     		str	r6, [sp, #4]
  95:bmss.c        ****                         break;
 138              		.loc 1 95 0
 139 007a 04E0     		b	.L10
 140              	.LVL11:
 141              	.L33:
  96:bmss.c        ****                     
  97:bmss.c        ****                     default:
  98:bmss.c        ****                         DBG_PRINTF("unsupported BMCP OpCode: 0x%x \r\n", ((CYBLE_CGMS_CHAR_VALUE_T*
 142              		.loc 1 98 0
 143 007c 1178     		ldrb	r1, [r2]
 144 007e 3A48     		ldr	r0, .L44+32
 145 0080 FFF7FEFF 		bl	printf
 146              	.LVL12:
 147 0084 0CE0     		b	.L38
 148              	.LVL13:
 149              	.L10:
  99:bmss.c        ****                         bmsGattError = CYBLE_GATT_ERR_OP_CODE_NOT_SUPPORTED;
 100:bmss.c        ****             			break;
 101:bmss.c        ****                 }
 102:bmss.c        ****         
 103:bmss.c        ****                 if(bmsGattError == CYBLE_GATT_ERR_NONE)
 104:bmss.c        ****                 {
 105:bmss.c        ****                     (void) CyBle_BmssGetCharacteristicValue(CYBLE_BMS_BMFT, CYBLE_BMS_BMFT_SIZE, fe
 150              		.loc 1 105 0
 151 0086 03AA     		add	r2, sp, #12
 152 0088 0321     		movs	r1, #3
 153 008a 0120     		movs	r0, #1
 154 008c FFF7FEFF 		bl	CyBle_BmssGetCharacteristicValue
 155              	.LVL14:
 106:bmss.c        ****                     
 107:bmss.c        ****                     if((opCodeFlag & features[byteNumber]) != 0u)
 156              		.loc 1 107 0
 157 0090 019A     		ldr	r2, [sp, #4]
 158 0092 03AB     		add	r3, sp, #12
 159 0094 9B5C     		ldrb	r3, [r3, r2]
 160 0096 1F42     		tst	r7, r3
 161 0098 04D1     		bne	.L25
 162              	.LVL15:
 108:bmss.c        ****                     {
 109:bmss.c        ****                         if((authCodeFlag & features[byteNumber]) != 0u)
 110:bmss.c        ****                         {   
 111:bmss.c        ****                             if(((CYBLE_BMS_CHAR_VALUE_T*)eventParam)->value->len == (CYBLE_BMS_AUTH
 112:bmss.c        ****                             {
ARM GAS  C:\Users\user\AppData\Local\Temp\ccsRUCLw.s 			page 6


 113:bmss.c        ****                                 for(i = 1u; i < ((CYBLE_BMS_CHAR_VALUE_T*)eventParam)->value->len; 
 114:bmss.c        ****                                 {
 115:bmss.c        ****                                     if(((CYBLE_BMS_CHAR_VALUE_T*)eventParam)->value->val[i] != auth
 116:bmss.c        ****                                     {
 117:bmss.c        ****                                         bmsGattError = CYBLE_GATT_ERR_INSUFFICIENT_AUTHORIZATION;
 118:bmss.c        ****                                     }
 119:bmss.c        ****                                 }
 120:bmss.c        ****                             }
 121:bmss.c        ****                             else
 122:bmss.c        ****                             {
 123:bmss.c        ****                                 bmsGattError = CYBLE_GATT_ERR_INSUFFICIENT_AUTHORIZATION;
 124:bmss.c        ****                             }
 125:bmss.c        ****                         }
 126:bmss.c        ****                     }
 127:bmss.c        ****                     else
 128:bmss.c        ****                     {
 129:bmss.c        ****                         bmsGattError = CYBLE_GATT_ERR_OP_CODE_NOT_SUPPORTED;
 130:bmss.c        ****                         DBG_PRINTF("this OpCode not supported\r\n");
 163              		.loc 1 130 0
 164 009a 3448     		ldr	r0, .L44+36
 165 009c FFF7FEFF 		bl	puts
 166              	.LVL16:
 167              	.L38:
 129:bmss.c        ****                         DBG_PRINTF("this OpCode not supported\r\n");
 168              		.loc 1 129 0
 169 00a0 8026     		movs	r6, #128
 170 00a2 10E0     		b	.L27
 171              	.LVL17:
 172              	.L25:
 109:bmss.c        ****                         {   
 173              		.loc 1 109 0
 174 00a4 1E42     		tst	r6, r3
 175 00a6 2DD0     		beq	.L18
 111:bmss.c        ****                             {
 176              		.loc 1 111 0
 177 00a8 6A68     		ldr	r2, [r5, #4]
 123:bmss.c        ****                             }
 178              		.loc 1 123 0
 179 00aa 0826     		movs	r6, #8
 180              	.LVL18:
 111:bmss.c        ****                             {
 181              		.loc 1 111 0
 182 00ac 9388     		ldrh	r3, [r2, #4]
 183 00ae 072B     		cmp	r3, #7
 184 00b0 09D1     		bne	.L27
 113:bmss.c        ****                                 {
 185              		.loc 1 113 0
 186 00b2 0026     		movs	r6, #0
 187 00b4 063B     		subs	r3, r3, #6
 188 00b6 2380     		strh	r3, [r4]
 115:bmss.c        ****                                     {
 189              		.loc 1 115 0
 190 00b8 2D4B     		ldr	r3, .L44+40
 191 00ba 1968     		ldr	r1, [r3]
 192              	.LVL19:
 193              	.L14:
 113:bmss.c        ****                                 {
ARM GAS  C:\Users\user\AppData\Local\Temp\ccsRUCLw.s 			page 7


 194              		.loc 1 113 0 discriminator 1
 195 00bc 2388     		ldrh	r3, [r4]
 196 00be 062B     		cmp	r3, #6
 197 00c0 37D9     		bls	.L16
 131:bmss.c        ****                     }
 132:bmss.c        ****                 }
 133:bmss.c        ****             
 134:bmss.c        ****                 if(bmsGattError == CYBLE_GATT_ERR_NONE)
 198              		.loc 1 134 0
 199 00c2 002E     		cmp	r6, #0
 200 00c4 1ED0     		beq	.L18
 201              	.LVL20:
 202              	.L27:
 135:bmss.c        ****                 {
 136:bmss.c        ****                     apiResult = CyBle_GapGetPeerBdAddr(cyBle_connHandle.bdHandle, &peerBdAddr);
 137:bmss.c        ****               		DBG_PRINTF("CyBle_GapGetPeerBdAddr API result: ");
 138:bmss.c        ****                     PrintApiResult();
 139:bmss.c        ****                     
 140:bmss.c        ****                     apiResult = CyBle_GapGetBondedDevicesList(&bdList);
 141:bmss.c        ****             		DBG_PRINTF("CyBle_GapGetBondedDevicesList API result: ");
 142:bmss.c        ****                     PrintApiResult();
 143:bmss.c        ****                 }
 144:bmss.c        ****                 else
 145:bmss.c        ****                 {
 146:bmss.c        ****                     bmcp = 0u;
 203              		.loc 1 146 0
 204 00c6 0022     		movs	r2, #0
 205 00c8 234B     		ldr	r3, .L44+16
 206 00ca 1A70     		strb	r2, [r3]
 207              	.LVL21:
 208              	.L13:
 147:bmss.c        ****                 }
 148:bmss.c        ****             
 149:bmss.c        ****                 DBG_PRINTF("Gatt error: ");
 209              		.loc 1 149 0
 210 00cc 2948     		ldr	r0, .L44+44
 211 00ce FFF7FEFF 		bl	printf
 212              	.LVL22:
 150:bmss.c        ****                 switch(bmsGattError)
 213              		.loc 1 150 0
 214 00d2 082E     		cmp	r6, #8
 215 00d4 09D0     		beq	.L20
 216 00d6 802E     		cmp	r6, #128
 217 00d8 03D0     		beq	.L21
 151:bmss.c        ****                 {
 152:bmss.c        ****                     case CYBLE_GATT_ERR_NONE:
 153:bmss.c        ****                         DBG_PRINTF("Ok\r\n");
 218              		.loc 1 153 0
 219 00da 2748     		ldr	r0, .L44+48
 150:bmss.c        ****                 switch(bmsGattError)
 220              		.loc 1 150 0
 221 00dc 002E     		cmp	r6, #0
 222 00de 06D1     		bne	.L43
 223 00e0 00E0     		b	.L39
 224              	.L21:
 154:bmss.c        ****                         break;
 155:bmss.c        ****                     
ARM GAS  C:\Users\user\AppData\Local\Temp\ccsRUCLw.s 			page 8


 156:bmss.c        ****                     case CYBLE_GATT_ERR_OP_CODE_NOT_SUPPORTED:
 157:bmss.c        ****                         DBG_PRINTF("Op Code Not Supported\r\n");
 225              		.loc 1 157 0
 226 00e2 2648     		ldr	r0, .L44+52
 227              	.L39:
 228 00e4 FFF7FEFF 		bl	puts
 229              	.LVL23:
 158:bmss.c        ****                         break;
 230              		.loc 1 158 0
 231 00e8 05E0     		b	.L23
 232              	.L20:
 159:bmss.c        ****                         
 160:bmss.c        ****                     case CYBLE_GATT_ERR_INSUFFICIENT_AUTHORIZATION:
 161:bmss.c        ****                         DBG_PRINTF("Insufficient Authorization\r\n");
 233              		.loc 1 161 0
 234 00ea 2548     		ldr	r0, .L44+56
 235 00ec FAE7     		b	.L39
 236              	.L43:
 162:bmss.c        ****                         break;
 163:bmss.c        ****                     
 164:bmss.c        ****                     default:
 165:bmss.c        ****                         DBG_PRINTF("unexpected 0x%2.2x\r\n", bmsGattError);
 237              		.loc 1 165 0
 238 00ee 3100     		movs	r1, r6
 239 00f0 2448     		ldr	r0, .L44+60
 240 00f2 FFF7FEFF 		bl	printf
 241              	.LVL24:
 242              	.L23:
 166:bmss.c        ****                         break;
 167:bmss.c        ****                 }
 168:bmss.c        ****             
 169:bmss.c        ****                 ((CYBLE_BMS_CHAR_VALUE_T*)eventParam)->gattErrorCode = bmsGattError;
 243              		.loc 1 169 0
 244 00f6 2E72     		strb	r6, [r5, #8]
 245              	.LBE2:
 170:bmss.c        ****             }
 171:bmss.c        ****             break;
 246              		.loc 1 171 0
 247 00f8 24E0     		b	.L1
 248              	.LVL25:
 249              	.L32:
 172:bmss.c        ****             
 173:bmss.c        **** 		default:
 174:bmss.c        ****             DBG_PRINTF("unknown BMS event: 0x%lx \r\n", event);
 250              		.loc 1 174 0
 251 00fa 0100     		movs	r1, r0
 252              	.LVL26:
 253 00fc 2248     		ldr	r0, .L44+64
 254              	.LVL27:
 255 00fe FFF7FEFF 		bl	printf
 256              	.LVL28:
 175:bmss.c        **** 			break;
 176:bmss.c        ****     }
 177:bmss.c        **** }
 257              		.loc 1 177 0
 258 0102 1FE0     		b	.L1
 259              	.LVL29:
ARM GAS  C:\Users\user\AppData\Local\Temp\ccsRUCLw.s 			page 9


 260              	.L18:
 261              	.LBB3:
 136:bmss.c        ****               		DBG_PRINTF("CyBle_GapGetPeerBdAddr API result: ");
 262              		.loc 1 136 0
 263 0104 214B     		ldr	r3, .L44+68
 264 0106 2249     		ldr	r1, .L44+72
 265 0108 1878     		ldrb	r0, [r3]
 266 010a FFF7FEFF 		bl	CyBle_GapGetPeerBdAddr
 267              	.LVL30:
 268 010e 214C     		ldr	r4, .L44+76
 269 0110 0026     		movs	r6, #0
 270 0112 2080     		strh	r0, [r4]
 137:bmss.c        ****                     PrintApiResult();
 271              		.loc 1 137 0
 272 0114 2048     		ldr	r0, .L44+80
 273 0116 FFF7FEFF 		bl	printf
 274              	.LVL31:
 138:bmss.c        ****                     
 275              		.loc 1 138 0
 276 011a FFF7FEFF 		bl	PrintApiResult
 277              	.LVL32:
 140:bmss.c        ****             		DBG_PRINTF("CyBle_GapGetBondedDevicesList API result: ");
 278              		.loc 1 140 0
 279 011e 1F48     		ldr	r0, .L44+84
 280 0120 FFF7FEFF 		bl	CyBle_GapGetBondedDevicesList
 281              	.LVL33:
 282 0124 2080     		strh	r0, [r4]
 141:bmss.c        ****                     PrintApiResult();
 283              		.loc 1 141 0
 284 0126 1E48     		ldr	r0, .L44+88
 285 0128 FFF7FEFF 		bl	printf
 286              	.LVL34:
 142:bmss.c        ****                 }
 287              		.loc 1 142 0
 288 012c FFF7FEFF 		bl	PrintApiResult
 289              	.LVL35:
 290 0130 CCE7     		b	.L13
 291              	.LVL36:
 292              	.L16:
 115:bmss.c        ****                                     {
 293              		.loc 1 115 0
 294 0132 1068     		ldr	r0, [r2]
 295 0134 C75C     		ldrb	r7, [r0, r3]
 296 0136 C85C     		ldrb	r0, [r1, r3]
 297 0138 8742     		cmp	r7, r0
 298 013a 00D0     		beq	.L15
 117:bmss.c        ****                                     }
 299              		.loc 1 117 0
 300 013c 0826     		movs	r6, #8
 301              	.LVL37:
 302              	.L15:
 113:bmss.c        ****                                 {
 303              		.loc 1 113 0 discriminator 2
 304 013e 0133     		adds	r3, r3, #1
 305 0140 2380     		strh	r3, [r4]
 306 0142 BBE7     		b	.L14
 307              	.LVL38:
ARM GAS  C:\Users\user\AppData\Local\Temp\ccsRUCLw.s 			page 10


 308              	.L1:
 309              	.LBE3:
 310              		.loc 1 177 0
 311 0144 05B0     		add	sp, sp, #20
 312              		@ sp needed
 313              	.LVL39:
 314 0146 F0BD     		pop	{r4, r5, r6, r7, pc}
 315              	.L45:
 316              		.align	2
 317              	.L44:
 318 0148 00000000 		.word	.LC0
 319 014c 00000000 		.word	i
 320 0150 15000000 		.word	.LC3
 321 0154 1C000000 		.word	.LC5
 322 0158 00000000 		.word	.LANCHOR0
 323 015c 1E000000 		.word	.LC8
 324 0160 48000000 		.word	.LC10
 325 0164 6C000000 		.word	.LC12
 326 0168 9E000000 		.word	.LC14
 327 016c 0E010000 		.word	.LC25
 328 0170 00000000 		.word	.LANCHOR1
 329 0174 29010000 		.word	.LC27
 330 0178 36010000 		.word	.LC29
 331 017c 3A010000 		.word	.LC31
 332 0180 51010000 		.word	.LC33
 333 0184 6D010000 		.word	.LC35
 334 0188 82010000 		.word	.LC37
 335 018c 00000000 		.word	cyBle_connHandle
 336 0190 00000000 		.word	peerBdAddr
 337 0194 00000000 		.word	apiResult
 338 0198 BF000000 		.word	.LC19
 339 019c 00000000 		.word	bdList
 340 01a0 E3000000 		.word	.LC22
 341              		.cfi_endproc
 342              	.LFE37:
 343              		.size	BmsCallBack, .-BmsCallBack
 344              		.section	.text.BmsInit,"ax",%progbits
 345              		.align	1
 346              		.global	BmsInit
 347              		.code	16
 348              		.thumb_func
 349              		.type	BmsInit, %function
 350              	BmsInit:
 351              	.LFB36:
  38:bmss.c        ****     CyBle_BmsRegisterAttrCallback(BmsCallBack);
 352              		.loc 1 38 0
 353              		.cfi_startproc
 354              		@ args = 0, pretend = 0, frame = 0
 355              		@ frame_needed = 0, uses_anonymous_args = 0
 356 0000 10B5     		push	{r4, lr}
 357              		.cfi_def_cfa_offset 8
 358              		.cfi_offset 4, -8
 359              		.cfi_offset 14, -4
  39:bmss.c        **** }
 360              		.loc 1 39 0
 361 0002 0248     		ldr	r0, .L47
 362 0004 FFF7FEFF 		bl	CyBle_BmsRegisterAttrCallback
ARM GAS  C:\Users\user\AppData\Local\Temp\ccsRUCLw.s 			page 11


 363              	.LVL40:
  40:bmss.c        **** 
 364              		.loc 1 40 0
 365              		@ sp needed
 366 0008 10BD     		pop	{r4, pc}
 367              	.L48:
 368 000a C046     		.align	2
 369              	.L47:
 370 000c 00000000 		.word	BmsCallBack
 371              		.cfi_endproc
 372              	.LFE36:
 373              		.size	BmsInit, .-BmsInit
 374              		.section	.text.BmsProcess,"ax",%progbits
 375              		.align	1
 376              		.global	BmsProcess
 377              		.code	16
 378              		.thumb_func
 379              		.type	BmsProcess, %function
 380              	BmsProcess:
 381              	.LFB38:
 178:bmss.c        **** 
 179:bmss.c        **** 
 180:bmss.c        **** /******************************************************************************
 181:bmss.c        **** ##Function Name: BmsProcess
 182:bmss.c        **** *******************************************************************************
 183:bmss.c        **** 
 184:bmss.c        **** Summary:
 185:bmss.c        ****   Processes the BM control point requests.
 186:bmss.c        **** 
 187:bmss.c        **** ******************************************************************************/
 188:bmss.c        **** void BmsProcess(void)
 189:bmss.c        **** {
 382              		.loc 1 189 0
 383              		.cfi_startproc
 384              		@ args = 0, pretend = 0, frame = 0
 385              		@ frame_needed = 0, uses_anonymous_args = 0
 386 0000 70B5     		push	{r4, r5, r6, lr}
 387              		.cfi_def_cfa_offset 16
 388              		.cfi_offset 4, -16
 389              		.cfi_offset 5, -12
 390              		.cfi_offset 6, -8
 391              		.cfi_offset 14, -4
 190:bmss.c        ****     if(0u != bmcp)
 392              		.loc 1 190 0
 393 0002 264D     		ldr	r5, .L65
 394 0004 2B78     		ldrb	r3, [r5]
 395 0006 002B     		cmp	r3, #0
 396 0008 46D0     		beq	.L49
 397 000a 0022     		movs	r2, #0
 191:bmss.c        ****     {
 192:bmss.c        ****         switch(bmcp)
 398              		.loc 1 192 0
 399 000c 062B     		cmp	r3, #6
 400 000e 0ED0     		beq	.L52
 401 0010 092B     		cmp	r3, #9
 402 0012 20D0     		beq	.L53
 403 0014 032B     		cmp	r3, #3
ARM GAS  C:\Users\user\AppData\Local\Temp\ccsRUCLw.s 			page 12


 404 0016 3DD1     		bne	.L51
 193:bmss.c        ****         {
 194:bmss.c        ****             case CYBLE_BMS_BMCP_OPC_RD:
 195:bmss.c        ****                 apiResult = CyBle_GapRemoveDeviceFromWhiteList(&peerBdAddr);
 405              		.loc 1 195 0
 406 0018 2148     		ldr	r0, .L65+4
 407 001a FFF7FEFF 		bl	CyBle_GapRemoveDeviceFromWhiteList
 408              	.LVL41:
 409 001e 214B     		ldr	r3, .L65+8
 410 0020 1880     		strh	r0, [r3]
 196:bmss.c        ****                 DBG_PRINTF("CyBle_GapRemoveDeviceFromWhiteList API result: ");
 411              		.loc 1 196 0
 412 0022 2148     		ldr	r0, .L65+12
 413 0024 FFF7FEFF 		bl	printf
 414              	.LVL42:
 197:bmss.c        ****                 PrintApiResult();
 415              		.loc 1 197 0
 416 0028 FFF7FEFF 		bl	PrintApiResult
 417              	.LVL43:
 198:bmss.c        ****                 break;
 418              		.loc 1 198 0
 419 002c 32E0     		b	.L51
 420              	.L52:
 199:bmss.c        ****                 
 200:bmss.c        ****             case CYBLE_BMS_BMCP_OPC_AB:
 201:bmss.c        ****                 for(i = 0u; i < bdList.count; i++)
 421              		.loc 1 201 0
 422 002e 1F4C     		ldr	r4, .L65+16
 423 0030 2280     		strh	r2, [r4]
 424              	.L55:
 425              		.loc 1 201 0 is_stmt 0 discriminator 1
 426 0032 1F4B     		ldr	r3, .L65+20
 427 0034 1A78     		ldrb	r2, [r3]
 428 0036 2388     		ldrh	r3, [r4]
 429 0038 9A42     		cmp	r2, r3
 430 003a 2BD9     		bls	.L51
 202:bmss.c        ****                 {
 203:bmss.c        ****                     apiResult = CyBle_GapRemoveOldestDeviceFromBondedList();
 431              		.loc 1 203 0 is_stmt 1 discriminator 3
 432 003c FFF7FEFF 		bl	CyBle_GapRemoveOldestDeviceFromBondedList
 433              	.LVL44:
 434 0040 184B     		ldr	r3, .L65+8
 435 0042 1880     		strh	r0, [r3]
 204:bmss.c        ****                     DBG_PRINTF("CyBle_GapRemoveOldestDeviceFromBondedList API result: ");
 436              		.loc 1 204 0 discriminator 3
 437 0044 1B48     		ldr	r0, .L65+24
 438 0046 FFF7FEFF 		bl	printf
 439              	.LVL45:
 205:bmss.c        ****                     PrintApiResult();
 440              		.loc 1 205 0 discriminator 3
 441 004a FFF7FEFF 		bl	PrintApiResult
 442              	.LVL46:
 201:bmss.c        ****                 {
 443              		.loc 1 201 0 discriminator 3
 444 004e 2388     		ldrh	r3, [r4]
 445 0050 0133     		adds	r3, r3, #1
 446 0052 2380     		strh	r3, [r4]
ARM GAS  C:\Users\user\AppData\Local\Temp\ccsRUCLw.s 			page 13


 447 0054 EDE7     		b	.L55
 448              	.L53:
 206:bmss.c        ****                 }
 207:bmss.c        ****                 break;
 208:bmss.c        ****                 
 209:bmss.c        ****             case CYBLE_BMS_BMCP_OPC_BA:
 210:bmss.c        ****                 for(i = 0u; i < bdList.count; i++)
 211:bmss.c        ****                 {
 212:bmss.c        ****                     if((bdList.bdAddrList[i].bdAddr != peerBdAddr.bdAddr) ||
 449              		.loc 1 212 0
 450 0056 0726     		movs	r6, #7
 210:bmss.c        ****                 {
 451              		.loc 1 210 0
 452 0058 144C     		ldr	r4, .L65+16
 453 005a 2280     		strh	r2, [r4]
 454              	.L57:
 210:bmss.c        ****                 {
 455              		.loc 1 210 0 is_stmt 0 discriminator 1
 456 005c 144B     		ldr	r3, .L65+20
 457 005e 2288     		ldrh	r2, [r4]
 458 0060 1978     		ldrb	r1, [r3]
 459 0062 9142     		cmp	r1, r2
 460 0064 16D9     		bls	.L51
 461              		.loc 1 212 0 is_stmt 1
 462 0066 7243     		muls	r2, r6
 463 0068 D318     		adds	r3, r2, r3
 464 006a 0D4A     		ldr	r2, .L65+4
 465 006c 581C     		adds	r0, r3, #1
 466 006e 9042     		cmp	r0, r2
 467 0070 03D1     		bne	.L58
 468              		.loc 1 212 0 is_stmt 0 discriminator 1
 469 0072 DA79     		ldrb	r2, [r3, #7]
 470 0074 8379     		ldrb	r3, [r0, #6]
 471 0076 9A42     		cmp	r2, r3
 472 0078 08D0     		beq	.L59
 473              	.L58:
 213:bmss.c        ****                        (bdList.bdAddrList[i].type != peerBdAddr.type))
 214:bmss.c        ****                     {
 215:bmss.c        ****                         apiResult = CyBle_GapRemoveDeviceFromWhiteList(&bdList.bdAddrList[i]);
 474              		.loc 1 215 0 is_stmt 1
 475 007a FFF7FEFF 		bl	CyBle_GapRemoveDeviceFromWhiteList
 476              	.LVL47:
 477 007e 094B     		ldr	r3, .L65+8
 478 0080 1880     		strh	r0, [r3]
 216:bmss.c        ****                         DBG_PRINTF("CyBle_GapRemoveDeviceFromWhiteList API result: ");
 479              		.loc 1 216 0
 480 0082 0948     		ldr	r0, .L65+12
 481 0084 FFF7FEFF 		bl	printf
 482              	.LVL48:
 217:bmss.c        ****                         PrintApiResult();
 483              		.loc 1 217 0
 484 0088 FFF7FEFF 		bl	PrintApiResult
 485              	.LVL49:
 486              	.L59:
 210:bmss.c        ****                 {
 487              		.loc 1 210 0 discriminator 2
 488 008c 2388     		ldrh	r3, [r4]
ARM GAS  C:\Users\user\AppData\Local\Temp\ccsRUCLw.s 			page 14


 489 008e 0133     		adds	r3, r3, #1
 490 0090 2380     		strh	r3, [r4]
 491 0092 E3E7     		b	.L57
 492              	.L51:
 218:bmss.c        ****                     }
 219:bmss.c        ****                 }
 220:bmss.c        ****                 break;
 221:bmss.c        ****                 
 222:bmss.c        ****             default:
 223:bmss.c        ****     			break;
 224:bmss.c        ****         }
 225:bmss.c        ****         
 226:bmss.c        ****         bmcp = 0u;
 493              		.loc 1 226 0
 494 0094 0023     		movs	r3, #0
 495 0096 2B70     		strb	r3, [r5]
 496              	.L49:
 227:bmss.c        ****     }
 228:bmss.c        **** }
 497              		.loc 1 228 0
 498              		@ sp needed
 499 0098 70BD     		pop	{r4, r5, r6, pc}
 500              	.L66:
 501 009a C046     		.align	2
 502              	.L65:
 503 009c 00000000 		.word	.LANCHOR0
 504 00a0 00000000 		.word	peerBdAddr
 505 00a4 00000000 		.word	apiResult
 506 00a8 9E010000 		.word	.LC43
 507 00ac 00000000 		.word	i
 508 00b0 00000000 		.word	bdList
 509 00b4 CE010000 		.word	.LC46
 510              		.cfi_endproc
 511              	.LFE38:
 512              		.size	BmsProcess, .-BmsProcess
 513              		.global	authCode
 514              		.global	bmcp
 515              		.global	unbond
 516              		.comm	peerBdAddr,7,1
 517              		.comm	bdList,29,1
 518              		.section	.rodata.str1.1,"aMS",%progbits,1
 519              	.LC0:
 520 0000 424D4350 		.ascii	"BMCP write request: \000"
 520      20777269 
 520      74652072 
 520      65717565 
 520      73743A20 
 521              	.LC3:
 522 0015 25322E32 		.ascii	"%2.2x \000"
 522      782000
 523              	.LC5:
 524 001c 0D00     		.ascii	"\015\000"
 525              	.LC8:
 526 001e 4F70436F 		.ascii	"OpCode: Delete bond of requesting device\015\000"
 526      64653A20 
 526      44656C65 
 526      74652062 
ARM GAS  C:\Users\user\AppData\Local\Temp\ccsRUCLw.s 			page 15


 526      6F6E6420 
 527              	.LC10:
 528 0048 4F70436F 		.ascii	"OpCode: Delete all bonds on server\015\000"
 528      64653A20 
 528      44656C65 
 528      74652061 
 528      6C6C2062 
 529              	.LC12:
 530 006c 4F70436F 		.ascii	"OpCode: Delete all but the active bond on server\015"
 530      64653A20 
 530      44656C65 
 530      74652061 
 530      6C6C2062 
 531 009d 00       		.ascii	"\000"
 532              	.LC14:
 533 009e 756E7375 		.ascii	"unsupported BMCP OpCode: 0x%x \015\012\000"
 533      70706F72 
 533      74656420 
 533      424D4350 
 533      204F7043 
 534              	.LC19:
 535 00bf 4379426C 		.ascii	"CyBle_GapGetPeerBdAddr API result: \000"
 535      655F4761 
 535      70476574 
 535      50656572 
 535      42644164 
 536              	.LC22:
 537 00e3 4379426C 		.ascii	"CyBle_GapGetBondedDevicesList API result: \000"
 537      655F4761 
 537      70476574 
 537      426F6E64 
 537      65644465 
 538              	.LC25:
 539 010e 74686973 		.ascii	"this OpCode not supported\015\000"
 539      204F7043 
 539      6F646520 
 539      6E6F7420 
 539      73757070 
 540              	.LC27:
 541 0129 47617474 		.ascii	"Gatt error: \000"
 541      20657272 
 541      6F723A20 
 541      00
 542              	.LC29:
 543 0136 4F6B0D00 		.ascii	"Ok\015\000"
 544              	.LC31:
 545 013a 4F702043 		.ascii	"Op Code Not Supported\015\000"
 545      6F646520 
 545      4E6F7420 
 545      53757070 
 545      6F727465 
 546              	.LC33:
 547 0151 496E7375 		.ascii	"Insufficient Authorization\015\000"
 547      66666963 
 547      69656E74 
 547      20417574 
 547      686F7269 
ARM GAS  C:\Users\user\AppData\Local\Temp\ccsRUCLw.s 			page 16


 548              	.LC35:
 549 016d 756E6578 		.ascii	"unexpected 0x%2.2x\015\012\000"
 549      70656374 
 549      65642030 
 549      7825322E 
 549      32780D0A 
 550              	.LC37:
 551 0182 756E6B6E 		.ascii	"unknown BMS event: 0x%lx \015\012\000"
 551      6F776E20 
 551      424D5320 
 551      6576656E 
 551      743A2030 
 552              	.LC43:
 553 019e 4379426C 		.ascii	"CyBle_GapRemoveDeviceFromWhiteList API result: \000"
 553      655F4761 
 553      7052656D 
 553      6F766544 
 553      65766963 
 554              	.LC46:
 555 01ce 4379426C 		.ascii	"CyBle_GapRemoveOldestDeviceFromBondedList API resul"
 555      655F4761 
 555      7052656D 
 555      6F76654F 
 555      6C646573 
 556 0201 743A2000 		.ascii	"t: \000"
 557              	.LC49:
 558 0205 30616263 		.ascii	"0abcdef\000"
 558      64656600 
 559              		.data
 560              		.align	2
 561              		.set	.LANCHOR1,. + 0
 562              		.type	authCode, %object
 563              		.size	authCode, 4
 564              	authCode:
 565 0000 05020000 		.word	.LC49
 566              		.bss
 567              		.set	.LANCHOR0,. + 0
 568              		.type	bmcp, %object
 569              		.size	bmcp, 1
 570              	bmcp:
 571 0000 00       		.space	1
 572              		.type	unbond, %object
 573              		.size	unbond, 1
 574              	unbond:
 575 0001 00       		.space	1
 576              		.text
 577              	.Letext0:
 578              		.file 2 "Generated_Source\\PSoC4/cytypes.h"
 579              		.file 3 "Generated_Source\\PSoC4/BLE_Stack.h"
 580              		.file 4 "Generated_Source\\PSoC4/BLE_StackGap.h"
 581              		.file 5 "Generated_Source\\PSoC4/BLE_StackGatt.h"
 582              		.file 6 "Generated_Source\\PSoC4/BLE_bms.h"
 583              		.file 7 "Generated_Source\\PSoC4/BLE_cgms.h"
 584              		.file 8 "Generated_Source\\PSoC4/BLE_dis.h"
 585              		.file 9 "Generated_Source\\PSoC4/BLE_eventHandler.h"
 586              		.file 10 "main.h"
 587              		.file 11 "c:\\program files (x86)\\cypress\\psoc creator\\4.4\\psoc creator\\import\\gnu\\arm\\5.4
ARM GAS  C:\Users\user\AppData\Local\Temp\ccsRUCLw.s 			page 17


 588              		.file 12 "debug.h"
 589              		.file 13 "<built-in>"