ARM GAS  C:\Users\user\AppData\Local\Temp\ccsPNKJ0.s 			page 1


   1              		.syntax unified
   2              		.cpu cortex-m0
   3              		.fpu softvfp
   4              		.eabi_attribute 20, 1
   5              		.eabi_attribute 21, 1
   6              		.eabi_attribute 23, 3
   7              		.eabi_attribute 24, 1
   8              		.eabi_attribute 25, 1
   9              		.eabi_attribute 26, 1
  10              		.eabi_attribute 30, 4
  11              		.eabi_attribute 34, 0
  12              		.eabi_attribute 18, 4
  13              		.thumb
  14              		.syntax unified
  15              		.file	"CyLFClk.c"
  16              		.text
  17              	.Ltext0:
  18              		.cfi_sections	.debug_frame
  19              		.section	.text.CySysClkWcoSetHighPowerMode,"ax",%progbits
  20              		.align	1
  21              		.code	16
  22              		.thumb_func
  23              		.type	CySysClkWcoSetHighPowerMode, %function
  24              	CySysClkWcoSetHighPowerMode:
  25              	.LFB0:
  26              		.file 1 "Generated_Source\\PSoC4\\CyLFClk.h"
   1:Generated_Source\PSoC4/CyLFClk.h **** /***************************************************************************//**
   2:Generated_Source\PSoC4/CyLFClk.h **** * \file .h
   3:Generated_Source\PSoC4/CyLFClk.h **** * \version 1.20
   4:Generated_Source\PSoC4/CyLFClk.h **** *
   5:Generated_Source\PSoC4/CyLFClk.h **** * \brief
   6:Generated_Source\PSoC4/CyLFClk.h **** *  This file provides the source code to API for the lfclk and wdt.
   7:Generated_Source\PSoC4/CyLFClk.h **** *
   8:Generated_Source\PSoC4/CyLFClk.h **** ********************************************************************************
   9:Generated_Source\PSoC4/CyLFClk.h **** * \copyright
  10:Generated_Source\PSoC4/CyLFClk.h **** * Copyright 2008-2017, Cypress Semiconductor Corporation.  All rights reserved.
  11:Generated_Source\PSoC4/CyLFClk.h **** * You may use this file only in accordance with the license, terms, conditions,
  12:Generated_Source\PSoC4/CyLFClk.h **** * disclaimers, and limitations in the end user license agreement accompanying
  13:Generated_Source\PSoC4/CyLFClk.h **** * the software package with which this file was provided.
  14:Generated_Source\PSoC4/CyLFClk.h **** *******************************************************************************/
  15:Generated_Source\PSoC4/CyLFClk.h **** 
  16:Generated_Source\PSoC4/CyLFClk.h **** 
  17:Generated_Source\PSoC4/CyLFClk.h **** #if !defined(CY_LFCLK_CYLIB_H)
  18:Generated_Source\PSoC4/CyLFClk.h **** #define CY_LFCLK_CYLIB_H
  19:Generated_Source\PSoC4/CyLFClk.h **** 
  20:Generated_Source\PSoC4/CyLFClk.h **** #include "cytypes.h"
  21:Generated_Source\PSoC4/CyLFClk.h **** #include "cydevice_trm.h"
  22:Generated_Source\PSoC4/CyLFClk.h **** 
  23:Generated_Source\PSoC4/CyLFClk.h **** #define CY_IP_WCO_WDT_EN           (-1 == 1)
  24:Generated_Source\PSoC4/CyLFClk.h **** 
  25:Generated_Source\PSoC4/CyLFClk.h **** typedef enum
  26:Generated_Source\PSoC4/CyLFClk.h **** {
  27:Generated_Source\PSoC4/CyLFClk.h ****     CY_SYS_TIMER_WAIT = 0u,
  28:Generated_Source\PSoC4/CyLFClk.h ****     CY_SYS_TIMER_INTERRUPT = 1u
  29:Generated_Source\PSoC4/CyLFClk.h **** } cy_sys_timer_delaytype_enum;
  30:Generated_Source\PSoC4/CyLFClk.h **** 
  31:Generated_Source\PSoC4/CyLFClk.h **** 
ARM GAS  C:\Users\user\AppData\Local\Temp\ccsPNKJ0.s 			page 2


  32:Generated_Source\PSoC4/CyLFClk.h **** /***************************************
  33:Generated_Source\PSoC4/CyLFClk.h **** *    Function Prototypes
  34:Generated_Source\PSoC4/CyLFClk.h **** ***************************************/
  35:Generated_Source\PSoC4/CyLFClk.h **** /**
  36:Generated_Source\PSoC4/CyLFClk.h **** * \addtogroup group_general
  37:Generated_Source\PSoC4/CyLFClk.h **** * @{
  38:Generated_Source\PSoC4/CyLFClk.h **** */
  39:Generated_Source\PSoC4/CyLFClk.h **** /* Clocks API */
  40:Generated_Source\PSoC4/CyLFClk.h **** void CySysClkIloStart(void);
  41:Generated_Source\PSoC4/CyLFClk.h **** void CySysClkIloStop(void);
  42:Generated_Source\PSoC4/CyLFClk.h **** /** @} general */
  43:Generated_Source\PSoC4/CyLFClk.h **** 
  44:Generated_Source\PSoC4/CyLFClk.h **** /**
  45:Generated_Source\PSoC4/CyLFClk.h **** * \addtogroup group_compensate
  46:Generated_Source\PSoC4/CyLFClk.h **** * @{
  47:Generated_Source\PSoC4/CyLFClk.h **** */
  48:Generated_Source\PSoC4/CyLFClk.h **** cystatus CySysClkIloCompensate(uint32 desiredDelay, uint32 *compensatedCycles);
  49:Generated_Source\PSoC4/CyLFClk.h **** void CySysClkIloStartMeasurement(void);
  50:Generated_Source\PSoC4/CyLFClk.h **** void CySysClkIloStopMeasurement(void);
  51:Generated_Source\PSoC4/CyLFClk.h **** /** @} compensate */
  52:Generated_Source\PSoC4/CyLFClk.h **** 
  53:Generated_Source\PSoC4/CyLFClk.h **** #if(CY_IP_SRSSV2 && (!CY_IP_CPUSS))
  54:Generated_Source\PSoC4/CyLFClk.h ****     /**
  55:Generated_Source\PSoC4/CyLFClk.h ****     * \addtogroup group_compensate
  56:Generated_Source\PSoC4/CyLFClk.h ****     * @{
  57:Generated_Source\PSoC4/CyLFClk.h ****     */
  58:Generated_Source\PSoC4/CyLFClk.h ****     cystatus CySysClkIloTrim(uint32 mode, int32 *iloAccuracyInPPT);
  59:Generated_Source\PSoC4/CyLFClk.h ****     cystatus CySysClkIloRestoreFactoryTrim(void);
  60:Generated_Source\PSoC4/CyLFClk.h ****     /** @} compensate */
  61:Generated_Source\PSoC4/CyLFClk.h ****     cystatus CySysClkIloUpdateTrimReg(int32* iloAccuracyInPPT);
  62:Generated_Source\PSoC4/CyLFClk.h **** #endif /* (CY_IP_SRSSV2 && (!CY_IP_CPUSS)) */
  63:Generated_Source\PSoC4/CyLFClk.h **** 
  64:Generated_Source\PSoC4/CyLFClk.h **** #if(CY_IP_SRSSV2 && CY_IP_WCO)
  65:Generated_Source\PSoC4/CyLFClk.h ****     /**
  66:Generated_Source\PSoC4/CyLFClk.h ****     * \addtogroup group_general
  67:Generated_Source\PSoC4/CyLFClk.h ****     * @{
  68:Generated_Source\PSoC4/CyLFClk.h ****     */
  69:Generated_Source\PSoC4/CyLFClk.h ****     void CySysClkSetLfclkSource(uint32 source);
  70:Generated_Source\PSoC4/CyLFClk.h ****     /** @} group_general */
  71:Generated_Source\PSoC4/CyLFClk.h **** #endif /* (CY_IP_SRSSV2 && CY_IP_WCO) */
  72:Generated_Source\PSoC4/CyLFClk.h **** 
  73:Generated_Source\PSoC4/CyLFClk.h **** #if (CY_IP_WCO)
  74:Generated_Source\PSoC4/CyLFClk.h ****     /**
  75:Generated_Source\PSoC4/CyLFClk.h ****     * \addtogroup group_wco
  76:Generated_Source\PSoC4/CyLFClk.h ****     * @{
  77:Generated_Source\PSoC4/CyLFClk.h ****     */
  78:Generated_Source\PSoC4/CyLFClk.h ****     void   CySysClkWcoStart(void);
  79:Generated_Source\PSoC4/CyLFClk.h ****     void   CySysClkWcoStop(void);
  80:Generated_Source\PSoC4/CyLFClk.h ****     uint32 CySysClkWcoSetPowerMode(uint32 mode);
  81:Generated_Source\PSoC4/CyLFClk.h ****     void CySysClkWcoClockOutSelect(uint32 clockSel);
  82:Generated_Source\PSoC4/CyLFClk.h ****     /** @} wco */
  83:Generated_Source\PSoC4/CyLFClk.h **** 
  84:Generated_Source\PSoC4/CyLFClk.h ****     uint32 CySysClkWcoEnabled(void);
  85:Generated_Source\PSoC4/CyLFClk.h **** 
  86:Generated_Source\PSoC4/CyLFClk.h **** #endif /* (CY_IP_WCO) */
  87:Generated_Source\PSoC4/CyLFClk.h **** 
  88:Generated_Source\PSoC4/CyLFClk.h **** typedef void (*cyWdtCallback)(void);
ARM GAS  C:\Users\user\AppData\Local\Temp\ccsPNKJ0.s 			page 3


  89:Generated_Source\PSoC4/CyLFClk.h **** 
  90:Generated_Source\PSoC4/CyLFClk.h **** #if (CY_IP_SRSSLT && CY_IP_WCO && CY_IP_WCO_WDT_EN)
  91:Generated_Source\PSoC4/CyLFClk.h **** 
  92:Generated_Source\PSoC4/CyLFClk.h ****     typedef void (*cyTimerCallback)(void);
  93:Generated_Source\PSoC4/CyLFClk.h **** #endif /* (CY_IP_SRSSLT && CY_IP_WCO && CY_IP_WCO_WDT_EN) */
  94:Generated_Source\PSoC4/CyLFClk.h **** 
  95:Generated_Source\PSoC4/CyLFClk.h **** #if(CY_IP_SRSSV2)
  96:Generated_Source\PSoC4/CyLFClk.h ****     /**
  97:Generated_Source\PSoC4/CyLFClk.h ****     * \addtogroup group_wdtsrssv2
  98:Generated_Source\PSoC4/CyLFClk.h ****     * @{
  99:Generated_Source\PSoC4/CyLFClk.h ****     */
 100:Generated_Source\PSoC4/CyLFClk.h ****     /* WDT API */
 101:Generated_Source\PSoC4/CyLFClk.h ****     void   CySysWdtLock(void);
 102:Generated_Source\PSoC4/CyLFClk.h ****     void   CySysWdtUnlock(void);
 103:Generated_Source\PSoC4/CyLFClk.h ****     void   CySysWdtSetMode(uint32 counterNum, uint32 mode);
 104:Generated_Source\PSoC4/CyLFClk.h ****     uint32 CySysWdtGetMode(uint32 counterNum);
 105:Generated_Source\PSoC4/CyLFClk.h ****     uint32 CySysWdtGetEnabledStatus(uint32 counterNum);
 106:Generated_Source\PSoC4/CyLFClk.h ****     void   CySysWdtSetClearOnMatch(uint32 counterNum, uint32 enable);
 107:Generated_Source\PSoC4/CyLFClk.h ****     uint32 CySysWdtGetClearOnMatch(uint32 counterNum);
 108:Generated_Source\PSoC4/CyLFClk.h ****     void   CySysWdtEnable(uint32 counterMask);
 109:Generated_Source\PSoC4/CyLFClk.h ****     void   CySysWdtDisable(uint32 counterMask);
 110:Generated_Source\PSoC4/CyLFClk.h ****     void   CySysWdtSetCascade(uint32 cascadeMask);
 111:Generated_Source\PSoC4/CyLFClk.h ****     uint32 CySysWdtGetCascade(void);
 112:Generated_Source\PSoC4/CyLFClk.h ****     void   CySysWdtSetMatch(uint32 counterNum, uint32 match);
 113:Generated_Source\PSoC4/CyLFClk.h ****     void   CySysWdtSetToggleBit(uint32 bits);
 114:Generated_Source\PSoC4/CyLFClk.h ****     uint32 CySysWdtGetToggleBit(void);
 115:Generated_Source\PSoC4/CyLFClk.h ****     uint32 CySysWdtGetMatch(uint32 counterNum);
 116:Generated_Source\PSoC4/CyLFClk.h ****     uint32 CySysWdtGetCount(uint32 counterNum);
 117:Generated_Source\PSoC4/CyLFClk.h ****     uint32 CySysWdtGetInterruptSource(void);
 118:Generated_Source\PSoC4/CyLFClk.h ****     void   CySysWdtClearInterrupt(uint32 counterMask);
 119:Generated_Source\PSoC4/CyLFClk.h ****     void   CySysWdtResetCounters(uint32 countersMask);
 120:Generated_Source\PSoC4/CyLFClk.h ****     cyWdtCallback  CySysWdtSetInterruptCallback(uint32 counterNum, cyWdtCallback function);
 121:Generated_Source\PSoC4/CyLFClk.h ****     cyWdtCallback  CySysWdtGetInterruptCallback(uint32 counterNum);
 122:Generated_Source\PSoC4/CyLFClk.h ****     void   CySysTimerDelay(uint32 counterNum, cy_sys_timer_delaytype_enum delayType, uint32 delay);
 123:Generated_Source\PSoC4/CyLFClk.h ****     void   CySysTimerDelayUntilMatch(uint32 counterNum, cy_sys_timer_delaytype_enum delayType, uint
 124:Generated_Source\PSoC4/CyLFClk.h ****     void   CySysWatchdogFeed(uint32 counterNum);
 125:Generated_Source\PSoC4/CyLFClk.h ****     void   CySysWdtEnableCounterIsr(uint32 counterNum);
 126:Generated_Source\PSoC4/CyLFClk.h ****     void   CySysWdtDisableCounterIsr(uint32 counterNum);
 127:Generated_Source\PSoC4/CyLFClk.h ****     void   CySysWdtIsr(void);
 128:Generated_Source\PSoC4/CyLFClk.h ****     /** @} wdtsrssv2 */
 129:Generated_Source\PSoC4/CyLFClk.h **** #else
 130:Generated_Source\PSoC4/CyLFClk.h ****     /**
 131:Generated_Source\PSoC4/CyLFClk.h ****     * \addtogroup group_wdtsrsslite
 132:Generated_Source\PSoC4/CyLFClk.h ****     * @{
 133:Generated_Source\PSoC4/CyLFClk.h ****     */
 134:Generated_Source\PSoC4/CyLFClk.h ****     /* WDT API */
 135:Generated_Source\PSoC4/CyLFClk.h ****     uint32 CySysWdtGetEnabledStatus(void);
 136:Generated_Source\PSoC4/CyLFClk.h ****     void   CySysWdtEnable(void);
 137:Generated_Source\PSoC4/CyLFClk.h ****     void   CySysWdtDisable(void);
 138:Generated_Source\PSoC4/CyLFClk.h ****     void   CySysWdtSetMatch(uint32 match);
 139:Generated_Source\PSoC4/CyLFClk.h ****     uint32 CySysWdtGetMatch(void);
 140:Generated_Source\PSoC4/CyLFClk.h ****     uint32 CySysWdtGetCount(void);
 141:Generated_Source\PSoC4/CyLFClk.h ****     void   CySysWdtSetIgnoreBits(uint32 bitsNum);
 142:Generated_Source\PSoC4/CyLFClk.h ****     uint32 CySysWdtGetIgnoreBits(void);
 143:Generated_Source\PSoC4/CyLFClk.h ****     void   CySysWdtClearInterrupt(void);
 144:Generated_Source\PSoC4/CyLFClk.h ****     void   CySysWdtMaskInterrupt(void);
 145:Generated_Source\PSoC4/CyLFClk.h ****     void   CySysWdtUnmaskInterrupt(void);
ARM GAS  C:\Users\user\AppData\Local\Temp\ccsPNKJ0.s 			page 4


 146:Generated_Source\PSoC4/CyLFClk.h ****     cyWdtCallback CySysWdtSetInterruptCallback(cyWdtCallback function);
 147:Generated_Source\PSoC4/CyLFClk.h ****     cyWdtCallback CySysWdtGetInterruptCallback(void);
 148:Generated_Source\PSoC4/CyLFClk.h ****     void   CySysWdtIsr(void);
 149:Generated_Source\PSoC4/CyLFClk.h ****     /** @} wdtsrsslite*/
 150:Generated_Source\PSoC4/CyLFClk.h **** #endif  /* (CY_IP_SRSSV2) */
 151:Generated_Source\PSoC4/CyLFClk.h **** 
 152:Generated_Source\PSoC4/CyLFClk.h **** 
 153:Generated_Source\PSoC4/CyLFClk.h **** #if(CY_IP_SRSSLT && CY_IP_WCO && CY_IP_WCO_WDT_EN)
 154:Generated_Source\PSoC4/CyLFClk.h ****     /**
 155:Generated_Source\PSoC4/CyLFClk.h ****     * \addtogroup group_deepsleepwdt
 156:Generated_Source\PSoC4/CyLFClk.h ****     * @{
 157:Generated_Source\PSoC4/CyLFClk.h ****     */
 158:Generated_Source\PSoC4/CyLFClk.h ****     /* WCO WDT APIs */
 159:Generated_Source\PSoC4/CyLFClk.h ****     void   CySysClkSetTimerSource(uint32 source);
 160:Generated_Source\PSoC4/CyLFClk.h ****     void   CySysTimerSetMode(uint32 counterNum, uint32 mode);
 161:Generated_Source\PSoC4/CyLFClk.h ****     uint32 CySysTimerGetMode(uint32 counterNum);
 162:Generated_Source\PSoC4/CyLFClk.h ****     uint32 CySysTimerGetEnabledStatus(uint32 counterNum);
 163:Generated_Source\PSoC4/CyLFClk.h ****     void   CySysTimerSetClearOnMatch(uint32 counterNum, uint32 enable);
 164:Generated_Source\PSoC4/CyLFClk.h ****     uint32 CySysTimerGetClearOnMatch(uint32 counterNum);
 165:Generated_Source\PSoC4/CyLFClk.h ****     void   CySysTimerEnable(uint32 counterMask);
 166:Generated_Source\PSoC4/CyLFClk.h ****     void   CySysTimerDisable(uint32 counterMask);
 167:Generated_Source\PSoC4/CyLFClk.h ****     void   CySysTimerSetCascade(uint32 cascadeMask);
 168:Generated_Source\PSoC4/CyLFClk.h ****     uint32 CySysTimerGetCascade(void);
 169:Generated_Source\PSoC4/CyLFClk.h ****     void   CySysTimerSetMatch(uint32 counterNum, uint32 match);
 170:Generated_Source\PSoC4/CyLFClk.h ****     void   CySysTimerSetToggleBit(uint32 bits);
 171:Generated_Source\PSoC4/CyLFClk.h ****     uint32 CySysTimerGetToggleBit(void);
 172:Generated_Source\PSoC4/CyLFClk.h ****     uint32 CySysTimerGetMatch(uint32 counterNum);
 173:Generated_Source\PSoC4/CyLFClk.h ****     uint32 CySysTimerGetCount(uint32 counterNum);
 174:Generated_Source\PSoC4/CyLFClk.h ****     uint32 CySysTimerGetInterruptSource(void);
 175:Generated_Source\PSoC4/CyLFClk.h ****     void   CySysTimerClearInterrupt(uint32 counterMask);
 176:Generated_Source\PSoC4/CyLFClk.h ****     cyTimerCallback CySysTimerSetInterruptCallback(uint32 counterNum, cyTimerCallback function);
 177:Generated_Source\PSoC4/CyLFClk.h ****     cyTimerCallback CySysTimerGetInterruptCallback(uint32 counterNum);
 178:Generated_Source\PSoC4/CyLFClk.h ****     void   CySysTimerDelay(uint32 counterNum, cy_sys_timer_delaytype_enum delayType, uint32 delay);
 179:Generated_Source\PSoC4/CyLFClk.h ****     void   CySysTimerDelayUntilMatch(uint32 counterNum, cy_sys_timer_delaytype_enum delayType, uint
 180:Generated_Source\PSoC4/CyLFClk.h ****     void   CySysTimerResetCounters(uint32 countersMask);
 181:Generated_Source\PSoC4/CyLFClk.h ****     void   CySysTimerEnableIsr(uint32 counterNum);
 182:Generated_Source\PSoC4/CyLFClk.h ****     void   CySysTimerDisableIsr(uint32 counterNum);
 183:Generated_Source\PSoC4/CyLFClk.h ****     void   CySysTimerIsr(void);
 184:Generated_Source\PSoC4/CyLFClk.h ****     /** @} deepsleepwdt */
 185:Generated_Source\PSoC4/CyLFClk.h **** #endif /* (CY_IP_SRSSLT && CY_IP_WCO && CY_IP_WCO_WDT_EN) */
 186:Generated_Source\PSoC4/CyLFClk.h **** 
 187:Generated_Source\PSoC4/CyLFClk.h **** 
 188:Generated_Source\PSoC4/CyLFClk.h **** /*******************************************************************************
 189:Generated_Source\PSoC4/CyLFClk.h **** * API Constants
 190:Generated_Source\PSoC4/CyLFClk.h **** *******************************************************************************/
 191:Generated_Source\PSoC4/CyLFClk.h **** #define CY_SYS_UINT16_MAX_VAL    (0xFFFFu)
 192:Generated_Source\PSoC4/CyLFClk.h **** 
 193:Generated_Source\PSoC4/CyLFClk.h **** 
 194:Generated_Source\PSoC4/CyLFClk.h **** /*******************************************************************************
 195:Generated_Source\PSoC4/CyLFClk.h **** * Clock API Constants
 196:Generated_Source\PSoC4/CyLFClk.h **** *******************************************************************************/
 197:Generated_Source\PSoC4/CyLFClk.h **** 
 198:Generated_Source\PSoC4/CyLFClk.h **** /* CySysClkIloStart()/CySysClkIloStop() - implementation definitions */
 199:Generated_Source\PSoC4/CyLFClk.h **** #define CY_SYS_CLK_ILO_CONFIG_ENABLE                    ((uint32)(( uint32 )0x01u << 31u))
 200:Generated_Source\PSoC4/CyLFClk.h **** #define CY_SYS_CLK_DFT_SELECT_DEFAULT_MASK              ((uint32)(( uint32 )0x0fu << 8u ))
 201:Generated_Source\PSoC4/CyLFClk.h **** 
 202:Generated_Source\PSoC4/CyLFClk.h **** /* CySysClkIloCompensate() - one ILO clock in uS multiplied on thousand */
ARM GAS  C:\Users\user\AppData\Local\Temp\ccsPNKJ0.s 			page 5


 203:Generated_Source\PSoC4/CyLFClk.h **** #if (CY_IP_SRSSV2)
 204:Generated_Source\PSoC4/CyLFClk.h ****     #define CY_SYS_CLK_ILO_PERIOD_PPH                   ((uint32) (0x0C35u))
 205:Generated_Source\PSoC4/CyLFClk.h **** #else
 206:Generated_Source\PSoC4/CyLFClk.h ****     #define CY_SYS_CLK_ILO_PERIOD_PPH                   ((uint32) (0x09C4u))
 207:Generated_Source\PSoC4/CyLFClk.h **** #endif /* (CY_IP_SRSSV2) */
 208:Generated_Source\PSoC4/CyLFClk.h **** 
 209:Generated_Source\PSoC4/CyLFClk.h **** /* CySysClkIloCompensate() - implementation definitions */
 210:Generated_Source\PSoC4/CyLFClk.h **** #define CY_SYS_CLK_ILO_CALIBR_COMPLETE_MASK             ((uint32)(( uint32 )0x01u << 31u))
 211:Generated_Source\PSoC4/CyLFClk.h **** #define CY_SYS_CLK_ILO_DFT_LSB_MASK                     ((uint32)(0x00000FFFu))
 212:Generated_Source\PSoC4/CyLFClk.h **** #define CY_SYS_CLK_TRIM_OR_COMP_STARTED                 (1u)
 213:Generated_Source\PSoC4/CyLFClk.h **** #define CY_SYS_CLK_TRIM_OR_COMP_FINISHED                (0u)
 214:Generated_Source\PSoC4/CyLFClk.h **** #define CY_SYS_CLK_COEF_PHUNDRED                        ((uint32) (0x64u))
 215:Generated_Source\PSoC4/CyLFClk.h **** #define CY_SYS_CLK_HALF_OF_CLOCK                        ((uint32) ((uint32) CY_SYS_CLK_ILO_PERIOD_P
 216:Generated_Source\PSoC4/CyLFClk.h **** 
 217:Generated_Source\PSoC4/CyLFClk.h **** /* CySysClkIloCompensate() - maximum value of desiredDelay argument */
 218:Generated_Source\PSoC4/CyLFClk.h **** #if (CY_IP_SRSSV2)
 219:Generated_Source\PSoC4/CyLFClk.h ****     #define CY_SYS_CLK_MAX_DELAY_US                     ((uint32) (0xEE6B2800u))
 220:Generated_Source\PSoC4/CyLFClk.h ****     #define CY_SYS_CLK_ILO_PERIOD                       ((uint32) (0x1Fu))
 221:Generated_Source\PSoC4/CyLFClk.h ****     #define CY_SYS_CLK_ILO_FREQ_2MSB                    ((uint32) 5u)
 222:Generated_Source\PSoC4/CyLFClk.h **** #else
 223:Generated_Source\PSoC4/CyLFClk.h ****     #define CY_SYS_CLK_MAX_DELAY_US                     ((uint32) (0x1E8480u))
 224:Generated_Source\PSoC4/CyLFClk.h ****     #define CY_SYS_CLK_ILO_FREQ_2MSB                    ((uint32) (0x28u ))
 225:Generated_Source\PSoC4/CyLFClk.h **** 
 226:Generated_Source\PSoC4/CyLFClk.h ****     /**********************************************************************************
 227:Generated_Source\PSoC4/CyLFClk.h ****     * CySysClkIloCompensate() - value to walk over oversamling in calculations with 
 228:Generated_Source\PSoC4/CyLFClk.h ****     * srsslite. The oversample can be obtained when ilo frequency in equal 80 KHz and
 229:Generated_Source\PSoC4/CyLFClk.h ****     * desired clocks are 80 000 clocks.
 230:Generated_Source\PSoC4/CyLFClk.h ****     **********************************************************************************/
 231:Generated_Source\PSoC4/CyLFClk.h ****     #define CY_SYS_CLK_MAX_LITE_NUMBER                     ((uint32) 53600u)
 232:Generated_Source\PSoC4/CyLFClk.h **** #endif /* (CY_IP_SRSSV2) */
 233:Generated_Source\PSoC4/CyLFClk.h **** 
 234:Generated_Source\PSoC4/CyLFClk.h **** #define CY_SYS_CLK_ILO_FREQ_3LSB                       ((uint32) (0x3E8u))
 235:Generated_Source\PSoC4/CyLFClk.h **** #define CY_SYS_CLK_DELAY_COUNTS_LIMIT                  ((uint32) (0xD160u))
 236:Generated_Source\PSoC4/CyLFClk.h **** #define CY_SYS_CLK_MIN_DELAY_US                        ((uint32) (0x64u))
 237:Generated_Source\PSoC4/CyLFClk.h **** 
 238:Generated_Source\PSoC4/CyLFClk.h **** /* CySysClkSetLfclkSource() - parameter definitions */
 239:Generated_Source\PSoC4/CyLFClk.h **** #if (CY_IP_SRSSV2 && CY_IP_WCO)
 240:Generated_Source\PSoC4/CyLFClk.h **** 
 241:Generated_Source\PSoC4/CyLFClk.h ****     /** Internal Low Frequency (32 kHz) Oscillator (ILO) */
 242:Generated_Source\PSoC4/CyLFClk.h ****     #define CY_SYS_CLK_LFCLK_SRC_ILO                    (0u)
 243:Generated_Source\PSoC4/CyLFClk.h **** 
 244:Generated_Source\PSoC4/CyLFClk.h ****     /** Low Frequency Watch Crystal Oscillator (WCO) */
 245:Generated_Source\PSoC4/CyLFClk.h ****     #define CY_SYS_CLK_LFCLK_SRC_WCO                    ((uint32)(( uint32 )0x01u << 30u))
 246:Generated_Source\PSoC4/CyLFClk.h **** #endif /* (CY_IP_SRSSV2 && CY_IP_WCO) */
 247:Generated_Source\PSoC4/CyLFClk.h **** 
 248:Generated_Source\PSoC4/CyLFClk.h **** 
 249:Generated_Source\PSoC4/CyLFClk.h **** #if (CY_IP_WCO)
 250:Generated_Source\PSoC4/CyLFClk.h **** 
 251:Generated_Source\PSoC4/CyLFClk.h ****     /* CySysClkSetLfclkSource() - implementation definitions */
 252:Generated_Source\PSoC4/CyLFClk.h ****     #define CY_SYS_CLK_LFCLK_SEL_MASK                   ((uint32)(( uint32 )0x03u << 30u))
 253:Generated_Source\PSoC4/CyLFClk.h **** #endif /* (CY_IP_WCO) */
 254:Generated_Source\PSoC4/CyLFClk.h **** 
 255:Generated_Source\PSoC4/CyLFClk.h **** /* CySysClkSetTimerSource() - implementation definitions */
 256:Generated_Source\PSoC4/CyLFClk.h **** #if (CY_IP_SRSSLT && CY_IP_WCO && CY_IP_WCO_WDT_EN)
 257:Generated_Source\PSoC4/CyLFClk.h ****     #define CY_SYS_CLK_TIMER_SEL_MASK                   ((uint32)(( uint32 )0x03u << 30u))
 258:Generated_Source\PSoC4/CyLFClk.h **** #endif /* (CY_IP_SRSSLT && CY_IP_WCO && CY_IP_WCO_WDT_EN) */
 259:Generated_Source\PSoC4/CyLFClk.h **** 
ARM GAS  C:\Users\user\AppData\Local\Temp\ccsPNKJ0.s 			page 6


 260:Generated_Source\PSoC4/CyLFClk.h **** /* CySysClkSetTimerSource() - parameter definitions */
 261:Generated_Source\PSoC4/CyLFClk.h **** #if (CY_IP_SRSSLT && CY_IP_WCO && CY_IP_WCO_WDT_EN)
 262:Generated_Source\PSoC4/CyLFClk.h **** 
 263:Generated_Source\PSoC4/CyLFClk.h ****     /** Internal Low Frequency (32 kHz) Oscillator (ILO) */
 264:Generated_Source\PSoC4/CyLFClk.h ****     #define CY_SYS_CLK_TIMER_SRC_ILO                (0u)
 265:Generated_Source\PSoC4/CyLFClk.h **** 
 266:Generated_Source\PSoC4/CyLFClk.h ****     /** Low Frequency Watch Crystal Oscillator (WCO) */
 267:Generated_Source\PSoC4/CyLFClk.h ****     #define CY_SYS_CLK_TIMER_SRC_WCO                ((uint32)(( uint32 )0x01u << 30u))
 268:Generated_Source\PSoC4/CyLFClk.h **** #endif /* (CY_IP_SRSSLT && CY_IP_WCO && CY_IP_WCO_WDT_EN) */
 269:Generated_Source\PSoC4/CyLFClk.h **** 
 270:Generated_Source\PSoC4/CyLFClk.h **** /* CySysClkWcoClockOutSelect() - parameter definitions */
 271:Generated_Source\PSoC4/CyLFClk.h **** #if (CY_IP_WCO)
 272:Generated_Source\PSoC4/CyLFClk.h **** 
 273:Generated_Source\PSoC4/CyLFClk.h ****     /** Selects External crystal as WCO’s clock source */
 274:Generated_Source\PSoC4/CyLFClk.h ****     #define CY_SYS_CLK_WCO_SEL_CRYSTAL                  (1u)
 275:Generated_Source\PSoC4/CyLFClk.h **** 
 276:Generated_Source\PSoC4/CyLFClk.h ****     /** Selects External clock input on wco_in pin as WCO’s clock source */
 277:Generated_Source\PSoC4/CyLFClk.h ****     #define CY_SYS_CLK_WCO_SEL_PIN                      (0u)
 278:Generated_Source\PSoC4/CyLFClk.h **** #endif /* (CY_IP_WCO) */
 279:Generated_Source\PSoC4/CyLFClk.h **** 
 280:Generated_Source\PSoC4/CyLFClk.h **** /* CySysClkWcoClockOutSelect() - implementation definitions */
 281:Generated_Source\PSoC4/CyLFClk.h **** #if (CY_IP_WCO)
 282:Generated_Source\PSoC4/CyLFClk.h ****     #define CY_SYS_CLK_WCO_SELECT_PIN_MASK              ((uint32)(( uint32 )0x01u << 2u))
 283:Generated_Source\PSoC4/CyLFClk.h ****     #define CY_SYS_CLK_WCO_SELECT_PIN_OFFSET            ((uint32) 0x02u)
 284:Generated_Source\PSoC4/CyLFClk.h **** #endif /* (CY_IP_WCO) */
 285:Generated_Source\PSoC4/CyLFClk.h **** 
 286:Generated_Source\PSoC4/CyLFClk.h **** /* CySysClkIloRestoreFactoryTrim() - implementation definitions */
 287:Generated_Source\PSoC4/CyLFClk.h **** #if (CY_IP_SRSSV2 && CY_IP_WCO && (!CY_IP_CPUSS))
 288:Generated_Source\PSoC4/CyLFClk.h ****     #define CY_SYS_CLK_ILO_TRIM_DEFAULT_VALUE           ((uint8 )(0xF0u))
 289:Generated_Source\PSoC4/CyLFClk.h ****     #define CY_SYS_CLK_ILO_TRIM_DEFAULT_MASK            ((uint32)((uint32)0x01u << 3u))
 290:Generated_Source\PSoC4/CyLFClk.h ****     #define CY_SYS_CLK_ILO_TRIM_MASK                    ((uint32)(0x0Fu))
 291:Generated_Source\PSoC4/CyLFClk.h **** #endif /* (CY_IP_SRSSV2 && CY_IP_WCO && (!CY_IP_CPUSS)) */
 292:Generated_Source\PSoC4/CyLFClk.h **** 
 293:Generated_Source\PSoC4/CyLFClk.h **** /* CySysIloTrim() - parameter definitions and macros*/
 294:Generated_Source\PSoC4/CyLFClk.h **** #if (CY_IP_SRSSV2 && CY_IP_WCO && (!CY_IP_CPUSS))
 295:Generated_Source\PSoC4/CyLFClk.h ****     #define CY_SYS_CLK_BLOCKING                         (0u)
 296:Generated_Source\PSoC4/CyLFClk.h ****     #define CY_SYS_CLK_NON_BLOCKING                     (1u)
 297:Generated_Source\PSoC4/CyLFClk.h ****     #define CY_SYS_CLK_PERTHOUSAND                      ((uint32) 0x000003E8u )
 298:Generated_Source\PSoC4/CyLFClk.h ****     #define CY_SYS_CLK_ABS_MACRO(x)                     ((0 > (x)) ? (-(x)) : (x))
 299:Generated_Source\PSoC4/CyLFClk.h ****     #define CY_SYS_CLK_ERROR_RANGE                      ((uint32) 0x38u)
 300:Generated_Source\PSoC4/CyLFClk.h ****     #define CY_SYS_CLK_TIMEOUT                          ((uint8 ) 0x05u)
 301:Generated_Source\PSoC4/CyLFClk.h **** 
 302:Generated_Source\PSoC4/CyLFClk.h ****     /* ILO error step is 7,37 % error range */
 303:Generated_Source\PSoC4/CyLFClk.h ****     #define CY_SYS_CLK_ERROR_STEP                       (( int32) 0x02E1u)
 304:Generated_Source\PSoC4/CyLFClk.h ****     #define CY_SYS_CLK_ERROR_COEF                       ((uint32) 0x0Au)
 305:Generated_Source\PSoC4/CyLFClk.h **** #endif /* (CY_IP_SRSSV2 && CY_IP_WCO && (!CY_IP_CPUSS)) */
 306:Generated_Source\PSoC4/CyLFClk.h **** 
 307:Generated_Source\PSoC4/CyLFClk.h **** #if (CY_IP_WCO)
 308:Generated_Source\PSoC4/CyLFClk.h **** 
 309:Generated_Source\PSoC4/CyLFClk.h ****     /* WCO Configuration Register */
 310:Generated_Source\PSoC4/CyLFClk.h ****     #define CY_SYS_CLK_WCO_CONFIG_LPM_EN                (( uint32 )(( uint32 )0x01u <<  0u))
 311:Generated_Source\PSoC4/CyLFClk.h ****     #define CY_SYS_CLK_WCO_CONFIG_LPM_AUTO              (( uint32 )(( uint32 )0x01u <<  1u))
 312:Generated_Source\PSoC4/CyLFClk.h ****     #define CY_SYS_CLK_WCO_CONFIG_LPM_ENABLE            (( uint32 )(( uint32 )0x01u << 31u))
 313:Generated_Source\PSoC4/CyLFClk.h **** 
 314:Generated_Source\PSoC4/CyLFClk.h ****     /* WCO Status Register */
 315:Generated_Source\PSoC4/CyLFClk.h ****     #define CY_SYS_CLK_WCO_STATUS_OUT_BLNK_A            (( uint32 )(( uint32 )0x01u <<  0u))
 316:Generated_Source\PSoC4/CyLFClk.h **** 
ARM GAS  C:\Users\user\AppData\Local\Temp\ccsPNKJ0.s 			page 7


 317:Generated_Source\PSoC4/CyLFClk.h ****     /* WCO Trim Register */
 318:Generated_Source\PSoC4/CyLFClk.h ****     #define CY_SYS_CLK_WCO_TRIM_XGM_MASK                (( uint32 ) 0x07u)
 319:Generated_Source\PSoC4/CyLFClk.h ****     #define CY_SYS_CLK_WCO_TRIM_XGM_SHIFT               (( uint32 ) 0x00u)
 320:Generated_Source\PSoC4/CyLFClk.h **** 
 321:Generated_Source\PSoC4/CyLFClk.h ****     #define CY_SYS_CLK_WCO_TRIM_XGM_3370NA              (( uint32 ) 0x00u)
 322:Generated_Source\PSoC4/CyLFClk.h ****     #define CY_SYS_CLK_WCO_TRIM_XGM_2620NA              (( uint32 ) 0x01u)
 323:Generated_Source\PSoC4/CyLFClk.h ****     #define CY_SYS_CLK_WCO_TRIM_XGM_2250NA              (( uint32 ) 0x02u)
 324:Generated_Source\PSoC4/CyLFClk.h ****     #define CY_SYS_CLK_WCO_TRIM_XGM_1500NA              (( uint32 ) 0x03u)
 325:Generated_Source\PSoC4/CyLFClk.h ****     #define CY_SYS_CLK_WCO_TRIM_XGM_1870NA              (( uint32 ) 0x04u)
 326:Generated_Source\PSoC4/CyLFClk.h ****     #define CY_SYS_CLK_WCO_TRIM_XGM_1120NA              (( uint32 ) 0x05u)
 327:Generated_Source\PSoC4/CyLFClk.h ****     #define CY_SYS_CLK_WCO_TRIM_XGM_750NA               (( uint32 ) 0x06u)
 328:Generated_Source\PSoC4/CyLFClk.h ****     #define CY_SYS_CLK_WCO_TRIM_XGM_0NA                 (( uint32 ) 0x07u)
 329:Generated_Source\PSoC4/CyLFClk.h **** 
 330:Generated_Source\PSoC4/CyLFClk.h ****     #define CY_SYS_CLK_WCO_TRIM_GM_MASK                 (( uint32 )(( uint32 )0x03u << 4u))
 331:Generated_Source\PSoC4/CyLFClk.h ****     #define CY_SYS_CLK_WCO_TRIM_GM_SHIFT                (( uint32 ) 0x04u)
 332:Generated_Source\PSoC4/CyLFClk.h ****     #define CY_SYS_CLK_WCO_TRIM_GM_HPM                  (( uint32 ) 0x01u)
 333:Generated_Source\PSoC4/CyLFClk.h ****     #define CY_SYS_CLK_WCO_TRIM_GM_LPM                  (( uint32 ) 0x02u)
 334:Generated_Source\PSoC4/CyLFClk.h **** #endif  /* (CY_IP_WCO) */
 335:Generated_Source\PSoC4/CyLFClk.h **** 
 336:Generated_Source\PSoC4/CyLFClk.h **** 
 337:Generated_Source\PSoC4/CyLFClk.h **** /*******************************************************************************
 338:Generated_Source\PSoC4/CyLFClk.h **** * WDT API Constants
 339:Generated_Source\PSoC4/CyLFClk.h **** *******************************************************************************/
 340:Generated_Source\PSoC4/CyLFClk.h **** #if(CY_IP_SRSSV2)
 341:Generated_Source\PSoC4/CyLFClk.h **** 
 342:Generated_Source\PSoC4/CyLFClk.h ****     #define CY_SYS_WDT_MODE_NONE                (0u)
 343:Generated_Source\PSoC4/CyLFClk.h ****     #define CY_SYS_WDT_MODE_INT                 (1u)
 344:Generated_Source\PSoC4/CyLFClk.h ****     #define CY_SYS_WDT_MODE_RESET               (2u)
 345:Generated_Source\PSoC4/CyLFClk.h ****     #define CY_SYS_WDT_MODE_INT_RESET           (3u)
 346:Generated_Source\PSoC4/CyLFClk.h **** 
 347:Generated_Source\PSoC4/CyLFClk.h ****     #define CY_SYS_WDT_COUNTER0_MASK            ((uint32)((uint32)0x01u))           /**< Counter 0 
 348:Generated_Source\PSoC4/CyLFClk.h ****     #define CY_SYS_WDT_COUNTER1_MASK            ((uint32)((uint32)0x01u << 8u))     /**< Counter 1 
 349:Generated_Source\PSoC4/CyLFClk.h ****     #define CY_SYS_WDT_COUNTER2_MASK            ((uint32)((uint32)0x01u << 16u))    /**< Counter 2 
 350:Generated_Source\PSoC4/CyLFClk.h **** 
 351:Generated_Source\PSoC4/CyLFClk.h ****     #define CY_SYS_WDT_CASCADE_NONE             ((uint32)0x00u)             /**< Neither */
 352:Generated_Source\PSoC4/CyLFClk.h ****     #define CY_SYS_WDT_CASCADE_01               ((uint32)0x01u << 3u)       /**< Cascade 01 */
 353:Generated_Source\PSoC4/CyLFClk.h ****     #define CY_SYS_WDT_CASCADE_12               ((uint32)0x01u << 11u)      /**< Cascade 12 */
 354:Generated_Source\PSoC4/CyLFClk.h **** 
 355:Generated_Source\PSoC4/CyLFClk.h ****     #define CY_SYS_WDT_COUNTER0_INT             ((uint32)0x01u << 2u)
 356:Generated_Source\PSoC4/CyLFClk.h ****     #define CY_SYS_WDT_COUNTER1_INT             ((uint32)0x01u << 10u)
 357:Generated_Source\PSoC4/CyLFClk.h ****     #define CY_SYS_WDT_COUNTER2_INT             ((uint32)0x01u << 18u)
 358:Generated_Source\PSoC4/CyLFClk.h **** 
 359:Generated_Source\PSoC4/CyLFClk.h ****     #define CY_SYS_WDT_COUNTER0_RESET           ((uint32)0x01u << 3u)       /**< Counter 0 */
 360:Generated_Source\PSoC4/CyLFClk.h ****     #define CY_SYS_WDT_COUNTER1_RESET           ((uint32)0x01u << 11u)      /**< Counter 1 */
 361:Generated_Source\PSoC4/CyLFClk.h ****     #define CY_SYS_WDT_COUNTER2_RESET           ((uint32)0x01u << 19u)      /**< Counter 2 */
 362:Generated_Source\PSoC4/CyLFClk.h **** 
 363:Generated_Source\PSoC4/CyLFClk.h ****     #define CY_SYS_WDT_COUNTERS_RESET           (CY_SYS_WDT_COUNTER0_RESET |\
 364:Generated_Source\PSoC4/CyLFClk.h ****                                                  CY_SYS_WDT_COUNTER1_RESET |\
 365:Generated_Source\PSoC4/CyLFClk.h ****                                                  CY_SYS_WDT_COUNTER2_RESET)
 366:Generated_Source\PSoC4/CyLFClk.h **** 
 367:Generated_Source\PSoC4/CyLFClk.h ****     #define CY_SYS_WDT_COUNTER0                 (0x00u)
 368:Generated_Source\PSoC4/CyLFClk.h ****     #define CY_SYS_WDT_COUNTER1                 (0x01u)
 369:Generated_Source\PSoC4/CyLFClk.h ****     #define CY_SYS_WDT_COUNTER2                 (0x02u)
 370:Generated_Source\PSoC4/CyLFClk.h **** 
 371:Generated_Source\PSoC4/CyLFClk.h ****     #define CY_SYS_WDT_COUNTER0_OFFSET          (0x00u)
 372:Generated_Source\PSoC4/CyLFClk.h ****     #define CY_SYS_WDT_COUNTER1_OFFSET          (0x02u)
 373:Generated_Source\PSoC4/CyLFClk.h ****     #define CY_SYS_WDT_COUNTER2_OFFSET          (0x04u)
ARM GAS  C:\Users\user\AppData\Local\Temp\ccsPNKJ0.s 			page 8


 374:Generated_Source\PSoC4/CyLFClk.h **** 
 375:Generated_Source\PSoC4/CyLFClk.h ****     #define CY_SYS_WDT_MODE_MASK                ((uint32)(0x03u))
 376:Generated_Source\PSoC4/CyLFClk.h **** 
 377:Generated_Source\PSoC4/CyLFClk.h ****     #define CY_SYS_WDT_CONFIG_BITS2_MASK        (uint32)(0x1Fu)
 378:Generated_Source\PSoC4/CyLFClk.h ****     #define CY_SYS_WDT_CONFIG_BITS2_POS         (uint32)(24u)
 379:Generated_Source\PSoC4/CyLFClk.h ****     #define CY_SYS_WDT_LOWER_16BITS_MASK        (uint32)(0x0000FFFFu)
 380:Generated_Source\PSoC4/CyLFClk.h ****     #define CY_SYS_WDT_HIGHER_16BITS_MASK       (uint32)(0xFFFF0000u)
 381:Generated_Source\PSoC4/CyLFClk.h ****     #define CY_SYS_WDT_COUNTERS_MAX             (0x03u)
 382:Generated_Source\PSoC4/CyLFClk.h ****     #define CY_SYS_WDT_CNT_SHIFT                (0x08u)
 383:Generated_Source\PSoC4/CyLFClk.h ****     #define CY_SYS_WDT_CNT_MATCH_CLR_SHIFT      (0x02u)
 384:Generated_Source\PSoC4/CyLFClk.h ****     #define CY_SYS_WDT_CNT_STTS_SHIFT           (0x01u)
 385:Generated_Source\PSoC4/CyLFClk.h ****     #define CY_SYS_WDT_CNT_MATCH_SHIFT          (0x10u)
 386:Generated_Source\PSoC4/CyLFClk.h **** 
 387:Generated_Source\PSoC4/CyLFClk.h ****     #define CY_SYS_WDT_CLK_LOCK_BITS_MASK       ((uint32)0x03u << 14u)
 388:Generated_Source\PSoC4/CyLFClk.h ****     #define CY_SYS_WDT_CLK_LOCK_BIT0            ((uint32)0x01u << 14u)
 389:Generated_Source\PSoC4/CyLFClk.h ****     #define CY_SYS_WDT_CLK_LOCK_BIT1            ((uint32)0x01u << 15u)
 390:Generated_Source\PSoC4/CyLFClk.h **** 
 391:Generated_Source\PSoC4/CyLFClk.h ****     #define CY_WDT_NUM_OF_WDT                   (3u)
 392:Generated_Source\PSoC4/CyLFClk.h ****     #define CY_WDT_NUM_OF_CALLBACKS             (3u)
 393:Generated_Source\PSoC4/CyLFClk.h **** 
 394:Generated_Source\PSoC4/CyLFClk.h ****     #else
 395:Generated_Source\PSoC4/CyLFClk.h ****         #define CY_WDT_NUM_OF_WDT               (1u)
 396:Generated_Source\PSoC4/CyLFClk.h ****         #define CY_WDT_NUM_OF_CALLBACKS         (3u)
 397:Generated_Source\PSoC4/CyLFClk.h ****         #define CY_SYS_WDT_KEY                  ((uint32)(0xACED8865u))
 398:Generated_Source\PSoC4/CyLFClk.h ****         #define CY_SYS_WDT_MATCH_MASK           ((uint32)(0x0000FFFFu))
 399:Generated_Source\PSoC4/CyLFClk.h ****         #define CY_SYS_WDT_IGNORE_BITS_MASK     ((uint32)(0x000F0000u))
 400:Generated_Source\PSoC4/CyLFClk.h ****         #define CY_SYS_WDT_IGNORE_BITS_SHIFT    ((uint32)(16u))
 401:Generated_Source\PSoC4/CyLFClk.h ****         #define CY_SYS_WDT_LOWER_BIT_MASK       ((uint32)(0x00000001u))
 402:Generated_Source\PSoC4/CyLFClk.h **** 
 403:Generated_Source\PSoC4/CyLFClk.h ****         #define CY_SYS_WDT_COUNTER0             (0x00u)
 404:Generated_Source\PSoC4/CyLFClk.h **** 
 405:Generated_Source\PSoC4/CyLFClk.h **** #endif /* (CY_IP_SRSSV2) */
 406:Generated_Source\PSoC4/CyLFClk.h **** 
 407:Generated_Source\PSoC4/CyLFClk.h **** #if (CY_IP_SRSSV2 && CY_IP_WCO)
 408:Generated_Source\PSoC4/CyLFClk.h ****     #define CY_SYS_WDT_1LFCLK_ILO_DELAY_US    ((uint16)( 67u))
 409:Generated_Source\PSoC4/CyLFClk.h ****     #define CY_SYS_WDT_3LFCLK_ILO_DELAY_US    ((uint16)(201u))
 410:Generated_Source\PSoC4/CyLFClk.h ****     #define CY_SYS_WDT_1LFCLK_WCO_DELAY_US    ((uint16)( 31u))
 411:Generated_Source\PSoC4/CyLFClk.h ****     #define CY_SYS_WDT_3LFCLK_WCO_DELAY_US    ((uint16)( 93u))
 412:Generated_Source\PSoC4/CyLFClk.h **** 
 413:Generated_Source\PSoC4/CyLFClk.h ****     #define CY_SYS_WDT_1LFCLK_DELAY_US      \
 414:Generated_Source\PSoC4/CyLFClk.h ****         ((CY_SYS_CLK_LFCLK_SRC_ILO == (CY_SYS_WDT_CONFIG_REG & CY_SYS_CLK_LFCLK_SEL_MASK)) ? \
 415:Generated_Source\PSoC4/CyLFClk.h ****                                             (CY_SYS_WDT_1LFCLK_ILO_DELAY_US) : \
 416:Generated_Source\PSoC4/CyLFClk.h ****                                             (CY_SYS_WDT_1LFCLK_WCO_DELAY_US))
 417:Generated_Source\PSoC4/CyLFClk.h **** 
 418:Generated_Source\PSoC4/CyLFClk.h ****     #define CY_SYS_WDT_3LFCLK_DELAY_US      \
 419:Generated_Source\PSoC4/CyLFClk.h ****         ((CY_SYS_CLK_LFCLK_SRC_ILO == (CY_SYS_WDT_CONFIG_REG & CY_SYS_CLK_LFCLK_SEL_MASK)) ? \
 420:Generated_Source\PSoC4/CyLFClk.h ****                                             (CY_SYS_WDT_3LFCLK_ILO_DELAY_US) : \
 421:Generated_Source\PSoC4/CyLFClk.h ****                                             (CY_SYS_WDT_3LFCLK_WCO_DELAY_US))
 422:Generated_Source\PSoC4/CyLFClk.h ****     #else
 423:Generated_Source\PSoC4/CyLFClk.h ****         #define CY_SYS_WDT_1LFCLK_DELAY_US      ((uint16)  (67u))
 424:Generated_Source\PSoC4/CyLFClk.h ****         #define CY_SYS_WDT_3LFCLK_DELAY_US      ((uint16) (201u))
 425:Generated_Source\PSoC4/CyLFClk.h **** #endif /* (CY_IP_SRSSV2 && CY_IP_WCO) */
 426:Generated_Source\PSoC4/CyLFClk.h **** 
 427:Generated_Source\PSoC4/CyLFClk.h **** #if (CY_IP_SRSSLT && CY_IP_WCO && CY_IP_WCO_WDT_EN)
 428:Generated_Source\PSoC4/CyLFClk.h **** 
 429:Generated_Source\PSoC4/CyLFClk.h ****     #define CY_SYS_TIMER_MODE_NONE              (0u)
 430:Generated_Source\PSoC4/CyLFClk.h ****     #define CY_SYS_TIMER_MODE_INT               (1u)
ARM GAS  C:\Users\user\AppData\Local\Temp\ccsPNKJ0.s 			page 9


 431:Generated_Source\PSoC4/CyLFClk.h **** 
 432:Generated_Source\PSoC4/CyLFClk.h ****     #define CY_SYS_TIMER0_MASK                  ((uint32)((uint32)0x01u))           /**< Counter 0 
 433:Generated_Source\PSoC4/CyLFClk.h ****     #define CY_SYS_TIMER1_MASK                  ((uint32)((uint32)0x01u << 8u))     /**< Counter 1 
 434:Generated_Source\PSoC4/CyLFClk.h ****     #define CY_SYS_TIMER2_MASK                  ((uint32)((uint32)0x01u << 16u))    /**< Counter 2 
 435:Generated_Source\PSoC4/CyLFClk.h **** 
 436:Generated_Source\PSoC4/CyLFClk.h ****     #define CY_SYS_TIMER0_RESET                 ((uint32)0x01u << 3u)       /**< Counter 0 */
 437:Generated_Source\PSoC4/CyLFClk.h ****     #define CY_SYS_TIMER1_RESET                 ((uint32)0x01u << 11u)      /**< Counter 1 */
 438:Generated_Source\PSoC4/CyLFClk.h ****     #define CY_SYS_TIMER2_RESET                 ((uint32)0x01u << 19u)      /**< Counter 2 */
 439:Generated_Source\PSoC4/CyLFClk.h **** 
 440:Generated_Source\PSoC4/CyLFClk.h ****     #define CY_SYS_TIMER_RESET                  (CY_SYS_TIMER0_RESET |\
 441:Generated_Source\PSoC4/CyLFClk.h ****                                                  CY_SYS_TIMER1_RESET |\
 442:Generated_Source\PSoC4/CyLFClk.h ****                                                  CY_SYS_TIMER2_RESET)
 443:Generated_Source\PSoC4/CyLFClk.h **** 
 444:Generated_Source\PSoC4/CyLFClk.h ****     #define CY_SYS_TIMER_CASCADE_NONE           ((uint32)0x00u)             /**< Neither */
 445:Generated_Source\PSoC4/CyLFClk.h ****     #define CY_SYS_TIMER_CASCADE_01             ((uint32)0x01u << 3u)       /**< Cascade 01 */
 446:Generated_Source\PSoC4/CyLFClk.h ****     #define CY_SYS_TIMER_CASCADE_12             ((uint32)0x01u << 11u)      /**< Cascade 12 */
 447:Generated_Source\PSoC4/CyLFClk.h **** 
 448:Generated_Source\PSoC4/CyLFClk.h ****     #define CY_SYS_TIMER0_INT                   ((uint32)0x01u << 2u)
 449:Generated_Source\PSoC4/CyLFClk.h ****     #define CY_SYS_TIMER1_INT                   ((uint32)0x01u << 10u)
 450:Generated_Source\PSoC4/CyLFClk.h ****     #define CY_SYS_TIMER2_INT                   ((uint32)0x01u << 18u)
 451:Generated_Source\PSoC4/CyLFClk.h **** 
 452:Generated_Source\PSoC4/CyLFClk.h ****     #define CY_SYS_TIMER0                       (0x00u)
 453:Generated_Source\PSoC4/CyLFClk.h ****     #define CY_SYS_TIMER1                       (0x01u)
 454:Generated_Source\PSoC4/CyLFClk.h ****     #define CY_SYS_TIMER2                       (0x02u)
 455:Generated_Source\PSoC4/CyLFClk.h **** 
 456:Generated_Source\PSoC4/CyLFClk.h ****     #define CY_SYS_TIMER_MODE_MASK              ((uint32)(0x01u))
 457:Generated_Source\PSoC4/CyLFClk.h **** 
 458:Generated_Source\PSoC4/CyLFClk.h ****     #define CY_SYS_TIMER_CONFIG_BITS2_MASK      (uint32)(0x1Fu)
 459:Generated_Source\PSoC4/CyLFClk.h ****     #define CY_SYS_TIMER_CONFIG_BITS2_POS       (uint32)(24u)
 460:Generated_Source\PSoC4/CyLFClk.h ****     #define CY_SYS_TIMER_LOWER_16BITS_MASK      (uint32)(0x0000FFFFu)
 461:Generated_Source\PSoC4/CyLFClk.h ****     #define CY_SYS_TIMER_HIGHER_16BITS_MASK     (uint32)(0xFFFF0000u)
 462:Generated_Source\PSoC4/CyLFClk.h ****     #define CY_SYS_TIMER_COUNTERS_MAX           (0x03u)
 463:Generated_Source\PSoC4/CyLFClk.h ****     #define CY_SYS_TIMER_CNT_SHIFT              (0x08u)
 464:Generated_Source\PSoC4/CyLFClk.h ****     #define CY_SYS_TIMER_CNT_MATCH_CLR_SHIFT    (0x02u)
 465:Generated_Source\PSoC4/CyLFClk.h ****     #define CY_SYS_TIMER_CNT_STTS_SHIFT         (0x01u)
 466:Generated_Source\PSoC4/CyLFClk.h ****     #define CY_SYS_TIMER_CNT_MATCH_SHIFT        (0x10u)
 467:Generated_Source\PSoC4/CyLFClk.h **** 
 468:Generated_Source\PSoC4/CyLFClk.h ****     #define CY_SYS_NUM_OF_TIMERS                (3u)
 469:Generated_Source\PSoC4/CyLFClk.h **** 
 470:Generated_Source\PSoC4/CyLFClk.h ****     #define CY_SYS_SET_NEW_TIMER_SOURCE_ILO     ((uint16)(0x02u))
 471:Generated_Source\PSoC4/CyLFClk.h ****     #define CY_SYS_SET_NEW_TIMER_SOURCE_WCO     ((uint16)(0x01u))
 472:Generated_Source\PSoC4/CyLFClk.h ****     #define CY_SYS_WCO_WDT_CLKEN_RESET_MASK     ((uint32)(0x03u))
 473:Generated_Source\PSoC4/CyLFClk.h **** 
 474:Generated_Source\PSoC4/CyLFClk.h ****     #define CY_SYS_TIMER_1ILO_DELAY_US          ((uint16)( 67u))
 475:Generated_Source\PSoC4/CyLFClk.h ****     #define CY_SYS_TIMER_4ILO_DELAY_US          ((uint16)(268u))
 476:Generated_Source\PSoC4/CyLFClk.h ****     #define CY_SYS_TIMER_3ILO_DELAY_US          ((uint16)(201u))
 477:Generated_Source\PSoC4/CyLFClk.h **** 
 478:Generated_Source\PSoC4/CyLFClk.h ****     #define CY_SYS_TIMER_1WCO_DELAY_US          ((uint16)( 31u))
 479:Generated_Source\PSoC4/CyLFClk.h ****     #define CY_SYS_TIMER_4WCO_DELAY_US          ((uint16)(124u))
 480:Generated_Source\PSoC4/CyLFClk.h ****     #define CY_SYS_TIMER_3WCO_DELAY_US          ((uint16)( 93u))
 481:Generated_Source\PSoC4/CyLFClk.h **** 
 482:Generated_Source\PSoC4/CyLFClk.h ****     #define CY_SYS_1TIMER_DELAY_US      \
 483:Generated_Source\PSoC4/CyLFClk.h ****         ((CY_SYS_CLK_TIMER_SRC_ILO == (CY_SYS_WCO_WDT_CONFIG_REG & CY_SYS_CLK_TIMER_SEL_MASK)) ? \
 484:Generated_Source\PSoC4/CyLFClk.h ****                                             (CY_SYS_TIMER_1ILO_DELAY_US) : \
 485:Generated_Source\PSoC4/CyLFClk.h ****                                             (CY_SYS_TIMER_1WCO_DELAY_US))
 486:Generated_Source\PSoC4/CyLFClk.h **** 
 487:Generated_Source\PSoC4/CyLFClk.h ****     #define CY_SYS_4TIMER_DELAY_US      \
ARM GAS  C:\Users\user\AppData\Local\Temp\ccsPNKJ0.s 			page 10


 488:Generated_Source\PSoC4/CyLFClk.h ****         ((CY_SYS_CLK_TIMER_SRC_ILO == (CY_SYS_WCO_WDT_CONFIG_REG & CY_SYS_CLK_TIMER_SEL_MASK)) ? \
 489:Generated_Source\PSoC4/CyLFClk.h ****                                             (CY_SYS_TIMER_4WCO_DELAY_US) : \
 490:Generated_Source\PSoC4/CyLFClk.h ****                                             (CY_SYS_TIMER_4ILO_DELAY_US))
 491:Generated_Source\PSoC4/CyLFClk.h **** 
 492:Generated_Source\PSoC4/CyLFClk.h ****     #define CY_SYS_3TIMER_DELAY_US      \
 493:Generated_Source\PSoC4/CyLFClk.h ****         ((CY_SYS_CLK_TIMER_SRC_ILO == (CY_SYS_WCO_WDT_CONFIG_REG & CY_SYS_CLK_TIMER_SEL_MASK)) ? \
 494:Generated_Source\PSoC4/CyLFClk.h ****                                             (CY_SYS_TIMER_3ILO_DELAY_US) : \
 495:Generated_Source\PSoC4/CyLFClk.h ****                                             (CY_SYS_TIMER_3WCO_DELAY_US))
 496:Generated_Source\PSoC4/CyLFClk.h **** 
 497:Generated_Source\PSoC4/CyLFClk.h ****     #define CY_SYS_SET_CURRENT_TIMER_SOURCE_BIT      \
 498:Generated_Source\PSoC4/CyLFClk.h ****         ((CY_SYS_CLK_TIMER_SRC_ILO == (CY_SYS_WCO_WDT_CONFIG_REG & CY_SYS_CLK_TIMER_SEL_MASK)) ? \
 499:Generated_Source\PSoC4/CyLFClk.h ****                                             (CY_SYS_SET_NEW_TIMER_SOURCE_ILO) : \
 500:Generated_Source\PSoC4/CyLFClk.h ****                                             (CY_SYS_SET_NEW_TIMER_SOURCE_WCO))
 501:Generated_Source\PSoC4/CyLFClk.h **** 
 502:Generated_Source\PSoC4/CyLFClk.h **** #endif /* (CY_IP_SRSSLT && CY_IP_WCO && CY_IP_WCO_WDT_EN) */
 503:Generated_Source\PSoC4/CyLFClk.h **** 
 504:Generated_Source\PSoC4/CyLFClk.h **** /* CySysClkWcoSetPowerMode() */
 505:Generated_Source\PSoC4/CyLFClk.h **** #define CY_SYS_CLK_WCO_HPM                              (0x0u)     /**< WCO High power mode */
 506:Generated_Source\PSoC4/CyLFClk.h **** 
 507:Generated_Source\PSoC4/CyLFClk.h **** #if(CY_IP_BLESS)
 508:Generated_Source\PSoC4/CyLFClk.h ****     #define CY_SYS_CLK_WCO_LPM                          (0x1u)     /**< WCO Low power mode */
 509:Generated_Source\PSoC4/CyLFClk.h **** #endif /* (CY_IP_BLESS) */
 510:Generated_Source\PSoC4/CyLFClk.h **** 
 511:Generated_Source\PSoC4/CyLFClk.h **** 
 512:Generated_Source\PSoC4/CyLFClk.h **** /*******************************************************************************
 513:Generated_Source\PSoC4/CyLFClk.h **** *       Trim Registers Constants 
 514:Generated_Source\PSoC4/CyLFClk.h **** ********************************************************************************/
 515:Generated_Source\PSoC4/CyLFClk.h **** #define CY_SYS_CLK_SYS_CLK_DEVIDER                  ((uint32)0x0Au)
 516:Generated_Source\PSoC4/CyLFClk.h **** #define CY_SYS_CLK_SEL_ILO_DFT_SOURCE               ((uint32)0x00000100u)
 517:Generated_Source\PSoC4/CyLFClk.h **** #define CY_SYS_CLK_FOURBITS_MAX                     (( int32)0x0f)
 518:Generated_Source\PSoC4/CyLFClk.h **** #define CY_SYS_CLK_HALF_OF_STEP                     (( int32)((uint32) CY_SYS_CLK_ERROR_STEP >> 1u)
 519:Generated_Source\PSoC4/CyLFClk.h **** 
 520:Generated_Source\PSoC4/CyLFClk.h **** #if(CY_IP_SRSSV2)
 521:Generated_Source\PSoC4/CyLFClk.h ****     #define CY_SYS_CLK_ILO_DESIRED_FREQ_HZ          (32000u)
 522:Generated_Source\PSoC4/CyLFClk.h ****     #define CY_SYS_CLK_DFT_SELSIZE                  ((uint32) 0x3F)
 523:Generated_Source\PSoC4/CyLFClk.h **** #else
 524:Generated_Source\PSoC4/CyLFClk.h ****     #define CY_SYS_CLK_ILO_DESIRED_FREQ_HZ          (40000u)
 525:Generated_Source\PSoC4/CyLFClk.h ****     #define CY_SYS_CLK_DFT_SELSIZE                  ((uint32) 0x0F)
 526:Generated_Source\PSoC4/CyLFClk.h **** #endif /* (CY_IP_SRSSV2) */
 527:Generated_Source\PSoC4/CyLFClk.h **** 
 528:Generated_Source\PSoC4/CyLFClk.h **** #define CY_SYS_TST_DDFT_CTRL_REG_DEFAULT_MASK    ((uint32)((CY_SYS_CLK_DFT_SELSIZE << 8u) | (CY_SYS
 529:Generated_Source\PSoC4/CyLFClk.h **** #define CY_SYS_TST_DDFT_SELECT_CLK1              ((uint32) ((uint32) CYDEV_DFT_SELECT_CLK1 << 8u))
 530:Generated_Source\PSoC4/CyLFClk.h **** #define CY_SYS_TST_DDFT_CTRL_REG_SEL2_CLK1       ((uint32) (CY_SYS_TST_DDFT_SELECT_CLK1 | CYDEV_DFT
 531:Generated_Source\PSoC4/CyLFClk.h **** 
 532:Generated_Source\PSoC4/CyLFClk.h **** 
 533:Generated_Source\PSoC4/CyLFClk.h **** /*******************************************************************************
 534:Generated_Source\PSoC4/CyLFClk.h **** *       Trim Registers 
 535:Generated_Source\PSoC4/CyLFClk.h **** ********************************************************************************/
 536:Generated_Source\PSoC4/CyLFClk.h **** /* DFT TST Control Register*/
 537:Generated_Source\PSoC4/CyLFClk.h **** #define CY_SYS_TST_DDFT_CTRL_REG                         (*(reg32*) CYREG_TST_DDFT_CTRL)
 538:Generated_Source\PSoC4/CyLFClk.h **** #define CY_SYS_CNT_CTRL_PTR                              ( (reg32*) CYREG_TST_DDFT_CTRL)
 539:Generated_Source\PSoC4/CyLFClk.h **** 
 540:Generated_Source\PSoC4/CyLFClk.h **** /* DFT TST Counter 1 Register*/
 541:Generated_Source\PSoC4/CyLFClk.h **** #define CY_SYS_CNT_REG1_REG                              (*(reg32*) CYREG_TST_TRIM_CNTR1)
 542:Generated_Source\PSoC4/CyLFClk.h **** #define CY_SYS_CNT_REG1_PTR                              ( (reg32*) CYREG_TST_TRIM_CNTR1)
 543:Generated_Source\PSoC4/CyLFClk.h **** 
 544:Generated_Source\PSoC4/CyLFClk.h **** /* DFT TST Counter 2 Register*/
ARM GAS  C:\Users\user\AppData\Local\Temp\ccsPNKJ0.s 			page 11


 545:Generated_Source\PSoC4/CyLFClk.h **** #define CY_SYS_CNT_REG2_REG                              (*(reg32*) CYREG_TST_TRIM_CNTR2)
 546:Generated_Source\PSoC4/CyLFClk.h **** #define CY_SYS_CNT_REG2_PTR                              ( (reg32*) CYREG_TST_TRIM_CNTR2)
 547:Generated_Source\PSoC4/CyLFClk.h **** 
 548:Generated_Source\PSoC4/CyLFClk.h **** /* DFT Muxes Configuration Register*/
 549:Generated_Source\PSoC4/CyLFClk.h **** #define CY_SYS_CLK_DFT_REG                               (*(reg32*) CYREG_CLK_DFT_SELECT)
 550:Generated_Source\PSoC4/CyLFClk.h **** #define CY_SYS_CLK_DFT_PTR                               ( (reg32*) CYREG_CLK_DFT_SELECT)
 551:Generated_Source\PSoC4/CyLFClk.h **** 
 552:Generated_Source\PSoC4/CyLFClk.h **** /* ILO Configuration Register*/
 553:Generated_Source\PSoC4/CyLFClk.h **** #define CY_SYS_CLK_ILO_CONFIG_REG                        (*(reg32 *) CYREG_CLK_ILO_CONFIG)
 554:Generated_Source\PSoC4/CyLFClk.h **** #define CY_SYS_CLK_ILO_CONFIG_PTR                        ( (reg32 *) CYREG_CLK_ILO_CONFIG)
 555:Generated_Source\PSoC4/CyLFClk.h **** 
 556:Generated_Source\PSoC4/CyLFClk.h **** /* ILO Trim Register*/
 557:Generated_Source\PSoC4/CyLFClk.h **** #if(CY_IP_SRSSV2 && CY_IP_WCO)
 558:Generated_Source\PSoC4/CyLFClk.h ****     #define CY_SYS_CLK_ILO_TRIM_REG                      (*(reg32 *) CYREG_CLK_ILO_TRIM)
 559:Generated_Source\PSoC4/CyLFClk.h ****     #define CY_SYS_CLK_ILO_TRIM_PTR                      ( (reg32 *) CYREG_CLK_ILO_TRIM)
 560:Generated_Source\PSoC4/CyLFClk.h **** #endif  /* (CY_IP_SRSSV2) && CY_IP_WCO*/
 561:Generated_Source\PSoC4/CyLFClk.h **** 
 562:Generated_Source\PSoC4/CyLFClk.h **** #if (CY_IP_WCO)
 563:Generated_Source\PSoC4/CyLFClk.h ****     #if (CY_IP_BLESS)
 564:Generated_Source\PSoC4/CyLFClk.h **** 
 565:Generated_Source\PSoC4/CyLFClk.h ****         /* WCO Status Register */
 566:Generated_Source\PSoC4/CyLFClk.h ****         #define CY_SYS_CLK_WCO_STATUS_REG               (*(reg32 *) CYREG_BLE_BLESS_WCO_STATUS)
 567:Generated_Source\PSoC4/CyLFClk.h ****         #define CY_SYS_CLK_WCO_STATUS_PTR               ( (reg32 *) CYREG_BLE_BLESS_WCO_STATUS)
 568:Generated_Source\PSoC4/CyLFClk.h **** 
 569:Generated_Source\PSoC4/CyLFClk.h ****         /* WCO Configuration Register */
 570:Generated_Source\PSoC4/CyLFClk.h ****         #define CY_SYS_CLK_WCO_CONFIG_REG               (*(reg32 *) CYREG_BLE_BLESS_WCO_CONFIG)
 571:Generated_Source\PSoC4/CyLFClk.h ****         #define CY_SYS_CLK_WCO_CONFIG_PTR               ( (reg32 *) CYREG_BLE_BLESS_WCO_CONFIG)
 572:Generated_Source\PSoC4/CyLFClk.h **** 
 573:Generated_Source\PSoC4/CyLFClk.h ****         /* WCO Trim Register */
 574:Generated_Source\PSoC4/CyLFClk.h ****         #define CY_SYS_CLK_WCO_TRIM_REG                 (*(reg32 *) CYREG_BLE_BLESS_WCO_TRIM)
 575:Generated_Source\PSoC4/CyLFClk.h ****         #define CY_SYS_CLK_WCO_TRIM_PTR                 ( (reg32 *) CYREG_BLE_BLESS_WCO_TRIM)
 576:Generated_Source\PSoC4/CyLFClk.h ****     #else
 577:Generated_Source\PSoC4/CyLFClk.h **** 
 578:Generated_Source\PSoC4/CyLFClk.h ****         /* WCO Status Register */
 579:Generated_Source\PSoC4/CyLFClk.h ****         #define CY_SYS_CLK_WCO_STATUS_REG               (*(reg32 *) CYREG_WCO_STATUS)
 580:Generated_Source\PSoC4/CyLFClk.h ****         #define CY_SYS_CLK_WCO_STATUS_PTR               ( (reg32 *) CYREG_WCO_STATUS)
 581:Generated_Source\PSoC4/CyLFClk.h **** 
 582:Generated_Source\PSoC4/CyLFClk.h ****         /* WCO Configuration Register */
 583:Generated_Source\PSoC4/CyLFClk.h ****         #define CY_SYS_CLK_WCO_CONFIG_REG               (*(reg32 *) CYREG_WCO_CONFIG)
 584:Generated_Source\PSoC4/CyLFClk.h ****         #define CY_SYS_CLK_WCO_CONFIG_PTR               ( (reg32 *) CYREG_WCO_CONFIG)
 585:Generated_Source\PSoC4/CyLFClk.h **** 
 586:Generated_Source\PSoC4/CyLFClk.h ****         /* WCO Trim Register */
 587:Generated_Source\PSoC4/CyLFClk.h ****         #define CY_SYS_CLK_WCO_TRIM_REG                 (*(reg32 *) CYREG_WCO_TRIM)
 588:Generated_Source\PSoC4/CyLFClk.h ****         #define CY_SYS_CLK_WCO_TRIM_PTR                 ( (reg32 *) CYREG_WCO_TRIM)
 589:Generated_Source\PSoC4/CyLFClk.h ****     #endif /* (CY_IP_BLESS) */
 590:Generated_Source\PSoC4/CyLFClk.h **** #endif  /* (CY_IP_WCO) */
 591:Generated_Source\PSoC4/CyLFClk.h **** 
 592:Generated_Source\PSoC4/CyLFClk.h **** 
 593:Generated_Source\PSoC4/CyLFClk.h **** /*******************************************************************************
 594:Generated_Source\PSoC4/CyLFClk.h **** * WDT API Registers
 595:Generated_Source\PSoC4/CyLFClk.h **** *******************************************************************************/
 596:Generated_Source\PSoC4/CyLFClk.h **** #if(CY_IP_SRSSV2)
 597:Generated_Source\PSoC4/CyLFClk.h ****     #define CY_SYS_WDT_CTRLOW_REG               (*(reg32 *) CYREG_WDT_CTRLOW)
 598:Generated_Source\PSoC4/CyLFClk.h ****     #define CY_SYS_WDT_CTRLOW_PTR               ( (reg32 *) CYREG_WDT_CTRLOW)
 599:Generated_Source\PSoC4/CyLFClk.h **** 
 600:Generated_Source\PSoC4/CyLFClk.h ****     #define CY_SYS_WDT_CTRHIGH_REG              (*(reg32 *) CYREG_WDT_CTRHIGH)
 601:Generated_Source\PSoC4/CyLFClk.h ****     #define CY_SYS_WDT_CTRHIGH_PTR              ( (reg32 *) CYREG_WDT_CTRHIGH)
ARM GAS  C:\Users\user\AppData\Local\Temp\ccsPNKJ0.s 			page 12


 602:Generated_Source\PSoC4/CyLFClk.h **** 
 603:Generated_Source\PSoC4/CyLFClk.h ****     #define CY_SYS_WDT_MATCH_REG                (*(reg32 *) CYREG_WDT_MATCH)
 604:Generated_Source\PSoC4/CyLFClk.h ****     #define CY_SYS_WDT_MATCH_PTR                ( (reg32 *) CYREG_WDT_MATCH)
 605:Generated_Source\PSoC4/CyLFClk.h **** 
 606:Generated_Source\PSoC4/CyLFClk.h ****     #define CY_SYS_WDT_CONFIG_REG               (*(reg32 *) CYREG_WDT_CONFIG)
 607:Generated_Source\PSoC4/CyLFClk.h ****     #define CY_SYS_WDT_CONFIG_PTR               ( (reg32 *) CYREG_WDT_CONFIG)
 608:Generated_Source\PSoC4/CyLFClk.h **** 
 609:Generated_Source\PSoC4/CyLFClk.h ****     #define CY_SYS_WDT_CONTROL_REG              (*(reg32 *) CYREG_WDT_CONTROL)
 610:Generated_Source\PSoC4/CyLFClk.h ****     #define CY_SYS_WDT_CONTROL_PTR              ( (reg32 *) CYREG_WDT_CONTROL)
 611:Generated_Source\PSoC4/CyLFClk.h **** #else
 612:Generated_Source\PSoC4/CyLFClk.h ****     #define CY_SYS_WDT_DISABLE_KEY_REG          (*(reg32 *) CYREG_WDT_DISABLE_KEY)
 613:Generated_Source\PSoC4/CyLFClk.h ****     #define CY_SYS_WDT_DISABLE_KEY_PTR          ( (reg32 *) CYREG_WDT_DISABLE_KEY)
 614:Generated_Source\PSoC4/CyLFClk.h **** 
 615:Generated_Source\PSoC4/CyLFClk.h ****     #define CY_SYS_WDT_MATCH_REG                (*(reg32 *) CYREG_WDT_MATCH)
 616:Generated_Source\PSoC4/CyLFClk.h ****     #define CY_SYS_WDT_MATCH_PTR                ( (reg32 *) CYREG_WDT_MATCH)
 617:Generated_Source\PSoC4/CyLFClk.h **** 
 618:Generated_Source\PSoC4/CyLFClk.h ****     #define CY_SYS_WDT_COUNTER_REG              (*(reg32 *) CYREG_WDT_COUNTER)
 619:Generated_Source\PSoC4/CyLFClk.h ****     #define CY_SYS_WDT_COUNTER_PTR              ( (reg32 *) CYREG_WDT_COUNTER)
 620:Generated_Source\PSoC4/CyLFClk.h **** 
 621:Generated_Source\PSoC4/CyLFClk.h ****     #define CY_SYS_SRSS_INTR_REG                (*(reg32 *) CYREG_SRSS_INTR)
 622:Generated_Source\PSoC4/CyLFClk.h ****     #define CY_SYS_SRSS_INTR_PTR                ( (reg32 *) CYREG_SRSS_INTR)
 623:Generated_Source\PSoC4/CyLFClk.h **** 
 624:Generated_Source\PSoC4/CyLFClk.h ****     #define CY_SYS_SRSS_INTR_MASK_REG           (*(reg32 *) CYREG_SRSS_INTR_MASK)
 625:Generated_Source\PSoC4/CyLFClk.h ****     #define CY_SYS_SRSS_INTR_MASK_PTR           ( (reg32 *) CYREG_SRSS_INTR_MASK)
 626:Generated_Source\PSoC4/CyLFClk.h **** #endif  /* (CY_IP_SRSSV2) */
 627:Generated_Source\PSoC4/CyLFClk.h **** 
 628:Generated_Source\PSoC4/CyLFClk.h **** #if (CY_IP_SRSSLT && CY_IP_WCO && CY_IP_WCO_WDT_EN)
 629:Generated_Source\PSoC4/CyLFClk.h ****     #define CY_SYS_WCO_WDT_CTRLOW_REG           (*(reg32 *) CYREG_WCO_WDT_CTRLOW)
 630:Generated_Source\PSoC4/CyLFClk.h ****     #define CY_SYS_WCO_WDT_CTRLOW_PTR           ( (reg32 *) CYREG_WCO_WDT_CTRLOW)
 631:Generated_Source\PSoC4/CyLFClk.h **** 
 632:Generated_Source\PSoC4/CyLFClk.h ****     #define CY_SYS_WCO_WDT_CTRHIGH_REG          (*(reg32 *) CYREG_WCO_WDT_CTRHIGH)
 633:Generated_Source\PSoC4/CyLFClk.h ****     #define CY_SYS_WCO_WDT_CTRHIGH_PTR          ( (reg32 *) CYREG_WCO_WDT_CTRHIGH)
 634:Generated_Source\PSoC4/CyLFClk.h **** 
 635:Generated_Source\PSoC4/CyLFClk.h ****     #define CY_SYS_WCO_WDT_MATCH_REG            (*(reg32 *) CYREG_WCO_WDT_MATCH)
 636:Generated_Source\PSoC4/CyLFClk.h ****     #define CY_SYS_WCO_WDT_MATCH_PTR            ( (reg32 *) CYREG_WCO_WDT_MATCH)
 637:Generated_Source\PSoC4/CyLFClk.h **** 
 638:Generated_Source\PSoC4/CyLFClk.h ****     #define CY_SYS_WCO_WDT_CONFIG_REG           (*(reg32 *) CYREG_WCO_WDT_CONFIG)
 639:Generated_Source\PSoC4/CyLFClk.h ****     #define CY_SYS_WCO_WDT_CONFIG_PTR           ( (reg32 *) CYREG_WCO_WDT_CONFIG)
 640:Generated_Source\PSoC4/CyLFClk.h **** 
 641:Generated_Source\PSoC4/CyLFClk.h ****     #define CY_SYS_WCO_WDT_CONTROL_REG          (*(reg32 *) CYREG_WCO_WDT_CONTROL)
 642:Generated_Source\PSoC4/CyLFClk.h ****     #define CY_SYS_WCO_WDT_CONTROL_PTR          ( (reg32 *) CYREG_WCO_WDT_CONTROL)
 643:Generated_Source\PSoC4/CyLFClk.h **** 
 644:Generated_Source\PSoC4/CyLFClk.h ****     #define CY_SYS_WCO_WDT_CLKEN_REG            (*(reg32 *) CYREG_WCO_WDT_CLKEN)
 645:Generated_Source\PSoC4/CyLFClk.h ****     #define CY_SYS_WCO_WDT_CLKEN_PTR            ( (reg32 *) CYREG_WCO_WDT_CLKEN)
 646:Generated_Source\PSoC4/CyLFClk.h **** #endif /* (CY_IP_SRSSLT && CY_IP_WCO && CY_IP_WCO_WDT_EN) */
 647:Generated_Source\PSoC4/CyLFClk.h **** 
 648:Generated_Source\PSoC4/CyLFClk.h **** #if (CY_IP_WCO)
 649:Generated_Source\PSoC4/CyLFClk.h **** 
 650:Generated_Source\PSoC4/CyLFClk.h ****     /*******************************************************************************
 651:Generated_Source\PSoC4/CyLFClk.h ****     * Function Name: CySysClkWcoSetHighPowerMode
 652:Generated_Source\PSoC4/CyLFClk.h ****     ********************************************************************************
 653:Generated_Source\PSoC4/CyLFClk.h ****     *
 654:Generated_Source\PSoC4/CyLFClk.h ****     * Summary:
 655:Generated_Source\PSoC4/CyLFClk.h ****     *  Sets the high power mode for the 32 KHz WCO.
 656:Generated_Source\PSoC4/CyLFClk.h ****     *
 657:Generated_Source\PSoC4/CyLFClk.h ****     *******************************************************************************/
 658:Generated_Source\PSoC4/CyLFClk.h ****     static CY_INLINE void CySysClkWcoSetHighPowerMode(void)
ARM GAS  C:\Users\user\AppData\Local\Temp\ccsPNKJ0.s 			page 13


 659:Generated_Source\PSoC4/CyLFClk.h ****     {
  27              		.loc 1 659 0
  28              		.cfi_startproc
  29              		@ args = 0, pretend = 0, frame = 0
  30              		@ frame_needed = 0, uses_anonymous_args = 0
  31              		@ link register save eliminated.
 660:Generated_Source\PSoC4/CyLFClk.h ****         /* Switch off low power mode for WCO */
 661:Generated_Source\PSoC4/CyLFClk.h ****         CY_SYS_CLK_WCO_CONFIG_REG &= (uint32) ~CY_SYS_CLK_WCO_CONFIG_LPM_EN;
  32              		.loc 1 661 0
  33 0000 0120     		movs	r0, #1
  34 0002 0A4A     		ldr	r2, .L2
 662:Generated_Source\PSoC4/CyLFClk.h **** 
 663:Generated_Source\PSoC4/CyLFClk.h ****         /* Switch off auto low power mode in WCO */
 664:Generated_Source\PSoC4/CyLFClk.h ****         CY_SYS_CLK_WCO_CONFIG_REG &= ((uint32)~CY_SYS_CLK_WCO_CONFIG_LPM_AUTO);
 665:Generated_Source\PSoC4/CyLFClk.h **** 
 666:Generated_Source\PSoC4/CyLFClk.h ****         /* Restore WCO trim register HPM settings */
 667:Generated_Source\PSoC4/CyLFClk.h ****         CY_SYS_CLK_WCO_TRIM_REG = (CY_SYS_CLK_WCO_TRIM_REG & (uint32)(~CY_SYS_CLK_WCO_TRIM_GM_MASK)
 668:Generated_Source\PSoC4/CyLFClk.h ****                     | (uint32)(CY_SYS_CLK_WCO_TRIM_GM_HPM << CY_SYS_CLK_WCO_TRIM_GM_SHIFT);
 669:Generated_Source\PSoC4/CyLFClk.h ****         CY_SYS_CLK_WCO_TRIM_REG = (CY_SYS_CLK_WCO_TRIM_REG & (uint32)(~CY_SYS_CLK_WCO_TRIM_XGM_MASK
 670:Generated_Source\PSoC4/CyLFClk.h ****                     | (uint32)(CY_SYS_CLK_WCO_TRIM_XGM_2620NA << CY_SYS_CLK_WCO_TRIM_XGM_SHIFT);
 671:Generated_Source\PSoC4/CyLFClk.h ****     }
  35              		.loc 1 671 0
  36              		@ sp needed
 661:Generated_Source\PSoC4/CyLFClk.h **** 
  37              		.loc 1 661 0
  38 0004 1368     		ldr	r3, [r2]
  39 0006 8343     		bics	r3, r0
  40 0008 1360     		str	r3, [r2]
 664:Generated_Source\PSoC4/CyLFClk.h **** 
  41              		.loc 1 664 0
  42 000a 0223     		movs	r3, #2
  43 000c 1168     		ldr	r1, [r2]
  44 000e 9943     		bics	r1, r3
  45 0010 1160     		str	r1, [r2]
 667:Generated_Source\PSoC4/CyLFClk.h ****                     | (uint32)(CY_SYS_CLK_WCO_TRIM_GM_HPM << CY_SYS_CLK_WCO_TRIM_GM_SHIFT);
  46              		.loc 1 667 0
  47 0012 0749     		ldr	r1, .L2+4
 668:Generated_Source\PSoC4/CyLFClk.h ****         CY_SYS_CLK_WCO_TRIM_REG = (CY_SYS_CLK_WCO_TRIM_REG & (uint32)(~CY_SYS_CLK_WCO_TRIM_XGM_MASK
  48              		.loc 1 668 0
  49 0014 2E33     		adds	r3, r3, #46
 667:Generated_Source\PSoC4/CyLFClk.h ****                     | (uint32)(CY_SYS_CLK_WCO_TRIM_GM_HPM << CY_SYS_CLK_WCO_TRIM_GM_SHIFT);
  50              		.loc 1 667 0
  51 0016 0A68     		ldr	r2, [r1]
 668:Generated_Source\PSoC4/CyLFClk.h ****         CY_SYS_CLK_WCO_TRIM_REG = (CY_SYS_CLK_WCO_TRIM_REG & (uint32)(~CY_SYS_CLK_WCO_TRIM_XGM_MASK
  52              		.loc 1 668 0
  53 0018 9A43     		bics	r2, r3
  54 001a 203B     		subs	r3, r3, #32
  55 001c 1A43     		orrs	r2, r3
 667:Generated_Source\PSoC4/CyLFClk.h ****                     | (uint32)(CY_SYS_CLK_WCO_TRIM_GM_HPM << CY_SYS_CLK_WCO_TRIM_GM_SHIFT);
  56              		.loc 1 667 0
  57 001e 0A60     		str	r2, [r1]
 670:Generated_Source\PSoC4/CyLFClk.h ****     }
  58              		.loc 1 670 0
  59 0020 0722     		movs	r2, #7
 669:Generated_Source\PSoC4/CyLFClk.h ****                     | (uint32)(CY_SYS_CLK_WCO_TRIM_XGM_2620NA << CY_SYS_CLK_WCO_TRIM_XGM_SHIFT);
  60              		.loc 1 669 0
  61 0022 0B68     		ldr	r3, [r1]
ARM GAS  C:\Users\user\AppData\Local\Temp\ccsPNKJ0.s 			page 14


 670:Generated_Source\PSoC4/CyLFClk.h ****     }
  62              		.loc 1 670 0
  63 0024 9343     		bics	r3, r2
  64 0026 0343     		orrs	r3, r0
 669:Generated_Source\PSoC4/CyLFClk.h ****                     | (uint32)(CY_SYS_CLK_WCO_TRIM_XGM_2620NA << CY_SYS_CLK_WCO_TRIM_XGM_SHIFT);
  65              		.loc 1 669 0
  66 0028 0B60     		str	r3, [r1]
  67              		.loc 1 671 0
  68 002a 7047     		bx	lr
  69              	.L3:
  70              		.align	2
  71              	.L2:
  72 002c 00F02E40 		.word	1076817920
  73 0030 00FF2E40 		.word	1076821760
  74              		.cfi_endproc
  75              	.LFE0:
  76              		.size	CySysClkWcoSetHighPowerMode, .-CySysClkWcoSetHighPowerMode
  77              		.section	.text.CySysClkIloStart,"ax",%progbits
  78              		.align	1
  79              		.global	CySysClkIloStart
  80              		.code	16
  81              		.thumb_func
  82              		.type	CySysClkIloStart, %function
  83              	CySysClkIloStart:
  84              	.LFB2:
  85              		.file 2 "Generated_Source\\PSoC4\\CyLFClk.c"
   1:Generated_Source\PSoC4/CyLFClk.c **** /***************************************************************************//**
   2:Generated_Source\PSoC4/CyLFClk.c **** * \file .c
   3:Generated_Source\PSoC4/CyLFClk.c **** * \version 1.20
   4:Generated_Source\PSoC4/CyLFClk.c **** *
   5:Generated_Source\PSoC4/CyLFClk.c **** * \brief
   6:Generated_Source\PSoC4/CyLFClk.c **** *  This file provides the source code for configuring watchdog timers WDTs, 
   7:Generated_Source\PSoC4/CyLFClk.c **** *  low frequency clocks (LFCLK) and the Real-time Clock (RTC) component in
   8:Generated_Source\PSoC4/CyLFClk.c **** *  PSoC Creator for the PSoC 4 families.
   9:Generated_Source\PSoC4/CyLFClk.c **** *
  10:Generated_Source\PSoC4/CyLFClk.c **** ********************************************************************************
  11:Generated_Source\PSoC4/CyLFClk.c **** * \copyright
  12:Generated_Source\PSoC4/CyLFClk.c **** * Copyright 2008-2017, Cypress Semiconductor Corporation.  All rights reserved.
  13:Generated_Source\PSoC4/CyLFClk.c **** * You may use this file only in accordance with the license, terms, conditions,
  14:Generated_Source\PSoC4/CyLFClk.c **** * disclaimers, and limitations in the end user license agreement accompanying
  15:Generated_Source\PSoC4/CyLFClk.c **** * the software package with which this file was provided.
  16:Generated_Source\PSoC4/CyLFClk.c **** *******************************************************************************/
  17:Generated_Source\PSoC4/CyLFClk.c **** 
  18:Generated_Source\PSoC4/CyLFClk.c **** 
  19:Generated_Source\PSoC4/CyLFClk.c **** #include "CyLFClk.h"
  20:Generated_Source\PSoC4/CyLFClk.c **** #include "CyLib.h"
  21:Generated_Source\PSoC4/CyLFClk.c **** 
  22:Generated_Source\PSoC4/CyLFClk.c **** #if (CY_IP_WCO && CY_IP_SRSSV2)
  23:Generated_Source\PSoC4/CyLFClk.c ****     static uint32 CySysClkGetLfclkSource(void);
  24:Generated_Source\PSoC4/CyLFClk.c **** #endif /* (CY_IP_WCO && CY_IP_SRSSV2) */
  25:Generated_Source\PSoC4/CyLFClk.c **** 
  26:Generated_Source\PSoC4/CyLFClk.c **** 
  27:Generated_Source\PSoC4/CyLFClk.c **** #if(CY_IP_SRSSV2 && (!CY_IP_CPUSS))
  28:Generated_Source\PSoC4/CyLFClk.c ****     /* Default Ilo Trim Register value for ILO trimming*/
  29:Generated_Source\PSoC4/CyLFClk.c ****     static volatile uint16 defaultIloTrimRegValue = CY_SYS_CLK_ILO_TRIM_DEFAULT_VALUE;
  30:Generated_Source\PSoC4/CyLFClk.c **** #endif /* (CY_IP_SRSSV2 && (!CY_IP_CPUSS)) */
  31:Generated_Source\PSoC4/CyLFClk.c **** 
ARM GAS  C:\Users\user\AppData\Local\Temp\ccsPNKJ0.s 			page 15


  32:Generated_Source\PSoC4/CyLFClk.c **** #if(CY_IP_SRSSV2)
  33:Generated_Source\PSoC4/CyLFClk.c ****     /* CySysClkLfclkPosedgeCatch() / CySysClkLfclkPosedgeRestore() */
  34:Generated_Source\PSoC4/CyLFClk.c ****     static uint32 lfclkPosedgeWdtCounter0Enabled = 0u;
  35:Generated_Source\PSoC4/CyLFClk.c ****     static uint32 lfclkPosedgeWdtCounter0Mode    = CY_SYS_WDT_MODE_NONE;
  36:Generated_Source\PSoC4/CyLFClk.c **** 
  37:Generated_Source\PSoC4/CyLFClk.c ****     static volatile uint32 disableServicedIsr = 0uL;
  38:Generated_Source\PSoC4/CyLFClk.c ****     static volatile uint32 wdtIsrMask = CY_SYS_WDT_COUNTER0_INT |\
  39:Generated_Source\PSoC4/CyLFClk.c ****                                         CY_SYS_WDT_COUNTER1_INT |\
  40:Generated_Source\PSoC4/CyLFClk.c ****                                         CY_SYS_WDT_COUNTER2_INT;
  41:Generated_Source\PSoC4/CyLFClk.c **** 
  42:Generated_Source\PSoC4/CyLFClk.c ****     static const uint32 counterIntMaskTbl[CY_WDT_NUM_OF_WDT] = {CY_SYS_WDT_COUNTER0_INT,
  43:Generated_Source\PSoC4/CyLFClk.c ****                                                                 CY_SYS_WDT_COUNTER1_INT,
  44:Generated_Source\PSoC4/CyLFClk.c ****                                                                 CY_SYS_WDT_COUNTER2_INT};
  45:Generated_Source\PSoC4/CyLFClk.c **** 
  46:Generated_Source\PSoC4/CyLFClk.c ****     static void CySysClkLfclkPosedgeCatch(void);
  47:Generated_Source\PSoC4/CyLFClk.c ****     static void CySysClkLfclkPosedgeRestore(void);
  48:Generated_Source\PSoC4/CyLFClk.c **** 
  49:Generated_Source\PSoC4/CyLFClk.c ****     static uint32 CySysWdtLocked(void);
  50:Generated_Source\PSoC4/CyLFClk.c ****     static uint32 CySysClkIloEnabled(void);
  51:Generated_Source\PSoC4/CyLFClk.c **** #endif /* (CY_IP_SRSSV2) */
  52:Generated_Source\PSoC4/CyLFClk.c **** 
  53:Generated_Source\PSoC4/CyLFClk.c **** #if (CY_IP_SRSSLT && CY_IP_WCO && CY_IP_WCO_WDT_EN)
  54:Generated_Source\PSoC4/CyLFClk.c ****     static uint32 CySysClkGetTimerSource(void);
  55:Generated_Source\PSoC4/CyLFClk.c ****     static volatile uint32 disableTimerServicedIsr = 0uL;
  56:Generated_Source\PSoC4/CyLFClk.c ****     static volatile uint32 timerIsrMask = CY_SYS_TIMER0_INT |\
  57:Generated_Source\PSoC4/CyLFClk.c ****                                           CY_SYS_TIMER1_INT |\
  58:Generated_Source\PSoC4/CyLFClk.c ****                                           CY_SYS_TIMER2_INT;
  59:Generated_Source\PSoC4/CyLFClk.c **** 
  60:Generated_Source\PSoC4/CyLFClk.c ****     static const uint32 counterTimerIntMaskTbl[CY_SYS_NUM_OF_TIMERS] = {CY_SYS_TIMER0_INT,
  61:Generated_Source\PSoC4/CyLFClk.c ****                                                                         CY_SYS_TIMER1_INT,
  62:Generated_Source\PSoC4/CyLFClk.c ****                                                                         CY_SYS_TIMER2_INT};
  63:Generated_Source\PSoC4/CyLFClk.c **** 
  64:Generated_Source\PSoC4/CyLFClk.c ****     static cyTimerCallback cySysTimerCallback[CY_SYS_NUM_OF_TIMERS] = {(void *)0, (void *)0, (void 
  65:Generated_Source\PSoC4/CyLFClk.c **** #endif /* (CY_IP_SRSSLT && CY_IP_WCO && CY_IP_WCO_DWT_EN) */
  66:Generated_Source\PSoC4/CyLFClk.c **** 
  67:Generated_Source\PSoC4/CyLFClk.c **** #if(CY_IP_SRSSV2)
  68:Generated_Source\PSoC4/CyLFClk.c ****     static cyWdtCallback cySysWdtCallback[CY_WDT_NUM_OF_WDT] = {(void *)0, (void *)0, (void *)0};
  69:Generated_Source\PSoC4/CyLFClk.c **** #else
  70:Generated_Source\PSoC4/CyLFClk.c ****     static cyWdtCallback cySysWdtCallback = (void *)0;
  71:Generated_Source\PSoC4/CyLFClk.c **** #endif /* (CY_IP_SRSSV2) */
  72:Generated_Source\PSoC4/CyLFClk.c **** 
  73:Generated_Source\PSoC4/CyLFClk.c **** 
  74:Generated_Source\PSoC4/CyLFClk.c **** /*******************************************************************************
  75:Generated_Source\PSoC4/CyLFClk.c **** * Function Name: CySysClkIloStart
  76:Generated_Source\PSoC4/CyLFClk.c **** ****************************************************************************//**
  77:Generated_Source\PSoC4/CyLFClk.c **** * \brief
  78:Generated_Source\PSoC4/CyLFClk.c **** *  Enables ILO.
  79:Generated_Source\PSoC4/CyLFClk.c **** *
  80:Generated_Source\PSoC4/CyLFClk.c **** *  Refer to the device datasheet for the ILO startup time.
  81:Generated_Source\PSoC4/CyLFClk.c **** *
  82:Generated_Source\PSoC4/CyLFClk.c **** *******************************************************************************/
  83:Generated_Source\PSoC4/CyLFClk.c **** void CySysClkIloStart(void)
  84:Generated_Source\PSoC4/CyLFClk.c **** {
  86              		.loc 2 84 0
  87              		.cfi_startproc
  88              		@ args = 0, pretend = 0, frame = 0
  89              		@ frame_needed = 0, uses_anonymous_args = 0
ARM GAS  C:\Users\user\AppData\Local\Temp\ccsPNKJ0.s 			page 16


  90              		@ link register save eliminated.
  85:Generated_Source\PSoC4/CyLFClk.c ****     CY_SYS_CLK_ILO_CONFIG_REG |= CY_SYS_CLK_ILO_CONFIG_ENABLE;
  91              		.loc 2 85 0
  92 0000 8021     		movs	r1, #128
  93 0002 034A     		ldr	r2, .L5
  94 0004 0906     		lsls	r1, r1, #24
  95 0006 1368     		ldr	r3, [r2]
  86:Generated_Source\PSoC4/CyLFClk.c **** }
  96              		.loc 2 86 0
  97              		@ sp needed
  85:Generated_Source\PSoC4/CyLFClk.c ****     CY_SYS_CLK_ILO_CONFIG_REG |= CY_SYS_CLK_ILO_CONFIG_ENABLE;
  98              		.loc 2 85 0
  99 0008 0B43     		orrs	r3, r1
 100 000a 1360     		str	r3, [r2]
 101              		.loc 2 86 0
 102 000c 7047     		bx	lr
 103              	.L6:
 104 000e C046     		.align	2
 105              	.L5:
 106 0010 04010B40 		.word	1074462980
 107              		.cfi_endproc
 108              	.LFE2:
 109              		.size	CySysClkIloStart, .-CySysClkIloStart
 110              		.section	.text.CySysClkIloStartMeasurement,"ax",%progbits
 111              		.align	1
 112              		.global	CySysClkIloStartMeasurement
 113              		.code	16
 114              		.thumb_func
 115              		.type	CySysClkIloStartMeasurement, %function
 116              	CySysClkIloStartMeasurement:
 117              	.LFB4:
  87:Generated_Source\PSoC4/CyLFClk.c **** 
  88:Generated_Source\PSoC4/CyLFClk.c **** 
  89:Generated_Source\PSoC4/CyLFClk.c **** /*******************************************************************************
  90:Generated_Source\PSoC4/CyLFClk.c **** * Function Name: CySysClkIloStop
  91:Generated_Source\PSoC4/CyLFClk.c **** ****************************************************************************//**
  92:Generated_Source\PSoC4/CyLFClk.c **** * \brief
  93:Generated_Source\PSoC4/CyLFClk.c **** *  Disables the ILO.
  94:Generated_Source\PSoC4/CyLFClk.c **** *
  95:Generated_Source\PSoC4/CyLFClk.c **** *  This function has no effect if WDT is locked (CySysWdtLock() is
  96:Generated_Source\PSoC4/CyLFClk.c **** *  called). Call CySysWdtUnlock() to unlock WDT and stop ILO.
  97:Generated_Source\PSoC4/CyLFClk.c **** *
  98:Generated_Source\PSoC4/CyLFClk.c **** *  PSoC 4100 / PSoC 4200: Note that ILO is required for WDT's operation.
  99:Generated_Source\PSoC4/CyLFClk.c **** *
 100:Generated_Source\PSoC4/CyLFClk.c **** *  PSoC 4100 BLE / PSoC 4200 BLE / PSoC 4200L / PSoC 4100M / 
 101:Generated_Source\PSoC4/CyLFClk.c **** *  PSoC 4200M:
 102:Generated_Source\PSoC4/CyLFClk.c **** *  Stopping ILO affects the peripheral clocked by LFCLK, if
 103:Generated_Source\PSoC4/CyLFClk.c **** *  LFCLK is configured to be sourced by ILO.
 104:Generated_Source\PSoC4/CyLFClk.c **** *
 105:Generated_Source\PSoC4/CyLFClk.c **** *  If the ILO is disabled, all blocks run by ILO will stop functioning.
 106:Generated_Source\PSoC4/CyLFClk.c **** *
 107:Generated_Source\PSoC4/CyLFClk.c **** *******************************************************************************/
 108:Generated_Source\PSoC4/CyLFClk.c **** void CySysClkIloStop(void)
 109:Generated_Source\PSoC4/CyLFClk.c **** {
 110:Generated_Source\PSoC4/CyLFClk.c ****     #if(CY_IP_SRSSV2)
 111:Generated_Source\PSoC4/CyLFClk.c ****         uint8  interruptState;
 112:Generated_Source\PSoC4/CyLFClk.c **** 
ARM GAS  C:\Users\user\AppData\Local\Temp\ccsPNKJ0.s 			page 17


 113:Generated_Source\PSoC4/CyLFClk.c ****         /* Do nothing if WDT is locked or ILO is disabled */
 114:Generated_Source\PSoC4/CyLFClk.c ****         if (0u == CySysWdtLocked())
 115:Generated_Source\PSoC4/CyLFClk.c ****         {
 116:Generated_Source\PSoC4/CyLFClk.c ****             if (0u != CySysClkIloEnabled())
 117:Generated_Source\PSoC4/CyLFClk.c ****             {
 118:Generated_Source\PSoC4/CyLFClk.c **** 
 119:Generated_Source\PSoC4/CyLFClk.c ****             #if (CY_IP_WCO)
 120:Generated_Source\PSoC4/CyLFClk.c ****                 if (CY_SYS_CLK_LFCLK_SRC_ILO == CySysClkGetLfclkSource())
 121:Generated_Source\PSoC4/CyLFClk.c ****                 {
 122:Generated_Source\PSoC4/CyLFClk.c ****             #endif /* (CY_IP_WCO) */
 123:Generated_Source\PSoC4/CyLFClk.c **** 
 124:Generated_Source\PSoC4/CyLFClk.c ****                 interruptState = CyEnterCriticalSection();
 125:Generated_Source\PSoC4/CyLFClk.c ****                 CySysClkLfclkPosedgeCatch();
 126:Generated_Source\PSoC4/CyLFClk.c ****                 CY_SYS_CLK_ILO_CONFIG_REG &= (uint32) ( ~(uint32)CY_SYS_CLK_ILO_CONFIG_ENABLE);
 127:Generated_Source\PSoC4/CyLFClk.c ****                 CySysClkLfclkPosedgeRestore();
 128:Generated_Source\PSoC4/CyLFClk.c ****                 CyExitCriticalSection(interruptState);
 129:Generated_Source\PSoC4/CyLFClk.c **** 
 130:Generated_Source\PSoC4/CyLFClk.c ****             #if (CY_IP_WCO)
 131:Generated_Source\PSoC4/CyLFClk.c ****                 }
 132:Generated_Source\PSoC4/CyLFClk.c ****                 else /* Safe to disable - shortened pulse does not impact peripheral */
 133:Generated_Source\PSoC4/CyLFClk.c ****                 {
 134:Generated_Source\PSoC4/CyLFClk.c ****                     CY_SYS_CLK_ILO_CONFIG_REG &= (uint32) ( ~(uint32)CY_SYS_CLK_ILO_CONFIG_ENABLE);
 135:Generated_Source\PSoC4/CyLFClk.c ****                 }
 136:Generated_Source\PSoC4/CyLFClk.c ****             #endif /* (CY_IP_WCO) */
 137:Generated_Source\PSoC4/CyLFClk.c **** 
 138:Generated_Source\PSoC4/CyLFClk.c ****             }
 139:Generated_Source\PSoC4/CyLFClk.c ****         }
 140:Generated_Source\PSoC4/CyLFClk.c ****     #else
 141:Generated_Source\PSoC4/CyLFClk.c ****         CY_SYS_CLK_ILO_CONFIG_REG &= ( uint32 ) ( ~( uint32 )CY_SYS_CLK_ILO_CONFIG_ENABLE);
 142:Generated_Source\PSoC4/CyLFClk.c ****     #endif /* (CY_IP_SRSSV2) */
 143:Generated_Source\PSoC4/CyLFClk.c **** }
 144:Generated_Source\PSoC4/CyLFClk.c **** 
 145:Generated_Source\PSoC4/CyLFClk.c **** 
 146:Generated_Source\PSoC4/CyLFClk.c **** /******************************************************************************
 147:Generated_Source\PSoC4/CyLFClk.c **** * Function Name: CySysClkIloStartMeasurement
 148:Generated_Source\PSoC4/CyLFClk.c **** ***************************************************************************//**
 149:Generated_Source\PSoC4/CyLFClk.c **** * \brief
 150:Generated_Source\PSoC4/CyLFClk.c **** * Starts the ILO accuracy measurement.
 151:Generated_Source\PSoC4/CyLFClk.c **** *
 152:Generated_Source\PSoC4/CyLFClk.c **** * This function is non-blocking and needs to be called before using the 
 153:Generated_Source\PSoC4/CyLFClk.c **** * CySysClkIloTrim() and CySysClkIloCompensate() API.
 154:Generated_Source\PSoC4/CyLFClk.c **** *
 155:Generated_Source\PSoC4/CyLFClk.c **** * This API configures measurement counters to be sourced by SysClk (Counter 1)
 156:Generated_Source\PSoC4/CyLFClk.c **** * and ILO (Counter 2). 
 157:Generated_Source\PSoC4/CyLFClk.c **** *
 158:Generated_Source\PSoC4/CyLFClk.c **** * \note SysClk should be sourced by IMO. Otherwise CySysClkIloTrim() and 
 159:Generated_Source\PSoC4/CyLFClk.c **** * CySysClkIloCompensate() API can give incorrect results.
 160:Generated_Source\PSoC4/CyLFClk.c **** *
 161:Generated_Source\PSoC4/CyLFClk.c **** * In addition, this API stores the factory ILO trim settings on the first call 
 162:Generated_Source\PSoC4/CyLFClk.c **** * after reset. This stored factory setting is used by the 
 163:Generated_Source\PSoC4/CyLFClk.c **** * CySysClkIloRestoreFactoryTrim() API to restore the ILO factory trim. 
 164:Generated_Source\PSoC4/CyLFClk.c **** * Hence, it is important to call this API before restoring the ILO 
 165:Generated_Source\PSoC4/CyLFClk.c **** * factory trim settings.
 166:Generated_Source\PSoC4/CyLFClk.c **** *
 167:Generated_Source\PSoC4/CyLFClk.c **** ******************************************************************************/
 168:Generated_Source\PSoC4/CyLFClk.c **** void CySysClkIloStartMeasurement(void)
 169:Generated_Source\PSoC4/CyLFClk.c **** {
ARM GAS  C:\Users\user\AppData\Local\Temp\ccsPNKJ0.s 			page 18


 118              		.loc 2 169 0
 119              		.cfi_startproc
 120              		@ args = 0, pretend = 0, frame = 0
 121              		@ frame_needed = 0, uses_anonymous_args = 0
 122              		@ link register save eliminated.
 170:Generated_Source\PSoC4/CyLFClk.c **** #if(CY_IP_SRSSV2 && (!CY_IP_CPUSS))
 171:Generated_Source\PSoC4/CyLFClk.c ****     static uint8 iloTrimTrig = 0u;
 172:Generated_Source\PSoC4/CyLFClk.c **** 
 173:Generated_Source\PSoC4/CyLFClk.c ****     /* Write default ILO trim value while ILO starting ( Cypress ID 225244 )*/
 174:Generated_Source\PSoC4/CyLFClk.c ****     if (0u == iloTrimTrig)
 123              		.loc 2 174 0
 124 0000 0D4A     		ldr	r2, .L10
 125 0002 1378     		ldrb	r3, [r2]
 126 0004 002B     		cmp	r3, #0
 127 0006 07D1     		bne	.L8
 175:Generated_Source\PSoC4/CyLFClk.c ****     {
 176:Generated_Source\PSoC4/CyLFClk.c ****         defaultIloTrimRegValue = ((uint8)(CY_SYS_CLK_ILO_TRIM_REG & CY_SYS_CLK_ILO_TRIM_MASK));
 128              		.loc 2 176 0
 129 0008 0C4B     		ldr	r3, .L10+4
 130 000a 1968     		ldr	r1, [r3]
 131 000c 0F23     		movs	r3, #15
 132 000e 0B40     		ands	r3, r1
 133 0010 0B49     		ldr	r1, .L10+8
 134 0012 0B80     		strh	r3, [r1]
 177:Generated_Source\PSoC4/CyLFClk.c ****         iloTrimTrig = 1u;
 135              		.loc 2 177 0
 136 0014 0123     		movs	r3, #1
 137 0016 1370     		strb	r3, [r2]
 138              	.L8:
 178:Generated_Source\PSoC4/CyLFClk.c ****     }
 179:Generated_Source\PSoC4/CyLFClk.c **** #endif /* (CY_IP_SRSSV2 && (!CY_IP_CPUSS)) */
 180:Generated_Source\PSoC4/CyLFClk.c **** 
 181:Generated_Source\PSoC4/CyLFClk.c ****     /* Configure measurement counters to source by SysClk (Counter 1) and ILO (Counter 2)*/
 182:Generated_Source\PSoC4/CyLFClk.c ****     CY_SYS_CLK_DFT_REG = (CY_SYS_CLK_DFT_REG & (uint32) ~CY_SYS_CLK_DFT_SELECT_DEFAULT_MASK) |
 139              		.loc 2 182 0
 140 0018 0A4A     		ldr	r2, .L10+12
 141 001a 0B4B     		ldr	r3, .L10+16
 142 001c 1168     		ldr	r1, [r2]
 183:Generated_Source\PSoC4/CyLFClk.c ****                             CY_SYS_CLK_SEL_ILO_DFT_SOURCE; 
 184:Generated_Source\PSoC4/CyLFClk.c **** 
 185:Generated_Source\PSoC4/CyLFClk.c ****     CY_SYS_TST_DDFT_CTRL_REG = (CY_SYS_TST_DDFT_CTRL_REG & (uint32) ~ CY_SYS_TST_DDFT_CTRL_REG_DEFA
 186:Generated_Source\PSoC4/CyLFClk.c ****                             CY_SYS_TST_DDFT_CTRL_REG_SEL2_CLK1;
 187:Generated_Source\PSoC4/CyLFClk.c **** }
 143              		.loc 2 187 0
 144              		@ sp needed
 182:Generated_Source\PSoC4/CyLFClk.c ****                             CY_SYS_CLK_SEL_ILO_DFT_SOURCE; 
 145              		.loc 2 182 0
 146 001e 0B40     		ands	r3, r1
 147 0020 8021     		movs	r1, #128
 148 0022 4900     		lsls	r1, r1, #1
 149 0024 0B43     		orrs	r3, r1
 150 0026 1360     		str	r3, [r2]
 185:Generated_Source\PSoC4/CyLFClk.c ****                             CY_SYS_TST_DDFT_CTRL_REG_SEL2_CLK1;
 151              		.loc 2 185 0
 152 0028 084A     		ldr	r2, .L10+20
 153 002a 094B     		ldr	r3, .L10+24
 154 002c 1168     		ldr	r1, [r2]
ARM GAS  C:\Users\user\AppData\Local\Temp\ccsPNKJ0.s 			page 19


 155 002e 0B40     		ands	r3, r1
 156 0030 0849     		ldr	r1, .L10+28
 157 0032 0B43     		orrs	r3, r1
 158 0034 1360     		str	r3, [r2]
 159              		.loc 2 187 0
 160 0036 7047     		bx	lr
 161              	.L11:
 162              		.align	2
 163              	.L10:
 164 0038 00000000 		.word	.LANCHOR0
 165 003c 24FF0B40 		.word	1074528036
 166 0040 00000000 		.word	.LANCHOR1
 167 0044 10010B40 		.word	1074462992
 168 0048 FFF0FFFF 		.word	-3841
 169 004c 08000340 		.word	1073938440
 170 0050 C0C0FFFF 		.word	-16192
 171 0054 0A0B0000 		.word	2826
 172              		.cfi_endproc
 173              	.LFE4:
 174              		.size	CySysClkIloStartMeasurement, .-CySysClkIloStartMeasurement
 175              		.section	.text.CySysClkIloStopMeasurement,"ax",%progbits
 176              		.align	1
 177              		.global	CySysClkIloStopMeasurement
 178              		.code	16
 179              		.thumb_func
 180              		.type	CySysClkIloStopMeasurement, %function
 181              	CySysClkIloStopMeasurement:
 182              	.LFB5:
 188:Generated_Source\PSoC4/CyLFClk.c **** 
 189:Generated_Source\PSoC4/CyLFClk.c **** 
 190:Generated_Source\PSoC4/CyLFClk.c **** /******************************************************************************
 191:Generated_Source\PSoC4/CyLFClk.c **** * Function Name: CySysClkIloStopMeasurement
 192:Generated_Source\PSoC4/CyLFClk.c **** ***************************************************************************//**
 193:Generated_Source\PSoC4/CyLFClk.c **** * \brief
 194:Generated_Source\PSoC4/CyLFClk.c **** * Stops the ILO accuracy measurement.
 195:Generated_Source\PSoC4/CyLFClk.c **** *
 196:Generated_Source\PSoC4/CyLFClk.c **** * Calling this function immediately stops the the ILO frequency measurement.
 197:Generated_Source\PSoC4/CyLFClk.c **** * This function should be called before placing the device to deepsleep, if 
 198:Generated_Source\PSoC4/CyLFClk.c **** * CySysClkIloStartMeasurement() API was called before. 
 199:Generated_Source\PSoC4/CyLFClk.c **** *
 200:Generated_Source\PSoC4/CyLFClk.c **** ******************************************************************************/
 201:Generated_Source\PSoC4/CyLFClk.c **** void CySysClkIloStopMeasurement(void)
 202:Generated_Source\PSoC4/CyLFClk.c **** {
 183              		.loc 2 202 0
 184              		.cfi_startproc
 185              		@ args = 0, pretend = 0, frame = 0
 186              		@ frame_needed = 0, uses_anonymous_args = 0
 187              		@ link register save eliminated.
 203:Generated_Source\PSoC4/CyLFClk.c ****     /* Set default configurations in 11...8 DFT register bits to zero */
 204:Generated_Source\PSoC4/CyLFClk.c ****     CY_SYS_CLK_DFT_REG &= ~CY_SYS_CLK_DFT_SELECT_DEFAULT_MASK;
 188              		.loc 2 204 0
 189 0000 024A     		ldr	r2, .L13
 190 0002 034B     		ldr	r3, .L13+4
 191 0004 1168     		ldr	r1, [r2]
 205:Generated_Source\PSoC4/CyLFClk.c ****     #if(CY_IP_SRSSLT)
 206:Generated_Source\PSoC4/CyLFClk.c ****         CY_SYS_TST_DDFT_CTRL_REG &= ((uint32) CY_SYS_TST_DDFT_CTRL_REG_DEFAULT_MASK);
 207:Generated_Source\PSoC4/CyLFClk.c ****     #endif /* (CY_IP_SRSSLT) */
ARM GAS  C:\Users\user\AppData\Local\Temp\ccsPNKJ0.s 			page 20


 208:Generated_Source\PSoC4/CyLFClk.c **** }
 192              		.loc 2 208 0
 193              		@ sp needed
 204:Generated_Source\PSoC4/CyLFClk.c ****     #if(CY_IP_SRSSLT)
 194              		.loc 2 204 0
 195 0006 0B40     		ands	r3, r1
 196 0008 1360     		str	r3, [r2]
 197              		.loc 2 208 0
 198 000a 7047     		bx	lr
 199              	.L14:
 200              		.align	2
 201              	.L13:
 202 000c 10010B40 		.word	1074462992
 203 0010 FFF0FFFF 		.word	-3841
 204              		.cfi_endproc
 205              	.LFE5:
 206              		.size	CySysClkIloStopMeasurement, .-CySysClkIloStopMeasurement
 207              		.global	__aeabi_uidiv
 208              		.section	.text.CySysClkIloCompensate,"ax",%progbits
 209              		.align	1
 210              		.global	CySysClkIloCompensate
 211              		.code	16
 212              		.thumb_func
 213              		.type	CySysClkIloCompensate, %function
 214              	CySysClkIloCompensate:
 215              	.LFB6:
 209:Generated_Source\PSoC4/CyLFClk.c **** 
 210:Generated_Source\PSoC4/CyLFClk.c **** 
 211:Generated_Source\PSoC4/CyLFClk.c **** /******************************************************************************
 212:Generated_Source\PSoC4/CyLFClk.c **** * Function Name: CySysClkIloCompensate
 213:Generated_Source\PSoC4/CyLFClk.c **** ***************************************************************************//**
 214:Generated_Source\PSoC4/CyLFClk.c **** * \brief
 215:Generated_Source\PSoC4/CyLFClk.c **** * This API measures the current ILO accuracy.
 216:Generated_Source\PSoC4/CyLFClk.c **** *
 217:Generated_Source\PSoC4/CyLFClk.c **** * Basing on the measured frequency the required number of ILO cycles for a 
 218:Generated_Source\PSoC4/CyLFClk.c **** * given delay (in microseconds) is obtained. The desired delay that needs to 
 219:Generated_Source\PSoC4/CyLFClk.c **** * be compensated is passed through the desiredDelay parameter. The compensated 
 220:Generated_Source\PSoC4/CyLFClk.c **** * cycle count is returned through the compesatedCycles pointer.
 221:Generated_Source\PSoC4/CyLFClk.c **** * The compensated ILO cycles can then be used to define the WDT period value, 
 222:Generated_Source\PSoC4/CyLFClk.c **** * effectively compensating for the ILO inaccuracy and allowing a more 
 223:Generated_Source\PSoC4/CyLFClk.c **** * accurate WDT interrupt generation.
 224:Generated_Source\PSoC4/CyLFClk.c **** *
 225:Generated_Source\PSoC4/CyLFClk.c **** * CySysClkIloStartMeasurement() API should be called prior to calling this API. 
 226:Generated_Source\PSoC4/CyLFClk.c **** *
 227:Generated_Source\PSoC4/CyLFClk.c **** * \note SysClk should be sourced by IMO. Otherwise CySysClkIloTrim() and 
 228:Generated_Source\PSoC4/CyLFClk.c **** * CySysClkIloCompensate() API can give incorrect results.
 229:Generated_Source\PSoC4/CyLFClk.c **** *
 230:Generated_Source\PSoC4/CyLFClk.c **** * \note If the System clock frequency is changed in runtime, the CyDelayFreq() 
 231:Generated_Source\PSoC4/CyLFClk.c **** * with the appropriate parameter (Frequency of bus clock in Hertz) should be 
 232:Generated_Source\PSoC4/CyLFClk.c **** * called before calling a next CySysClkIloCompensate().
 233:Generated_Source\PSoC4/CyLFClk.c **** *
 234:Generated_Source\PSoC4/CyLFClk.c **** * \warning Do not enter deep sleep mode until the function returns CYRET_SUCCESS.
 235:Generated_Source\PSoC4/CyLFClk.c **** *
 236:Generated_Source\PSoC4/CyLFClk.c **** * \param desiredDelay Required delay in microseconds.
 237:Generated_Source\PSoC4/CyLFClk.c **** *
 238:Generated_Source\PSoC4/CyLFClk.c **** * \param *compensatedCycles The pointer to the variable in which the required
 239:Generated_Source\PSoC4/CyLFClk.c **** * number of ILO cycles for the given delay will be returned.
ARM GAS  C:\Users\user\AppData\Local\Temp\ccsPNKJ0.s 			page 21


 240:Generated_Source\PSoC4/CyLFClk.c **** *
 241:Generated_Source\PSoC4/CyLFClk.c **** * \details
 242:Generated_Source\PSoC4/CyLFClk.c **** * The value returned in *compensatedCycles pointer is not valid until the 
 243:Generated_Source\PSoC4/CyLFClk.c **** * function returns CYRET_SUCCESS.
 244:Generated_Source\PSoC4/CyLFClk.c **** *
 245:Generated_Source\PSoC4/CyLFClk.c **** * The desiredDelay parameter value should be in next range: <br>From 100 to 
 246:Generated_Source\PSoC4/CyLFClk.c **** * 2 000 000 microseconds for PSoC 4000 / PSoC 4000S / PSoC 4100S / PSoC Analog 
 247:Generated_Source\PSoC4/CyLFClk.c **** * Coprocessor devices.<br>From 100 to 4 000 000 000 microseconds for 
 248:Generated_Source\PSoC4/CyLFClk.c **** * PSoC 4100 / PSoC 4200 / PSoC 4100 BLE / PSoC 4200 BLE / PRoC BLE /
 249:Generated_Source\PSoC4/CyLFClk.c **** * PSoC 4200L / PSoC 4100M /PSoC 4200M devices.
 250:Generated_Source\PSoC4/CyLFClk.c **** *
 251:Generated_Source\PSoC4/CyLFClk.c **** * \return CYRET_SUCCESS - The compensation process is complete and the 
 252:Generated_Source\PSoC4/CyLFClk.c **** * compensated cycles value is returned in the compensatedCycles pointer.
 253:Generated_Source\PSoC4/CyLFClk.c **** *
 254:Generated_Source\PSoC4/CyLFClk.c **** * \return CYRET_STARTED - Indicates measurement is in progress. It is 
 255:Generated_Source\PSoC4/CyLFClk.c **** * strongly recommended to do not make pauses between API calling. The 
 256:Generated_Source\PSoC4/CyLFClk.c **** * function should be called repeatedly until the API returns CYRET_SUCCESS.
 257:Generated_Source\PSoC4/CyLFClk.c **** *
 258:Generated_Source\PSoC4/CyLFClk.c **** * \return CYRET_INVALID_STATE - Indicates that measurement not started. 
 259:Generated_Source\PSoC4/CyLFClk.c **** * The user should call CySysClkIloStartMeasurement() API before calling 
 260:Generated_Source\PSoC4/CyLFClk.c **** * this API.
 261:Generated_Source\PSoC4/CyLFClk.c **** *
 262:Generated_Source\PSoC4/CyLFClk.c **** * \note For a correct WDT or DeepSleep Timers functioning with ILO compensating 
 263:Generated_Source\PSoC4/CyLFClk.c **** * the CySysClkIloCompensate() should be called before WDT or DeepSleep Timers 
 264:Generated_Source\PSoC4/CyLFClk.c **** * enabling.
 265:Generated_Source\PSoC4/CyLFClk.c **** *
 266:Generated_Source\PSoC4/CyLFClk.c **** *******************************************************************************/
 267:Generated_Source\PSoC4/CyLFClk.c **** cystatus CySysClkIloCompensate(uint32 desiredDelay , uint32* compensatedCycles)
 268:Generated_Source\PSoC4/CyLFClk.c **** {
 216              		.loc 2 268 0
 217              		.cfi_startproc
 218              		@ args = 0, pretend = 0, frame = 8
 219              		@ frame_needed = 0, uses_anonymous_args = 0
 220              	.LVL0:
 269:Generated_Source\PSoC4/CyLFClk.c ****     uint32 iloCompensatedCycles;
 270:Generated_Source\PSoC4/CyLFClk.c ****     uint32 desiredDelayInCounts;
 271:Generated_Source\PSoC4/CyLFClk.c ****     static uint32 compensateRunningStatus = CY_SYS_CLK_TRIM_OR_COMP_FINISHED;
 272:Generated_Source\PSoC4/CyLFClk.c ****     uint32 checkStatus;
 273:Generated_Source\PSoC4/CyLFClk.c ****     cystatus returnStatus;
 274:Generated_Source\PSoC4/CyLFClk.c **** 
 275:Generated_Source\PSoC4/CyLFClk.c ****     checkStatus = (uint32) (CY_SYS_CLK_DFT_REG & (uint32) CY_SYS_TST_DDFT_CTRL_REG_DEFAULT_MASK);
 221              		.loc 2 275 0
 222 0000 2C4B     		ldr	r3, .L27
 268:Generated_Source\PSoC4/CyLFClk.c ****     uint32 iloCompensatedCycles;
 223              		.loc 2 268 0
 224 0002 F7B5     		push	{r0, r1, r2, r4, r5, r6, r7, lr}
 225              		.cfi_def_cfa_offset 32
 226              		.cfi_offset 0, -32
 227              		.cfi_offset 1, -28
 228              		.cfi_offset 2, -24
 229              		.cfi_offset 4, -20
 230              		.cfi_offset 5, -16
 231              		.cfi_offset 6, -12
 232              		.cfi_offset 7, -8
 233              		.cfi_offset 14, -4
 234              		.loc 2 275 0
 235 0004 1A68     		ldr	r2, [r3]
ARM GAS  C:\Users\user\AppData\Local\Temp\ccsPNKJ0.s 			page 22


 236              	.LVL1:
 276:Generated_Source\PSoC4/CyLFClk.c **** 
 277:Generated_Source\PSoC4/CyLFClk.c ****     /* Check if CySysStartMeasurement was called before */
 278:Generated_Source\PSoC4/CyLFClk.c ****     if((checkStatus == CY_SYS_CLK_SEL_ILO_DFT_SOURCE) && 
 237              		.loc 2 278 0
 238 0006 2C4B     		ldr	r3, .L27+4
 268:Generated_Source\PSoC4/CyLFClk.c ****     uint32 iloCompensatedCycles;
 239              		.loc 2 268 0
 240 0008 0500     		movs	r5, r0
 241              		.loc 2 278 0
 242 000a 1340     		ands	r3, r2
 243              	.LVL2:
 244 000c 8022     		movs	r2, #128
 268:Generated_Source\PSoC4/CyLFClk.c ****     uint32 iloCompensatedCycles;
 245              		.loc 2 268 0
 246 000e 0E00     		movs	r6, r1
 247              		.loc 2 278 0
 248 0010 5200     		lsls	r2, r2, #1
 279:Generated_Source\PSoC4/CyLFClk.c ****        (CY_SYS_TST_DDFT_CTRL_REG == CY_SYS_TST_DDFT_CTRL_REG_SEL2_CLK1) &&
 280:Generated_Source\PSoC4/CyLFClk.c ****        (CY_SYS_CLK_MAX_DELAY_US >= desiredDelay) &&
 281:Generated_Source\PSoC4/CyLFClk.c ****        (CY_SYS_CLK_MIN_DELAY_US <= desiredDelay) &&
 282:Generated_Source\PSoC4/CyLFClk.c ****        (compensatedCycles !=  NULL))
 283:Generated_Source\PSoC4/CyLFClk.c ****     {
 284:Generated_Source\PSoC4/CyLFClk.c ****         if(CY_SYS_CLK_TRIM_OR_COMP_FINISHED != compensateRunningStatus)
 285:Generated_Source\PSoC4/CyLFClk.c ****         {
 286:Generated_Source\PSoC4/CyLFClk.c ****             /* Wait until counter 1 stopped counting and after it calculate compensated cycles */
 287:Generated_Source\PSoC4/CyLFClk.c ****             if(0u != (CY_SYS_CNT_REG1_REG & CY_SYS_CLK_ILO_CALIBR_COMPLETE_MASK))
 288:Generated_Source\PSoC4/CyLFClk.c ****             {
 289:Generated_Source\PSoC4/CyLFClk.c ****                 if (0u != CY_SYS_CNT_REG2_REG)
 290:Generated_Source\PSoC4/CyLFClk.c ****                 {
 291:Generated_Source\PSoC4/CyLFClk.c ****                     /* Calculate required number of ILO cycles for given delay */
 292:Generated_Source\PSoC4/CyLFClk.c ****                     #if(CY_IP_SRSSV2)
 293:Generated_Source\PSoC4/CyLFClk.c ****                         if (CY_SYS_CLK_DELAY_COUNTS_LIMIT < desiredDelay)
 294:Generated_Source\PSoC4/CyLFClk.c ****                         {
 295:Generated_Source\PSoC4/CyLFClk.c ****                             desiredDelayInCounts = (desiredDelay / CY_SYS_CLK_ILO_PERIOD);
 296:Generated_Source\PSoC4/CyLFClk.c ****                             iloCompensatedCycles = 
 297:Generated_Source\PSoC4/CyLFClk.c ****                             (((CY_SYS_CNT_REG2_REG * cydelayFreqHz) / (cydelayFreqHz >> CY_SYS_CLK_
 298:Generated_Source\PSoC4/CyLFClk.c ****                                 CY_SYS_CLK_ILO_FREQ_2MSB) * (desiredDelayInCounts / CY_SYS_CLK_ILO_
 299:Generated_Source\PSoC4/CyLFClk.c ****                         }
 300:Generated_Source\PSoC4/CyLFClk.c ****                         else
 301:Generated_Source\PSoC4/CyLFClk.c ****                         {
 302:Generated_Source\PSoC4/CyLFClk.c ****                             desiredDelayInCounts = ((desiredDelay * CY_SYS_CLK_COEF_PHUNDRED) + 
 303:Generated_Source\PSoC4/CyLFClk.c ****                                                      CY_SYS_CLK_HALF_OF_CLOCK) / CY_SYS_CLK_ILO_PER
 304:Generated_Source\PSoC4/CyLFClk.c **** 
 305:Generated_Source\PSoC4/CyLFClk.c ****                             iloCompensatedCycles = (((CY_SYS_CNT_REG2_REG * cydelayFreqHz) / 
 306:Generated_Source\PSoC4/CyLFClk.c ****                                                      (cydelayFreqHz >> CY_SYS_CLK_SYS_CLK_DEVIDER))
 307:Generated_Source\PSoC4/CyLFClk.c ****                                                      desiredDelayInCounts) / CY_SYS_CLK_ILO_DESIRED
 308:Generated_Source\PSoC4/CyLFClk.c ****                         }
 309:Generated_Source\PSoC4/CyLFClk.c ****                     #else /* (CY_IP_SRSSLT) */
 310:Generated_Source\PSoC4/CyLFClk.c ****                         desiredDelayInCounts = ((desiredDelay * CY_SYS_CLK_COEF_PHUNDRED) + CY_SYS_
 311:Generated_Source\PSoC4/CyLFClk.c ****                                                                                            CY_SYS_C
 312:Generated_Source\PSoC4/CyLFClk.c ****                         if(CY_SYS_CLK_MAX_LITE_NUMBER < desiredDelayInCounts)
 313:Generated_Source\PSoC4/CyLFClk.c ****                         {
 314:Generated_Source\PSoC4/CyLFClk.c ****                             iloCompensatedCycles = (((CY_SYS_CNT_REG2_REG * cydelayFreqHz) / (cydel
 315:Generated_Source\PSoC4/CyLFClk.c ****                                                    CY_SYS_CLK_SYS_CLK_DEVIDER)) / CY_SYS_CLK_ILO_FR
 316:Generated_Source\PSoC4/CyLFClk.c ****                                                    (desiredDelayInCounts / CY_SYS_CLK_ILO_FREQ_3LSB
 317:Generated_Source\PSoC4/CyLFClk.c ****                         }
ARM GAS  C:\Users\user\AppData\Local\Temp\ccsPNKJ0.s 			page 23


 318:Generated_Source\PSoC4/CyLFClk.c ****                         else
 319:Generated_Source\PSoC4/CyLFClk.c ****                         {
 320:Generated_Source\PSoC4/CyLFClk.c ****                             iloCompensatedCycles = (((CY_SYS_CNT_REG2_REG * cydelayFreqHz) / 
 321:Generated_Source\PSoC4/CyLFClk.c ****                                                      (cydelayFreqHz >> CY_SYS_CLK_SYS_CLK_DEVIDER))
 322:Generated_Source\PSoC4/CyLFClk.c ****                                                      desiredDelayInCounts) / CY_SYS_CLK_ILO_DESIRED
 323:Generated_Source\PSoC4/CyLFClk.c ****                         }
 324:Generated_Source\PSoC4/CyLFClk.c ****                     #endif /* (CY_IP_SRSSV2) */
 325:Generated_Source\PSoC4/CyLFClk.c **** 
 326:Generated_Source\PSoC4/CyLFClk.c ****                     *compensatedCycles = iloCompensatedCycles;
 327:Generated_Source\PSoC4/CyLFClk.c ****                     compensateRunningStatus = CY_SYS_CLK_TRIM_OR_COMP_FINISHED;
 328:Generated_Source\PSoC4/CyLFClk.c ****                     returnStatus = CYRET_SUCCESS;
 329:Generated_Source\PSoC4/CyLFClk.c ****                 }
 330:Generated_Source\PSoC4/CyLFClk.c ****                 else
 331:Generated_Source\PSoC4/CyLFClk.c ****                 {
 332:Generated_Source\PSoC4/CyLFClk.c ****                     returnStatus  = CYRET_INVALID_STATE;
 333:Generated_Source\PSoC4/CyLFClk.c ****                 }
 334:Generated_Source\PSoC4/CyLFClk.c ****             }
 335:Generated_Source\PSoC4/CyLFClk.c ****             else
 336:Generated_Source\PSoC4/CyLFClk.c ****             {
 337:Generated_Source\PSoC4/CyLFClk.c ****                 returnStatus = CYRET_STARTED;
 338:Generated_Source\PSoC4/CyLFClk.c ****             }
 339:Generated_Source\PSoC4/CyLFClk.c ****         }
 340:Generated_Source\PSoC4/CyLFClk.c ****         else
 341:Generated_Source\PSoC4/CyLFClk.c ****         {
 342:Generated_Source\PSoC4/CyLFClk.c ****             /* Reload CNTR 1 count value for next measurement cycle*/
 343:Generated_Source\PSoC4/CyLFClk.c ****             CY_SYS_CNT_REG1_REG = (cydelayFreqHz >> CY_SYS_CLK_SYS_CLK_DEVIDER);
 344:Generated_Source\PSoC4/CyLFClk.c ****             compensateRunningStatus = CY_SYS_CLK_TRIM_OR_COMP_STARTED;
 345:Generated_Source\PSoC4/CyLFClk.c ****             returnStatus = CYRET_STARTED;
 346:Generated_Source\PSoC4/CyLFClk.c ****         }
 347:Generated_Source\PSoC4/CyLFClk.c ****     }
 348:Generated_Source\PSoC4/CyLFClk.c ****     else
 349:Generated_Source\PSoC4/CyLFClk.c ****     {
 350:Generated_Source\PSoC4/CyLFClk.c ****         returnStatus = CYRET_INVALID_STATE;
 249              		.loc 2 350 0
 250 0012 1120     		movs	r0, #17
 251              	.LVL3:
 278:Generated_Source\PSoC4/CyLFClk.c ****        (CY_SYS_TST_DDFT_CTRL_REG == CY_SYS_TST_DDFT_CTRL_REG_SEL2_CLK1) &&
 252              		.loc 2 278 0
 253 0014 9342     		cmp	r3, r2
 254 0016 4BD1     		bne	.L16
 279:Generated_Source\PSoC4/CyLFClk.c ****        (CY_SYS_TST_DDFT_CTRL_REG == CY_SYS_TST_DDFT_CTRL_REG_SEL2_CLK1) &&
 255              		.loc 2 279 0 discriminator 1
 256 0018 284B     		ldr	r3, .L27+8
 257              	.LVL4:
 258 001a 1A68     		ldr	r2, [r3]
 278:Generated_Source\PSoC4/CyLFClk.c ****        (CY_SYS_TST_DDFT_CTRL_REG == CY_SYS_TST_DDFT_CTRL_REG_SEL2_CLK1) &&
 259              		.loc 2 278 0 discriminator 1
 260 001c 284B     		ldr	r3, .L27+12
 261 001e 9A42     		cmp	r2, r3
 262 0020 46D1     		bne	.L16
 280:Generated_Source\PSoC4/CyLFClk.c ****        (CY_SYS_CLK_MIN_DELAY_US <= desiredDelay) &&
 263              		.loc 2 280 0
 264 0022 2B00     		movs	r3, r5
 265 0024 274A     		ldr	r2, .L27+16
 266 0026 643B     		subs	r3, r3, #100
 267 0028 9342     		cmp	r3, r2
 268 002a 41D8     		bhi	.L16
ARM GAS  C:\Users\user\AppData\Local\Temp\ccsPNKJ0.s 			page 24


 281:Generated_Source\PSoC4/CyLFClk.c ****        (compensatedCycles !=  NULL))
 269              		.loc 2 281 0
 270 002c 0029     		cmp	r1, #0
 271 002e 3FD0     		beq	.L16
 284:Generated_Source\PSoC4/CyLFClk.c ****         {
 272              		.loc 2 284 0
 273 0030 254B     		ldr	r3, .L27+20
 274 0032 2649     		ldr	r1, .L27+24
 275              	.LVL5:
 276 0034 5A68     		ldr	r2, [r3, #4]
 277 0036 1F00     		movs	r7, r3
 278 0038 002A     		cmp	r2, #0
 279 003a 32D0     		beq	.L17
 287:Generated_Source\PSoC4/CyLFClk.c ****             {
 280              		.loc 2 287 0
 281 003c 0B68     		ldr	r3, [r1]
 337:Generated_Source\PSoC4/CyLFClk.c ****             }
 282              		.loc 2 337 0
 283 003e 0A38     		subs	r0, r0, #10
 287:Generated_Source\PSoC4/CyLFClk.c ****             {
 284              		.loc 2 287 0
 285 0040 002B     		cmp	r3, #0
 286 0042 35DA     		bge	.L16
 289:Generated_Source\PSoC4/CyLFClk.c ****                 {
 287              		.loc 2 289 0
 288 0044 224B     		ldr	r3, .L27+28
 289              		.loc 2 350 0
 290 0046 0A30     		adds	r0, r0, #10
 289:Generated_Source\PSoC4/CyLFClk.c ****                 {
 291              		.loc 2 289 0
 292 0048 1A68     		ldr	r2, [r3]
 293 004a 002A     		cmp	r2, #0
 294 004c 30D0     		beq	.L16
 293:Generated_Source\PSoC4/CyLFClk.c ****                         {
 295              		.loc 2 293 0
 296 004e 2149     		ldr	r1, .L27+32
 297 0050 214A     		ldr	r2, .L27+36
 298 0052 8D42     		cmp	r5, r1
 299 0054 0CD9     		bls	.L18
 300              	.LVL6:
 297:Generated_Source\PSoC4/CyLFClk.c ****                                 CY_SYS_CLK_ILO_FREQ_2MSB) * (desiredDelayInCounts / CY_SYS_CLK_ILO_
 301              		.loc 2 297 0
 302 0056 1168     		ldr	r1, [r2]
 303 0058 1868     		ldr	r0, [r3]
 296:Generated_Source\PSoC4/CyLFClk.c ****                             (((CY_SYS_CNT_REG2_REG * cydelayFreqHz) / (cydelayFreqHz >> CY_SYS_CLK_
 304              		.loc 2 296 0
 305 005a 4843     		muls	r0, r1
 306 005c 890A     		lsrs	r1, r1, #10
 307 005e FFF7FEFF 		bl	__aeabi_uidiv
 308              	.LVL7:
 309 0062 1E49     		ldr	r1, .L27+40
 310 0064 4409     		lsrs	r4, r0, #5
 311 0066 2800     		movs	r0, r5
 312 0068 FFF7FEFF 		bl	__aeabi_uidiv
 313              	.LVL8:
 314 006c 6043     		muls	r0, r4
 315              	.LVL9:
ARM GAS  C:\Users\user\AppData\Local\Temp\ccsPNKJ0.s 			page 25


 316 006e 14E0     		b	.L19
 317              	.LVL10:
 318              	.L18:
 305:Generated_Source\PSoC4/CyLFClk.c ****                                                      (cydelayFreqHz >> CY_SYS_CLK_SYS_CLK_DEVIDER))
 319              		.loc 2 305 0
 320 0070 6420     		movs	r0, #100
 321 0072 1B68     		ldr	r3, [r3]
 322 0074 6843     		muls	r0, r5
 323 0076 0193     		str	r3, [sp, #4]
 324 0078 194B     		ldr	r3, .L27+44
 325 007a 1A49     		ldr	r1, .L27+48
 326 007c C018     		adds	r0, r0, r3
 327 007e 1468     		ldr	r4, [r2]
 328 0080 FFF7FEFF 		bl	__aeabi_uidiv
 329              	.LVL11:
 330 0084 0500     		movs	r5, r0
 331              	.LVL12:
 332 0086 0198     		ldr	r0, [sp, #4]
 333 0088 A10A     		lsrs	r1, r4, #10
 334 008a 6043     		muls	r0, r4
 335 008c FFF7FEFF 		bl	__aeabi_uidiv
 336              	.LVL13:
 337 0090 FA21     		movs	r1, #250
 338 0092 6843     		muls	r0, r5
 339 0094 C901     		lsls	r1, r1, #7
 340 0096 FFF7FEFF 		bl	__aeabi_uidiv
 341              	.LVL14:
 342              	.L19:
 326:Generated_Source\PSoC4/CyLFClk.c ****                     compensateRunningStatus = CY_SYS_CLK_TRIM_OR_COMP_FINISHED;
 343              		.loc 2 326 0
 344 009a 3060     		str	r0, [r6]
 327:Generated_Source\PSoC4/CyLFClk.c ****                     returnStatus = CYRET_SUCCESS;
 345              		.loc 2 327 0
 346 009c 0020     		movs	r0, #0
 347              	.LVL15:
 348 009e 7860     		str	r0, [r7, #4]
 349              	.LVL16:
 350 00a0 06E0     		b	.L16
 351              	.LVL17:
 352              	.L17:
 343:Generated_Source\PSoC4/CyLFClk.c ****             compensateRunningStatus = CY_SYS_CLK_TRIM_OR_COMP_STARTED;
 353              		.loc 2 343 0
 354 00a2 0D4A     		ldr	r2, .L27+36
 345:Generated_Source\PSoC4/CyLFClk.c ****         }
 355              		.loc 2 345 0
 356 00a4 0720     		movs	r0, #7
 343:Generated_Source\PSoC4/CyLFClk.c ****             compensateRunningStatus = CY_SYS_CLK_TRIM_OR_COMP_STARTED;
 357              		.loc 2 343 0
 358 00a6 1268     		ldr	r2, [r2]
 359 00a8 920A     		lsrs	r2, r2, #10
 360 00aa 0A60     		str	r2, [r1]
 344:Generated_Source\PSoC4/CyLFClk.c ****             returnStatus = CYRET_STARTED;
 361              		.loc 2 344 0
 362 00ac 0122     		movs	r2, #1
 363 00ae 5A60     		str	r2, [r3, #4]
 364              	.LVL18:
 365              	.L16:
ARM GAS  C:\Users\user\AppData\Local\Temp\ccsPNKJ0.s 			page 26


 351:Generated_Source\PSoC4/CyLFClk.c ****     }
 352:Generated_Source\PSoC4/CyLFClk.c **** 
 353:Generated_Source\PSoC4/CyLFClk.c ****     return (returnStatus);
 354:Generated_Source\PSoC4/CyLFClk.c **** }
 366              		.loc 2 354 0
 367              		@ sp needed
 368              	.LVL19:
 369 00b0 FEBD     		pop	{r1, r2, r3, r4, r5, r6, r7, pc}
 370              	.L28:
 371 00b2 C046     		.align	2
 372              	.L27:
 373 00b4 10010B40 		.word	1074462992
 374 00b8 3F3F0000 		.word	16191
 375 00bc 08000340 		.word	1073938440
 376 00c0 0A0B0000 		.word	2826
 377 00c4 9C276BEE 		.word	-294967396
 378 00c8 00000000 		.word	.LANCHOR0
 379 00cc 18000340 		.word	1073938456
 380 00d0 1C000340 		.word	1073938460
 381 00d4 60D10000 		.word	53600
 382 00d8 00000000 		.word	cydelayFreqHz
 383 00dc 18790000 		.word	31000
 384 00e0 0D030000 		.word	781
 385 00e4 350C0000 		.word	3125
 386              		.cfi_endproc
 387              	.LFE6:
 388              		.size	CySysClkIloCompensate, .-CySysClkIloCompensate
 389              		.global	__aeabi_idiv
 390              		.section	.text.CySysClkIloUpdateTrimReg,"ax",%progbits
 391              		.align	1
 392              		.global	CySysClkIloUpdateTrimReg
 393              		.code	16
 394              		.thumb_func
 395              		.type	CySysClkIloUpdateTrimReg, %function
 396              	CySysClkIloUpdateTrimReg:
 397              	.LFB9:
 355:Generated_Source\PSoC4/CyLFClk.c **** 
 356:Generated_Source\PSoC4/CyLFClk.c **** 
 357:Generated_Source\PSoC4/CyLFClk.c **** #if(CY_IP_SRSSV2)
 358:Generated_Source\PSoC4/CyLFClk.c ****     /*******************************************************************************
 359:Generated_Source\PSoC4/CyLFClk.c ****     * Function Name: CySysClkIloEnabled
 360:Generated_Source\PSoC4/CyLFClk.c ****     ****************************************************************************//**
 361:Generated_Source\PSoC4/CyLFClk.c ****     *
 362:Generated_Source\PSoC4/CyLFClk.c ****     * \internal
 363:Generated_Source\PSoC4/CyLFClk.c ****     * Reports the ILO enable state.
 364:Generated_Source\PSoC4/CyLFClk.c ****     *
 365:Generated_Source\PSoC4/CyLFClk.c ****     * \return
 366:Generated_Source\PSoC4/CyLFClk.c ****     * 1 if ILO is enabled, and 0 if ILO is disabled.
 367:Generated_Source\PSoC4/CyLFClk.c ****     *
 368:Generated_Source\PSoC4/CyLFClk.c ****     * \endinternal
 369:Generated_Source\PSoC4/CyLFClk.c ****     ********************************************************************************/
 370:Generated_Source\PSoC4/CyLFClk.c ****     static uint32 CySysClkIloEnabled(void)
 371:Generated_Source\PSoC4/CyLFClk.c ****     {
 372:Generated_Source\PSoC4/CyLFClk.c ****         /* Prohibits writing to WDT registers and ILO/WCO registers when not equal to 0 */
 373:Generated_Source\PSoC4/CyLFClk.c ****         return ((0u != (CY_SYS_CLK_ILO_CONFIG_REG & (uint32)(CY_SYS_CLK_ILO_CONFIG_ENABLE))) ?
 374:Generated_Source\PSoC4/CyLFClk.c ****             (uint32) 1u :
 375:Generated_Source\PSoC4/CyLFClk.c ****             (uint32) 0u);
ARM GAS  C:\Users\user\AppData\Local\Temp\ccsPNKJ0.s 			page 27


 376:Generated_Source\PSoC4/CyLFClk.c ****     }
 377:Generated_Source\PSoC4/CyLFClk.c **** #endif /* (CY_IP_SRSSV2) */
 378:Generated_Source\PSoC4/CyLFClk.c **** 
 379:Generated_Source\PSoC4/CyLFClk.c **** 
 380:Generated_Source\PSoC4/CyLFClk.c **** #if(CY_IP_SRSSV2 && (!CY_IP_CPUSS))
 381:Generated_Source\PSoC4/CyLFClk.c **** /********************************************************************************
 382:Generated_Source\PSoC4/CyLFClk.c **** * Function Name: CySysClkIloTrim
 383:Generated_Source\PSoC4/CyLFClk.c **** *****************************************************************************//**
 384:Generated_Source\PSoC4/CyLFClk.c **** * \brief
 385:Generated_Source\PSoC4/CyLFClk.c **** * The API trims the ILO frequency to +/- 10% accuracy range using accurate 
 386:Generated_Source\PSoC4/CyLFClk.c **** * SysClk.
 387:Generated_Source\PSoC4/CyLFClk.c **** *
 388:Generated_Source\PSoC4/CyLFClk.c **** * The API can be blocking or non-blocking depending on the value of the mode 
 389:Generated_Source\PSoC4/CyLFClk.c **** * parameter passed. The accuracy of ILO after trimming in parts per thousand 
 390:Generated_Source\PSoC4/CyLFClk.c **** * is returned through the iloAccuracyInPPT pointer. A positive number indicates 
 391:Generated_Source\PSoC4/CyLFClk.c **** * that the ILO is running fast and a negative number indicates that the ILO is 
 392:Generated_Source\PSoC4/CyLFClk.c **** * running slowly. This error is relative to the error in the reference clock 
 393:Generated_Source\PSoC4/CyLFClk.c **** * (SysClk), so the absolute error will be higher and depends on the accuracy 
 394:Generated_Source\PSoC4/CyLFClk.c **** * of the reference.
 395:Generated_Source\PSoC4/CyLFClk.c **** *
 396:Generated_Source\PSoC4/CyLFClk.c **** * The CySysClkIloStartMeasurement() API should be called prior to calling this 
 397:Generated_Source\PSoC4/CyLFClk.c **** * API. Otherwise it will return CYRET_INVALID_STATE as the measurement was not 
 398:Generated_Source\PSoC4/CyLFClk.c **** * started.
 399:Generated_Source\PSoC4/CyLFClk.c **** *
 400:Generated_Source\PSoC4/CyLFClk.c **** * \note SysClk should be sourced by IMO. Otherwise CySysClkIloTrim() and 
 401:Generated_Source\PSoC4/CyLFClk.c **** * CySysClkIloCompensate() API can give incorrect results.
 402:Generated_Source\PSoC4/CyLFClk.c **** *
 403:Generated_Source\PSoC4/CyLFClk.c **** * \note If System clock frequency is changed in runtime, the CyDelayFreq() 
 404:Generated_Source\PSoC4/CyLFClk.c **** * with the appropriate parameter (Frequency of bus clock in Hertz) should be 
 405:Generated_Source\PSoC4/CyLFClk.c **** * called before next CySysClkIloCompensate() usage.
 406:Generated_Source\PSoC4/CyLFClk.c **** *
 407:Generated_Source\PSoC4/CyLFClk.c **** * \warning Do not enter deep sleep mode until the function returns CYRET_SUCCESS
 408:Generated_Source\PSoC4/CyLFClk.c **** * or CYRET_TIMEOUT.
 409:Generated_Source\PSoC4/CyLFClk.c **** *
 410:Generated_Source\PSoC4/CyLFClk.c **** * Available for all PSoC 4 devices with ILO trim capability. This excludes 
 411:Generated_Source\PSoC4/CyLFClk.c **** * PSoC 4000 / PSoC 4100 / PSoC 4200 / PSoC 4000S / PSoC 4100S / PSoC
 412:Generated_Source\PSoC4/CyLFClk.c **** * Analog Coprocessor devices.
 413:Generated_Source\PSoC4/CyLFClk.c **** *
 414:Generated_Source\PSoC4/CyLFClk.c **** * \param mode
 415:Generated_Source\PSoC4/CyLFClk.c **** *  CY_SYS_CLK_BLOCKING -  The function does not return until the ILO is 
 416:Generated_Source\PSoC4/CyLFClk.c **** * within +/-10% accuracy range or time out has occurred.<br>
 417:Generated_Source\PSoC4/CyLFClk.c **** * CY_SYS_CLK_NON_BLOCKING - The function returns immediately after 
 418:Generated_Source\PSoC4/CyLFClk.c **** * performing a single iteration of the trim process. The function should be 
 419:Generated_Source\PSoC4/CyLFClk.c **** * called repeatedly until the trimming is completed successfully.
 420:Generated_Source\PSoC4/CyLFClk.c **** *
 421:Generated_Source\PSoC4/CyLFClk.c **** * \param *iloAccuracyInPPT Pointer to an integer in which the trimmed ILO 
 422:Generated_Source\PSoC4/CyLFClk.c **** * accuracy will be returned.
 423:Generated_Source\PSoC4/CyLFClk.c **** *
 424:Generated_Source\PSoC4/CyLFClk.c **** * \details The value returned in *iloAccuracyInPPT pointer is not valid 
 425:Generated_Source\PSoC4/CyLFClk.c **** * until the function returns CYRET_SUCCESS. ILO accuracy in PPT is given by:
 426:Generated_Source\PSoC4/CyLFClk.c **** *
 427:Generated_Source\PSoC4/CyLFClk.c **** * IloAccuracyInPPT = ((MeasuredIloFreq - DesiredIloFreq) * 
 428:Generated_Source\PSoC4/CyLFClk.c **** * CY_SYS_CLK_PERTHOUSAND) / DesiredIloFreq);
 429:Generated_Source\PSoC4/CyLFClk.c **** *
 430:Generated_Source\PSoC4/CyLFClk.c **** * DesiredIloFreq  = 32000, CY_SYS_CLK_PERTHOUSAND = 1000;
 431:Generated_Source\PSoC4/CyLFClk.c **** *
 432:Generated_Source\PSoC4/CyLFClk.c **** * \return CYRET_SUCCESS - Indicates trimming is complete. This value indicates 
ARM GAS  C:\Users\user\AppData\Local\Temp\ccsPNKJ0.s 			page 28


 433:Generated_Source\PSoC4/CyLFClk.c **** * trimming is successful and iloAccuracyInPPT is within +/- 10%.
 434:Generated_Source\PSoC4/CyLFClk.c **** *
 435:Generated_Source\PSoC4/CyLFClk.c **** * \return CYRET_STARTED - Indicates measurement is in progress. This is applicable 
 436:Generated_Source\PSoC4/CyLFClk.c **** * only for non-blocking mode.
 437:Generated_Source\PSoC4/CyLFClk.c **** *
 438:Generated_Source\PSoC4/CyLFClk.c **** * \return CYRET_INVALID_STATE - Indicates trimming was unsuccessful. You should 
 439:Generated_Source\PSoC4/CyLFClk.c **** * call CySysClkIloStartMeasurement() before calling this API.
 440:Generated_Source\PSoC4/CyLFClk.c **** *
 441:Generated_Source\PSoC4/CyLFClk.c **** * \return CYRET_TIMEOUT - Indicates trimming was unsuccessful. This is applicable 
 442:Generated_Source\PSoC4/CyLFClk.c **** * only for blocking mode. Timeout means the trimming was tried 5 times without 
 443:Generated_Source\PSoC4/CyLFClk.c **** * success (i.e. ILO accuracy > +/- 10%). The user can call the API again for 
 444:Generated_Source\PSoC4/CyLFClk.c **** * another try or wait for some time before calling it again (to let the system 
 445:Generated_Source\PSoC4/CyLFClk.c **** * to settle to another operating point change in temperature etc.) and continue 
 446:Generated_Source\PSoC4/CyLFClk.c **** * using the previous trim value till the next call.
 447:Generated_Source\PSoC4/CyLFClk.c **** *
 448:Generated_Source\PSoC4/CyLFClk.c **** **********************************************************************************/
 449:Generated_Source\PSoC4/CyLFClk.c **** cystatus CySysClkIloTrim(uint32 mode, int32* iloAccuracyInPPT)
 450:Generated_Source\PSoC4/CyLFClk.c **** {
 451:Generated_Source\PSoC4/CyLFClk.c ****     uint32 timeOutClocks = CY_SYS_CLK_TIMEOUT;
 452:Generated_Source\PSoC4/CyLFClk.c ****     uint32 waitUntilCntr1Stops;
 453:Generated_Source\PSoC4/CyLFClk.c ****     static uint32 trimRunningStatus = CY_SYS_CLK_TRIM_OR_COMP_FINISHED;
 454:Generated_Source\PSoC4/CyLFClk.c ****     uint32 checkStatus;
 455:Generated_Source\PSoC4/CyLFClk.c ****     cystatus returnStatus;
 456:Generated_Source\PSoC4/CyLFClk.c **** 
 457:Generated_Source\PSoC4/CyLFClk.c ****     checkStatus = (uint32) (CY_SYS_CLK_DFT_REG & (uint32) CY_SYS_TST_DDFT_CTRL_REG_DEFAULT_MASK);
 458:Generated_Source\PSoC4/CyLFClk.c **** 
 459:Generated_Source\PSoC4/CyLFClk.c ****     /* Check if DFT and CTRL registers were configures in CySysStartMeasurement*/
 460:Generated_Source\PSoC4/CyLFClk.c ****     if((checkStatus == CY_SYS_CLK_SEL_ILO_DFT_SOURCE) &&
 461:Generated_Source\PSoC4/CyLFClk.c ****        (CY_SYS_TST_DDFT_CTRL_REG == CY_SYS_TST_DDFT_CTRL_REG_SEL2_CLK1) &&
 462:Generated_Source\PSoC4/CyLFClk.c ****        (iloAccuracyInPPT != NULL))
 463:Generated_Source\PSoC4/CyLFClk.c ****     {
 464:Generated_Source\PSoC4/CyLFClk.c ****         if(CY_SYS_CLK_BLOCKING == mode)
 465:Generated_Source\PSoC4/CyLFClk.c ****         {
 466:Generated_Source\PSoC4/CyLFClk.c ****             waitUntilCntr1Stops = cydelayFreqHz >> CY_SYS_CLK_SYS_CLK_DEVIDER;
 467:Generated_Source\PSoC4/CyLFClk.c ****             do
 468:Generated_Source\PSoC4/CyLFClk.c ****             {
 469:Generated_Source\PSoC4/CyLFClk.c ****                 /* Reload CNTR 1 count value for measuring cycle*/
 470:Generated_Source\PSoC4/CyLFClk.c ****                 CY_SYS_CNT_REG1_REG = cydelayFreqHz >> CY_SYS_CLK_SYS_CLK_DEVIDER; 
 471:Generated_Source\PSoC4/CyLFClk.c **** 
 472:Generated_Source\PSoC4/CyLFClk.c ****                 /* Wait until counter CNTR 1 will finish down-counting */
 473:Generated_Source\PSoC4/CyLFClk.c ****                 while (0u == (CY_SYS_CNT_REG1_REG & CY_SYS_CLK_ILO_CALIBR_COMPLETE_MASK))
 474:Generated_Source\PSoC4/CyLFClk.c ****                 {
 475:Generated_Source\PSoC4/CyLFClk.c ****                     waitUntilCntr1Stops--;
 476:Generated_Source\PSoC4/CyLFClk.c ****                     if (0u == waitUntilCntr1Stops)
 477:Generated_Source\PSoC4/CyLFClk.c ****                     {
 478:Generated_Source\PSoC4/CyLFClk.c ****                         break;
 479:Generated_Source\PSoC4/CyLFClk.c ****                     }
 480:Generated_Source\PSoC4/CyLFClk.c ****                 }
 481:Generated_Source\PSoC4/CyLFClk.c ****                 trimRunningStatus = CySysClkIloUpdateTrimReg(iloAccuracyInPPT);
 482:Generated_Source\PSoC4/CyLFClk.c ****                 timeOutClocks--;
 483:Generated_Source\PSoC4/CyLFClk.c **** 
 484:Generated_Source\PSoC4/CyLFClk.c ****             /* Untill ILO accuracy will be in range less than +/- 10% or timeout occurs*/
 485:Generated_Source\PSoC4/CyLFClk.c ****             } while((CYRET_SUCCESS != trimRunningStatus) && 
 486:Generated_Source\PSoC4/CyLFClk.c ****               (CYRET_INVALID_STATE != trimRunningStatus) && 
 487:Generated_Source\PSoC4/CyLFClk.c ****                                (0u != timeOutClocks));
 488:Generated_Source\PSoC4/CyLFClk.c **** 
 489:Generated_Source\PSoC4/CyLFClk.c ****             if (CYRET_SUCCESS == trimRunningStatus)
ARM GAS  C:\Users\user\AppData\Local\Temp\ccsPNKJ0.s 			page 29


 490:Generated_Source\PSoC4/CyLFClk.c ****             {
 491:Generated_Source\PSoC4/CyLFClk.c ****                 returnStatus = CYRET_SUCCESS;
 492:Generated_Source\PSoC4/CyLFClk.c ****             }
 493:Generated_Source\PSoC4/CyLFClk.c ****             else
 494:Generated_Source\PSoC4/CyLFClk.c ****             {
 495:Generated_Source\PSoC4/CyLFClk.c ****                 if(0u == timeOutClocks)
 496:Generated_Source\PSoC4/CyLFClk.c ****                 {
 497:Generated_Source\PSoC4/CyLFClk.c ****                     trimRunningStatus = CY_SYS_CLK_TRIM_OR_COMP_FINISHED;
 498:Generated_Source\PSoC4/CyLFClk.c ****                     returnStatus = CYRET_TIMEOUT;
 499:Generated_Source\PSoC4/CyLFClk.c ****                 }
 500:Generated_Source\PSoC4/CyLFClk.c ****                 else
 501:Generated_Source\PSoC4/CyLFClk.c ****                 {
 502:Generated_Source\PSoC4/CyLFClk.c ****                     returnStatus = CYRET_INVALID_STATE;
 503:Generated_Source\PSoC4/CyLFClk.c ****                 }
 504:Generated_Source\PSoC4/CyLFClk.c ****             }
 505:Generated_Source\PSoC4/CyLFClk.c ****         }
 506:Generated_Source\PSoC4/CyLFClk.c ****         /* Non - blocking mode */
 507:Generated_Source\PSoC4/CyLFClk.c ****         else
 508:Generated_Source\PSoC4/CyLFClk.c ****         {
 509:Generated_Source\PSoC4/CyLFClk.c ****             if (CY_SYS_CLK_TRIM_OR_COMP_FINISHED != trimRunningStatus)
 510:Generated_Source\PSoC4/CyLFClk.c ****             {
 511:Generated_Source\PSoC4/CyLFClk.c ****                 /* Checking if the counter CNTR 1 finished down-counting */
 512:Generated_Source\PSoC4/CyLFClk.c ****                 if(0u != (CY_SYS_CNT_REG1_REG & CY_SYS_CLK_ILO_CALIBR_COMPLETE_MASK))
 513:Generated_Source\PSoC4/CyLFClk.c ****                 {
 514:Generated_Source\PSoC4/CyLFClk.c ****                     returnStatus = CySysClkIloUpdateTrimReg(iloAccuracyInPPT);
 515:Generated_Source\PSoC4/CyLFClk.c ****                     trimRunningStatus = CY_SYS_CLK_TRIM_OR_COMP_FINISHED;
 516:Generated_Source\PSoC4/CyLFClk.c ****                 }
 517:Generated_Source\PSoC4/CyLFClk.c ****                 else
 518:Generated_Source\PSoC4/CyLFClk.c ****                 {
 519:Generated_Source\PSoC4/CyLFClk.c ****                     returnStatus = CYRET_STARTED;
 520:Generated_Source\PSoC4/CyLFClk.c ****                 }
 521:Generated_Source\PSoC4/CyLFClk.c ****             }
 522:Generated_Source\PSoC4/CyLFClk.c ****             else
 523:Generated_Source\PSoC4/CyLFClk.c ****             {
 524:Generated_Source\PSoC4/CyLFClk.c ****                 /* Reload CNTR 1 count value for next measuring */
 525:Generated_Source\PSoC4/CyLFClk.c ****                 CY_SYS_CNT_REG1_REG = cydelayFreqHz >> CY_SYS_CLK_SYS_CLK_DEVIDER;
 526:Generated_Source\PSoC4/CyLFClk.c ****                 trimRunningStatus = CY_SYS_CLK_TRIM_OR_COMP_STARTED;
 527:Generated_Source\PSoC4/CyLFClk.c ****                 returnStatus = CYRET_STARTED;
 528:Generated_Source\PSoC4/CyLFClk.c ****             }
 529:Generated_Source\PSoC4/CyLFClk.c ****         }
 530:Generated_Source\PSoC4/CyLFClk.c ****     }
 531:Generated_Source\PSoC4/CyLFClk.c ****     else
 532:Generated_Source\PSoC4/CyLFClk.c ****     {
 533:Generated_Source\PSoC4/CyLFClk.c ****         returnStatus = CYRET_INVALID_STATE;
 534:Generated_Source\PSoC4/CyLFClk.c ****     }
 535:Generated_Source\PSoC4/CyLFClk.c **** 
 536:Generated_Source\PSoC4/CyLFClk.c ****     return (returnStatus);
 537:Generated_Source\PSoC4/CyLFClk.c **** }
 538:Generated_Source\PSoC4/CyLFClk.c **** 
 539:Generated_Source\PSoC4/CyLFClk.c **** 
 540:Generated_Source\PSoC4/CyLFClk.c **** /********************************************************************************
 541:Generated_Source\PSoC4/CyLFClk.c **** * Function Name: CySysClkIloUpdateTrimReg
 542:Generated_Source\PSoC4/CyLFClk.c **** *********************************************************************************
 543:Generated_Source\PSoC4/CyLFClk.c **** *
 544:Generated_Source\PSoC4/CyLFClk.c **** * \internal
 545:Generated_Source\PSoC4/CyLFClk.c **** * Function calculates ILO accuracy and check is error range is higher than 
 546:Generated_Source\PSoC4/CyLFClk.c **** * +/- 10%. If Measured frequency is higher than +/- 10% function updates 
ARM GAS  C:\Users\user\AppData\Local\Temp\ccsPNKJ0.s 			page 30


 547:Generated_Source\PSoC4/CyLFClk.c **** * ILO Trim register.
 548:Generated_Source\PSoC4/CyLFClk.c **** *
 549:Generated_Source\PSoC4/CyLFClk.c **** * \param
 550:Generated_Source\PSoC4/CyLFClk.c **** * iloAccuracyInPPT Pointer to an integer in which the trimmed ILO 
 551:Generated_Source\PSoC4/CyLFClk.c **** * accuracy will be returned. The value returned in this pointer is not valid 
 552:Generated_Source\PSoC4/CyLFClk.c **** * until the function returns CYRET_SUCCESS. If ILO frequency error is lower 
 553:Generated_Source\PSoC4/CyLFClk.c **** * than +/- 10% then the value returned in this pointer will be updated.
 554:Generated_Source\PSoC4/CyLFClk.c **** *
 555:Generated_Source\PSoC4/CyLFClk.c **** * \return CYRET_SUCCESS - Indicates that ILO frequency error is lower than 
 556:Generated_Source\PSoC4/CyLFClk.c **** * +/- 10% and no actions are required.
 557:Generated_Source\PSoC4/CyLFClk.c **** *
 558:Generated_Source\PSoC4/CyLFClk.c **** * \return  CYRET_STARTED - Indicates that ILO frequency error is higher than 
 559:Generated_Source\PSoC4/CyLFClk.c **** * +/- 10% and ILO Trim register was updated.
 560:Generated_Source\PSoC4/CyLFClk.c **** *
 561:Generated_Source\PSoC4/CyLFClk.c **** * \return CYRET_INVALID_STATE - Indicates trimming was unsuccessful.
 562:Generated_Source\PSoC4/CyLFClk.c **** *
 563:Generated_Source\PSoC4/CyLFClk.c **** * Post #1 - To obtain 10% ILO accuracy the calculated accuracy should be equal 
 564:Generated_Source\PSoC4/CyLFClk.c **** * CY_SYS_CLK_ERROR_RANGE = 5.6%. Error value should take to account IMO error of 
 565:Generated_Source\PSoC4/CyLFClk.c **** * +/-2% (+/-0.64kHz), trim step of 2.36kHz (+/-1.18kHz) and error while ILO 
 566:Generated_Source\PSoC4/CyLFClk.c **** * frequency measuring.
 567:Generated_Source\PSoC4/CyLFClk.c **** *
 568:Generated_Source\PSoC4/CyLFClk.c **** * \endinternal
 569:Generated_Source\PSoC4/CyLFClk.c **** *
 570:Generated_Source\PSoC4/CyLFClk.c **** **********************************************************************************/
 571:Generated_Source\PSoC4/CyLFClk.c **** cystatus CySysClkIloUpdateTrimReg(int32* iloAccuracyInPPT)
 572:Generated_Source\PSoC4/CyLFClk.c **** {
 398              		.loc 2 572 0
 399              		.cfi_startproc
 400              		@ args = 0, pretend = 0, frame = 0
 401              		@ frame_needed = 0, uses_anonymous_args = 0
 402              	.LVL20:
 573:Generated_Source\PSoC4/CyLFClk.c ****     uint32 measuredIloFreq;
 574:Generated_Source\PSoC4/CyLFClk.c ****     uint32 currentIloTrimValue;
 575:Generated_Source\PSoC4/CyLFClk.c ****     int32 iloAccuracyValue;
 576:Generated_Source\PSoC4/CyLFClk.c ****     int32 trimStep;
 577:Generated_Source\PSoC4/CyLFClk.c ****     cystatus errorRangeStatus;
 578:Generated_Source\PSoC4/CyLFClk.c **** 
 579:Generated_Source\PSoC4/CyLFClk.c ****     if(0u != CY_SYS_CNT_REG2_REG)
 403              		.loc 2 579 0
 404 0000 1E4B     		ldr	r3, .L41
 572:Generated_Source\PSoC4/CyLFClk.c ****     uint32 measuredIloFreq;
 405              		.loc 2 572 0
 406 0002 10B5     		push	{r4, lr}
 407              		.cfi_def_cfa_offset 8
 408              		.cfi_offset 4, -8
 409              		.cfi_offset 14, -4
 410              		.loc 2 579 0
 411 0004 1A68     		ldr	r2, [r3]
 572:Generated_Source\PSoC4/CyLFClk.c ****     uint32 measuredIloFreq;
 412              		.loc 2 572 0
 413 0006 0400     		movs	r4, r0
 580:Generated_Source\PSoC4/CyLFClk.c ****     {
 581:Generated_Source\PSoC4/CyLFClk.c ****         measuredIloFreq = (CY_SYS_CNT_REG2_REG * cydelayFreqHz) / (cydelayFreqHz >> CY_SYS_CLK_SYS_
 582:Generated_Source\PSoC4/CyLFClk.c **** 
 583:Generated_Source\PSoC4/CyLFClk.c ****         /* Calculate value of error in PPT according to formula - 
 584:Generated_Source\PSoC4/CyLFClk.c ****         *       ((measuredIlofrequency - iloDesired frequency) * 1000 / iloDesired frequency) */
 585:Generated_Source\PSoC4/CyLFClk.c ****         iloAccuracyValue = (((int32) measuredIloFreq - (int32) CY_SYS_CLK_ILO_DESIRED_FREQ_HZ) * \
ARM GAS  C:\Users\user\AppData\Local\Temp\ccsPNKJ0.s 			page 31


 586:Generated_Source\PSoC4/CyLFClk.c ****                             ((int32) CY_SYS_CLK_PERTHOUSAND)) / ((int32) CY_SYS_CLK_ILO_DESIRED_FRE
 587:Generated_Source\PSoC4/CyLFClk.c **** 
 588:Generated_Source\PSoC4/CyLFClk.c ****         /* Check if ILO accuracy is more than +/- CY_SYS_CLK_ERROR_RANGE. See post #1 of API descri
 589:Generated_Source\PSoC4/CyLFClk.c ****         if(CY_SYS_CLK_ERROR_RANGE < (uint32) (CY_SYS_CLK_ABS_MACRO(iloAccuracyValue)))
 590:Generated_Source\PSoC4/CyLFClk.c ****         {
 591:Generated_Source\PSoC4/CyLFClk.c ****             if (0 < iloAccuracyValue)
 592:Generated_Source\PSoC4/CyLFClk.c ****             {
 593:Generated_Source\PSoC4/CyLFClk.c ****                 trimStep = (int32) (((iloAccuracyValue * (int32) CY_SYS_CLK_ERROR_COEF) + 
 594:Generated_Source\PSoC4/CyLFClk.c ****                 CY_SYS_CLK_HALF_OF_STEP) / CY_SYS_CLK_ERROR_STEP);
 595:Generated_Source\PSoC4/CyLFClk.c ****             }
 596:Generated_Source\PSoC4/CyLFClk.c ****             else
 597:Generated_Source\PSoC4/CyLFClk.c ****             {
 598:Generated_Source\PSoC4/CyLFClk.c ****                 trimStep = (int32) (((iloAccuracyValue * (int32) CY_SYS_CLK_ERROR_COEF) - 
 599:Generated_Source\PSoC4/CyLFClk.c ****                 CY_SYS_CLK_HALF_OF_STEP) / CY_SYS_CLK_ERROR_STEP);
 600:Generated_Source\PSoC4/CyLFClk.c ****             }
 601:Generated_Source\PSoC4/CyLFClk.c ****             currentIloTrimValue = (CY_SYS_CLK_ILO_TRIM_REG & CY_SYS_CLK_ILO_TRIM_MASK);
 602:Generated_Source\PSoC4/CyLFClk.c ****             trimStep = (int32) currentIloTrimValue - trimStep;
 603:Generated_Source\PSoC4/CyLFClk.c **** 
 604:Generated_Source\PSoC4/CyLFClk.c ****             if(trimStep > CY_SYS_CLK_FOURBITS_MAX)
 605:Generated_Source\PSoC4/CyLFClk.c ****             {
 606:Generated_Source\PSoC4/CyLFClk.c ****                 trimStep = CY_SYS_CLK_FOURBITS_MAX;
 607:Generated_Source\PSoC4/CyLFClk.c ****             }
 608:Generated_Source\PSoC4/CyLFClk.c ****             if(trimStep < 0)
 609:Generated_Source\PSoC4/CyLFClk.c ****             {
 610:Generated_Source\PSoC4/CyLFClk.c ****                 trimStep = 0;
 611:Generated_Source\PSoC4/CyLFClk.c ****             }
 612:Generated_Source\PSoC4/CyLFClk.c ****             CY_SYS_CLK_ILO_TRIM_REG = (CY_SYS_CLK_ILO_TRIM_REG & (uint32)(~CY_SYS_CLK_ILO_TRIM_MASK
 613:Generated_Source\PSoC4/CyLFClk.c ****                                                                  ((uint32) trimStep);
 614:Generated_Source\PSoC4/CyLFClk.c ****             errorRangeStatus = CYRET_STARTED;
 615:Generated_Source\PSoC4/CyLFClk.c ****         } /* Else return success because error is in +/- 10% range*/
 616:Generated_Source\PSoC4/CyLFClk.c ****         else
 617:Generated_Source\PSoC4/CyLFClk.c ****         {
 618:Generated_Source\PSoC4/CyLFClk.c ****             /* Write trimmed ILO accuracy through pointer. */
 619:Generated_Source\PSoC4/CyLFClk.c ****             *iloAccuracyInPPT = iloAccuracyValue;
 620:Generated_Source\PSoC4/CyLFClk.c ****             errorRangeStatus = CYRET_SUCCESS;
 621:Generated_Source\PSoC4/CyLFClk.c ****         }
 622:Generated_Source\PSoC4/CyLFClk.c ****     }
 623:Generated_Source\PSoC4/CyLFClk.c ****     else
 624:Generated_Source\PSoC4/CyLFClk.c ****     {
 625:Generated_Source\PSoC4/CyLFClk.c ****         errorRangeStatus = CYRET_INVALID_STATE;
 414              		.loc 2 625 0
 415 0008 1120     		movs	r0, #17
 416              	.LVL21:
 579:Generated_Source\PSoC4/CyLFClk.c ****     {
 417              		.loc 2 579 0
 418 000a 002A     		cmp	r2, #0
 419 000c 35D0     		beq	.L30
 420              	.LVL22:
 421              	.LBB44:
 422              	.LBB45:
 581:Generated_Source\PSoC4/CyLFClk.c **** 
 423              		.loc 2 581 0
 424 000e 1868     		ldr	r0, [r3]
 425 0010 1B4B     		ldr	r3, .L41+4
 426 0012 1968     		ldr	r1, [r3]
 427              	.LVL23:
 585:Generated_Source\PSoC4/CyLFClk.c ****                             ((int32) CY_SYS_CLK_PERTHOUSAND)) / ((int32) CY_SYS_CLK_ILO_DESIRED_FRE
ARM GAS  C:\Users\user\AppData\Local\Temp\ccsPNKJ0.s 			page 32


 428              		.loc 2 585 0
 429 0014 4843     		muls	r0, r1
 430              	.LVL24:
 431 0016 890A     		lsrs	r1, r1, #10
 432 0018 FFF7FEFF 		bl	__aeabi_uidiv
 433              	.LVL25:
 434 001c 194B     		ldr	r3, .L41+8
 435 001e C018     		adds	r0, r0, r3
 436 0020 1F23     		movs	r3, #31
 437 0022 C217     		asrs	r2, r0, #31
 438 0024 1340     		ands	r3, r2
 439 0026 1818     		adds	r0, r3, r0
 440 0028 4011     		asrs	r0, r0, #5
 441              	.LVL26:
 589:Generated_Source\PSoC4/CyLFClk.c ****         {
 442              		.loc 2 589 0
 443 002a C217     		asrs	r2, r0, #31
 444 002c 8318     		adds	r3, r0, r2
 445 002e 5340     		eors	r3, r2
 446 0030 382B     		cmp	r3, #56
 447 0032 20DD     		ble	.L31
 448 0034 0A23     		movs	r3, #10
 591:Generated_Source\PSoC4/CyLFClk.c ****             {
 449              		.loc 2 591 0
 450 0036 0028     		cmp	r0, #0
 451 0038 03DD     		ble	.L32
 593:Generated_Source\PSoC4/CyLFClk.c ****                 CY_SYS_CLK_HALF_OF_STEP) / CY_SYS_CLK_ERROR_STEP);
 452              		.loc 2 593 0
 453 003a 5843     		muls	r0, r3
 454              	.LVL27:
 455 003c 7130     		adds	r0, r0, #113
 456 003e FF30     		adds	r0, r0, #255
 457 0040 02E0     		b	.L40
 458              	.LVL28:
 459              	.L32:
 598:Generated_Source\PSoC4/CyLFClk.c ****                 CY_SYS_CLK_HALF_OF_STEP) / CY_SYS_CLK_ERROR_STEP);
 460              		.loc 2 598 0
 461 0042 5843     		muls	r0, r3
 462              	.LVL29:
 463 0044 7138     		subs	r0, r0, #113
 464 0046 FF38     		subs	r0, r0, #255
 465              	.L40:
 466 0048 0F49     		ldr	r1, .L41+12
 467 004a FFF7FEFF 		bl	__aeabi_idiv
 468              	.LVL30:
 602:Generated_Source\PSoC4/CyLFClk.c **** 
 469              		.loc 2 602 0
 470 004e 0F21     		movs	r1, #15
 601:Generated_Source\PSoC4/CyLFClk.c ****             trimStep = (int32) currentIloTrimValue - trimStep;
 471              		.loc 2 601 0
 472 0050 0E4A     		ldr	r2, .L41+16
 473 0052 1368     		ldr	r3, [r2]
 474              	.LVL31:
 602:Generated_Source\PSoC4/CyLFClk.c **** 
 475              		.loc 2 602 0
 476 0054 0B40     		ands	r3, r1
 477              	.LVL32:
ARM GAS  C:\Users\user\AppData\Local\Temp\ccsPNKJ0.s 			page 33


 478 0056 181A     		subs	r0, r3, r0
 479              	.LVL33:
 480 0058 1300     		movs	r3, r2
 481              	.LVL34:
 604:Generated_Source\PSoC4/CyLFClk.c ****             {
 482              		.loc 2 604 0
 483 005a 8842     		cmp	r0, r1
 484 005c 03DC     		bgt	.L37
 610:Generated_Source\PSoC4/CyLFClk.c ****             }
 485              		.loc 2 610 0
 486 005e C243     		mvns	r2, r0
 487 0060 D217     		asrs	r2, r2, #31
 488 0062 1040     		ands	r0, r2
 489              	.LVL35:
 490 0064 00E0     		b	.L35
 491              	.LVL36:
 492              	.L37:
 606:Generated_Source\PSoC4/CyLFClk.c ****             }
 493              		.loc 2 606 0
 494 0066 0800     		movs	r0, r1
 495              	.LVL37:
 496              	.L35:
 612:Generated_Source\PSoC4/CyLFClk.c ****                                                                  ((uint32) trimStep);
 497              		.loc 2 612 0
 498 0068 0F21     		movs	r1, #15
 499 006a 1A68     		ldr	r2, [r3]
 500 006c 8A43     		bics	r2, r1
 501 006e 1043     		orrs	r0, r2
 502              	.LVL38:
 503 0070 1860     		str	r0, [r3]
 504              	.LVL39:
 614:Generated_Source\PSoC4/CyLFClk.c ****         } /* Else return success because error is in +/- 10% range*/
 505              		.loc 2 614 0
 506 0072 0720     		movs	r0, #7
 507 0074 01E0     		b	.L30
 508              	.LVL40:
 509              	.L31:
 619:Generated_Source\PSoC4/CyLFClk.c ****             errorRangeStatus = CYRET_SUCCESS;
 510              		.loc 2 619 0
 511 0076 2060     		str	r0, [r4]
 512              	.LVL41:
 620:Generated_Source\PSoC4/CyLFClk.c ****         }
 513              		.loc 2 620 0
 514 0078 0020     		movs	r0, #0
 515              	.LVL42:
 516              	.L30:
 517              	.LBE45:
 518              	.LBE44:
 626:Generated_Source\PSoC4/CyLFClk.c ****     }
 627:Generated_Source\PSoC4/CyLFClk.c **** return (errorRangeStatus);
 628:Generated_Source\PSoC4/CyLFClk.c **** }
 519              		.loc 2 628 0
 520              		@ sp needed
 521              	.LVL43:
 522 007a 10BD     		pop	{r4, pc}
 523              	.L42:
 524              		.align	2
ARM GAS  C:\Users\user\AppData\Local\Temp\ccsPNKJ0.s 			page 34


 525              	.L41:
 526 007c 1C000340 		.word	1073938460
 527 0080 00000000 		.word	cydelayFreqHz
 528 0084 0083FFFF 		.word	-32000
 529 0088 E1020000 		.word	737
 530 008c 24FF0B40 		.word	1074528036
 531              		.cfi_endproc
 532              	.LFE9:
 533              		.size	CySysClkIloUpdateTrimReg, .-CySysClkIloUpdateTrimReg
 534              		.section	.text.CySysClkIloTrim,"ax",%progbits
 535              		.align	1
 536              		.global	CySysClkIloTrim
 537              		.code	16
 538              		.thumb_func
 539              		.type	CySysClkIloTrim, %function
 540              	CySysClkIloTrim:
 541              	.LFB8:
 450:Generated_Source\PSoC4/CyLFClk.c ****     uint32 timeOutClocks = CY_SYS_CLK_TIMEOUT;
 542              		.loc 2 450 0
 543              		.cfi_startproc
 544              		@ args = 0, pretend = 0, frame = 8
 545              		@ frame_needed = 0, uses_anonymous_args = 0
 546              	.LVL44:
 457:Generated_Source\PSoC4/CyLFClk.c **** 
 547              		.loc 2 457 0
 548 0000 274B     		ldr	r3, .L68
 450:Generated_Source\PSoC4/CyLFClk.c ****     uint32 timeOutClocks = CY_SYS_CLK_TIMEOUT;
 549              		.loc 2 450 0
 550 0002 F7B5     		push	{r0, r1, r2, r4, r5, r6, r7, lr}
 551              		.cfi_def_cfa_offset 32
 552              		.cfi_offset 0, -32
 553              		.cfi_offset 1, -28
 554              		.cfi_offset 2, -24
 555              		.cfi_offset 4, -20
 556              		.cfi_offset 5, -16
 557              		.cfi_offset 6, -12
 558              		.cfi_offset 7, -8
 559              		.cfi_offset 14, -4
 457:Generated_Source\PSoC4/CyLFClk.c **** 
 560              		.loc 2 457 0
 561 0004 1A68     		ldr	r2, [r3]
 562              	.LVL45:
 460:Generated_Source\PSoC4/CyLFClk.c ****        (CY_SYS_TST_DDFT_CTRL_REG == CY_SYS_TST_DDFT_CTRL_REG_SEL2_CLK1) &&
 563              		.loc 2 460 0
 564 0006 274B     		ldr	r3, .L68+4
 450:Generated_Source\PSoC4/CyLFClk.c ****     uint32 timeOutClocks = CY_SYS_CLK_TIMEOUT;
 565              		.loc 2 450 0
 566 0008 0F00     		movs	r7, r1
 460:Generated_Source\PSoC4/CyLFClk.c ****        (CY_SYS_TST_DDFT_CTRL_REG == CY_SYS_TST_DDFT_CTRL_REG_SEL2_CLK1) &&
 567              		.loc 2 460 0
 568 000a 1340     		ands	r3, r2
 569              	.LVL46:
 570 000c 8022     		movs	r2, #128
 571 000e 5200     		lsls	r2, r2, #1
 572 0010 9342     		cmp	r3, r2
 573 0012 01D0     		beq	.L44
 574              	.LVL47:
ARM GAS  C:\Users\user\AppData\Local\Temp\ccsPNKJ0.s 			page 35


 575              	.L46:
 533:Generated_Source\PSoC4/CyLFClk.c ****     }
 576              		.loc 2 533 0
 577 0014 1120     		movs	r0, #17
 578 0016 42E0     		b	.L63
 579              	.LVL48:
 580              	.L44:
 461:Generated_Source\PSoC4/CyLFClk.c ****        (iloAccuracyInPPT != NULL))
 581              		.loc 2 461 0 discriminator 1
 582 0018 234B     		ldr	r3, .L68+8
 583              	.LVL49:
 584 001a 1A68     		ldr	r2, [r3]
 460:Generated_Source\PSoC4/CyLFClk.c ****        (CY_SYS_TST_DDFT_CTRL_REG == CY_SYS_TST_DDFT_CTRL_REG_SEL2_CLK1) &&
 585              		.loc 2 460 0 discriminator 1
 586 001c 234B     		ldr	r3, .L68+12
 587 001e 9A42     		cmp	r2, r3
 588 0020 F8D1     		bne	.L46
 461:Generated_Source\PSoC4/CyLFClk.c ****        (iloAccuracyInPPT != NULL))
 589              		.loc 2 461 0
 590 0022 0029     		cmp	r1, #0
 591 0024 F6D0     		beq	.L46
 592 0026 224D     		ldr	r5, .L68+16
 464:Generated_Source\PSoC4/CyLFClk.c ****         {
 593              		.loc 2 464 0
 594 0028 0028     		cmp	r0, #0
 595 002a 1FD1     		bne	.L47
 451:Generated_Source\PSoC4/CyLFClk.c ****     uint32 waitUntilCntr1Stops;
 596              		.loc 2 451 0
 597 002c 0524     		movs	r4, #5
 466:Generated_Source\PSoC4/CyLFClk.c ****             do
 598              		.loc 2 466 0
 599 002e 214E     		ldr	r6, .L68+20
 600 0030 3368     		ldr	r3, [r6]
 601 0032 9B0A     		lsrs	r3, r3, #10
 602 0034 0193     		str	r3, [sp, #4]
 603              	.LVL50:
 604              	.L52:
 470:Generated_Source\PSoC4/CyLFClk.c **** 
 605              		.loc 2 470 0
 606 0036 3368     		ldr	r3, [r6]
 607 0038 9B0A     		lsrs	r3, r3, #10
 608 003a 2B60     		str	r3, [r5]
 609              	.L48:
 473:Generated_Source\PSoC4/CyLFClk.c ****                 {
 610              		.loc 2 473 0
 611 003c 2B68     		ldr	r3, [r5]
 612 003e 002B     		cmp	r3, #0
 613 0040 04DB     		blt	.L49
 475:Generated_Source\PSoC4/CyLFClk.c ****                     if (0u == waitUntilCntr1Stops)
 614              		.loc 2 475 0
 615 0042 019B     		ldr	r3, [sp, #4]
 616 0044 013B     		subs	r3, r3, #1
 617 0046 0193     		str	r3, [sp, #4]
 618              	.LVL51:
 476:Generated_Source\PSoC4/CyLFClk.c ****                     {
 619              		.loc 2 476 0
 620 0048 002B     		cmp	r3, #0
ARM GAS  C:\Users\user\AppData\Local\Temp\ccsPNKJ0.s 			page 36


 621 004a F7D1     		bne	.L48
 622              	.LVL52:
 623              	.L49:
 481:Generated_Source\PSoC4/CyLFClk.c ****                 timeOutClocks--;
 624              		.loc 2 481 0
 625 004c 3800     		movs	r0, r7
 626 004e FFF7FEFF 		bl	CySysClkIloUpdateTrimReg
 627              	.LVL53:
 628 0052 194B     		ldr	r3, .L68+24
 482:Generated_Source\PSoC4/CyLFClk.c **** 
 629              		.loc 2 482 0
 630 0054 013C     		subs	r4, r4, #1
 631              	.LVL54:
 481:Generated_Source\PSoC4/CyLFClk.c ****                 timeOutClocks--;
 632              		.loc 2 481 0
 633 0056 9860     		str	r0, [r3, #8]
 487:Generated_Source\PSoC4/CyLFClk.c **** 
 634              		.loc 2 487 0
 635 0058 0028     		cmp	r0, #0
 636 005a 20D0     		beq	.L63
 485:Generated_Source\PSoC4/CyLFClk.c ****               (CYRET_INVALID_STATE != trimRunningStatus) && 
 637              		.loc 2 485 0
 638 005c 1128     		cmp	r0, #17
 639 005e 1BD0     		beq	.L51
 486:Generated_Source\PSoC4/CyLFClk.c ****                                (0u != timeOutClocks));
 640              		.loc 2 486 0
 641 0060 002C     		cmp	r4, #0
 642 0062 E8D1     		bne	.L52
 643              	.L54:
 497:Generated_Source\PSoC4/CyLFClk.c ****                     returnStatus = CYRET_TIMEOUT;
 644              		.loc 2 497 0
 645 0064 0022     		movs	r2, #0
 498:Generated_Source\PSoC4/CyLFClk.c ****                 }
 646              		.loc 2 498 0
 647 0066 1020     		movs	r0, #16
 497:Generated_Source\PSoC4/CyLFClk.c ****                     returnStatus = CYRET_TIMEOUT;
 648              		.loc 2 497 0
 649 0068 9A60     		str	r2, [r3, #8]
 650              	.LVL55:
 651 006a 18E0     		b	.L63
 652              	.LVL56:
 653              	.L47:
 509:Generated_Source\PSoC4/CyLFClk.c ****             {
 654              		.loc 2 509 0
 655 006c 124C     		ldr	r4, .L68+24
 656 006e A368     		ldr	r3, [r4, #8]
 657 0070 002B     		cmp	r3, #0
 658 0072 09D0     		beq	.L53
 512:Generated_Source\PSoC4/CyLFClk.c ****                 {
 659              		.loc 2 512 0
 660 0074 2B68     		ldr	r3, [r5]
 519:Generated_Source\PSoC4/CyLFClk.c ****                 }
 661              		.loc 2 519 0
 662 0076 0720     		movs	r0, #7
 663              	.LVL57:
 512:Generated_Source\PSoC4/CyLFClk.c ****                 {
 664              		.loc 2 512 0
ARM GAS  C:\Users\user\AppData\Local\Temp\ccsPNKJ0.s 			page 37


 665 0078 002B     		cmp	r3, #0
 666 007a 10DA     		bge	.L63
 514:Generated_Source\PSoC4/CyLFClk.c ****                     trimRunningStatus = CY_SYS_CLK_TRIM_OR_COMP_FINISHED;
 667              		.loc 2 514 0
 668 007c 0800     		movs	r0, r1
 669 007e FFF7FEFF 		bl	CySysClkIloUpdateTrimReg
 670              	.LVL58:
 515:Generated_Source\PSoC4/CyLFClk.c ****                 }
 671              		.loc 2 515 0
 672 0082 0023     		movs	r3, #0
 673 0084 A360     		str	r3, [r4, #8]
 674 0086 0AE0     		b	.L63
 675              	.LVL59:
 676              	.L53:
 525:Generated_Source\PSoC4/CyLFClk.c ****                 trimRunningStatus = CY_SYS_CLK_TRIM_OR_COMP_STARTED;
 677              		.loc 2 525 0
 678 0088 0A4B     		ldr	r3, .L68+20
 527:Generated_Source\PSoC4/CyLFClk.c ****             }
 679              		.loc 2 527 0
 680 008a 0720     		movs	r0, #7
 681              	.LVL60:
 525:Generated_Source\PSoC4/CyLFClk.c ****                 trimRunningStatus = CY_SYS_CLK_TRIM_OR_COMP_STARTED;
 682              		.loc 2 525 0
 683 008c 1B68     		ldr	r3, [r3]
 684 008e 9B0A     		lsrs	r3, r3, #10
 685 0090 2B60     		str	r3, [r5]
 526:Generated_Source\PSoC4/CyLFClk.c ****                 returnStatus = CYRET_STARTED;
 686              		.loc 2 526 0
 687 0092 0123     		movs	r3, #1
 688 0094 A360     		str	r3, [r4, #8]
 689              	.LVL61:
 690 0096 02E0     		b	.L63
 691              	.LVL62:
 692              	.L51:
 495:Generated_Source\PSoC4/CyLFClk.c ****                 {
 693              		.loc 2 495 0
 694 0098 002C     		cmp	r4, #0
 695 009a BBD1     		bne	.L46
 696 009c E2E7     		b	.L54
 697              	.LVL63:
 698              	.L63:
 537:Generated_Source\PSoC4/CyLFClk.c **** 
 699              		.loc 2 537 0
 700              		@ sp needed
 701              	.LVL64:
 702 009e FEBD     		pop	{r1, r2, r3, r4, r5, r6, r7, pc}
 703              	.L69:
 704              		.align	2
 705              	.L68:
 706 00a0 10010B40 		.word	1074462992
 707 00a4 3F3F0000 		.word	16191
 708 00a8 08000340 		.word	1073938440
 709 00ac 0A0B0000 		.word	2826
 710 00b0 18000340 		.word	1073938456
 711 00b4 00000000 		.word	cydelayFreqHz
 712 00b8 00000000 		.word	.LANCHOR0
 713              		.cfi_endproc
ARM GAS  C:\Users\user\AppData\Local\Temp\ccsPNKJ0.s 			page 38


 714              	.LFE8:
 715              		.size	CySysClkIloTrim, .-CySysClkIloTrim
 716              		.section	.text.CySysClkIloRestoreFactoryTrim,"ax",%progbits
 717              		.align	1
 718              		.global	CySysClkIloRestoreFactoryTrim
 719              		.code	16
 720              		.thumb_func
 721              		.type	CySysClkIloRestoreFactoryTrim, %function
 722              	CySysClkIloRestoreFactoryTrim:
 723              	.LFB10:
 629:Generated_Source\PSoC4/CyLFClk.c **** 
 630:Generated_Source\PSoC4/CyLFClk.c **** 
 631:Generated_Source\PSoC4/CyLFClk.c **** /*******************************************************************************
 632:Generated_Source\PSoC4/CyLFClk.c **** * Function Name: CySysClkIloRestoreFactoryTrim
 633:Generated_Source\PSoC4/CyLFClk.c **** ****************************************************************************//**
 634:Generated_Source\PSoC4/CyLFClk.c **** * \brief
 635:Generated_Source\PSoC4/CyLFClk.c **** * Restores the ILO Trim Register to factory value.
 636:Generated_Source\PSoC4/CyLFClk.c **** *
 637:Generated_Source\PSoC4/CyLFClk.c **** * The CySysClkIloStartMeasurement() API should be called prior to 
 638:Generated_Source\PSoC4/CyLFClk.c **** * calling this API. Otherwise CYRET_UNKNOWN will be returned.
 639:Generated_Source\PSoC4/CyLFClk.c **** *
 640:Generated_Source\PSoC4/CyLFClk.c **** * Available for all PSoC 4 devices except for PSoC 4000 / PSoC 4100 / PSoC 4200 
 641:Generated_Source\PSoC4/CyLFClk.c **** * / PSoC 4000S / PSoC 4100S / PSoC Analog Coprocessor devices.
 642:Generated_Source\PSoC4/CyLFClk.c **** *
 643:Generated_Source\PSoC4/CyLFClk.c **** * \return CYRET_SUCCESS - Operation was successful. 
 644:Generated_Source\PSoC4/CyLFClk.c **** * \return CYRET_UNKNOWN - CySysClkIloStartMeasurement() was not called 
 645:Generated_Source\PSoC4/CyLFClk.c **** * before this API. Hence the trim value cannot be updated.
 646:Generated_Source\PSoC4/CyLFClk.c **** *
 647:Generated_Source\PSoC4/CyLFClk.c **** ******************************************************************************/
 648:Generated_Source\PSoC4/CyLFClk.c **** cystatus CySysClkIloRestoreFactoryTrim(void)
 649:Generated_Source\PSoC4/CyLFClk.c **** {
 724              		.loc 2 649 0
 725              		.cfi_startproc
 726              		@ args = 0, pretend = 0, frame = 0
 727              		@ frame_needed = 0, uses_anonymous_args = 0
 728              		@ link register save eliminated.
 729              	.LVL65:
 650:Generated_Source\PSoC4/CyLFClk.c ****     cystatus returnStatus = CYRET_SUCCESS;
 651:Generated_Source\PSoC4/CyLFClk.c **** 
 652:Generated_Source\PSoC4/CyLFClk.c ****     /* Check was defaultIloTrimRegValue modified in CySysClkIloStartMeasurement */
 653:Generated_Source\PSoC4/CyLFClk.c ****     if(CY_SYS_CLK_ILO_TRIM_DEFAULT_VALUE != defaultIloTrimRegValue)
 730              		.loc 2 653 0
 731 0000 084B     		ldr	r3, .L73
 732 0002 1A88     		ldrh	r2, [r3]
 733 0004 F02A     		cmp	r2, #240
 734 0006 09D0     		beq	.L72
 654:Generated_Source\PSoC4/CyLFClk.c ****         {
 655:Generated_Source\PSoC4/CyLFClk.c ****             CY_SYS_CLK_ILO_TRIM_REG = ((CY_SYS_CLK_ILO_TRIM_REG & (uint32)(~CY_SYS_CLK_ILO_TRIM_MAS
 735              		.loc 2 655 0
 736 0008 0749     		ldr	r1, .L73+4
 737 000a 0A68     		ldr	r2, [r1]
 656:Generated_Source\PSoC4/CyLFClk.c ****                                        (defaultIloTrimRegValue & CY_SYS_CLK_ILO_TRIM_MASK));
 738              		.loc 2 656 0
 739 000c 1888     		ldrh	r0, [r3]
 655:Generated_Source\PSoC4/CyLFClk.c ****                                        (defaultIloTrimRegValue & CY_SYS_CLK_ILO_TRIM_MASK));
 740              		.loc 2 655 0
 741 000e 0F23     		movs	r3, #15
ARM GAS  C:\Users\user\AppData\Local\Temp\ccsPNKJ0.s 			page 39


 742 0010 9A43     		bics	r2, r3
 743 0012 0340     		ands	r3, r0
 744 0014 1343     		orrs	r3, r2
 745 0016 0B60     		str	r3, [r1]
 650:Generated_Source\PSoC4/CyLFClk.c **** 
 746              		.loc 2 650 0
 747 0018 0020     		movs	r0, #0
 748 001a 01E0     		b	.L71
 749              	.L72:
 657:Generated_Source\PSoC4/CyLFClk.c ****         }
 658:Generated_Source\PSoC4/CyLFClk.c ****         else
 659:Generated_Source\PSoC4/CyLFClk.c ****         {
 660:Generated_Source\PSoC4/CyLFClk.c ****             returnStatus = CYRET_UNKNOWN;
 750              		.loc 2 660 0
 751 001c 0120     		movs	r0, #1
 752 001e 4042     		rsbs	r0, r0, #0
 753              	.L71:
 754              	.LVL66:
 661:Generated_Source\PSoC4/CyLFClk.c ****         }
 662:Generated_Source\PSoC4/CyLFClk.c **** 
 663:Generated_Source\PSoC4/CyLFClk.c ****         return (returnStatus);
 664:Generated_Source\PSoC4/CyLFClk.c **** }
 755              		.loc 2 664 0
 756              		@ sp needed
 757 0020 7047     		bx	lr
 758              	.L74:
 759 0022 C046     		.align	2
 760              	.L73:
 761 0024 00000000 		.word	.LANCHOR1
 762 0028 24FF0B40 		.word	1074528036
 763              		.cfi_endproc
 764              	.LFE10:
 765              		.size	CySysClkIloRestoreFactoryTrim, .-CySysClkIloRestoreFactoryTrim
 766              		.section	.text.CySysClkWcoStart,"ax",%progbits
 767              		.align	1
 768              		.global	CySysClkWcoStart
 769              		.code	16
 770              		.thumb_func
 771              		.type	CySysClkWcoStart, %function
 772              	CySysClkWcoStart:
 773              	.LFB13:
 665:Generated_Source\PSoC4/CyLFClk.c **** #endif /* (CY_IP_SRSSV2 && (!CY_IP_CPUSS)) */
 666:Generated_Source\PSoC4/CyLFClk.c **** 
 667:Generated_Source\PSoC4/CyLFClk.c **** 
 668:Generated_Source\PSoC4/CyLFClk.c **** #if (CY_IP_WCO && CY_IP_SRSSV2)
 669:Generated_Source\PSoC4/CyLFClk.c ****     /*******************************************************************************
 670:Generated_Source\PSoC4/CyLFClk.c ****     * Function Name: CySysClkGetLfclkSource
 671:Generated_Source\PSoC4/CyLFClk.c ****     ********************************************************************************
 672:Generated_Source\PSoC4/CyLFClk.c ****     *
 673:Generated_Source\PSoC4/CyLFClk.c ****     * \internal
 674:Generated_Source\PSoC4/CyLFClk.c ****     *  Gets the clock source for the LFCLK clock.
 675:Generated_Source\PSoC4/CyLFClk.c ****     *  The function is applicable only for PSoC 4100 BLE / PSoC 4200 BLE / 
 676:Generated_Source\PSoC4/CyLFClk.c ****     *  PSoC 4100M / PSoC 4200M / PSoC 4200L.
 677:Generated_Source\PSoC4/CyLFClk.c ****     *
 678:Generated_Source\PSoC4/CyLFClk.c ****     * \return The LFCLK source:
 679:Generated_Source\PSoC4/CyLFClk.c ****     * CY_SYS_CLK_LFCLK_SRC_ILO Internal Low Frequency (32 kHz) Oscillator (ILO)
 680:Generated_Source\PSoC4/CyLFClk.c ****     * CY_SYS_CLK_LFCLK_SRC_WCO Low Frequency Watch Crystal Oscillator (WCO)
ARM GAS  C:\Users\user\AppData\Local\Temp\ccsPNKJ0.s 			page 40


 681:Generated_Source\PSoC4/CyLFClk.c ****     *
 682:Generated_Source\PSoC4/CyLFClk.c ****     * \endinternal
 683:Generated_Source\PSoC4/CyLFClk.c ****     *
 684:Generated_Source\PSoC4/CyLFClk.c ****     *******************************************************************************/
 685:Generated_Source\PSoC4/CyLFClk.c ****     static uint32 CySysClkGetLfclkSource(void)
 686:Generated_Source\PSoC4/CyLFClk.c ****     {
 687:Generated_Source\PSoC4/CyLFClk.c ****         uint32 lfclkSource;
 688:Generated_Source\PSoC4/CyLFClk.c ****         lfclkSource = CY_SYS_WDT_CONFIG_REG & CY_SYS_CLK_LFCLK_SEL_MASK;
 689:Generated_Source\PSoC4/CyLFClk.c ****         return (lfclkSource);
 690:Generated_Source\PSoC4/CyLFClk.c ****     }
 691:Generated_Source\PSoC4/CyLFClk.c **** 
 692:Generated_Source\PSoC4/CyLFClk.c **** 
 693:Generated_Source\PSoC4/CyLFClk.c ****     /*******************************************************************************
 694:Generated_Source\PSoC4/CyLFClk.c ****     * Function Name: CySysClkSetLfclkSource
 695:Generated_Source\PSoC4/CyLFClk.c ****     ****************************************************************************//**
 696:Generated_Source\PSoC4/CyLFClk.c ****     * \brief
 697:Generated_Source\PSoC4/CyLFClk.c ****     *  Sets the clock source for the LFCLK clock.
 698:Generated_Source\PSoC4/CyLFClk.c ****     *
 699:Generated_Source\PSoC4/CyLFClk.c ****     * The switch between LFCLK sources must be done between the positive edges of
 700:Generated_Source\PSoC4/CyLFClk.c ****     * LFCLK, because the glitch risk is around the LFCLK positive edge. To ensure
 701:Generated_Source\PSoC4/CyLFClk.c ****     * that the switch can be done safely, the WDT counter value is read until it
 702:Generated_Source\PSoC4/CyLFClk.c ****     * changes.
 703:Generated_Source\PSoC4/CyLFClk.c ****     *
 704:Generated_Source\PSoC4/CyLFClk.c ****     * That means that the positive edge just finished and the switch is performed.
 705:Generated_Source\PSoC4/CyLFClk.c ****     * The enabled WDT counter is used for that purpose. If no counters are enabled,
 706:Generated_Source\PSoC4/CyLFClk.c ****     * counter 0 is enabled. And after the LFCLK source is switched, counter 0
 707:Generated_Source\PSoC4/CyLFClk.c ****     * configuration is restored.
 708:Generated_Source\PSoC4/CyLFClk.c ****     *
 709:Generated_Source\PSoC4/CyLFClk.c ****     *  The function is applicable only for devices with more than one source for 
 710:Generated_Source\PSoC4/CyLFClk.c ****     * LFCLK - PSoC 4100 BLE / PSoC 4200 BLE / PRoC BLE / PSoC 4100M / PSoC 4200M / 
 711:Generated_Source\PSoC4/CyLFClk.c ****     * PSoC 4200L.
 712:Generated_Source\PSoC4/CyLFClk.c ****     *
 713:Generated_Source\PSoC4/CyLFClk.c ****     * \note For PSoC 4000S / PSoC 4100S / PSoC Analog Coprocessor devices LFCLK can
 714:Generated_Source\PSoC4/CyLFClk.c ****     * only be sourced from ILO even though WCO is available.
 715:Generated_Source\PSoC4/CyLFClk.c ****     *
 716:Generated_Source\PSoC4/CyLFClk.c ****     * \param
 717:Generated_Source\PSoC4/CyLFClk.c ****     * source
 718:Generated_Source\PSoC4/CyLFClk.c ****     * CY_SYS_CLK_LFCLK_SRC_ILO - Internal Low Frequency (32 kHz) 
 719:Generated_Source\PSoC4/CyLFClk.c ****     * Oscillator (ILO).<br>
 720:Generated_Source\PSoC4/CyLFClk.c ****     * CY_SYS_CLK_LFCLK_SRC_WCO - Low Frequency Watch Crystal Oscillator (WCO).
 721:Generated_Source\PSoC4/CyLFClk.c ****     *
 722:Generated_Source\PSoC4/CyLFClk.c ****     * \details
 723:Generated_Source\PSoC4/CyLFClk.c ****     * This function has no effect if WDT is locked (CySysWdtLock() is called). 
 724:Generated_Source\PSoC4/CyLFClk.c ****     * Call CySysWdtUnlock() to unlock WDT.
 725:Generated_Source\PSoC4/CyLFClk.c ****     *
 726:Generated_Source\PSoC4/CyLFClk.c ****     * Both the current source and the new source must be running and stable before
 727:Generated_Source\PSoC4/CyLFClk.c ****     * calling this function.
 728:Generated_Source\PSoC4/CyLFClk.c ****     *
 729:Generated_Source\PSoC4/CyLFClk.c ****     * Changing the LFCLK clock source may change the LFCLK clock frequency and
 730:Generated_Source\PSoC4/CyLFClk.c ****     * affect the functionality that uses this clock. For example, watchdog timer
 731:Generated_Source\PSoC4/CyLFClk.c ****     * "uses this clock" or "this clock uses" (WDT) is clocked by LFCLK.
 732:Generated_Source\PSoC4/CyLFClk.c ****     *
 733:Generated_Source\PSoC4/CyLFClk.c ****     *******************************************************************************/
 734:Generated_Source\PSoC4/CyLFClk.c ****     void CySysClkSetLfclkSource(uint32 source)
 735:Generated_Source\PSoC4/CyLFClk.c ****     {
 736:Generated_Source\PSoC4/CyLFClk.c ****         uint8  interruptState;
 737:Generated_Source\PSoC4/CyLFClk.c **** 
ARM GAS  C:\Users\user\AppData\Local\Temp\ccsPNKJ0.s 			page 41


 738:Generated_Source\PSoC4/CyLFClk.c ****         if (CySysClkGetLfclkSource() != source)
 739:Generated_Source\PSoC4/CyLFClk.c ****         {
 740:Generated_Source\PSoC4/CyLFClk.c ****             interruptState = CyEnterCriticalSection();
 741:Generated_Source\PSoC4/CyLFClk.c ****             CySysClkLfclkPosedgeCatch();
 742:Generated_Source\PSoC4/CyLFClk.c ****             CY_SYS_WDT_CONFIG_REG = (CY_SYS_WDT_CONFIG_REG & (uint32)(~CY_SYS_CLK_LFCLK_SEL_MASK)) 
 743:Generated_Source\PSoC4/CyLFClk.c ****                                     (source & CY_SYS_CLK_LFCLK_SEL_MASK);
 744:Generated_Source\PSoC4/CyLFClk.c ****             CySysClkLfclkPosedgeRestore();
 745:Generated_Source\PSoC4/CyLFClk.c ****             CyExitCriticalSection(interruptState);
 746:Generated_Source\PSoC4/CyLFClk.c ****         }
 747:Generated_Source\PSoC4/CyLFClk.c ****     }
 748:Generated_Source\PSoC4/CyLFClk.c **** #endif /* (CY_IP_WCO && CY_IP_SRSSV2) */
 749:Generated_Source\PSoC4/CyLFClk.c **** 
 750:Generated_Source\PSoC4/CyLFClk.c **** 
 751:Generated_Source\PSoC4/CyLFClk.c **** #if (CY_IP_WCO)
 752:Generated_Source\PSoC4/CyLFClk.c ****     /*******************************************************************************
 753:Generated_Source\PSoC4/CyLFClk.c ****     * Function Name: CySysClkWcoStart
 754:Generated_Source\PSoC4/CyLFClk.c ****     ****************************************************************************//**
 755:Generated_Source\PSoC4/CyLFClk.c ****     * \brief
 756:Generated_Source\PSoC4/CyLFClk.c ****     *  Enables Watch Crystal Oscillator (WCO).
 757:Generated_Source\PSoC4/CyLFClk.c ****     * 
 758:Generated_Source\PSoC4/CyLFClk.c ****     * This API enables WCO which is used as a source for LFCLK. Similar to ILO, 
 759:Generated_Source\PSoC4/CyLFClk.c ****     * WCO is also available in all modes except Hibernate and Stop modes.
 760:Generated_Source\PSoC4/CyLFClk.c ****     * \note In PSoC 4000S / PSoC 4100S / PSoC Analog Coprocessor devices
 761:Generated_Source\PSoC4/CyLFClk.c ****     * WCO cannot be a source for the LFCLK. 
 762:Generated_Source\PSoC4/CyLFClk.c ****     *
 763:Generated_Source\PSoC4/CyLFClk.c ****     *  WCO is always enabled in High Power Mode (HPM). Refer to the device
 764:Generated_Source\PSoC4/CyLFClk.c ****     *  datasheet for the  WCO startup time. Once WCO becomes stable it can be
 765:Generated_Source\PSoC4/CyLFClk.c ****     *  switched to Low Power Mode (LPM). Note that oscillator can be unstable
 766:Generated_Source\PSoC4/CyLFClk.c ****     *  during a switch and hence its output should not be used at that moment.
 767:Generated_Source\PSoC4/CyLFClk.c ****     *
 768:Generated_Source\PSoC4/CyLFClk.c ****     *  The CySysClkWcoSetPowerMode() function configures the WCO power mode.
 769:Generated_Source\PSoC4/CyLFClk.c ****     *
 770:Generated_Source\PSoC4/CyLFClk.c ****     *******************************************************************************/
 771:Generated_Source\PSoC4/CyLFClk.c ****     void CySysClkWcoStart(void)
 772:Generated_Source\PSoC4/CyLFClk.c ****     {
 774              		.loc 2 772 0
 775              		.cfi_startproc
 776              		@ args = 0, pretend = 0, frame = 0
 777              		@ frame_needed = 0, uses_anonymous_args = 0
 778 0000 10B5     		push	{r4, lr}
 779              		.cfi_def_cfa_offset 8
 780              		.cfi_offset 4, -8
 781              		.cfi_offset 14, -4
 773:Generated_Source\PSoC4/CyLFClk.c ****         CySysClkWcoSetHighPowerMode();
 782              		.loc 2 773 0
 783 0002 FFF7FEFF 		bl	CySysClkWcoSetHighPowerMode
 784              	.LVL67:
 774:Generated_Source\PSoC4/CyLFClk.c ****         CY_SYS_CLK_WCO_CONFIG_REG |= CY_SYS_CLK_WCO_CONFIG_LPM_ENABLE;
 785              		.loc 2 774 0
 786 0006 8021     		movs	r1, #128
 787 0008 024A     		ldr	r2, .L76
 788 000a 0906     		lsls	r1, r1, #24
 789 000c 1368     		ldr	r3, [r2]
 775:Generated_Source\PSoC4/CyLFClk.c ****     }
 790              		.loc 2 775 0
 791              		@ sp needed
 774:Generated_Source\PSoC4/CyLFClk.c ****         CY_SYS_CLK_WCO_CONFIG_REG |= CY_SYS_CLK_WCO_CONFIG_LPM_ENABLE;
ARM GAS  C:\Users\user\AppData\Local\Temp\ccsPNKJ0.s 			page 42


 792              		.loc 2 774 0
 793 000e 0B43     		orrs	r3, r1
 794 0010 1360     		str	r3, [r2]
 795              		.loc 2 775 0
 796 0012 10BD     		pop	{r4, pc}
 797              	.L77:
 798              		.align	2
 799              	.L76:
 800 0014 00F02E40 		.word	1076817920
 801              		.cfi_endproc
 802              	.LFE13:
 803              		.size	CySysClkWcoStart, .-CySysClkWcoStart
 804              		.section	.text.CySysClkWcoEnabled,"ax",%progbits
 805              		.align	1
 806              		.global	CySysClkWcoEnabled
 807              		.code	16
 808              		.thumb_func
 809              		.type	CySysClkWcoEnabled, %function
 810              	CySysClkWcoEnabled:
 811              	.LFB15:
 776:Generated_Source\PSoC4/CyLFClk.c **** 
 777:Generated_Source\PSoC4/CyLFClk.c **** 
 778:Generated_Source\PSoC4/CyLFClk.c ****     /*******************************************************************************
 779:Generated_Source\PSoC4/CyLFClk.c ****     * Function Name: CySysClkWcoStop
 780:Generated_Source\PSoC4/CyLFClk.c ****     ****************************************************************************//**
 781:Generated_Source\PSoC4/CyLFClk.c ****     * \brief
 782:Generated_Source\PSoC4/CyLFClk.c ****     * Disables the 32 KHz Crystal Oscillator.
 783:Generated_Source\PSoC4/CyLFClk.c ****     *
 784:Generated_Source\PSoC4/CyLFClk.c ****     * API switch of WCO.
 785:Generated_Source\PSoC4/CyLFClk.c ****     * \note PSoC 4100S / PSoC Analog Coprocessor: WCO is required for DeepSleep 
 786:Generated_Source\PSoC4/CyLFClk.c ****     * Timer's operation.
 787:Generated_Source\PSoC4/CyLFClk.c ****     *
 788:Generated_Source\PSoC4/CyLFClk.c ****     *******************************************************************************/
 789:Generated_Source\PSoC4/CyLFClk.c ****     void  CySysClkWcoStop(void)
 790:Generated_Source\PSoC4/CyLFClk.c ****     {
 791:Generated_Source\PSoC4/CyLFClk.c ****         #if (CY_IP_SRSSV2)
 792:Generated_Source\PSoC4/CyLFClk.c ****             uint8  interruptState;
 793:Generated_Source\PSoC4/CyLFClk.c ****         #endif /* (CY_IP_SRSSV2) */
 794:Generated_Source\PSoC4/CyLFClk.c **** 
 795:Generated_Source\PSoC4/CyLFClk.c ****         if (0u != CySysClkWcoEnabled())
 796:Generated_Source\PSoC4/CyLFClk.c ****         {
 797:Generated_Source\PSoC4/CyLFClk.c ****             #if (CY_IP_SRSSV2)
 798:Generated_Source\PSoC4/CyLFClk.c ****                 if (CY_SYS_CLK_LFCLK_SRC_WCO == CySysClkGetLfclkSource())
 799:Generated_Source\PSoC4/CyLFClk.c ****                 {
 800:Generated_Source\PSoC4/CyLFClk.c ****                     interruptState = CyEnterCriticalSection();
 801:Generated_Source\PSoC4/CyLFClk.c ****                     CySysClkLfclkPosedgeCatch();
 802:Generated_Source\PSoC4/CyLFClk.c ****                     CY_SYS_CLK_WCO_CONFIG_REG &= (uint32) ~CY_SYS_CLK_WCO_CONFIG_LPM_ENABLE;
 803:Generated_Source\PSoC4/CyLFClk.c ****                     CySysClkLfclkPosedgeRestore();
 804:Generated_Source\PSoC4/CyLFClk.c ****                     CyExitCriticalSection(interruptState);
 805:Generated_Source\PSoC4/CyLFClk.c ****                 }
 806:Generated_Source\PSoC4/CyLFClk.c ****                 else /* Safe to disable - shortened pulse does not impact peripheral */
 807:Generated_Source\PSoC4/CyLFClk.c ****             #endif /* (CY_IP_SRSSV2) */
 808:Generated_Source\PSoC4/CyLFClk.c ****             {
 809:Generated_Source\PSoC4/CyLFClk.c ****                 CY_SYS_CLK_WCO_CONFIG_REG &= (uint32) ~CY_SYS_CLK_WCO_CONFIG_LPM_ENABLE;
 810:Generated_Source\PSoC4/CyLFClk.c ****             }
 811:Generated_Source\PSoC4/CyLFClk.c ****         } /* Otherwise do nothing. WCO configuration cannot be changed. */
 812:Generated_Source\PSoC4/CyLFClk.c ****     }
ARM GAS  C:\Users\user\AppData\Local\Temp\ccsPNKJ0.s 			page 43


 813:Generated_Source\PSoC4/CyLFClk.c **** 
 814:Generated_Source\PSoC4/CyLFClk.c **** 
 815:Generated_Source\PSoC4/CyLFClk.c ****     /*******************************************************************************
 816:Generated_Source\PSoC4/CyLFClk.c ****     * Function Name: CySysClkWcoEnabled
 817:Generated_Source\PSoC4/CyLFClk.c ****     ****************************************************************************//**
 818:Generated_Source\PSoC4/CyLFClk.c ****     * \internal Reports the WCO enable state.
 819:Generated_Source\PSoC4/CyLFClk.c ****     *
 820:Generated_Source\PSoC4/CyLFClk.c ****     * \return 1 if WCO is enabled
 821:Generated_Source\PSoC4/CyLFClk.c ****     * \return 0 if WCO is disabled.
 822:Generated_Source\PSoC4/CyLFClk.c ****     * \endinternal
 823:Generated_Source\PSoC4/CyLFClk.c ****     *******************************************************************************/
 824:Generated_Source\PSoC4/CyLFClk.c ****     uint32 CySysClkWcoEnabled(void)
 825:Generated_Source\PSoC4/CyLFClk.c ****     {
 812              		.loc 2 825 0
 813              		.cfi_startproc
 814              		@ args = 0, pretend = 0, frame = 0
 815              		@ frame_needed = 0, uses_anonymous_args = 0
 816              		@ link register save eliminated.
 826:Generated_Source\PSoC4/CyLFClk.c ****         return ((0u != (CY_SYS_CLK_WCO_CONFIG_REG & (uint32)(CY_SYS_CLK_WCO_CONFIG_LPM_ENABLE))) ?
 817              		.loc 2 826 0
 818 0000 014B     		ldr	r3, .L79
 827:Generated_Source\PSoC4/CyLFClk.c ****                 (uint32) 1u :
 828:Generated_Source\PSoC4/CyLFClk.c ****                 (uint32) 0u);
 829:Generated_Source\PSoC4/CyLFClk.c ****     }
 819              		.loc 2 829 0
 820              		@ sp needed
 826:Generated_Source\PSoC4/CyLFClk.c ****         return ((0u != (CY_SYS_CLK_WCO_CONFIG_REG & (uint32)(CY_SYS_CLK_WCO_CONFIG_LPM_ENABLE))) ?
 821              		.loc 2 826 0
 822 0002 1868     		ldr	r0, [r3]
 823 0004 C00F     		lsrs	r0, r0, #31
 824              		.loc 2 829 0
 825 0006 7047     		bx	lr
 826              	.L80:
 827              		.align	2
 828              	.L79:
 829 0008 00F02E40 		.word	1076817920
 830              		.cfi_endproc
 831              	.LFE15:
 832              		.size	CySysClkWcoEnabled, .-CySysClkWcoEnabled
 833              		.section	.text.CySysClkWcoSetPowerMode,"ax",%progbits
 834              		.align	1
 835              		.global	CySysClkWcoSetPowerMode
 836              		.code	16
 837              		.thumb_func
 838              		.type	CySysClkWcoSetPowerMode, %function
 839              	CySysClkWcoSetPowerMode:
 840              	.LFB16:
 830:Generated_Source\PSoC4/CyLFClk.c **** 
 831:Generated_Source\PSoC4/CyLFClk.c **** 
 832:Generated_Source\PSoC4/CyLFClk.c ****     /*******************************************************************************
 833:Generated_Source\PSoC4/CyLFClk.c ****     * Function Name: CySysClkWcoSetPowerMode
 834:Generated_Source\PSoC4/CyLFClk.c ****     ****************************************************************************//**
 835:Generated_Source\PSoC4/CyLFClk.c ****     * \brief
 836:Generated_Source\PSoC4/CyLFClk.c ****     * Sets the power mode for the 32 KHz WCO.
 837:Generated_Source\PSoC4/CyLFClk.c ****     *
 838:Generated_Source\PSoC4/CyLFClk.c ****     * By default (if this function is not called), the WCO is in High power mode 
 839:Generated_Source\PSoC4/CyLFClk.c ****     * during Active and device's low power modes
ARM GAS  C:\Users\user\AppData\Local\Temp\ccsPNKJ0.s 			page 44


 840:Generated_Source\PSoC4/CyLFClk.c ****     *
 841:Generated_Source\PSoC4/CyLFClk.c ****     * \param mode
 842:Generated_Source\PSoC4/CyLFClk.c ****     * CY_SYS_CLK_WCO_HPM - The High Power mode.<br>
 843:Generated_Source\PSoC4/CyLFClk.c ****     * CY_SYS_CLK_WCO_LPM - The Low Power mode.
 844:Generated_Source\PSoC4/CyLFClk.c ****     *
 845:Generated_Source\PSoC4/CyLFClk.c ****     * \return A previous power mode. The same as the parameters.
 846:Generated_Source\PSoC4/CyLFClk.c ****     *
 847:Generated_Source\PSoC4/CyLFClk.c ****     * \note
 848:Generated_Source\PSoC4/CyLFClk.c ****     * The WCO Low Power mode is applicable for PSoC 4100 BLE / PSoC 4200 BLE devices.
 849:Generated_Source\PSoC4/CyLFClk.c ****     *
 850:Generated_Source\PSoC4/CyLFClk.c ****     *******************************************************************************/
 851:Generated_Source\PSoC4/CyLFClk.c ****     uint32 CySysClkWcoSetPowerMode(uint32 mode)
 852:Generated_Source\PSoC4/CyLFClk.c ****     {
 841              		.loc 2 852 0
 842              		.cfi_startproc
 843              		@ args = 0, pretend = 0, frame = 0
 844              		@ frame_needed = 0, uses_anonymous_args = 0
 845              	.LVL68:
 853:Generated_Source\PSoC4/CyLFClk.c ****         uint32 powerModeStatus;
 854:Generated_Source\PSoC4/CyLFClk.c **** 
 855:Generated_Source\PSoC4/CyLFClk.c ****         powerModeStatus = CY_SYS_CLK_WCO_CONFIG_REG & CY_SYS_CLK_WCO_CONFIG_LPM_EN;
 846              		.loc 2 855 0
 847 0000 0122     		movs	r2, #1
 848 0002 104B     		ldr	r3, .L85
 852:Generated_Source\PSoC4/CyLFClk.c ****         uint32 powerModeStatus;
 849              		.loc 2 852 0
 850 0004 70B5     		push	{r4, r5, r6, lr}
 851              		.cfi_def_cfa_offset 16
 852              		.cfi_offset 4, -16
 853              		.cfi_offset 5, -12
 854              		.cfi_offset 6, -8
 855              		.cfi_offset 14, -4
 856              		.loc 2 855 0
 857 0006 1C68     		ldr	r4, [r3]
 858 0008 1440     		ands	r4, r2
 859              	.LVL69:
 856:Generated_Source\PSoC4/CyLFClk.c **** 
 857:Generated_Source\PSoC4/CyLFClk.c ****         switch(mode)
 860              		.loc 2 857 0
 861 000a 0028     		cmp	r0, #0
 862 000c 15D0     		beq	.L83
 863 000e 9042     		cmp	r0, r2
 864 0010 15D1     		bne	.L82
 865              	.LBB48:
 866              	.LBB49:
 672:Generated_Source\PSoC4/CyLFClk.h **** 
 673:Generated_Source\PSoC4/CyLFClk.h ****     #if(CY_IP_BLESS)
 674:Generated_Source\PSoC4/CyLFClk.h ****         /*******************************************************************************
 675:Generated_Source\PSoC4/CyLFClk.h ****         * Function Name: CySysClkWcoSetLowPowerMode
 676:Generated_Source\PSoC4/CyLFClk.h ****         ********************************************************************************
 677:Generated_Source\PSoC4/CyLFClk.h ****         *
 678:Generated_Source\PSoC4/CyLFClk.h ****         * Summary:
 679:Generated_Source\PSoC4/CyLFClk.h ****         *  Sets the low power mode for the 32 KHz WCO.
 680:Generated_Source\PSoC4/CyLFClk.h ****         *
 681:Generated_Source\PSoC4/CyLFClk.h ****         *  Note LPM available only for PSoC 4100 BLE / PSoC4 4200 BLE
 682:Generated_Source\PSoC4/CyLFClk.h ****         *******************************************************************************/
 683:Generated_Source\PSoC4/CyLFClk.h ****         static CY_INLINE void CySysClkWcoSetLowPowerMode(void)
ARM GAS  C:\Users\user\AppData\Local\Temp\ccsPNKJ0.s 			page 45


 684:Generated_Source\PSoC4/CyLFClk.h ****         {
 685:Generated_Source\PSoC4/CyLFClk.h ****             /* Switch off auto low power mode in WCO */
 686:Generated_Source\PSoC4/CyLFClk.h ****             CY_SYS_CLK_WCO_CONFIG_REG &= ((uint32)~CY_SYS_CLK_WCO_CONFIG_LPM_AUTO);
 867              		.loc 1 686 0
 868 0012 0225     		movs	r5, #2
 687:Generated_Source\PSoC4/CyLFClk.h **** 
 688:Generated_Source\PSoC4/CyLFClk.h ****             /* Change WCO trim register settings to LPM */
 689:Generated_Source\PSoC4/CyLFClk.h ****             CY_SYS_CLK_WCO_TRIM_REG = (CY_SYS_CLK_WCO_TRIM_REG & (uint32)(~CY_SYS_CLK_WCO_TRIM_XGM_
 690:Generated_Source\PSoC4/CyLFClk.h ****                         | (uint32)(CY_SYS_CLK_WCO_TRIM_XGM_2250NA << CY_SYS_CLK_WCO_TRIM_XGM_SHIFT)
 869              		.loc 1 690 0
 870 0014 0726     		movs	r6, #7
 686:Generated_Source\PSoC4/CyLFClk.h **** 
 871              		.loc 1 686 0
 872 0016 1968     		ldr	r1, [r3]
 873 0018 A943     		bics	r1, r5
 874 001a 1960     		str	r1, [r3]
 689:Generated_Source\PSoC4/CyLFClk.h ****                         | (uint32)(CY_SYS_CLK_WCO_TRIM_XGM_2250NA << CY_SYS_CLK_WCO_TRIM_XGM_SHIFT)
 875              		.loc 1 689 0
 876 001c 0A49     		ldr	r1, .L85+4
 877 001e 0A68     		ldr	r2, [r1]
 878              		.loc 1 690 0
 879 0020 B243     		bics	r2, r6
 880 0022 2A43     		orrs	r2, r5
 689:Generated_Source\PSoC4/CyLFClk.h ****                         | (uint32)(CY_SYS_CLK_WCO_TRIM_XGM_2250NA << CY_SYS_CLK_WCO_TRIM_XGM_SHIFT)
 881              		.loc 1 689 0
 882 0024 0A60     		str	r2, [r1]
 691:Generated_Source\PSoC4/CyLFClk.h ****             CY_SYS_CLK_WCO_TRIM_REG = (CY_SYS_CLK_WCO_TRIM_REG & (uint32)(~CY_SYS_CLK_WCO_TRIM_GM_M
 883              		.loc 1 691 0
 884 0026 0A68     		ldr	r2, [r1]
 692:Generated_Source\PSoC4/CyLFClk.h ****                         | (uint32)(CY_SYS_CLK_WCO_TRIM_GM_LPM << CY_SYS_CLK_WCO_TRIM_GM_SHIFT);
 885              		.loc 1 692 0
 886 0028 2E35     		adds	r5, r5, #46
 887 002a AA43     		bics	r2, r5
 888 002c 103D     		subs	r5, r5, #16
 889 002e 2A43     		orrs	r2, r5
 691:Generated_Source\PSoC4/CyLFClk.h ****             CY_SYS_CLK_WCO_TRIM_REG = (CY_SYS_CLK_WCO_TRIM_REG & (uint32)(~CY_SYS_CLK_WCO_TRIM_GM_M
 890              		.loc 1 691 0
 891 0030 0A60     		str	r2, [r1]
 693:Generated_Source\PSoC4/CyLFClk.h **** 
 694:Generated_Source\PSoC4/CyLFClk.h ****             /* Switch on low power mode for WCO */
 695:Generated_Source\PSoC4/CyLFClk.h ****             CY_SYS_CLK_WCO_CONFIG_REG |= CY_SYS_CLK_WCO_CONFIG_LPM_EN;
 892              		.loc 1 695 0
 893 0032 1A68     		ldr	r2, [r3]
 894 0034 1043     		orrs	r0, r2
 895              	.LVL70:
 896 0036 1860     		str	r0, [r3]
 897 0038 01E0     		b	.L82
 898              	.LVL71:
 899              	.L83:
 900              	.LBE49:
 901              	.LBE48:
 858:Generated_Source\PSoC4/CyLFClk.c ****         {
 859:Generated_Source\PSoC4/CyLFClk.c ****         case CY_SYS_CLK_WCO_HPM:
 860:Generated_Source\PSoC4/CyLFClk.c ****                 CySysClkWcoSetHighPowerMode();
 902              		.loc 2 860 0
 903 003a FFF7FEFF 		bl	CySysClkWcoSetHighPowerMode
 904              	.LVL72:
ARM GAS  C:\Users\user\AppData\Local\Temp\ccsPNKJ0.s 			page 46


 905              	.L82:
 861:Generated_Source\PSoC4/CyLFClk.c ****             break;
 862:Generated_Source\PSoC4/CyLFClk.c **** 
 863:Generated_Source\PSoC4/CyLFClk.c ****         #if(CY_IP_BLESS)
 864:Generated_Source\PSoC4/CyLFClk.c ****             case CY_SYS_CLK_WCO_LPM:
 865:Generated_Source\PSoC4/CyLFClk.c ****                     CySysClkWcoSetLowPowerMode();
 866:Generated_Source\PSoC4/CyLFClk.c ****                 break;
 867:Generated_Source\PSoC4/CyLFClk.c ****         #endif /* (CY_IP_BLESS) */
 868:Generated_Source\PSoC4/CyLFClk.c **** 
 869:Generated_Source\PSoC4/CyLFClk.c ****         default:
 870:Generated_Source\PSoC4/CyLFClk.c ****             CYASSERT(0u != 0u);
 871:Generated_Source\PSoC4/CyLFClk.c ****             break;
 872:Generated_Source\PSoC4/CyLFClk.c ****         }
 873:Generated_Source\PSoC4/CyLFClk.c **** 
 874:Generated_Source\PSoC4/CyLFClk.c ****         return (powerModeStatus);
 875:Generated_Source\PSoC4/CyLFClk.c ****     }
 906              		.loc 2 875 0
 907 003e 2000     		movs	r0, r4
 908              		@ sp needed
 909              	.LVL73:
 910 0040 70BD     		pop	{r4, r5, r6, pc}
 911              	.L86:
 912 0042 C046     		.align	2
 913              	.L85:
 914 0044 00F02E40 		.word	1076817920
 915 0048 00FF2E40 		.word	1076821760
 916              		.cfi_endproc
 917              	.LFE16:
 918              		.size	CySysClkWcoSetPowerMode, .-CySysClkWcoSetPowerMode
 919              		.section	.text.CySysClkWcoClockOutSelect,"ax",%progbits
 920              		.align	1
 921              		.global	CySysClkWcoClockOutSelect
 922              		.code	16
 923              		.thumb_func
 924              		.type	CySysClkWcoClockOutSelect, %function
 925              	CySysClkWcoClockOutSelect:
 926              	.LFB17:
 876:Generated_Source\PSoC4/CyLFClk.c **** 
 877:Generated_Source\PSoC4/CyLFClk.c **** 
 878:Generated_Source\PSoC4/CyLFClk.c ****     /*******************************************************************************
 879:Generated_Source\PSoC4/CyLFClk.c ****     * Function Name: CySysClkWcoClockOutSelect
 880:Generated_Source\PSoC4/CyLFClk.c ****     ****************************************************************************//**
 881:Generated_Source\PSoC4/CyLFClk.c ****     * \brief
 882:Generated_Source\PSoC4/CyLFClk.c ****     * Selects the WCO block output source.
 883:Generated_Source\PSoC4/CyLFClk.c ****     *
 884:Generated_Source\PSoC4/CyLFClk.c ****     * In addition to generating 32.768 kHz clock from external crystals, WCO 
 885:Generated_Source\PSoC4/CyLFClk.c ****     * can be sourced by external clock source using wco_out pin. The API help to
 886:Generated_Source\PSoC4/CyLFClk.c ****     * lets you select between the sources: External crystal or external pin.
 887:Generated_Source\PSoC4/CyLFClk.c ****     *
 888:Generated_Source\PSoC4/CyLFClk.c ****     * If you want to use external pin to drive WCO the next procedure is required:
 889:Generated_Source\PSoC4/CyLFClk.c ****     * <br> 1) Disable the WCO.
 890:Generated_Source\PSoC4/CyLFClk.c ****     * <br> 2) Drive the wco_out pin to an external signal source.
 891:Generated_Source\PSoC4/CyLFClk.c ****     * <br> 3) Call CySysClkWcoClockOutSelect(CY_SYS_CLK_WCO_SEL_PIN).
 892:Generated_Source\PSoC4/CyLFClk.c ****     * <br> 4) Enable the WCO and wait for 15 us before clocking the XO pad at the high 
 893:Generated_Source\PSoC4/CyLFClk.c ****     * potential. Let's assume you are using the 1.6v clock amplitude, then the
 894:Generated_Source\PSoC4/CyLFClk.c ****     * sequence would start at 1.6v, then 0v, then 1.6v etc at a chosen frequency.
 895:Generated_Source\PSoC4/CyLFClk.c ****     *
ARM GAS  C:\Users\user\AppData\Local\Temp\ccsPNKJ0.s 			page 47


 896:Generated_Source\PSoC4/CyLFClk.c ****     * If you want to use WCO after using an external pin source:
 897:Generated_Source\PSoC4/CyLFClk.c ****     * <br> 1) Disable the WCO.
 898:Generated_Source\PSoC4/CyLFClk.c ****     * <br> 2) Drive off wco_out pin with external signal source.
 899:Generated_Source\PSoC4/CyLFClk.c ****     * <br> 3) Call CySysClkWcoClockOutSelect(CY_SYS_CLK_WCO_SEL_CRYSTAL).
 900:Generated_Source\PSoC4/CyLFClk.c ****     * <br> 4) Enable the WCO.
 901:Generated_Source\PSoC4/CyLFClk.c ****     *
 902:Generated_Source\PSoC4/CyLFClk.c ****     * \warning 
 903:Generated_Source\PSoC4/CyLFClk.c ****     * Do not use the oscillator output clock prior to a 15uS delay in your system.
 904:Generated_Source\PSoC4/CyLFClk.c ****     * There are no limitations on the external clock frequency.
 905:Generated_Source\PSoC4/CyLFClk.c ****     * \warning 
 906:Generated_Source\PSoC4/CyLFClk.c ****     * When external clock source was selected to drive WCO block the IMO can be 
 907:Generated_Source\PSoC4/CyLFClk.c ****     * trimmed only when external clock source period is equal to WCO external
 908:Generated_Source\PSoC4/CyLFClk.c ****     * crystal period. Also external clock source accuracy should be higher 
 909:Generated_Source\PSoC4/CyLFClk.c ****     * or equal to WCO external crystal accuracy.
 910:Generated_Source\PSoC4/CyLFClk.c ****     *
 911:Generated_Source\PSoC4/CyLFClk.c ****     * \param clockSel
 912:Generated_Source\PSoC4/CyLFClk.c ****     * CY_SYS_CLK_WCO_SEL_CRYSTAL - Selects External crystal as clock 
 913:Generated_Source\PSoC4/CyLFClk.c ****     * source of WCO.<br>
 914:Generated_Source\PSoC4/CyLFClk.c ****     * CY_SYS_CLK_WCO_SEL_PIN - Selects External clock input on wco_in pin as 
 915:Generated_Source\PSoC4/CyLFClk.c ****     * clock source of WCO.
 916:Generated_Source\PSoC4/CyLFClk.c ****     *
 917:Generated_Source\PSoC4/CyLFClk.c ****     *******************************************************************************/
 918:Generated_Source\PSoC4/CyLFClk.c ****     void CySysClkWcoClockOutSelect(uint32 clockSel)
 919:Generated_Source\PSoC4/CyLFClk.c ****     {
 927              		.loc 2 919 0
 928              		.cfi_startproc
 929              		@ args = 0, pretend = 0, frame = 0
 930              		@ frame_needed = 0, uses_anonymous_args = 0
 931              	.LVL74:
 932 0000 10B5     		push	{r4, lr}
 933              		.cfi_def_cfa_offset 8
 934              		.cfi_offset 4, -8
 935              		.cfi_offset 14, -4
 936              		.loc 2 919 0
 937 0002 0400     		movs	r4, r0
 920:Generated_Source\PSoC4/CyLFClk.c ****         if (0u != CySysClkWcoEnabled())
 938              		.loc 2 920 0
 939 0004 FFF7FEFF 		bl	CySysClkWcoEnabled
 940              	.LVL75:
 941 0008 0028     		cmp	r0, #0
 942 000a 08D0     		beq	.L87
 921:Generated_Source\PSoC4/CyLFClk.c ****         {
 922:Generated_Source\PSoC4/CyLFClk.c ****             if (1u >= clockSel)
 943              		.loc 2 922 0
 944 000c 012C     		cmp	r4, #1
 945 000e 06D8     		bhi	.L87
 923:Generated_Source\PSoC4/CyLFClk.c ****             {
 924:Generated_Source\PSoC4/CyLFClk.c ****                 CY_SYS_CLK_WCO_CONFIG_REG = (CY_SYS_CLK_WCO_CONFIG_REG & (uint32)(~CY_SYS_CLK_WCO_S
 946              		.loc 2 924 0
 947 0010 0421     		movs	r1, #4
 948 0012 034A     		ldr	r2, .L92
 949 0014 A400     		lsls	r4, r4, #2
 950              	.LVL76:
 951 0016 1368     		ldr	r3, [r2]
 952 0018 8B43     		bics	r3, r1
 953 001a 1C43     		orrs	r4, r3
 954 001c 1460     		str	r4, [r2]
ARM GAS  C:\Users\user\AppData\Local\Temp\ccsPNKJ0.s 			page 48


 955              	.L87:
 925:Generated_Source\PSoC4/CyLFClk.c ****                                         (clockSel << CY_SYS_CLK_WCO_SELECT_PIN_OFFSET);
 926:Generated_Source\PSoC4/CyLFClk.c ****             }
 927:Generated_Source\PSoC4/CyLFClk.c ****             else
 928:Generated_Source\PSoC4/CyLFClk.c ****             {
 929:Generated_Source\PSoC4/CyLFClk.c ****                 CYASSERT(0u != 0u);
 930:Generated_Source\PSoC4/CyLFClk.c ****             }
 931:Generated_Source\PSoC4/CyLFClk.c ****         }
 932:Generated_Source\PSoC4/CyLFClk.c ****     }
 956              		.loc 2 932 0
 957              		@ sp needed
 958 001e 10BD     		pop	{r4, pc}
 959              	.L93:
 960              		.align	2
 961              	.L92:
 962 0020 00F02E40 		.word	1076817920
 963              		.cfi_endproc
 964              	.LFE17:
 965              		.size	CySysClkWcoClockOutSelect, .-CySysClkWcoClockOutSelect
 966              		.section	.text.CySysWdtLock,"ax",%progbits
 967              		.align	1
 968              		.global	CySysWdtLock
 969              		.code	16
 970              		.thumb_func
 971              		.type	CySysWdtLock, %function
 972              	CySysWdtLock:
 973              	.LFB18:
 933:Generated_Source\PSoC4/CyLFClk.c **** #endif  /* (CY_IP_WCO) */
 934:Generated_Source\PSoC4/CyLFClk.c **** 
 935:Generated_Source\PSoC4/CyLFClk.c **** 
 936:Generated_Source\PSoC4/CyLFClk.c **** #if(CY_IP_SRSSV2)
 937:Generated_Source\PSoC4/CyLFClk.c ****     /*******************************************************************************
 938:Generated_Source\PSoC4/CyLFClk.c ****     * Function Name: CySysWdtLock
 939:Generated_Source\PSoC4/CyLFClk.c ****     ****************************************************************************//**
 940:Generated_Source\PSoC4/CyLFClk.c ****     * \brief
 941:Generated_Source\PSoC4/CyLFClk.c ****     * Locks out configuration changes to the Watchdog timer registers and ILO
 942:Generated_Source\PSoC4/CyLFClk.c ****     * configuration register.
 943:Generated_Source\PSoC4/CyLFClk.c ****     *
 944:Generated_Source\PSoC4/CyLFClk.c ****     * After this function is called, ILO clock can't be disabled until
 945:Generated_Source\PSoC4/CyLFClk.c ****     * CySysWdtUnlock() is called.
 946:Generated_Source\PSoC4/CyLFClk.c ****     *
 947:Generated_Source\PSoC4/CyLFClk.c ****     *******************************************************************************/
 948:Generated_Source\PSoC4/CyLFClk.c ****     void CySysWdtLock(void)
 949:Generated_Source\PSoC4/CyLFClk.c ****     {
 974              		.loc 2 949 0
 975              		.cfi_startproc
 976              		@ args = 0, pretend = 0, frame = 0
 977              		@ frame_needed = 0, uses_anonymous_args = 0
 978 0000 10B5     		push	{r4, lr}
 979              		.cfi_def_cfa_offset 8
 980              		.cfi_offset 4, -8
 981              		.cfi_offset 14, -4
 950:Generated_Source\PSoC4/CyLFClk.c ****         uint8 interruptState;
 951:Generated_Source\PSoC4/CyLFClk.c ****         interruptState = CyEnterCriticalSection();
 982              		.loc 2 951 0
 983 0002 FFF7FEFF 		bl	CyEnterCriticalSection
 984              	.LVL77:
ARM GAS  C:\Users\user\AppData\Local\Temp\ccsPNKJ0.s 			page 49


 952:Generated_Source\PSoC4/CyLFClk.c **** 
 953:Generated_Source\PSoC4/CyLFClk.c ****         CY_SYS_CLK_SELECT_REG = (CY_SYS_CLK_SELECT_REG & (uint32)(~CY_SYS_WDT_CLK_LOCK_BITS_MASK)) 
 985              		.loc 2 953 0
 986 0006 C021     		movs	r1, #192
 987 0008 034A     		ldr	r2, .L95
 988 000a 0902     		lsls	r1, r1, #8
 989 000c 1368     		ldr	r3, [r2]
 954:Generated_Source\PSoC4/CyLFClk.c ****                  CY_SYS_WDT_CLK_LOCK_BITS_MASK;
 955:Generated_Source\PSoC4/CyLFClk.c **** 
 956:Generated_Source\PSoC4/CyLFClk.c ****         CyExitCriticalSection(interruptState);
 957:Generated_Source\PSoC4/CyLFClk.c ****     }
 990              		.loc 2 957 0
 991              		@ sp needed
 953:Generated_Source\PSoC4/CyLFClk.c ****                  CY_SYS_WDT_CLK_LOCK_BITS_MASK;
 992              		.loc 2 953 0
 993 000e 0B43     		orrs	r3, r1
 994 0010 1360     		str	r3, [r2]
 956:Generated_Source\PSoC4/CyLFClk.c ****     }
 995              		.loc 2 956 0
 996 0012 FFF7FEFF 		bl	CyExitCriticalSection
 997              	.LVL78:
 998              		.loc 2 957 0
 999 0016 10BD     		pop	{r4, pc}
 1000              	.L96:
 1001              		.align	2
 1002              	.L95:
 1003 0018 00010B40 		.word	1074462976
 1004              		.cfi_endproc
 1005              	.LFE18:
 1006              		.size	CySysWdtLock, .-CySysWdtLock
 1007              		.section	.text.CySysWdtUnlock,"ax",%progbits
 1008              		.align	1
 1009              		.global	CySysWdtUnlock
 1010              		.code	16
 1011              		.thumb_func
 1012              		.type	CySysWdtUnlock, %function
 1013              	CySysWdtUnlock:
 1014              	.LFB20:
 958:Generated_Source\PSoC4/CyLFClk.c **** 
 959:Generated_Source\PSoC4/CyLFClk.c **** 
 960:Generated_Source\PSoC4/CyLFClk.c ****     /*******************************************************************************
 961:Generated_Source\PSoC4/CyLFClk.c ****     * Function Name: CySysWdtLocked
 962:Generated_Source\PSoC4/CyLFClk.c ****     ****************************************************************************//**
 963:Generated_Source\PSoC4/CyLFClk.c ****     * \internal
 964:Generated_Source\PSoC4/CyLFClk.c ****     * Reports the WDT lock state.
 965:Generated_Source\PSoC4/CyLFClk.c ****     *
 966:Generated_Source\PSoC4/CyLFClk.c ****     * \return 1 - WDT is locked, and 0 - WDT is unlocked.
 967:Generated_Source\PSoC4/CyLFClk.c ****     * \endinternal
 968:Generated_Source\PSoC4/CyLFClk.c ****     *******************************************************************************/
 969:Generated_Source\PSoC4/CyLFClk.c ****     static uint32 CySysWdtLocked(void)
 970:Generated_Source\PSoC4/CyLFClk.c ****     {
 971:Generated_Source\PSoC4/CyLFClk.c ****         /* Prohibits writing to WDT registers and ILO/WCO registers when not equal 0 */
 972:Generated_Source\PSoC4/CyLFClk.c ****         return ((0u != (CY_SYS_CLK_SELECT_REG & (uint32)(CY_SYS_WDT_CLK_LOCK_BITS_MASK))) ? (uint32
 973:Generated_Source\PSoC4/CyLFClk.c ****     }
 974:Generated_Source\PSoC4/CyLFClk.c **** 
 975:Generated_Source\PSoC4/CyLFClk.c **** 
 976:Generated_Source\PSoC4/CyLFClk.c ****     /*******************************************************************************
ARM GAS  C:\Users\user\AppData\Local\Temp\ccsPNKJ0.s 			page 50


 977:Generated_Source\PSoC4/CyLFClk.c ****     * Function Name: CySysWdtUnlock
 978:Generated_Source\PSoC4/CyLFClk.c ****     ****************************************************************************//**
 979:Generated_Source\PSoC4/CyLFClk.c ****     * \brief
 980:Generated_Source\PSoC4/CyLFClk.c ****     *  Unlocks the Watchdog Timer configuration register.
 981:Generated_Source\PSoC4/CyLFClk.c ****     *
 982:Generated_Source\PSoC4/CyLFClk.c ****     *******************************************************************************/
 983:Generated_Source\PSoC4/CyLFClk.c ****     void CySysWdtUnlock(void)
 984:Generated_Source\PSoC4/CyLFClk.c ****     {
 1015              		.loc 2 984 0
 1016              		.cfi_startproc
 1017              		@ args = 0, pretend = 0, frame = 0
 1018              		@ frame_needed = 0, uses_anonymous_args = 0
 1019 0000 10B5     		push	{r4, lr}
 1020              		.cfi_def_cfa_offset 8
 1021              		.cfi_offset 4, -8
 1022              		.cfi_offset 14, -4
 985:Generated_Source\PSoC4/CyLFClk.c ****         uint8 interruptState;
 986:Generated_Source\PSoC4/CyLFClk.c ****         interruptState = CyEnterCriticalSection();
 987:Generated_Source\PSoC4/CyLFClk.c **** 
 988:Generated_Source\PSoC4/CyLFClk.c ****         /* Removing WDT lock requires two writes */
 989:Generated_Source\PSoC4/CyLFClk.c ****         CY_SYS_CLK_SELECT_REG = ((CY_SYS_CLK_SELECT_REG & (uint32)(~CY_SYS_WDT_CLK_LOCK_BITS_MASK))
 1023              		.loc 2 989 0
 1024 0002 8024     		movs	r4, #128
 986:Generated_Source\PSoC4/CyLFClk.c **** 
 1025              		.loc 2 986 0
 1026 0004 FFF7FEFF 		bl	CyEnterCriticalSection
 1027              	.LVL79:
 1028              		.loc 2 989 0
 1029 0008 0749     		ldr	r1, .L98
 1030 000a 084B     		ldr	r3, .L98+4
 1031 000c 0A68     		ldr	r2, [r1]
 1032 000e E401     		lsls	r4, r4, #7
 1033 0010 1A40     		ands	r2, r3
 1034 0012 2243     		orrs	r2, r4
 1035 0014 0A60     		str	r2, [r1]
 990:Generated_Source\PSoC4/CyLFClk.c ****                 CY_SYS_WDT_CLK_LOCK_BIT0);
 991:Generated_Source\PSoC4/CyLFClk.c **** 
 992:Generated_Source\PSoC4/CyLFClk.c ****         CY_SYS_CLK_SELECT_REG = ((CY_SYS_CLK_SELECT_REG & (uint32)(~CY_SYS_WDT_CLK_LOCK_BITS_MASK))
 1036              		.loc 2 992 0
 1037 0016 0A68     		ldr	r2, [r1]
 993:Generated_Source\PSoC4/CyLFClk.c ****                 CY_SYS_WDT_CLK_LOCK_BIT1);
 994:Generated_Source\PSoC4/CyLFClk.c **** 
 995:Generated_Source\PSoC4/CyLFClk.c ****         CyExitCriticalSection(interruptState);
 996:Generated_Source\PSoC4/CyLFClk.c ****     }
 1038              		.loc 2 996 0
 1039              		@ sp needed
 992:Generated_Source\PSoC4/CyLFClk.c ****                 CY_SYS_WDT_CLK_LOCK_BIT1);
 1040              		.loc 2 992 0
 1041 0018 1340     		ands	r3, r2
 1042 001a 8022     		movs	r2, #128
 1043 001c 1202     		lsls	r2, r2, #8
 1044 001e 1343     		orrs	r3, r2
 1045 0020 0B60     		str	r3, [r1]
 995:Generated_Source\PSoC4/CyLFClk.c ****     }
 1046              		.loc 2 995 0
 1047 0022 FFF7FEFF 		bl	CyExitCriticalSection
 1048              	.LVL80:
ARM GAS  C:\Users\user\AppData\Local\Temp\ccsPNKJ0.s 			page 51


 1049              		.loc 2 996 0
 1050 0026 10BD     		pop	{r4, pc}
 1051              	.L99:
 1052              		.align	2
 1053              	.L98:
 1054 0028 00010B40 		.word	1074462976
 1055 002c FF3FFFFF 		.word	-49153
 1056              		.cfi_endproc
 1057              	.LFE20:
 1058              		.size	CySysWdtUnlock, .-CySysWdtUnlock
 1059              		.section	.text.CySysWdtGetEnabledStatus,"ax",%progbits
 1060              		.align	1
 1061              		.global	CySysWdtGetEnabledStatus
 1062              		.code	16
 1063              		.thumb_func
 1064              		.type	CySysWdtGetEnabledStatus, %function
 1065              	CySysWdtGetEnabledStatus:
 1066              	.LFB21:
 997:Generated_Source\PSoC4/CyLFClk.c **** 
 998:Generated_Source\PSoC4/CyLFClk.c **** 
 999:Generated_Source\PSoC4/CyLFClk.c ****     /*******************************************************************************
1000:Generated_Source\PSoC4/CyLFClk.c ****     * Function Name: CySysWdtGetEnabledStatus
1001:Generated_Source\PSoC4/CyLFClk.c ****     ****************************************************************************//**
1002:Generated_Source\PSoC4/CyLFClk.c ****     * \brief
1003:Generated_Source\PSoC4/CyLFClk.c ****     *  Reads the enabled status of one of the three WDT counters.
1004:Generated_Source\PSoC4/CyLFClk.c ****     *
1005:Generated_Source\PSoC4/CyLFClk.c ****     * \param counterNum: Valid range [0-2].  The number of the WDT counter.
1006:Generated_Source\PSoC4/CyLFClk.c ****     *
1007:Generated_Source\PSoC4/CyLFClk.c ****     * \return The status of the WDT counter:
1008:Generated_Source\PSoC4/CyLFClk.c ****     * \return 0 - If the counter is disabled.
1009:Generated_Source\PSoC4/CyLFClk.c ****     * \return 1 - If the counter is enabled.
1010:Generated_Source\PSoC4/CyLFClk.c ****     *
1011:Generated_Source\PSoC4/CyLFClk.c ****     * \details
1012:Generated_Source\PSoC4/CyLFClk.c ****     * This function returns an actual WDT counter status from the status register. It may
1013:Generated_Source\PSoC4/CyLFClk.c ****     * take up to 3 LFCLK cycles for the WDT status register to contain actual data
1014:Generated_Source\PSoC4/CyLFClk.c ****     * after the WDT counter is enabled.
1015:Generated_Source\PSoC4/CyLFClk.c ****     *
1016:Generated_Source\PSoC4/CyLFClk.c ****     *******************************************************************************/
1017:Generated_Source\PSoC4/CyLFClk.c ****     uint32 CySysWdtGetEnabledStatus(uint32 counterNum)
1018:Generated_Source\PSoC4/CyLFClk.c ****     {
 1067              		.loc 2 1018 0
 1068              		.cfi_startproc
 1069              		@ args = 0, pretend = 0, frame = 0
 1070              		@ frame_needed = 0, uses_anonymous_args = 0
 1071              		@ link register save eliminated.
 1072              	.LVL81:
 1073              		.loc 2 1018 0
 1074 0000 0300     		movs	r3, r0
1019:Generated_Source\PSoC4/CyLFClk.c ****         CYASSERT(counterNum < CY_SYS_WDT_COUNTERS_MAX);
1020:Generated_Source\PSoC4/CyLFClk.c ****         return ((CY_SYS_WDT_CONTROL_REG >> ((CY_SYS_WDT_CNT_SHIFT * counterNum) + CY_SYS_WDT_CNT_ST
 1075              		.loc 2 1020 0
 1076 0002 044A     		ldr	r2, .L101
 1077 0004 DB00     		lsls	r3, r3, #3
 1078 0006 1068     		ldr	r0, [r2]
 1079              	.LVL82:
 1080 0008 0133     		adds	r3, r3, #1
 1081 000a D840     		lsrs	r0, r0, r3
ARM GAS  C:\Users\user\AppData\Local\Temp\ccsPNKJ0.s 			page 52


 1082 000c 0123     		movs	r3, #1
1021:Generated_Source\PSoC4/CyLFClk.c ****     }
 1083              		.loc 2 1021 0
 1084              		@ sp needed
1020:Generated_Source\PSoC4/CyLFClk.c ****     }
 1085              		.loc 2 1020 0
 1086 000e 1840     		ands	r0, r3
 1087              		.loc 2 1021 0
 1088 0010 7047     		bx	lr
 1089              	.L102:
 1090 0012 C046     		.align	2
 1091              	.L101:
 1092 0014 10020B40 		.word	1074463248
 1093              		.cfi_endproc
 1094              	.LFE21:
 1095              		.size	CySysWdtGetEnabledStatus, .-CySysWdtGetEnabledStatus
 1096              		.section	.text.CySysWdtSetMode,"ax",%progbits
 1097              		.align	1
 1098              		.global	CySysWdtSetMode
 1099              		.code	16
 1100              		.thumb_func
 1101              		.type	CySysWdtSetMode, %function
 1102              	CySysWdtSetMode:
 1103              	.LFB22:
1022:Generated_Source\PSoC4/CyLFClk.c **** 
1023:Generated_Source\PSoC4/CyLFClk.c **** 
1024:Generated_Source\PSoC4/CyLFClk.c ****     /*******************************************************************************
1025:Generated_Source\PSoC4/CyLFClk.c ****     * Function Name: CySysWdtSetMode
1026:Generated_Source\PSoC4/CyLFClk.c ****     ****************************************************************************//**
1027:Generated_Source\PSoC4/CyLFClk.c ****     * \brief
1028:Generated_Source\PSoC4/CyLFClk.c ****     * Writes the mode of one of the three WDT counters.
1029:Generated_Source\PSoC4/CyLFClk.c ****     *
1030:Generated_Source\PSoC4/CyLFClk.c ****     * \param counterNum: Valid range [0-2].  The number of the WDT counter.
1031:Generated_Source\PSoC4/CyLFClk.c ****     *
1032:Generated_Source\PSoC4/CyLFClk.c ****     * \param mode
1033:Generated_Source\PSoC4/CyLFClk.c ****     *  CY_SYS_WDT_MODE_NONE - Free running.<br>
1034:Generated_Source\PSoC4/CyLFClk.c ****     * CY_SYS_WDT_MODE_INT - The interrupt generated on match for counter 0
1035:Generated_Source\PSoC4/CyLFClk.c ****     * and 1, and on bit toggle for counter 2.<br>
1036:Generated_Source\PSoC4/CyLFClk.c ****     * CY_SYS_WDT_MODE_RESET - Reset on match (valid for counter 0 and 1 only).<br>
1037:Generated_Source\PSoC4/CyLFClk.c ****     * CY_SYS_WDT_MODE_INT_RESET - Generate an interrupt.  Generate a reset on
1038:Generated_Source\PSoC4/CyLFClk.c ****     * the 3rd non-handled interrupt (valid for counter 0 and counter 1 only).
1039:Generated_Source\PSoC4/CyLFClk.c ****     *
1040:Generated_Source\PSoC4/CyLFClk.c ****     * \details
1041:Generated_Source\PSoC4/CyLFClk.c ****     * WDT counter counterNum should be disabled to set a mode. Otherwise, this
1042:Generated_Source\PSoC4/CyLFClk.c ****     * function call has no effect. If the specified counter is enabled,
1043:Generated_Source\PSoC4/CyLFClk.c ****     * call the CySysWdtDisable() function with the corresponding parameter to
1044:Generated_Source\PSoC4/CyLFClk.c ****     * disable the specified counter and wait for it to stop.
1045:Generated_Source\PSoC4/CyLFClk.c ****     *
1046:Generated_Source\PSoC4/CyLFClk.c ****     *******************************************************************************/
1047:Generated_Source\PSoC4/CyLFClk.c ****     void CySysWdtSetMode(uint32 counterNum, uint32 mode)
1048:Generated_Source\PSoC4/CyLFClk.c ****     {
 1104              		.loc 2 1048 0
 1105              		.cfi_startproc
 1106              		@ args = 0, pretend = 0, frame = 0
 1107              		@ frame_needed = 0, uses_anonymous_args = 0
 1108              	.LVL83:
 1109 0000 70B5     		push	{r4, r5, r6, lr}
ARM GAS  C:\Users\user\AppData\Local\Temp\ccsPNKJ0.s 			page 53


 1110              		.cfi_def_cfa_offset 16
 1111              		.cfi_offset 4, -16
 1112              		.cfi_offset 5, -12
 1113              		.cfi_offset 6, -8
 1114              		.cfi_offset 14, -4
 1115              		.loc 2 1048 0
 1116 0002 0500     		movs	r5, r0
 1117 0004 0C00     		movs	r4, r1
1049:Generated_Source\PSoC4/CyLFClk.c ****         uint32 configRegValue;
1050:Generated_Source\PSoC4/CyLFClk.c **** 
1051:Generated_Source\PSoC4/CyLFClk.c ****         CYASSERT(counterNum < CY_SYS_WDT_COUNTERS_MAX);
1052:Generated_Source\PSoC4/CyLFClk.c **** 
1053:Generated_Source\PSoC4/CyLFClk.c ****         if(0u == CySysWdtGetEnabledStatus(counterNum))
 1118              		.loc 2 1053 0
 1119 0006 FFF7FEFF 		bl	CySysWdtGetEnabledStatus
 1120              	.LVL84:
 1121 000a 0028     		cmp	r0, #0
 1122 000c 0AD1     		bne	.L103
 1123              	.LVL85:
 1124              	.LBB52:
 1125              	.LBB53:
1054:Generated_Source\PSoC4/CyLFClk.c ****         {
1055:Generated_Source\PSoC4/CyLFClk.c ****             configRegValue = CY_SYS_WDT_CONFIG_REG &
 1126              		.loc 2 1055 0
 1127 000e 0321     		movs	r1, #3
 1128 0010 0800     		movs	r0, r1
1056:Generated_Source\PSoC4/CyLFClk.c ****                                 (uint32)~((uint32)(CY_SYS_WDT_MODE_MASK << (counterNum * CY_SYS_WDT
 1129              		.loc 2 1056 0
 1130 0012 ED00     		lsls	r5, r5, #3
 1131              	.LVL86:
1055:Generated_Source\PSoC4/CyLFClk.c ****                                 (uint32)~((uint32)(CY_SYS_WDT_MODE_MASK << (counterNum * CY_SYS_WDT
 1132              		.loc 2 1055 0
 1133 0014 A840     		lsls	r0, r0, r5
1057:Generated_Source\PSoC4/CyLFClk.c ****             configRegValue |= (uint32)((mode & CY_SYS_WDT_MODE_MASK) << (counterNum * CY_SYS_WDT_CN
 1134              		.loc 2 1057 0
 1135 0016 2140     		ands	r1, r4
 1136 0018 A940     		lsls	r1, r1, r5
1055:Generated_Source\PSoC4/CyLFClk.c ****                                 (uint32)~((uint32)(CY_SYS_WDT_MODE_MASK << (counterNum * CY_SYS_WDT
 1137              		.loc 2 1055 0
 1138 001a 034A     		ldr	r2, .L105
 1139 001c 1368     		ldr	r3, [r2]
 1140 001e 8343     		bics	r3, r0
 1141              	.LVL87:
 1142              		.loc 2 1057 0
 1143 0020 1943     		orrs	r1, r3
 1144              	.LVL88:
1058:Generated_Source\PSoC4/CyLFClk.c ****             CY_SYS_WDT_CONFIG_REG = configRegValue;
 1145              		.loc 2 1058 0
 1146 0022 1160     		str	r1, [r2]
 1147              	.LVL89:
 1148              	.L103:
 1149              	.LBE53:
 1150              	.LBE52:
1059:Generated_Source\PSoC4/CyLFClk.c ****         }
1060:Generated_Source\PSoC4/CyLFClk.c ****     }
 1151              		.loc 2 1060 0
 1152              		@ sp needed
ARM GAS  C:\Users\user\AppData\Local\Temp\ccsPNKJ0.s 			page 54


 1153              	.LVL90:
 1154 0024 70BD     		pop	{r4, r5, r6, pc}
 1155              	.L106:
 1156 0026 C046     		.align	2
 1157              	.L105:
 1158 0028 0C020B40 		.word	1074463244
 1159              		.cfi_endproc
 1160              	.LFE22:
 1161              		.size	CySysWdtSetMode, .-CySysWdtSetMode
 1162              		.section	.text.CySysClkLfclkPosedgeRestore,"ax",%progbits
 1163              		.align	1
 1164              		.code	16
 1165              		.thumb_func
 1166              		.type	CySysClkLfclkPosedgeRestore, %function
 1167              	CySysClkLfclkPosedgeRestore:
 1168              	.LFB45:
1061:Generated_Source\PSoC4/CyLFClk.c **** 
1062:Generated_Source\PSoC4/CyLFClk.c **** 
1063:Generated_Source\PSoC4/CyLFClk.c ****     /*******************************************************************************
1064:Generated_Source\PSoC4/CyLFClk.c ****     * Function Name: CySysWdtGetMode
1065:Generated_Source\PSoC4/CyLFClk.c ****     ****************************************************************************//**
1066:Generated_Source\PSoC4/CyLFClk.c ****     * 
1067:Generated_Source\PSoC4/CyLFClk.c ****     * \brief Reads the mode of one of the three WDT counters.
1068:Generated_Source\PSoC4/CyLFClk.c ****     *
1069:Generated_Source\PSoC4/CyLFClk.c ****     * \param counterNum Valid range [0-2]. The number of the WDT counter.
1070:Generated_Source\PSoC4/CyLFClk.c ****     *
1071:Generated_Source\PSoC4/CyLFClk.c ****     * \return The mode of the counter. The same enumerated values as the mode 
1072:Generated_Source\PSoC4/CyLFClk.c ****     * parameter used in CySysWdtSetMode().
1073:Generated_Source\PSoC4/CyLFClk.c ****     *
1074:Generated_Source\PSoC4/CyLFClk.c ****     *******************************************************************************/
1075:Generated_Source\PSoC4/CyLFClk.c ****     uint32 CySysWdtGetMode(uint32 counterNum)
1076:Generated_Source\PSoC4/CyLFClk.c ****     {
1077:Generated_Source\PSoC4/CyLFClk.c ****         return ((CY_SYS_WDT_CONFIG_REG >> (counterNum * CY_SYS_WDT_CNT_SHIFT)) & CY_SYS_WDT_MODE_MA
1078:Generated_Source\PSoC4/CyLFClk.c ****     }
1079:Generated_Source\PSoC4/CyLFClk.c **** 
1080:Generated_Source\PSoC4/CyLFClk.c **** 
1081:Generated_Source\PSoC4/CyLFClk.c ****     /*******************************************************************************
1082:Generated_Source\PSoC4/CyLFClk.c ****     * Function Name: CySysWdtSetClearOnMatch
1083:Generated_Source\PSoC4/CyLFClk.c ****     ****************************************************************************//**
1084:Generated_Source\PSoC4/CyLFClk.c ****     * 
1085:Generated_Source\PSoC4/CyLFClk.c ****     * \brief Configures the WDT counter "clear on match" setting.
1086:Generated_Source\PSoC4/CyLFClk.c ****     *
1087:Generated_Source\PSoC4/CyLFClk.c ****     * If configured to "clear on match", the counter counts from 0 to MatchValue
1088:Generated_Source\PSoC4/CyLFClk.c ****     * giving it a period of (MatchValue + 1).
1089:Generated_Source\PSoC4/CyLFClk.c ****     *
1090:Generated_Source\PSoC4/CyLFClk.c ****     * \param counterNum
1091:Generated_Source\PSoC4/CyLFClk.c ****     * Valid range [0-1]. The number of the WDT counter. The match values are not
1092:Generated_Source\PSoC4/CyLFClk.c ****     * supported by counter 2.
1093:Generated_Source\PSoC4/CyLFClk.c ****     *
1094:Generated_Source\PSoC4/CyLFClk.c ****     * \param enable 0 to disable appropriate counter <br>
1095:Generated_Source\PSoC4/CyLFClk.c ****     *  1 to enable appropriate counter
1096:Generated_Source\PSoC4/CyLFClk.c ****     *
1097:Generated_Source\PSoC4/CyLFClk.c ****     * \details
1098:Generated_Source\PSoC4/CyLFClk.c ****     * WDT counter counterNum should be disabled. Otherwise this function call
1099:Generated_Source\PSoC4/CyLFClk.c ****     * has no effect. If the specified counter is enabled, call the CySysWdtDisable()
1100:Generated_Source\PSoC4/CyLFClk.c ****     * function with the corresponding parameter to disable the specified counter and
1101:Generated_Source\PSoC4/CyLFClk.c ****     * wait for it to stop. This may take up to three LFCLK cycles.
ARM GAS  C:\Users\user\AppData\Local\Temp\ccsPNKJ0.s 			page 55


1102:Generated_Source\PSoC4/CyLFClk.c ****     *
1103:Generated_Source\PSoC4/CyLFClk.c ****     *******************************************************************************/
1104:Generated_Source\PSoC4/CyLFClk.c ****     void CySysWdtSetClearOnMatch(uint32 counterNum, uint32 enable)
1105:Generated_Source\PSoC4/CyLFClk.c ****     {
1106:Generated_Source\PSoC4/CyLFClk.c ****         uint32 configRegValue;
1107:Generated_Source\PSoC4/CyLFClk.c **** 
1108:Generated_Source\PSoC4/CyLFClk.c ****         CYASSERT((counterNum == CY_SYS_WDT_COUNTER0) ||
1109:Generated_Source\PSoC4/CyLFClk.c ****                  (counterNum == CY_SYS_WDT_COUNTER1));
1110:Generated_Source\PSoC4/CyLFClk.c **** 
1111:Generated_Source\PSoC4/CyLFClk.c ****         if(0u == CySysWdtGetEnabledStatus(counterNum))
1112:Generated_Source\PSoC4/CyLFClk.c ****         {
1113:Generated_Source\PSoC4/CyLFClk.c ****             configRegValue = CY_SYS_WDT_CONFIG_REG & (uint32)~((uint32)((uint32)1u << 
1114:Generated_Source\PSoC4/CyLFClk.c ****                                      ((counterNum * CY_SYS_WDT_CNT_SHIFT) + CY_SYS_WDT_CNT_MATCH_CL
1115:Generated_Source\PSoC4/CyLFClk.c **** 
1116:Generated_Source\PSoC4/CyLFClk.c ****             configRegValue
1117:Generated_Source\PSoC4/CyLFClk.c ****                 |= (uint32)(enable << ((counterNum * CY_SYS_WDT_CNT_SHIFT) + CY_SYS_WDT_CNT_MATCH_C
1118:Generated_Source\PSoC4/CyLFClk.c **** 
1119:Generated_Source\PSoC4/CyLFClk.c ****             CY_SYS_WDT_CONFIG_REG = configRegValue;
1120:Generated_Source\PSoC4/CyLFClk.c ****         }
1121:Generated_Source\PSoC4/CyLFClk.c ****     }
1122:Generated_Source\PSoC4/CyLFClk.c **** 
1123:Generated_Source\PSoC4/CyLFClk.c **** 
1124:Generated_Source\PSoC4/CyLFClk.c ****     /*******************************************************************************
1125:Generated_Source\PSoC4/CyLFClk.c ****     * Function Name: CySysWdtGetClearOnMatch
1126:Generated_Source\PSoC4/CyLFClk.c ****     ****************************************************************************//**
1127:Generated_Source\PSoC4/CyLFClk.c ****     * \brief
1128:Generated_Source\PSoC4/CyLFClk.c ****     * Reads the "clear on match" setting for the specified counter.
1129:Generated_Source\PSoC4/CyLFClk.c ****     *
1130:Generated_Source\PSoC4/CyLFClk.c ****     * \param
1131:Generated_Source\PSoC4/CyLFClk.c ****     * counterNum Valid range [0-1]. The number of the WDT counter. The match values
1132:Generated_Source\PSoC4/CyLFClk.c ****     * are not supported by counter 2.
1133:Generated_Source\PSoC4/CyLFClk.c ****     *
1134:Generated_Source\PSoC4/CyLFClk.c ****     * \return The "clear on match" status: <br>1 if enabled <br>0 if disabled
1135:Generated_Source\PSoC4/CyLFClk.c ****     *
1136:Generated_Source\PSoC4/CyLFClk.c ****     *******************************************************************************/
1137:Generated_Source\PSoC4/CyLFClk.c ****     uint32 CySysWdtGetClearOnMatch(uint32 counterNum)
1138:Generated_Source\PSoC4/CyLFClk.c ****     {
1139:Generated_Source\PSoC4/CyLFClk.c ****         CYASSERT((counterNum == CY_SYS_WDT_COUNTER0) ||
1140:Generated_Source\PSoC4/CyLFClk.c ****                  (counterNum == CY_SYS_WDT_COUNTER1));
1141:Generated_Source\PSoC4/CyLFClk.c **** 
1142:Generated_Source\PSoC4/CyLFClk.c ****         return (uint32)((CY_SYS_WDT_CONFIG_REG >>
1143:Generated_Source\PSoC4/CyLFClk.c ****                         ((counterNum * CY_SYS_WDT_CNT_SHIFT) + CY_SYS_WDT_CNT_MATCH_CLR_SHIFT)) & 0
1144:Generated_Source\PSoC4/CyLFClk.c ****     }
1145:Generated_Source\PSoC4/CyLFClk.c **** 
1146:Generated_Source\PSoC4/CyLFClk.c **** 
1147:Generated_Source\PSoC4/CyLFClk.c ****     /*******************************************************************************
1148:Generated_Source\PSoC4/CyLFClk.c ****     * Function Name: CySysWdtEnable
1149:Generated_Source\PSoC4/CyLFClk.c ****     ****************************************************************************//**
1150:Generated_Source\PSoC4/CyLFClk.c ****     *
1151:Generated_Source\PSoC4/CyLFClk.c ****     * \brief Enables the specified WDT counters.
1152:Generated_Source\PSoC4/CyLFClk.c ****     *
1153:Generated_Source\PSoC4/CyLFClk.c ****     * All the counters specified in the mask are enabled.
1154:Generated_Source\PSoC4/CyLFClk.c ****     *
1155:Generated_Source\PSoC4/CyLFClk.c ****     * \param counterMask
1156:Generated_Source\PSoC4/CyLFClk.c ****     *  CY_SYS_WDT_COUNTER0_MASK - The mask for counter 0 to enable.<br>
1157:Generated_Source\PSoC4/CyLFClk.c ****     * CY_SYS_WDT_COUNTER1_MASK - The mask for counter 1 to enable.<br>
1158:Generated_Source\PSoC4/CyLFClk.c ****     * CY_SYS_WDT_COUNTER2_MASK - The mask for counter 2 to enable.
ARM GAS  C:\Users\user\AppData\Local\Temp\ccsPNKJ0.s 			page 56


1159:Generated_Source\PSoC4/CyLFClk.c ****     *
1160:Generated_Source\PSoC4/CyLFClk.c ****     * \details
1161:Generated_Source\PSoC4/CyLFClk.c ****     * Enabling or disabling WDT requires 3 LFCLK cycles to come into effect.
1162:Generated_Source\PSoC4/CyLFClk.c ****     * Therefore, the WDT enable state must not be changed more than once in
1163:Generated_Source\PSoC4/CyLFClk.c ****     * that period.
1164:Generated_Source\PSoC4/CyLFClk.c ****     *
1165:Generated_Source\PSoC4/CyLFClk.c ****     * After WDT is enabled, it is illegal to write WDT configuration (WDT_CONFIG)
1166:Generated_Source\PSoC4/CyLFClk.c ****     * and control (WDT_CONTROL) registers. This means that all WDT functions that
1167:Generated_Source\PSoC4/CyLFClk.c ****     * contain 'write' in the name (with the exception of CySysWdtSetMatch()
1168:Generated_Source\PSoC4/CyLFClk.c ****     * function) are illegal to call if WDT is enabled.
1169:Generated_Source\PSoC4/CyLFClk.c ****     *
1170:Generated_Source\PSoC4/CyLFClk.c ****     * PSoC 4100 / PSoC 4200: This function enables ILO.
1171:Generated_Source\PSoC4/CyLFClk.c ****     *
1172:Generated_Source\PSoC4/CyLFClk.c ****     * PSoC 4100 BLE / PSoC 4200 BLE / PSoC4200L / PSoC 4100M 
1173:Generated_Source\PSoC4/CyLFClk.c ****     * / PSoC 4200M:
1174:Generated_Source\PSoC4/CyLFClk.c ****     * LFLCK should be configured before calling this function. The desired
1175:Generated_Source\PSoC4/CyLFClk.c ****     * source should be enabled and configured to be the source for LFCLK.
1176:Generated_Source\PSoC4/CyLFClk.c ****     *
1177:Generated_Source\PSoC4/CyLFClk.c ****     *******************************************************************************/
1178:Generated_Source\PSoC4/CyLFClk.c ****     void CySysWdtEnable(uint32 counterMask)
1179:Generated_Source\PSoC4/CyLFClk.c ****     {
1180:Generated_Source\PSoC4/CyLFClk.c ****         #if (!CY_IP_WCO)
1181:Generated_Source\PSoC4/CyLFClk.c ****             CySysClkIloStart();
1182:Generated_Source\PSoC4/CyLFClk.c ****         #endif /* (!CY_IP_WCO) */
1183:Generated_Source\PSoC4/CyLFClk.c **** 
1184:Generated_Source\PSoC4/CyLFClk.c ****         CY_SYS_WDT_CONTROL_REG |= counterMask;
1185:Generated_Source\PSoC4/CyLFClk.c **** 
1186:Generated_Source\PSoC4/CyLFClk.c ****         if(0u != (counterMask & CY_SYS_WDT_COUNTER0_MASK))
1187:Generated_Source\PSoC4/CyLFClk.c ****         {
1188:Generated_Source\PSoC4/CyLFClk.c ****             while (0u == CySysWdtGetEnabledStatus(CY_SYS_WDT_COUNTER0))
1189:Generated_Source\PSoC4/CyLFClk.c ****             {
1190:Generated_Source\PSoC4/CyLFClk.c ****                 /* Wait for changes to come into effect */
1191:Generated_Source\PSoC4/CyLFClk.c ****             }
1192:Generated_Source\PSoC4/CyLFClk.c ****         }
1193:Generated_Source\PSoC4/CyLFClk.c **** 
1194:Generated_Source\PSoC4/CyLFClk.c ****         if(0u != (counterMask & CY_SYS_WDT_COUNTER1_MASK))
1195:Generated_Source\PSoC4/CyLFClk.c ****         {
1196:Generated_Source\PSoC4/CyLFClk.c ****             while (0u == CySysWdtGetEnabledStatus(CY_SYS_WDT_COUNTER1))
1197:Generated_Source\PSoC4/CyLFClk.c ****             {
1198:Generated_Source\PSoC4/CyLFClk.c ****                 /* Wait for changes to come into effect */
1199:Generated_Source\PSoC4/CyLFClk.c ****             }
1200:Generated_Source\PSoC4/CyLFClk.c ****         }
1201:Generated_Source\PSoC4/CyLFClk.c **** 
1202:Generated_Source\PSoC4/CyLFClk.c ****         if(0u != (counterMask & CY_SYS_WDT_COUNTER2_MASK))
1203:Generated_Source\PSoC4/CyLFClk.c ****         {
1204:Generated_Source\PSoC4/CyLFClk.c ****             while (0u == CySysWdtGetEnabledStatus(CY_SYS_WDT_COUNTER2))
1205:Generated_Source\PSoC4/CyLFClk.c ****             {
1206:Generated_Source\PSoC4/CyLFClk.c ****                 /* Wait for changes to come into effect */
1207:Generated_Source\PSoC4/CyLFClk.c ****             }
1208:Generated_Source\PSoC4/CyLFClk.c ****         }
1209:Generated_Source\PSoC4/CyLFClk.c ****     }
1210:Generated_Source\PSoC4/CyLFClk.c **** 
1211:Generated_Source\PSoC4/CyLFClk.c **** 
1212:Generated_Source\PSoC4/CyLFClk.c ****     /*******************************************************************************
1213:Generated_Source\PSoC4/CyLFClk.c ****     * Function Name: CySysWdtDisable
1214:Generated_Source\PSoC4/CyLFClk.c ****     ****************************************************************************//**
1215:Generated_Source\PSoC4/CyLFClk.c ****     *
ARM GAS  C:\Users\user\AppData\Local\Temp\ccsPNKJ0.s 			page 57


1216:Generated_Source\PSoC4/CyLFClk.c ****     * \brief Disables the specified WDT counters.
1217:Generated_Source\PSoC4/CyLFClk.c ****     * All the counters specified in the mask are disabled. The function waits for 
1218:Generated_Source\PSoC4/CyLFClk.c ****     * the changes to come into effect.
1219:Generated_Source\PSoC4/CyLFClk.c ****     *
1220:Generated_Source\PSoC4/CyLFClk.c ****     * \param counterMask
1221:Generated_Source\PSoC4/CyLFClk.c ****     * CY_SYS_WDT_COUNTER0_MASK - The mask for counter 0 to disable. <br>
1222:Generated_Source\PSoC4/CyLFClk.c ****     * CY_SYS_WDT_COUNTER1_MASK - The mask for counter 1 to disable. <br>
1223:Generated_Source\PSoC4/CyLFClk.c ****     * CY_SYS_WDT_COUNTER2_MASK - The mask for counter 2 to disable.
1224:Generated_Source\PSoC4/CyLFClk.c ****     *
1225:Generated_Source\PSoC4/CyLFClk.c ****     *******************************************************************************/
1226:Generated_Source\PSoC4/CyLFClk.c ****     void CySysWdtDisable(uint32 counterMask)
1227:Generated_Source\PSoC4/CyLFClk.c ****     {
1228:Generated_Source\PSoC4/CyLFClk.c ****         if (0uL == CySysWdtLocked())
1229:Generated_Source\PSoC4/CyLFClk.c ****         {
1230:Generated_Source\PSoC4/CyLFClk.c ****             CY_SYS_WDT_CONTROL_REG &= ~counterMask;
1231:Generated_Source\PSoC4/CyLFClk.c **** 
1232:Generated_Source\PSoC4/CyLFClk.c ****             if(0u != (counterMask & CY_SYS_WDT_COUNTER0_MASK))
1233:Generated_Source\PSoC4/CyLFClk.c ****             {
1234:Generated_Source\PSoC4/CyLFClk.c ****                 while (0u != CySysWdtGetEnabledStatus(CY_SYS_WDT_COUNTER0))
1235:Generated_Source\PSoC4/CyLFClk.c ****                 {
1236:Generated_Source\PSoC4/CyLFClk.c ****                     /* Wait for changes to come into effect */
1237:Generated_Source\PSoC4/CyLFClk.c ****                 }
1238:Generated_Source\PSoC4/CyLFClk.c ****             }
1239:Generated_Source\PSoC4/CyLFClk.c **** 
1240:Generated_Source\PSoC4/CyLFClk.c ****             if(0u != (counterMask & CY_SYS_WDT_COUNTER1_MASK))
1241:Generated_Source\PSoC4/CyLFClk.c ****             {
1242:Generated_Source\PSoC4/CyLFClk.c ****                 while (0u != CySysWdtGetEnabledStatus(CY_SYS_WDT_COUNTER1))
1243:Generated_Source\PSoC4/CyLFClk.c ****                 {
1244:Generated_Source\PSoC4/CyLFClk.c ****                     /* Wait for changes to come into effect */
1245:Generated_Source\PSoC4/CyLFClk.c ****                 }
1246:Generated_Source\PSoC4/CyLFClk.c ****             }
1247:Generated_Source\PSoC4/CyLFClk.c **** 
1248:Generated_Source\PSoC4/CyLFClk.c ****             if(0u != (counterMask & CY_SYS_WDT_COUNTER2_MASK))
1249:Generated_Source\PSoC4/CyLFClk.c ****             {
1250:Generated_Source\PSoC4/CyLFClk.c ****                 while (0u != CySysWdtGetEnabledStatus(CY_SYS_WDT_COUNTER2))
1251:Generated_Source\PSoC4/CyLFClk.c ****                 {
1252:Generated_Source\PSoC4/CyLFClk.c ****                     /* Wait for changes to come into effect */
1253:Generated_Source\PSoC4/CyLFClk.c ****                 }
1254:Generated_Source\PSoC4/CyLFClk.c ****             }
1255:Generated_Source\PSoC4/CyLFClk.c ****         }
1256:Generated_Source\PSoC4/CyLFClk.c ****     }
1257:Generated_Source\PSoC4/CyLFClk.c **** 
1258:Generated_Source\PSoC4/CyLFClk.c **** 
1259:Generated_Source\PSoC4/CyLFClk.c ****     /*******************************************************************************
1260:Generated_Source\PSoC4/CyLFClk.c ****     * Function Name: CySysWdtSetCascade
1261:Generated_Source\PSoC4/CyLFClk.c ****     ****************************************************************************//**
1262:Generated_Source\PSoC4/CyLFClk.c ****     * \brief
1263:Generated_Source\PSoC4/CyLFClk.c ****     * Writes the two WDT cascade values based on the combination of mask values
1264:Generated_Source\PSoC4/CyLFClk.c ****     * specified.
1265:Generated_Source\PSoC4/CyLFClk.c ****     *
1266:Generated_Source\PSoC4/CyLFClk.c ****     * \param cascadeMask The mask value used to set or clear the cascade values:
1267:Generated_Source\PSoC4/CyLFClk.c ****     * CY_SYS_WDT_CASCADE_NONE - Neither <br>
1268:Generated_Source\PSoC4/CyLFClk.c ****     * CY_SYS_WDT_CASCADE_01 - Cascade 01 <br>
1269:Generated_Source\PSoC4/CyLFClk.c ****     * CY_SYS_WDT_CASCADE_12 - Cascade 12
1270:Generated_Source\PSoC4/CyLFClk.c ****     *
1271:Generated_Source\PSoC4/CyLFClk.c ****     * If only one cascade mask is specified, the second cascade is disabled.
1272:Generated_Source\PSoC4/CyLFClk.c ****     * To set both cascade modes, two defines should be ORed:
ARM GAS  C:\Users\user\AppData\Local\Temp\ccsPNKJ0.s 			page 58


1273:Generated_Source\PSoC4/CyLFClk.c ****     * (CY_SYS_TIMER_CASCADE_01 | CY_SYS_TIMER_CASCADE_12).
1274:Generated_Source\PSoC4/CyLFClk.c ****     * \note If CySysWdtSetCascade() was called with ORed defines it is necessary 
1275:Generated_Source\PSoC4/CyLFClk.c ****     * to call CySysWdtSetClearOnMatch(1,1). It is needed to make sure that 
1276:Generated_Source\PSoC4/CyLFClk.c ****     * Counter 2 will be updated in the expected way.
1277:Generated_Source\PSoC4/CyLFClk.c ****     *
1278:Generated_Source\PSoC4/CyLFClk.c ****     * WDT counters that are part of the specified cascade should be disabled.
1279:Generated_Source\PSoC4/CyLFClk.c ****     * Otherwise this function call has no effect. If the specified
1280:Generated_Source\PSoC4/CyLFClk.c ****     * counter is enabled, call CySysWdtDisable() function with the corresponding
1281:Generated_Source\PSoC4/CyLFClk.c ****     * parameter to disable the specified counter and wait for it to stop. This may
1282:Generated_Source\PSoC4/CyLFClk.c ****     * take up to 3 LFCLK cycles.
1283:Generated_Source\PSoC4/CyLFClk.c ****     *
1284:Generated_Source\PSoC4/CyLFClk.c ****     *******************************************************************************/
1285:Generated_Source\PSoC4/CyLFClk.c ****     void CySysWdtSetCascade(uint32 cascadeMask)
1286:Generated_Source\PSoC4/CyLFClk.c ****     {
1287:Generated_Source\PSoC4/CyLFClk.c ****         uint32 configRegValue;
1288:Generated_Source\PSoC4/CyLFClk.c ****         uint32 countersEnableStatus;
1289:Generated_Source\PSoC4/CyLFClk.c **** 
1290:Generated_Source\PSoC4/CyLFClk.c ****         countersEnableStatus = CySysWdtGetEnabledStatus(CY_SYS_WDT_COUNTER0) |
1291:Generated_Source\PSoC4/CyLFClk.c ****                             CySysWdtGetEnabledStatus(CY_SYS_WDT_COUNTER1) |
1292:Generated_Source\PSoC4/CyLFClk.c ****                             CySysWdtGetEnabledStatus(CY_SYS_WDT_COUNTER2);
1293:Generated_Source\PSoC4/CyLFClk.c **** 
1294:Generated_Source\PSoC4/CyLFClk.c ****         if (0u == countersEnableStatus)
1295:Generated_Source\PSoC4/CyLFClk.c ****         {
1296:Generated_Source\PSoC4/CyLFClk.c ****             configRegValue = CY_SYS_WDT_CONFIG_REG;
1297:Generated_Source\PSoC4/CyLFClk.c ****             configRegValue &= ((uint32)(~(CY_SYS_WDT_CASCADE_01|CY_SYS_WDT_CASCADE_12)));
1298:Generated_Source\PSoC4/CyLFClk.c ****             configRegValue |= cascadeMask;
1299:Generated_Source\PSoC4/CyLFClk.c ****             CY_SYS_WDT_CONFIG_REG = configRegValue;
1300:Generated_Source\PSoC4/CyLFClk.c ****         }
1301:Generated_Source\PSoC4/CyLFClk.c ****     }
1302:Generated_Source\PSoC4/CyLFClk.c **** 
1303:Generated_Source\PSoC4/CyLFClk.c **** 
1304:Generated_Source\PSoC4/CyLFClk.c ****     /*******************************************************************************
1305:Generated_Source\PSoC4/CyLFClk.c ****     * Function Name: CySysWdtGetCascade
1306:Generated_Source\PSoC4/CyLFClk.c ****     ****************************************************************************//**
1307:Generated_Source\PSoC4/CyLFClk.c ****     *
1308:Generated_Source\PSoC4/CyLFClk.c ****     * \brief Reads the two WDT cascade values returning a mask of the bits set.
1309:Generated_Source\PSoC4/CyLFClk.c ****     *
1310:Generated_Source\PSoC4/CyLFClk.c ****     * \return The mask of the cascade values set.
1311:Generated_Source\PSoC4/CyLFClk.c ****     * \return CY_SYS_WDT_CASCADE_NONE - Neither
1312:Generated_Source\PSoC4/CyLFClk.c ****     * \return CY_SYS_WDT_CASCADE_01 - Cascade 01
1313:Generated_Source\PSoC4/CyLFClk.c ****     * \return CY_SYS_WDT_CASCADE_12 - Cascade 12
1314:Generated_Source\PSoC4/CyLFClk.c ****     *
1315:Generated_Source\PSoC4/CyLFClk.c ****     *******************************************************************************/
1316:Generated_Source\PSoC4/CyLFClk.c ****     uint32 CySysWdtGetCascade(void)
1317:Generated_Source\PSoC4/CyLFClk.c ****     {
1318:Generated_Source\PSoC4/CyLFClk.c ****         return (CY_SYS_WDT_CONFIG_REG & (CY_SYS_WDT_CASCADE_01 | CY_SYS_WDT_CASCADE_12));
1319:Generated_Source\PSoC4/CyLFClk.c ****     }
1320:Generated_Source\PSoC4/CyLFClk.c **** 
1321:Generated_Source\PSoC4/CyLFClk.c **** 
1322:Generated_Source\PSoC4/CyLFClk.c ****     /*******************************************************************************
1323:Generated_Source\PSoC4/CyLFClk.c ****     * Function Name: CySysWdtSetMatch
1324:Generated_Source\PSoC4/CyLFClk.c ****     ****************************************************************************//**
1325:Generated_Source\PSoC4/CyLFClk.c ****     *
1326:Generated_Source\PSoC4/CyLFClk.c ****     * \brief Configures the WDT counter match comparison value.
1327:Generated_Source\PSoC4/CyLFClk.c ****     *
1328:Generated_Source\PSoC4/CyLFClk.c ****     * \param counterNum
1329:Generated_Source\PSoC4/CyLFClk.c ****     * Valid range [0-1]. The number of the WDT counter. The match values are not
ARM GAS  C:\Users\user\AppData\Local\Temp\ccsPNKJ0.s 			page 59


1330:Generated_Source\PSoC4/CyLFClk.c ****     * supported by counter 2.
1331:Generated_Source\PSoC4/CyLFClk.c ****     *
1332:Generated_Source\PSoC4/CyLFClk.c ****     * \param match
1333:Generated_Source\PSoC4/CyLFClk.c ****     * Valid range [0-65535]. The value to be used to match against the counter.
1334:Generated_Source\PSoC4/CyLFClk.c ****     *
1335:Generated_Source\PSoC4/CyLFClk.c ****     *******************************************************************************/
1336:Generated_Source\PSoC4/CyLFClk.c ****     void CySysWdtSetMatch(uint32 counterNum, uint32 match)
1337:Generated_Source\PSoC4/CyLFClk.c ****     {
1338:Generated_Source\PSoC4/CyLFClk.c ****         uint32 regValue;
1339:Generated_Source\PSoC4/CyLFClk.c **** 
1340:Generated_Source\PSoC4/CyLFClk.c ****         CYASSERT((counterNum == CY_SYS_WDT_COUNTER0) ||
1341:Generated_Source\PSoC4/CyLFClk.c ****                  (counterNum == CY_SYS_WDT_COUNTER1));
1342:Generated_Source\PSoC4/CyLFClk.c **** 
1343:Generated_Source\PSoC4/CyLFClk.c ****         /* Wait for previous changes to come into effect */
1344:Generated_Source\PSoC4/CyLFClk.c ****         CyDelayUs(CY_SYS_WDT_3LFCLK_DELAY_US);
1345:Generated_Source\PSoC4/CyLFClk.c **** 
1346:Generated_Source\PSoC4/CyLFClk.c ****         regValue = CY_SYS_WDT_MATCH_REG;
1347:Generated_Source\PSoC4/CyLFClk.c ****         regValue &= (uint32)~((uint32)(CY_SYS_WDT_LOWER_16BITS_MASK << (counterNum * CY_SYS_WDT_CNT
1348:Generated_Source\PSoC4/CyLFClk.c ****         CY_SYS_WDT_MATCH_REG = (regValue | (match << (counterNum * CY_SYS_WDT_CNT_MATCH_SHIFT)));
1349:Generated_Source\PSoC4/CyLFClk.c **** 
1350:Generated_Source\PSoC4/CyLFClk.c ****         /* Make sure match synchronization has started */
1351:Generated_Source\PSoC4/CyLFClk.c ****         CyDelayUs(CY_SYS_WDT_1LFCLK_DELAY_US);
1352:Generated_Source\PSoC4/CyLFClk.c ****     }
1353:Generated_Source\PSoC4/CyLFClk.c **** 
1354:Generated_Source\PSoC4/CyLFClk.c **** 
1355:Generated_Source\PSoC4/CyLFClk.c ****     /*******************************************************************************
1356:Generated_Source\PSoC4/CyLFClk.c ****     * Function Name: CySysWdtSetToggleBit
1357:Generated_Source\PSoC4/CyLFClk.c ****     ****************************************************************************//**
1358:Generated_Source\PSoC4/CyLFClk.c ****     * \brief
1359:Generated_Source\PSoC4/CyLFClk.c ****     * Configures which bit in WDT counter 2 to monitor for a toggle.
1360:Generated_Source\PSoC4/CyLFClk.c ****     *
1361:Generated_Source\PSoC4/CyLFClk.c ****     * When that bit toggles, an interrupt is generated if the mode for counter 2 has
1362:Generated_Source\PSoC4/CyLFClk.c ****     * enabled interrupts.
1363:Generated_Source\PSoC4/CyLFClk.c ****     *
1364:Generated_Source\PSoC4/CyLFClk.c ****     * \param bits Valid range [0-31].  Counter 2 bit to monitor for a toggle.
1365:Generated_Source\PSoC4/CyLFClk.c ****     *
1366:Generated_Source\PSoC4/CyLFClk.c ****     * \details
1367:Generated_Source\PSoC4/CyLFClk.c ****     * WDT Counter 2 should be disabled. Otherwise this function call has no
1368:Generated_Source\PSoC4/CyLFClk.c ****     * effect.
1369:Generated_Source\PSoC4/CyLFClk.c ****     *
1370:Generated_Source\PSoC4/CyLFClk.c ****     * If the specified counter is enabled, call the CySysWdtDisable() function with
1371:Generated_Source\PSoC4/CyLFClk.c ****     * the corresponding parameter to disable the specified counter and wait for it to
1372:Generated_Source\PSoC4/CyLFClk.c ****     * stop. This may take up to 3 LFCLK cycles.
1373:Generated_Source\PSoC4/CyLFClk.c ****     *
1374:Generated_Source\PSoC4/CyLFClk.c ****     *******************************************************************************/
1375:Generated_Source\PSoC4/CyLFClk.c ****     void CySysWdtSetToggleBit(uint32 bits)
1376:Generated_Source\PSoC4/CyLFClk.c ****     {
1377:Generated_Source\PSoC4/CyLFClk.c ****         uint32 configRegValue;
1378:Generated_Source\PSoC4/CyLFClk.c **** 
1379:Generated_Source\PSoC4/CyLFClk.c ****         if (0u == CySysWdtGetEnabledStatus(CY_SYS_WDT_COUNTER2))
1380:Generated_Source\PSoC4/CyLFClk.c ****         {
1381:Generated_Source\PSoC4/CyLFClk.c ****             configRegValue = CY_SYS_WDT_CONFIG_REG;
1382:Generated_Source\PSoC4/CyLFClk.c ****             configRegValue &= (uint32)(~((uint32)(CY_SYS_WDT_CONFIG_BITS2_MASK << CY_SYS_WDT_CONFIG
1383:Generated_Source\PSoC4/CyLFClk.c ****             configRegValue |= ((bits & CY_SYS_WDT_CONFIG_BITS2_MASK) << CY_SYS_WDT_CONFIG_BITS2_POS
1384:Generated_Source\PSoC4/CyLFClk.c ****             CY_SYS_WDT_CONFIG_REG = configRegValue;
1385:Generated_Source\PSoC4/CyLFClk.c ****         }
1386:Generated_Source\PSoC4/CyLFClk.c ****     }
ARM GAS  C:\Users\user\AppData\Local\Temp\ccsPNKJ0.s 			page 60


1387:Generated_Source\PSoC4/CyLFClk.c **** 
1388:Generated_Source\PSoC4/CyLFClk.c **** 
1389:Generated_Source\PSoC4/CyLFClk.c ****     /*******************************************************************************
1390:Generated_Source\PSoC4/CyLFClk.c ****     * Function Name: CySysWdtGetToggleBit
1391:Generated_Source\PSoC4/CyLFClk.c ****     ****************************************************************************//**
1392:Generated_Source\PSoC4/CyLFClk.c ****     * \brief
1393:Generated_Source\PSoC4/CyLFClk.c ****     * Reads which bit in WDT counter 2 is monitored for a toggle.
1394:Generated_Source\PSoC4/CyLFClk.c ****     *
1395:Generated_Source\PSoC4/CyLFClk.c ****     * \return The bit that is monitored (range of 0 to 31)
1396:Generated_Source\PSoC4/CyLFClk.c ****     *
1397:Generated_Source\PSoC4/CyLFClk.c ****     *******************************************************************************/
1398:Generated_Source\PSoC4/CyLFClk.c ****     uint32 CySysWdtGetToggleBit(void)
1399:Generated_Source\PSoC4/CyLFClk.c ****     {
1400:Generated_Source\PSoC4/CyLFClk.c ****         return ((CY_SYS_WDT_CONFIG_REG >> CY_SYS_WDT_CONFIG_BITS2_POS) & CY_SYS_WDT_CONFIG_BITS2_MA
1401:Generated_Source\PSoC4/CyLFClk.c ****     }
1402:Generated_Source\PSoC4/CyLFClk.c **** 
1403:Generated_Source\PSoC4/CyLFClk.c **** 
1404:Generated_Source\PSoC4/CyLFClk.c ****     /*******************************************************************************
1405:Generated_Source\PSoC4/CyLFClk.c ****     * Function Name: CySysWdtGetMatch
1406:Generated_Source\PSoC4/CyLFClk.c ****     ****************************************************************************//**
1407:Generated_Source\PSoC4/CyLFClk.c ****     *
1408:Generated_Source\PSoC4/CyLFClk.c ****     * \brief Reads the WDT counter match comparison value.
1409:Generated_Source\PSoC4/CyLFClk.c ****     *
1410:Generated_Source\PSoC4/CyLFClk.c ****     * \param counterNum Valid range [0-1].  The number of the WDT counter. The match
1411:Generated_Source\PSoC4/CyLFClk.c ****     * values are not supported by counter 2.
1412:Generated_Source\PSoC4/CyLFClk.c ****     *
1413:Generated_Source\PSoC4/CyLFClk.c ****     * \return A 16-bit match value.
1414:Generated_Source\PSoC4/CyLFClk.c ****     *
1415:Generated_Source\PSoC4/CyLFClk.c ****     *******************************************************************************/
1416:Generated_Source\PSoC4/CyLFClk.c ****     uint32 CySysWdtGetMatch(uint32 counterNum)
1417:Generated_Source\PSoC4/CyLFClk.c ****     {
1418:Generated_Source\PSoC4/CyLFClk.c ****         CYASSERT((counterNum == CY_SYS_WDT_COUNTER0) ||
1419:Generated_Source\PSoC4/CyLFClk.c ****                  (counterNum == CY_SYS_WDT_COUNTER1));
1420:Generated_Source\PSoC4/CyLFClk.c **** 
1421:Generated_Source\PSoC4/CyLFClk.c ****         return ((uint32)(CY_SYS_WDT_MATCH_REG >> 
1422:Generated_Source\PSoC4/CyLFClk.c ****                                             (counterNum * CY_SYS_WDT_CNT_MATCH_SHIFT)) & CY_SYS_WDT
1423:Generated_Source\PSoC4/CyLFClk.c ****     }
1424:Generated_Source\PSoC4/CyLFClk.c **** 
1425:Generated_Source\PSoC4/CyLFClk.c **** 
1426:Generated_Source\PSoC4/CyLFClk.c ****     /*******************************************************************************
1427:Generated_Source\PSoC4/CyLFClk.c ****     * Function Name: CySysWdtGetCount
1428:Generated_Source\PSoC4/CyLFClk.c ****     ****************************************************************************//**
1429:Generated_Source\PSoC4/CyLFClk.c ****     *
1430:Generated_Source\PSoC4/CyLFClk.c ****     * \brief Reads the current WDT counter value.
1431:Generated_Source\PSoC4/CyLFClk.c ****     *
1432:Generated_Source\PSoC4/CyLFClk.c ****     * \param counterNum: Valid range [0-2]. The number of the WDT counter.
1433:Generated_Source\PSoC4/CyLFClk.c ****     *
1434:Generated_Source\PSoC4/CyLFClk.c ****     * \return A live counter value.  Counter 0 and Counter 1 are 16 bit counters 
1435:Generated_Source\PSoC4/CyLFClk.c ****     * and counter 2 is a 32 bit counter.
1436:Generated_Source\PSoC4/CyLFClk.c ****     *
1437:Generated_Source\PSoC4/CyLFClk.c ****     *******************************************************************************/
1438:Generated_Source\PSoC4/CyLFClk.c ****     uint32 CySysWdtGetCount(uint32 counterNum)
1439:Generated_Source\PSoC4/CyLFClk.c ****     {
1440:Generated_Source\PSoC4/CyLFClk.c ****         uint32 regValue = 0u;
1441:Generated_Source\PSoC4/CyLFClk.c **** 
1442:Generated_Source\PSoC4/CyLFClk.c ****         switch(counterNum)
1443:Generated_Source\PSoC4/CyLFClk.c ****         {
ARM GAS  C:\Users\user\AppData\Local\Temp\ccsPNKJ0.s 			page 61


1444:Generated_Source\PSoC4/CyLFClk.c ****             /* WDT Counter 0 */
1445:Generated_Source\PSoC4/CyLFClk.c ****             case 0u:
1446:Generated_Source\PSoC4/CyLFClk.c ****                 regValue = CY_SYS_WDT_CTRLOW_REG & CY_SYS_WDT_LOWER_16BITS_MASK;
1447:Generated_Source\PSoC4/CyLFClk.c ****             break;
1448:Generated_Source\PSoC4/CyLFClk.c **** 
1449:Generated_Source\PSoC4/CyLFClk.c ****             /* WDT Counter 1 */
1450:Generated_Source\PSoC4/CyLFClk.c ****             case 1u:
1451:Generated_Source\PSoC4/CyLFClk.c ****                 regValue = (CY_SYS_WDT_CTRLOW_REG >> CY_SYS_WDT_CNT_MATCH_SHIFT) & CY_SYS_WDT_LOWER
1452:Generated_Source\PSoC4/CyLFClk.c ****             break;
1453:Generated_Source\PSoC4/CyLFClk.c **** 
1454:Generated_Source\PSoC4/CyLFClk.c ****             /* WDT Counter 2 */
1455:Generated_Source\PSoC4/CyLFClk.c ****             case 2u:
1456:Generated_Source\PSoC4/CyLFClk.c ****                 regValue = CY_SYS_WDT_CTRHIGH_REG;
1457:Generated_Source\PSoC4/CyLFClk.c ****             break;
1458:Generated_Source\PSoC4/CyLFClk.c **** 
1459:Generated_Source\PSoC4/CyLFClk.c ****             default:
1460:Generated_Source\PSoC4/CyLFClk.c ****                 CYASSERT(0u != 0u);
1461:Generated_Source\PSoC4/CyLFClk.c ****             break;
1462:Generated_Source\PSoC4/CyLFClk.c ****         }
1463:Generated_Source\PSoC4/CyLFClk.c **** 
1464:Generated_Source\PSoC4/CyLFClk.c ****         return (regValue);
1465:Generated_Source\PSoC4/CyLFClk.c ****     }
1466:Generated_Source\PSoC4/CyLFClk.c **** 
1467:Generated_Source\PSoC4/CyLFClk.c **** 
1468:Generated_Source\PSoC4/CyLFClk.c ****     /*******************************************************************************
1469:Generated_Source\PSoC4/CyLFClk.c ****     * Function Name: CySysWdtGetInterruptSource
1470:Generated_Source\PSoC4/CyLFClk.c ****     ****************************************************************************//**
1471:Generated_Source\PSoC4/CyLFClk.c ****     * \brief
1472:Generated_Source\PSoC4/CyLFClk.c ****     * Reads a mask containing all the WDT counters interrupts that are currently
1473:Generated_Source\PSoC4/CyLFClk.c ****     * set by the hardware, if a corresponding mode is selected.
1474:Generated_Source\PSoC4/CyLFClk.c ****     *
1475:Generated_Source\PSoC4/CyLFClk.c ****     * \return The mask of interrupts set
1476:Generated_Source\PSoC4/CyLFClk.c ****     * \return CY_SYS_WDT_COUNTER0_INT - Counter 0
1477:Generated_Source\PSoC4/CyLFClk.c ****     * \return CY_SYS_WDT_COUNTER1_INT - Counter 1
1478:Generated_Source\PSoC4/CyLFClk.c ****     * \return CY_SYS_WDT_COUNTER2_INT - Counter 2
1479:Generated_Source\PSoC4/CyLFClk.c ****     *
1480:Generated_Source\PSoC4/CyLFClk.c ****     *******************************************************************************/
1481:Generated_Source\PSoC4/CyLFClk.c ****     uint32 CySysWdtGetInterruptSource(void)
1482:Generated_Source\PSoC4/CyLFClk.c ****     {
1483:Generated_Source\PSoC4/CyLFClk.c ****         return (CY_SYS_WDT_CONTROL_REG & (CY_SYS_WDT_COUNTER0_INT | CY_SYS_WDT_COUNTER1_INT | CY_SY
1484:Generated_Source\PSoC4/CyLFClk.c ****     }
1485:Generated_Source\PSoC4/CyLFClk.c **** 
1486:Generated_Source\PSoC4/CyLFClk.c **** 
1487:Generated_Source\PSoC4/CyLFClk.c ****     /*******************************************************************************
1488:Generated_Source\PSoC4/CyLFClk.c ****     * Function Name: CySysWdtClearInterrupt
1489:Generated_Source\PSoC4/CyLFClk.c ****     ****************************************************************************//**
1490:Generated_Source\PSoC4/CyLFClk.c ****     * \brief
1491:Generated_Source\PSoC4/CyLFClk.c ****     * Clears all the WDT counter interrupts set in the mask.
1492:Generated_Source\PSoC4/CyLFClk.c ****     *
1493:Generated_Source\PSoC4/CyLFClk.c ****     * Calling this function also prevents from Reset when the counter mode is set 
1494:Generated_Source\PSoC4/CyLFClk.c ****     * to generate 3 interrupts and then the device resets.
1495:Generated_Source\PSoC4/CyLFClk.c ****     *
1496:Generated_Source\PSoC4/CyLFClk.c ****     * All the WDT interrupts are to be cleared by the firmware, otherwise
1497:Generated_Source\PSoC4/CyLFClk.c ****     * interrupts are generated continuously.
1498:Generated_Source\PSoC4/CyLFClk.c ****     *
1499:Generated_Source\PSoC4/CyLFClk.c ****     * \param counterMask
1500:Generated_Source\PSoC4/CyLFClk.c ****     * CY_SYS_WDT_COUNTER0_INT - Clears counter 0 interrupts <br>
ARM GAS  C:\Users\user\AppData\Local\Temp\ccsPNKJ0.s 			page 62


1501:Generated_Source\PSoC4/CyLFClk.c ****     * CY_SYS_WDT_COUNTER1_INT - Clears counter 1 interrupts <br>
1502:Generated_Source\PSoC4/CyLFClk.c ****     * CY_SYS_WDT_COUNTER2_INT - Clears counter 2 interrupts
1503:Generated_Source\PSoC4/CyLFClk.c ****     *
1504:Generated_Source\PSoC4/CyLFClk.c ****     * \details
1505:Generated_Source\PSoC4/CyLFClk.c ****     * This function temporary removes the watchdog lock, if it was set, and
1506:Generated_Source\PSoC4/CyLFClk.c ****     * restores the lock state after cleaning the WDT interrupts that are set in
1507:Generated_Source\PSoC4/CyLFClk.c ****     * a mask.
1508:Generated_Source\PSoC4/CyLFClk.c ****     *
1509:Generated_Source\PSoC4/CyLFClk.c ****     *******************************************************************************/
1510:Generated_Source\PSoC4/CyLFClk.c ****     void CySysWdtClearInterrupt(uint32 counterMask)
1511:Generated_Source\PSoC4/CyLFClk.c ****     {
1512:Generated_Source\PSoC4/CyLFClk.c ****         uint8 interruptState;
1513:Generated_Source\PSoC4/CyLFClk.c ****         uint32 wdtLockState;
1514:Generated_Source\PSoC4/CyLFClk.c **** 
1515:Generated_Source\PSoC4/CyLFClk.c ****         interruptState = CyEnterCriticalSection();
1516:Generated_Source\PSoC4/CyLFClk.c **** 
1517:Generated_Source\PSoC4/CyLFClk.c ****         if (0u != CySysWdtLocked())
1518:Generated_Source\PSoC4/CyLFClk.c ****         {
1519:Generated_Source\PSoC4/CyLFClk.c ****             wdtLockState = 1u;
1520:Generated_Source\PSoC4/CyLFClk.c ****             CySysWdtUnlock();
1521:Generated_Source\PSoC4/CyLFClk.c ****         }
1522:Generated_Source\PSoC4/CyLFClk.c ****         else
1523:Generated_Source\PSoC4/CyLFClk.c ****         {
1524:Generated_Source\PSoC4/CyLFClk.c ****             wdtLockState = 0u;
1525:Generated_Source\PSoC4/CyLFClk.c ****         }
1526:Generated_Source\PSoC4/CyLFClk.c **** 
1527:Generated_Source\PSoC4/CyLFClk.c ****         /* Set new WDT control register value */
1528:Generated_Source\PSoC4/CyLFClk.c ****         counterMask &= (CY_SYS_WDT_COUNTER0_INT |
1529:Generated_Source\PSoC4/CyLFClk.c ****                         CY_SYS_WDT_COUNTER1_INT |
1530:Generated_Source\PSoC4/CyLFClk.c ****                         CY_SYS_WDT_COUNTER2_INT);
1531:Generated_Source\PSoC4/CyLFClk.c **** 
1532:Generated_Source\PSoC4/CyLFClk.c ****         CY_SYS_WDT_CONTROL_REG = counterMask | (CY_SYS_WDT_CONTROL_REG & ~(CY_SYS_WDT_COUNTER0_INT 
1533:Generated_Source\PSoC4/CyLFClk.c ****                                                                            CY_SYS_WDT_COUNTER1_INT 
1534:Generated_Source\PSoC4/CyLFClk.c ****                                                                            CY_SYS_WDT_COUNTER2_INT)
1535:Generated_Source\PSoC4/CyLFClk.c **** 
1536:Generated_Source\PSoC4/CyLFClk.c ****         /* Read the CY_SYS_WDT_CONTROL_REG to clear the interrupt request.
1537:Generated_Source\PSoC4/CyLFClk.c ****          * Cypress ID #207093, #206231
1538:Generated_Source\PSoC4/CyLFClk.c ****         */
1539:Generated_Source\PSoC4/CyLFClk.c ****         (void)CY_SYS_WDT_CONTROL_REG;
1540:Generated_Source\PSoC4/CyLFClk.c **** 
1541:Generated_Source\PSoC4/CyLFClk.c ****         if (1u == wdtLockState)
1542:Generated_Source\PSoC4/CyLFClk.c ****         {
1543:Generated_Source\PSoC4/CyLFClk.c ****             CySysWdtLock();
1544:Generated_Source\PSoC4/CyLFClk.c ****         }
1545:Generated_Source\PSoC4/CyLFClk.c **** 
1546:Generated_Source\PSoC4/CyLFClk.c ****         CyExitCriticalSection(interruptState);
1547:Generated_Source\PSoC4/CyLFClk.c ****     }
1548:Generated_Source\PSoC4/CyLFClk.c **** 
1549:Generated_Source\PSoC4/CyLFClk.c **** 
1550:Generated_Source\PSoC4/CyLFClk.c ****     /*******************************************************************************
1551:Generated_Source\PSoC4/CyLFClk.c ****     * Function Name: CySysWdtResetCounters
1552:Generated_Source\PSoC4/CyLFClk.c ****     ****************************************************************************//**
1553:Generated_Source\PSoC4/CyLFClk.c ****     * \brief
1554:Generated_Source\PSoC4/CyLFClk.c ****     * Resets all the WDT counters set in the mask.
1555:Generated_Source\PSoC4/CyLFClk.c ****     *
1556:Generated_Source\PSoC4/CyLFClk.c ****     * \param countersMask
1557:Generated_Source\PSoC4/CyLFClk.c ****     * CY_SYS_WDT_COUNTER0_RESET - Reset counter 0 <br>
ARM GAS  C:\Users\user\AppData\Local\Temp\ccsPNKJ0.s 			page 63


1558:Generated_Source\PSoC4/CyLFClk.c ****     * CY_SYS_WDT_COUNTER1_RESET - Reset counter 1 <br>
1559:Generated_Source\PSoC4/CyLFClk.c ****     * CY_SYS_WDT_COUNTER2_RESET - Reset counter 2
1560:Generated_Source\PSoC4/CyLFClk.c ****     *
1561:Generated_Source\PSoC4/CyLFClk.c ****     * \details
1562:Generated_Source\PSoC4/CyLFClk.c ****     * This function does not reset counter values if the Watchdog is locked.
1563:Generated_Source\PSoC4/CyLFClk.c ****     * This function waits while corresponding counters will be reset. This may
1564:Generated_Source\PSoC4/CyLFClk.c ****     * take up to 3 LFCLK cycles.
1565:Generated_Source\PSoC4/CyLFClk.c ****     * The LFCLK source must be enabled. Otherwise, the function will never exit.
1566:Generated_Source\PSoC4/CyLFClk.c ****     *
1567:Generated_Source\PSoC4/CyLFClk.c ****     *******************************************************************************/
1568:Generated_Source\PSoC4/CyLFClk.c ****     void CySysWdtResetCounters(uint32 countersMask)
1569:Generated_Source\PSoC4/CyLFClk.c ****     {
1570:Generated_Source\PSoC4/CyLFClk.c ****         /* Set new WDT reset value */
1571:Generated_Source\PSoC4/CyLFClk.c ****         CY_SYS_WDT_CONTROL_REG |= (countersMask & CY_SYS_WDT_COUNTERS_RESET);
1572:Generated_Source\PSoC4/CyLFClk.c **** 
1573:Generated_Source\PSoC4/CyLFClk.c ****         while (0uL != (CY_SYS_WDT_CONTROL_REG & CY_SYS_WDT_COUNTERS_RESET))
1574:Generated_Source\PSoC4/CyLFClk.c ****         {
1575:Generated_Source\PSoC4/CyLFClk.c ****             /* Wait for reset to come into effect */
1576:Generated_Source\PSoC4/CyLFClk.c ****         }
1577:Generated_Source\PSoC4/CyLFClk.c ****     }
1578:Generated_Source\PSoC4/CyLFClk.c **** 
1579:Generated_Source\PSoC4/CyLFClk.c **** 
1580:Generated_Source\PSoC4/CyLFClk.c ****     /*******************************************************************************
1581:Generated_Source\PSoC4/CyLFClk.c ****     * Function Name: CySysWdtSetInterruptCallback
1582:Generated_Source\PSoC4/CyLFClk.c ****     ****************************************************************************//**
1583:Generated_Source\PSoC4/CyLFClk.c ****     * \brief
1584:Generated_Source\PSoC4/CyLFClk.c ****     * Sets the ISR callback function for the particular WDT counter.
1585:Generated_Source\PSoC4/CyLFClk.c ****     * These functions are called on the WDT interrupt.
1586:Generated_Source\PSoC4/CyLFClk.c ****     *
1587:Generated_Source\PSoC4/CyLFClk.c ****     * \param counterNum The number of the WDT counter.
1588:Generated_Source\PSoC4/CyLFClk.c ****     * \param function The pointer to the callback function.
1589:Generated_Source\PSoC4/CyLFClk.c ****     *
1590:Generated_Source\PSoC4/CyLFClk.c ****     * \return The pointer to the previous callback function.
1591:Generated_Source\PSoC4/CyLFClk.c ****     * \return NULL is returned if the specified address is not set.
1592:Generated_Source\PSoC4/CyLFClk.c ****     *
1593:Generated_Source\PSoC4/CyLFClk.c ****     *******************************************************************************/
1594:Generated_Source\PSoC4/CyLFClk.c ****     cyWdtCallback CySysWdtSetInterruptCallback(uint32 counterNum, cyWdtCallback function)
1595:Generated_Source\PSoC4/CyLFClk.c ****     {
1596:Generated_Source\PSoC4/CyLFClk.c ****         cyWdtCallback prevCallback = (void *)0;
1597:Generated_Source\PSoC4/CyLFClk.c **** 
1598:Generated_Source\PSoC4/CyLFClk.c ****         if(counterNum < CY_WDT_NUM_OF_WDT)
1599:Generated_Source\PSoC4/CyLFClk.c ****         {
1600:Generated_Source\PSoC4/CyLFClk.c ****             prevCallback = cySysWdtCallback[counterNum];
1601:Generated_Source\PSoC4/CyLFClk.c ****             cySysWdtCallback[counterNum] = function;
1602:Generated_Source\PSoC4/CyLFClk.c ****         }
1603:Generated_Source\PSoC4/CyLFClk.c ****         else
1604:Generated_Source\PSoC4/CyLFClk.c ****         {
1605:Generated_Source\PSoC4/CyLFClk.c ****             CYASSERT(0u != 0u);
1606:Generated_Source\PSoC4/CyLFClk.c ****         }
1607:Generated_Source\PSoC4/CyLFClk.c **** 
1608:Generated_Source\PSoC4/CyLFClk.c ****         return((cyWdtCallback)prevCallback);
1609:Generated_Source\PSoC4/CyLFClk.c ****     }
1610:Generated_Source\PSoC4/CyLFClk.c **** 
1611:Generated_Source\PSoC4/CyLFClk.c **** 
1612:Generated_Source\PSoC4/CyLFClk.c ****     /*******************************************************************************
1613:Generated_Source\PSoC4/CyLFClk.c ****     * Function Name: CySysWdtGetInterruptCallback
1614:Generated_Source\PSoC4/CyLFClk.c ****     ****************************************************************************//**
ARM GAS  C:\Users\user\AppData\Local\Temp\ccsPNKJ0.s 			page 64


1615:Generated_Source\PSoC4/CyLFClk.c ****     * \brief
1616:Generated_Source\PSoC4/CyLFClk.c ****     * Gets the ISR callback function for the particular WDT counter.
1617:Generated_Source\PSoC4/CyLFClk.c ****     *
1618:Generated_Source\PSoC4/CyLFClk.c ****     * \param counterNum The number of the WDT counter.
1619:Generated_Source\PSoC4/CyLFClk.c ****     *
1620:Generated_Source\PSoC4/CyLFClk.c ****     * \return The pointer to the callback function registered for a particular WDT by
1621:Generated_Source\PSoC4/CyLFClk.c ****     * a particular address that are passed through arguments.
1622:Generated_Source\PSoC4/CyLFClk.c ****     *
1623:Generated_Source\PSoC4/CyLFClk.c ****     *******************************************************************************/
1624:Generated_Source\PSoC4/CyLFClk.c ****     cyWdtCallback CySysWdtGetInterruptCallback(uint32 counterNum)
1625:Generated_Source\PSoC4/CyLFClk.c ****     {
1626:Generated_Source\PSoC4/CyLFClk.c ****         cyWdtCallback retCallback = (void *)0;
1627:Generated_Source\PSoC4/CyLFClk.c **** 
1628:Generated_Source\PSoC4/CyLFClk.c ****         if(counterNum < CY_WDT_NUM_OF_WDT)
1629:Generated_Source\PSoC4/CyLFClk.c ****         {
1630:Generated_Source\PSoC4/CyLFClk.c ****             retCallback = (cyWdtCallback)cySysWdtCallback[counterNum];
1631:Generated_Source\PSoC4/CyLFClk.c ****         }
1632:Generated_Source\PSoC4/CyLFClk.c ****         else
1633:Generated_Source\PSoC4/CyLFClk.c ****         {
1634:Generated_Source\PSoC4/CyLFClk.c ****             CYASSERT(0u != 0u);
1635:Generated_Source\PSoC4/CyLFClk.c ****         }
1636:Generated_Source\PSoC4/CyLFClk.c **** 
1637:Generated_Source\PSoC4/CyLFClk.c ****         return(retCallback);
1638:Generated_Source\PSoC4/CyLFClk.c ****     }
1639:Generated_Source\PSoC4/CyLFClk.c **** 
1640:Generated_Source\PSoC4/CyLFClk.c **** 
1641:Generated_Source\PSoC4/CyLFClk.c ****     /*******************************************************************************
1642:Generated_Source\PSoC4/CyLFClk.c ****     * Function Name: CySysWdtEnableCounterIsr
1643:Generated_Source\PSoC4/CyLFClk.c ****     ****************************************************************************//**
1644:Generated_Source\PSoC4/CyLFClk.c ****     * \brief
1645:Generated_Source\PSoC4/CyLFClk.c ****     * Enables the ISR callback servicing for the particular WDT counter
1646:Generated_Source\PSoC4/CyLFClk.c ****     *
1647:Generated_Source\PSoC4/CyLFClk.c ****     * \param counterNum Valid range [0-2]. The number of the WDT counter.
1648:Generated_Source\PSoC4/CyLFClk.c ****     *
1649:Generated_Source\PSoC4/CyLFClk.c ****     * Value corresponds to appropriate WDT counter. For example value 1 
1650:Generated_Source\PSoC4/CyLFClk.c ****     * corresponds to second WDT counter.
1651:Generated_Source\PSoC4/CyLFClk.c ****     *
1652:Generated_Source\PSoC4/CyLFClk.c ****     *******************************************************************************/
1653:Generated_Source\PSoC4/CyLFClk.c ****     void CySysWdtEnableCounterIsr(uint32 counterNum)
1654:Generated_Source\PSoC4/CyLFClk.c ****     {
1655:Generated_Source\PSoC4/CyLFClk.c ****         if(counterNum <= CY_SYS_WDT_COUNTER2)
1656:Generated_Source\PSoC4/CyLFClk.c ****         {
1657:Generated_Source\PSoC4/CyLFClk.c ****             disableServicedIsr &= ~counterIntMaskTbl[counterNum];
1658:Generated_Source\PSoC4/CyLFClk.c ****             wdtIsrMask |= counterIntMaskTbl[counterNum];
1659:Generated_Source\PSoC4/CyLFClk.c ****         }
1660:Generated_Source\PSoC4/CyLFClk.c ****         else
1661:Generated_Source\PSoC4/CyLFClk.c ****         {
1662:Generated_Source\PSoC4/CyLFClk.c ****             CYASSERT(0u != 0u);
1663:Generated_Source\PSoC4/CyLFClk.c ****         }
1664:Generated_Source\PSoC4/CyLFClk.c ****     }
1665:Generated_Source\PSoC4/CyLFClk.c **** 
1666:Generated_Source\PSoC4/CyLFClk.c **** 
1667:Generated_Source\PSoC4/CyLFClk.c ****     /*******************************************************************************
1668:Generated_Source\PSoC4/CyLFClk.c ****     * Function Name: CySysWdtDisableCounterIsr
1669:Generated_Source\PSoC4/CyLFClk.c ****     ****************************************************************************//**
1670:Generated_Source\PSoC4/CyLFClk.c ****     * \brief
1671:Generated_Source\PSoC4/CyLFClk.c ****     * Disables the ISR callback servicing for the particular WDT counter
ARM GAS  C:\Users\user\AppData\Local\Temp\ccsPNKJ0.s 			page 65


1672:Generated_Source\PSoC4/CyLFClk.c ****     *
1673:Generated_Source\PSoC4/CyLFClk.c ****     * \param counterNum Valid range [0-2]. The number of the WDT counter.
1674:Generated_Source\PSoC4/CyLFClk.c ****     *
1675:Generated_Source\PSoC4/CyLFClk.c ****     *******************************************************************************/
1676:Generated_Source\PSoC4/CyLFClk.c ****     void CySysWdtDisableCounterIsr(uint32 counterNum)
1677:Generated_Source\PSoC4/CyLFClk.c ****     {
1678:Generated_Source\PSoC4/CyLFClk.c ****         if(counterNum <= CY_SYS_WDT_COUNTER2)
1679:Generated_Source\PSoC4/CyLFClk.c ****         {
1680:Generated_Source\PSoC4/CyLFClk.c ****             wdtIsrMask &= ~counterIntMaskTbl[counterNum];
1681:Generated_Source\PSoC4/CyLFClk.c ****         }
1682:Generated_Source\PSoC4/CyLFClk.c ****         else
1683:Generated_Source\PSoC4/CyLFClk.c ****         {
1684:Generated_Source\PSoC4/CyLFClk.c ****             CYASSERT(0u != 0u);
1685:Generated_Source\PSoC4/CyLFClk.c ****         }
1686:Generated_Source\PSoC4/CyLFClk.c ****     }
1687:Generated_Source\PSoC4/CyLFClk.c **** 
1688:Generated_Source\PSoC4/CyLFClk.c **** 
1689:Generated_Source\PSoC4/CyLFClk.c ****     /*******************************************************************************
1690:Generated_Source\PSoC4/CyLFClk.c ****     * Function Name: CySysWdtIsr
1691:Generated_Source\PSoC4/CyLFClk.c ****     ****************************************************************************//**
1692:Generated_Source\PSoC4/CyLFClk.c ****     * \brief
1693:Generated_Source\PSoC4/CyLFClk.c ****     * This is the handler of the WDT interrupt in CPU NVIC.
1694:Generated_Source\PSoC4/CyLFClk.c ****     *
1695:Generated_Source\PSoC4/CyLFClk.c ****     * The handler checks which WDT triggered in the interrupt and calls the 
1696:Generated_Source\PSoC4/CyLFClk.c ****     * respective callback functions configured by the user by using 
1697:Generated_Source\PSoC4/CyLFClk.c ****     * CySysWdtSetIsrCallback() API.
1698:Generated_Source\PSoC4/CyLFClk.c ****     *
1699:Generated_Source\PSoC4/CyLFClk.c ****     * The order of the callback execution is incremental. Callback-0 is
1700:Generated_Source\PSoC4/CyLFClk.c ****     * run as the first one and callback-2 is called as the last one.
1701:Generated_Source\PSoC4/CyLFClk.c ****     *
1702:Generated_Source\PSoC4/CyLFClk.c ****     * \details
1703:Generated_Source\PSoC4/CyLFClk.c ****     * This function clears the WDT interrupt every time when it is called.
1704:Generated_Source\PSoC4/CyLFClk.c ****     * Reset after the 3rd interrupt does not happen if this function is registered
1705:Generated_Source\PSoC4/CyLFClk.c ****     * as the interrupt handler even if the "Watchdog with Interrupt" mode is
1706:Generated_Source\PSoC4/CyLFClk.c ****     * selected on the "Low Frequency Clocks" tab.
1707:Generated_Source\PSoC4/CyLFClk.c ****     *
1708:Generated_Source\PSoC4/CyLFClk.c ****     *******************************************************************************/
1709:Generated_Source\PSoC4/CyLFClk.c ****     void CySysWdtIsr(void)
1710:Generated_Source\PSoC4/CyLFClk.c ****     {
1711:Generated_Source\PSoC4/CyLFClk.c ****         if(0u != (CY_SYS_WDT_COUNTER0_INT & CY_SYS_WDT_CONTROL_REG))
1712:Generated_Source\PSoC4/CyLFClk.c ****         {
1713:Generated_Source\PSoC4/CyLFClk.c ****             if(0u != (CY_SYS_WDT_COUNTER0_INT & wdtIsrMask))
1714:Generated_Source\PSoC4/CyLFClk.c ****             {
1715:Generated_Source\PSoC4/CyLFClk.c ****                 wdtIsrMask &= ~(disableServicedIsr & CY_SYS_WDT_COUNTER0_INT);
1716:Generated_Source\PSoC4/CyLFClk.c ****                 disableServicedIsr  &= ~CY_SYS_WDT_COUNTER0_INT;
1717:Generated_Source\PSoC4/CyLFClk.c ****                 if(cySysWdtCallback[CY_SYS_WDT_COUNTER0] != (void *) 0)
1718:Generated_Source\PSoC4/CyLFClk.c ****                 {
1719:Generated_Source\PSoC4/CyLFClk.c ****                     (void)(cySysWdtCallback[CY_SYS_WDT_COUNTER0])();
1720:Generated_Source\PSoC4/CyLFClk.c ****                 }
1721:Generated_Source\PSoC4/CyLFClk.c ****             }
1722:Generated_Source\PSoC4/CyLFClk.c ****             CySysWdtClearInterrupt(CY_SYS_WDT_COUNTER0_INT);
1723:Generated_Source\PSoC4/CyLFClk.c ****         }
1724:Generated_Source\PSoC4/CyLFClk.c **** 
1725:Generated_Source\PSoC4/CyLFClk.c ****         if(0u != (CY_SYS_WDT_COUNTER1_INT & CY_SYS_WDT_CONTROL_REG))
1726:Generated_Source\PSoC4/CyLFClk.c ****         {
1727:Generated_Source\PSoC4/CyLFClk.c ****             if(0u != (CY_SYS_WDT_COUNTER1_INT & wdtIsrMask))
1728:Generated_Source\PSoC4/CyLFClk.c ****             {
ARM GAS  C:\Users\user\AppData\Local\Temp\ccsPNKJ0.s 			page 66


1729:Generated_Source\PSoC4/CyLFClk.c ****                 wdtIsrMask &= ~(disableServicedIsr & CY_SYS_WDT_COUNTER1_INT);
1730:Generated_Source\PSoC4/CyLFClk.c ****                 disableServicedIsr  &= ~CY_SYS_WDT_COUNTER1_INT;
1731:Generated_Source\PSoC4/CyLFClk.c ****                 if(cySysWdtCallback[CY_SYS_WDT_COUNTER1] != (void *) 0)
1732:Generated_Source\PSoC4/CyLFClk.c ****                 {
1733:Generated_Source\PSoC4/CyLFClk.c ****                     (void)(cySysWdtCallback[CY_SYS_WDT_COUNTER1])();
1734:Generated_Source\PSoC4/CyLFClk.c ****                 }
1735:Generated_Source\PSoC4/CyLFClk.c ****             }
1736:Generated_Source\PSoC4/CyLFClk.c ****             CySysWdtClearInterrupt(CY_SYS_WDT_COUNTER1_INT);
1737:Generated_Source\PSoC4/CyLFClk.c ****         }
1738:Generated_Source\PSoC4/CyLFClk.c **** 
1739:Generated_Source\PSoC4/CyLFClk.c ****         if(0u != (CY_SYS_WDT_COUNTER2_INT & CY_SYS_WDT_CONTROL_REG))
1740:Generated_Source\PSoC4/CyLFClk.c ****         {
1741:Generated_Source\PSoC4/CyLFClk.c ****             if(0u != (CY_SYS_WDT_COUNTER2_INT & wdtIsrMask))
1742:Generated_Source\PSoC4/CyLFClk.c ****             {
1743:Generated_Source\PSoC4/CyLFClk.c ****                 if(cySysWdtCallback[CY_SYS_WDT_COUNTER2] != (void *) 0)
1744:Generated_Source\PSoC4/CyLFClk.c ****                 {
1745:Generated_Source\PSoC4/CyLFClk.c ****                     (void)(cySysWdtCallback[CY_SYS_WDT_COUNTER2])();
1746:Generated_Source\PSoC4/CyLFClk.c ****                 }
1747:Generated_Source\PSoC4/CyLFClk.c ****             }
1748:Generated_Source\PSoC4/CyLFClk.c ****             CySysWdtClearInterrupt(CY_SYS_WDT_COUNTER2_INT);
1749:Generated_Source\PSoC4/CyLFClk.c ****         }
1750:Generated_Source\PSoC4/CyLFClk.c ****     }
1751:Generated_Source\PSoC4/CyLFClk.c **** 
1752:Generated_Source\PSoC4/CyLFClk.c **** 
1753:Generated_Source\PSoC4/CyLFClk.c ****     /*******************************************************************************
1754:Generated_Source\PSoC4/CyLFClk.c ****     * Function Name: CySysWatchdogFeed
1755:Generated_Source\PSoC4/CyLFClk.c ****     ****************************************************************************//**
1756:Generated_Source\PSoC4/CyLFClk.c ****     * \brief
1757:Generated_Source\PSoC4/CyLFClk.c ****     * Feeds the corresponded Watchdog Counter before it causes the device reset.
1758:Generated_Source\PSoC4/CyLFClk.c ****     *
1759:Generated_Source\PSoC4/CyLFClk.c ****     * Supported only for first WDT0 and second WDT1 counters in the "Watchdog" or 
1760:Generated_Source\PSoC4/CyLFClk.c ****     * "Watchdog w/ Interrupts" modes.
1761:Generated_Source\PSoC4/CyLFClk.c ****     *
1762:Generated_Source\PSoC4/CyLFClk.c ****     * \param counterNum
1763:Generated_Source\PSoC4/CyLFClk.c ****     * CY_SYS_WDT_COUNTER0 - Feeds the Counter 0 <br>
1764:Generated_Source\PSoC4/CyLFClk.c ****     * CY_SYS_WDT_COUNTER1 - Feeds the Counter 1
1765:Generated_Source\PSoC4/CyLFClk.c ****     *
1766:Generated_Source\PSoC4/CyLFClk.c ****     * Value of counterNum corresponds to appropriate counter. For example value 1 
1767:Generated_Source\PSoC4/CyLFClk.c ****     * corresponds to second WDT1 Counter.
1768:Generated_Source\PSoC4/CyLFClk.c ****     *
1769:Generated_Source\PSoC4/CyLFClk.c ****     * \details
1770:Generated_Source\PSoC4/CyLFClk.c ****     * Clears the WDT counter in the "Watchdog" mode or clears the WDT interrupt in
1771:Generated_Source\PSoC4/CyLFClk.c ****     * "Watchdog w/ Interrupts" mode. Does nothing in other modes.
1772:Generated_Source\PSoC4/CyLFClk.c ****     *
1773:Generated_Source\PSoC4/CyLFClk.c ****     *******************************************************************************/
1774:Generated_Source\PSoC4/CyLFClk.c ****     void CySysWatchdogFeed(uint32 counterNum)
1775:Generated_Source\PSoC4/CyLFClk.c ****     {
1776:Generated_Source\PSoC4/CyLFClk.c ****         if(counterNum == CY_SYS_WDT_COUNTER0)
1777:Generated_Source\PSoC4/CyLFClk.c ****         {
1778:Generated_Source\PSoC4/CyLFClk.c ****             if(CY_SYS_WDT_MODE_INT_RESET == CySysWdtGetMode(counterNum))
1779:Generated_Source\PSoC4/CyLFClk.c ****             {
1780:Generated_Source\PSoC4/CyLFClk.c ****                 CySysWdtClearInterrupt(CY_SYS_WDT_COUNTER0_INT);
1781:Generated_Source\PSoC4/CyLFClk.c ****             }
1782:Generated_Source\PSoC4/CyLFClk.c ****             else if(CY_SYS_WDT_MODE_RESET == CySysWdtGetMode(counterNum))
1783:Generated_Source\PSoC4/CyLFClk.c ****             {
1784:Generated_Source\PSoC4/CyLFClk.c ****                 CySysWdtResetCounters(CY_SYS_WDT_COUNTER0_RESET);
1785:Generated_Source\PSoC4/CyLFClk.c ****                 CySysWdtClearInterrupt(CY_SYS_WDT_COUNTER0_INT);
ARM GAS  C:\Users\user\AppData\Local\Temp\ccsPNKJ0.s 			page 67


1786:Generated_Source\PSoC4/CyLFClk.c ****             }
1787:Generated_Source\PSoC4/CyLFClk.c ****             else
1788:Generated_Source\PSoC4/CyLFClk.c ****             {
1789:Generated_Source\PSoC4/CyLFClk.c ****                 /* Do nothing. */
1790:Generated_Source\PSoC4/CyLFClk.c ****             }
1791:Generated_Source\PSoC4/CyLFClk.c ****         }
1792:Generated_Source\PSoC4/CyLFClk.c ****         else if(counterNum == CY_SYS_WDT_COUNTER1)
1793:Generated_Source\PSoC4/CyLFClk.c ****         {
1794:Generated_Source\PSoC4/CyLFClk.c ****             if(CY_SYS_WDT_MODE_INT_RESET == CySysWdtGetMode(counterNum))
1795:Generated_Source\PSoC4/CyLFClk.c ****             {
1796:Generated_Source\PSoC4/CyLFClk.c ****                 CySysWdtClearInterrupt(CY_SYS_WDT_COUNTER1_INT);
1797:Generated_Source\PSoC4/CyLFClk.c ****             }
1798:Generated_Source\PSoC4/CyLFClk.c ****             else if(CY_SYS_WDT_MODE_RESET == CySysWdtGetMode(counterNum))
1799:Generated_Source\PSoC4/CyLFClk.c ****             {
1800:Generated_Source\PSoC4/CyLFClk.c ****                 CySysWdtResetCounters(CY_SYS_WDT_COUNTER1_RESET);
1801:Generated_Source\PSoC4/CyLFClk.c ****                 CySysWdtClearInterrupt(CY_SYS_WDT_COUNTER1_INT);
1802:Generated_Source\PSoC4/CyLFClk.c ****             }
1803:Generated_Source\PSoC4/CyLFClk.c ****             else
1804:Generated_Source\PSoC4/CyLFClk.c ****             {
1805:Generated_Source\PSoC4/CyLFClk.c ****                 /* Do nothing. */
1806:Generated_Source\PSoC4/CyLFClk.c ****             }
1807:Generated_Source\PSoC4/CyLFClk.c ****         }
1808:Generated_Source\PSoC4/CyLFClk.c ****         else
1809:Generated_Source\PSoC4/CyLFClk.c ****         {
1810:Generated_Source\PSoC4/CyLFClk.c ****             /* Do nothing. */
1811:Generated_Source\PSoC4/CyLFClk.c ****         }
1812:Generated_Source\PSoC4/CyLFClk.c ****     }
1813:Generated_Source\PSoC4/CyLFClk.c **** 
1814:Generated_Source\PSoC4/CyLFClk.c **** 
1815:Generated_Source\PSoC4/CyLFClk.c ****     /*******************************************************************************
1816:Generated_Source\PSoC4/CyLFClk.c ****     * Function Name: CySysClkLfclkPosedgeCatch
1817:Generated_Source\PSoC4/CyLFClk.c ****     ****************************************************************************//**
1818:Generated_Source\PSoC4/CyLFClk.c ****     * \internal
1819:Generated_Source\PSoC4/CyLFClk.c ****     * Returns once the LFCLK positive edge occurred.
1820:Generated_Source\PSoC4/CyLFClk.c ****     *
1821:Generated_Source\PSoC4/CyLFClk.c ****     * CySysClkLfclkPosedgeRestore() should be called after this function
1822:Generated_Source\PSoC4/CyLFClk.c ****     * to restore the WDT configuration.
1823:Generated_Source\PSoC4/CyLFClk.c ****     *
1824:Generated_Source\PSoC4/CyLFClk.c ****     * A pair of the CySysClkLfclkPosedgeCatch() and CySysClkLfclkPosedgeRestore()
1825:Generated_Source\PSoC4/CyLFClk.c ****     * functions is expected to be called inside a critical section.
1826:Generated_Source\PSoC4/CyLFClk.c ****     *
1827:Generated_Source\PSoC4/CyLFClk.c ****     * To ensure that the WDT counter value is read until it changes, the enabled
1828:Generated_Source\PSoC4/CyLFClk.c ****     * WDT counter is used. If no counter is enabled, counter 0 is enabled.
1829:Generated_Source\PSoC4/CyLFClk.c ****     * And after the LFCLK source is switched, the counter 0 configuration
1830:Generated_Source\PSoC4/CyLFClk.c ****     * is restored.
1831:Generated_Source\PSoC4/CyLFClk.c ****     *
1832:Generated_Source\PSoC4/CyLFClk.c ****     * Not applicable for the PSoC 4000 / PSoC 4000S / PSoC 4100S / PSoC Analog 
1833:Generated_Source\PSoC4/CyLFClk.c ****     * Coprocessor devices.
1834:Generated_Source\PSoC4/CyLFClk.c ****     *
1835:Generated_Source\PSoC4/CyLFClk.c ****     * \details
1836:Generated_Source\PSoC4/CyLFClk.c ****     * This function has no effect if WDT is locked (CySysWdtLock() is
1837:Generated_Source\PSoC4/CyLFClk.c ****     * called). Call CySysWdtUnlock() to unlock WDT.
1838:Generated_Source\PSoC4/CyLFClk.c ****     * \endinternal
1839:Generated_Source\PSoC4/CyLFClk.c ****     *******************************************************************************/
1840:Generated_Source\PSoC4/CyLFClk.c ****     static void CySysClkLfclkPosedgeCatch(void)
1841:Generated_Source\PSoC4/CyLFClk.c ****     {
1842:Generated_Source\PSoC4/CyLFClk.c ****         uint32 firstCount;
ARM GAS  C:\Users\user\AppData\Local\Temp\ccsPNKJ0.s 			page 68


1843:Generated_Source\PSoC4/CyLFClk.c ****         static uint32 lfclkPosedgeEnabledWdtCounter = 0u;
1844:Generated_Source\PSoC4/CyLFClk.c **** 
1845:Generated_Source\PSoC4/CyLFClk.c ****         if (0u != CySysWdtGetEnabledStatus(CY_SYS_WDT_COUNTER0))
1846:Generated_Source\PSoC4/CyLFClk.c ****         {
1847:Generated_Source\PSoC4/CyLFClk.c ****             lfclkPosedgeEnabledWdtCounter = CY_SYS_WDT_COUNTER0;
1848:Generated_Source\PSoC4/CyLFClk.c ****         }
1849:Generated_Source\PSoC4/CyLFClk.c ****         else if (0u != CySysWdtGetEnabledStatus(CY_SYS_WDT_COUNTER1))
1850:Generated_Source\PSoC4/CyLFClk.c ****         {
1851:Generated_Source\PSoC4/CyLFClk.c ****             lfclkPosedgeEnabledWdtCounter = CY_SYS_WDT_COUNTER1;
1852:Generated_Source\PSoC4/CyLFClk.c ****         }
1853:Generated_Source\PSoC4/CyLFClk.c ****         else if (0u != CySysWdtGetEnabledStatus(CY_SYS_WDT_COUNTER2))
1854:Generated_Source\PSoC4/CyLFClk.c ****         {
1855:Generated_Source\PSoC4/CyLFClk.c ****             lfclkPosedgeEnabledWdtCounter = CY_SYS_WDT_COUNTER2;
1856:Generated_Source\PSoC4/CyLFClk.c ****         }
1857:Generated_Source\PSoC4/CyLFClk.c ****         else /* All WDT counters are disabled */
1858:Generated_Source\PSoC4/CyLFClk.c ****         {
1859:Generated_Source\PSoC4/CyLFClk.c ****             /* Configure WDT counter # 0 */
1860:Generated_Source\PSoC4/CyLFClk.c ****             lfclkPosedgeWdtCounter0Enabled = 1u;
1861:Generated_Source\PSoC4/CyLFClk.c ****             lfclkPosedgeEnabledWdtCounter = CY_SYS_WDT_COUNTER0;
1862:Generated_Source\PSoC4/CyLFClk.c **** 
1863:Generated_Source\PSoC4/CyLFClk.c ****             lfclkPosedgeWdtCounter0Mode = CySysWdtGetMode(CY_SYS_WDT_COUNTER0);
1864:Generated_Source\PSoC4/CyLFClk.c ****             CySysWdtSetMode(CY_SYS_WDT_COUNTER0, CY_SYS_WDT_MODE_NONE);
1865:Generated_Source\PSoC4/CyLFClk.c ****             CySysWdtEnable(CY_SYS_WDT_COUNTER0_MASK);
1866:Generated_Source\PSoC4/CyLFClk.c ****         }
1867:Generated_Source\PSoC4/CyLFClk.c **** 
1868:Generated_Source\PSoC4/CyLFClk.c ****         firstCount = CySysWdtGetCount(lfclkPosedgeEnabledWdtCounter);
1869:Generated_Source\PSoC4/CyLFClk.c ****         while (CySysWdtGetCount(lfclkPosedgeEnabledWdtCounter) == firstCount)
1870:Generated_Source\PSoC4/CyLFClk.c ****         {
1871:Generated_Source\PSoC4/CyLFClk.c ****             /* Wait for counter to increment */
1872:Generated_Source\PSoC4/CyLFClk.c ****         }
1873:Generated_Source\PSoC4/CyLFClk.c ****     }
1874:Generated_Source\PSoC4/CyLFClk.c **** 
1875:Generated_Source\PSoC4/CyLFClk.c **** 
1876:Generated_Source\PSoC4/CyLFClk.c ****     /*******************************************************************************
1877:Generated_Source\PSoC4/CyLFClk.c ****     * Function Name: CySysClkLfclkPosedgeRestore
1878:Generated_Source\PSoC4/CyLFClk.c ****     ****************************************************************************//**
1879:Generated_Source\PSoC4/CyLFClk.c ****     * \internal
1880:Generated_Source\PSoC4/CyLFClk.c ****     *  Restores the WDT configuration after a CySysClkLfclkPosedgeCatch() call.
1881:Generated_Source\PSoC4/CyLFClk.c ****     *
1882:Generated_Source\PSoC4/CyLFClk.c ****     *  A pair of the CySysClkLfclkPosedgeCatch() and CySysClkLfclkPosedgeRestore()
1883:Generated_Source\PSoC4/CyLFClk.c ****     *  functions is expected to be called inside a critical section.
1884:Generated_Source\PSoC4/CyLFClk.c ****     *
1885:Generated_Source\PSoC4/CyLFClk.c ****     * Not applicable for the PSoC 4000/PSoC 4000S / PSoC 4100S / PSoC Analog 
1886:Generated_Source\PSoC4/CyLFClk.c ****     * Coprocessor devices.
1887:Generated_Source\PSoC4/CyLFClk.c ****     *
1888:Generated_Source\PSoC4/CyLFClk.c ****     * \details
1889:Generated_Source\PSoC4/CyLFClk.c ****     *  This function has no effect if WDT is locked (CySysWdtLock() is
1890:Generated_Source\PSoC4/CyLFClk.c ****     *  called). Call CySysWdtUnlock() to unlock WDT.
1891:Generated_Source\PSoC4/CyLFClk.c ****     *
1892:Generated_Source\PSoC4/CyLFClk.c ****     * \endinternal
1893:Generated_Source\PSoC4/CyLFClk.c ****     *******************************************************************************/
1894:Generated_Source\PSoC4/CyLFClk.c ****     static void CySysClkLfclkPosedgeRestore(void)
1895:Generated_Source\PSoC4/CyLFClk.c ****     {
 1169              		.loc 2 1895 0
 1170              		.cfi_startproc
 1171              		@ args = 0, pretend = 0, frame = 0
 1172              		@ frame_needed = 0, uses_anonymous_args = 0
ARM GAS  C:\Users\user\AppData\Local\Temp\ccsPNKJ0.s 			page 69


 1173 0000 10B5     		push	{r4, lr}
 1174              		.cfi_def_cfa_offset 8
 1175              		.cfi_offset 4, -8
 1176              		.cfi_offset 14, -4
1896:Generated_Source\PSoC4/CyLFClk.c ****         if (lfclkPosedgeWdtCounter0Enabled != 0u)
 1177              		.loc 2 1896 0
 1178 0002 084C     		ldr	r4, .L112
 1179 0004 E368     		ldr	r3, [r4, #12]
 1180 0006 002B     		cmp	r3, #0
 1181 0008 0AD0     		beq	.L107
 1182              	.LBB56:
 1183              	.LBB57:
1897:Generated_Source\PSoC4/CyLFClk.c ****         {
1898:Generated_Source\PSoC4/CyLFClk.c ****             /* Restore counter # 0 configuration and force its shutdown */
1899:Generated_Source\PSoC4/CyLFClk.c ****             CY_SYS_WDT_CONTROL_REG &= (uint32)(~CY_SYS_WDT_COUNTER0_MASK);
 1184              		.loc 2 1899 0
 1185 000a 0121     		movs	r1, #1
 1186 000c 064A     		ldr	r2, .L112+4
1900:Generated_Source\PSoC4/CyLFClk.c ****             CySysWdtSetMode(CY_SYS_WDT_COUNTER0, lfclkPosedgeWdtCounter0Mode);
 1187              		.loc 2 1900 0
 1188 000e 0020     		movs	r0, #0
1899:Generated_Source\PSoC4/CyLFClk.c ****             CySysWdtSetMode(CY_SYS_WDT_COUNTER0, lfclkPosedgeWdtCounter0Mode);
 1189              		.loc 2 1899 0
 1190 0010 1368     		ldr	r3, [r2]
 1191 0012 8B43     		bics	r3, r1
 1192 0014 1360     		str	r3, [r2]
 1193              		.loc 2 1900 0
 1194 0016 2169     		ldr	r1, [r4, #16]
 1195 0018 FFF7FEFF 		bl	CySysWdtSetMode
 1196              	.LVL91:
1901:Generated_Source\PSoC4/CyLFClk.c ****             lfclkPosedgeWdtCounter0Enabled = 0u;
 1197              		.loc 2 1901 0
 1198 001c 0023     		movs	r3, #0
 1199 001e E360     		str	r3, [r4, #12]
 1200              	.L107:
 1201              	.LBE57:
 1202              	.LBE56:
1902:Generated_Source\PSoC4/CyLFClk.c ****         }
1903:Generated_Source\PSoC4/CyLFClk.c ****     }
 1203              		.loc 2 1903 0
 1204              		@ sp needed
 1205 0020 10BD     		pop	{r4, pc}
 1206              	.L113:
 1207 0022 C046     		.align	2
 1208              	.L112:
 1209 0024 00000000 		.word	.LANCHOR0
 1210 0028 10020B40 		.word	1074463248
 1211              		.cfi_endproc
 1212              	.LFE45:
 1213              		.size	CySysClkLfclkPosedgeRestore, .-CySysClkLfclkPosedgeRestore
 1214              		.section	.text.CySysWdtGetMode,"ax",%progbits
 1215              		.align	1
 1216              		.global	CySysWdtGetMode
 1217              		.code	16
 1218              		.thumb_func
 1219              		.type	CySysWdtGetMode, %function
 1220              	CySysWdtGetMode:
ARM GAS  C:\Users\user\AppData\Local\Temp\ccsPNKJ0.s 			page 70


 1221              	.LFB23:
1076:Generated_Source\PSoC4/CyLFClk.c ****         return ((CY_SYS_WDT_CONFIG_REG >> (counterNum * CY_SYS_WDT_CNT_SHIFT)) & CY_SYS_WDT_MODE_MA
 1222              		.loc 2 1076 0
 1223              		.cfi_startproc
 1224              		@ args = 0, pretend = 0, frame = 0
 1225              		@ frame_needed = 0, uses_anonymous_args = 0
 1226              		@ link register save eliminated.
 1227              	.LVL92:
1076:Generated_Source\PSoC4/CyLFClk.c ****         return ((CY_SYS_WDT_CONFIG_REG >> (counterNum * CY_SYS_WDT_CNT_SHIFT)) & CY_SYS_WDT_MODE_MA
 1228              		.loc 2 1076 0
 1229 0000 0300     		movs	r3, r0
1077:Generated_Source\PSoC4/CyLFClk.c ****     }
 1230              		.loc 2 1077 0
 1231 0002 034A     		ldr	r2, .L115
 1232 0004 DB00     		lsls	r3, r3, #3
 1233 0006 1068     		ldr	r0, [r2]
 1234              	.LVL93:
1078:Generated_Source\PSoC4/CyLFClk.c **** 
 1235              		.loc 2 1078 0
 1236              		@ sp needed
1077:Generated_Source\PSoC4/CyLFClk.c ****     }
 1237              		.loc 2 1077 0
 1238 0008 D840     		lsrs	r0, r0, r3
 1239 000a 0323     		movs	r3, #3
 1240 000c 1840     		ands	r0, r3
1078:Generated_Source\PSoC4/CyLFClk.c **** 
 1241              		.loc 2 1078 0
 1242 000e 7047     		bx	lr
 1243              	.L116:
 1244              		.align	2
 1245              	.L115:
 1246 0010 0C020B40 		.word	1074463244
 1247              		.cfi_endproc
 1248              	.LFE23:
 1249              		.size	CySysWdtGetMode, .-CySysWdtGetMode
 1250              		.section	.text.CySysWdtSetClearOnMatch,"ax",%progbits
 1251              		.align	1
 1252              		.global	CySysWdtSetClearOnMatch
 1253              		.code	16
 1254              		.thumb_func
 1255              		.type	CySysWdtSetClearOnMatch, %function
 1256              	CySysWdtSetClearOnMatch:
 1257              	.LFB24:
1105:Generated_Source\PSoC4/CyLFClk.c ****         uint32 configRegValue;
 1258              		.loc 2 1105 0
 1259              		.cfi_startproc
 1260              		@ args = 0, pretend = 0, frame = 0
 1261              		@ frame_needed = 0, uses_anonymous_args = 0
 1262              	.LVL94:
 1263 0000 70B5     		push	{r4, r5, r6, lr}
 1264              		.cfi_def_cfa_offset 16
 1265              		.cfi_offset 4, -16
 1266              		.cfi_offset 5, -12
 1267              		.cfi_offset 6, -8
 1268              		.cfi_offset 14, -4
1105:Generated_Source\PSoC4/CyLFClk.c ****         uint32 configRegValue;
 1269              		.loc 2 1105 0
ARM GAS  C:\Users\user\AppData\Local\Temp\ccsPNKJ0.s 			page 71


 1270 0002 0400     		movs	r4, r0
 1271 0004 0D00     		movs	r5, r1
1111:Generated_Source\PSoC4/CyLFClk.c ****         {
 1272              		.loc 2 1111 0
 1273 0006 FFF7FEFF 		bl	CySysWdtGetEnabledStatus
 1274              	.LVL95:
 1275 000a 0028     		cmp	r0, #0
 1276 000c 0BD1     		bne	.L117
1113:Generated_Source\PSoC4/CyLFClk.c ****                                      ((counterNum * CY_SYS_WDT_CNT_SHIFT) + CY_SYS_WDT_CNT_MATCH_CL
 1277              		.loc 2 1113 0
 1278 000e 0123     		movs	r3, #1
1114:Generated_Source\PSoC4/CyLFClk.c **** 
 1279              		.loc 2 1114 0
 1280 0010 E400     		lsls	r4, r4, #3
 1281              	.LVL96:
 1282 0012 0234     		adds	r4, r4, #2
1113:Generated_Source\PSoC4/CyLFClk.c ****                                      ((counterNum * CY_SYS_WDT_CNT_SHIFT) + CY_SYS_WDT_CNT_MATCH_CL
 1283              		.loc 2 1113 0
 1284 0014 A340     		lsls	r3, r3, r4
 1285 0016 044A     		ldr	r2, .L119
 1286 0018 1168     		ldr	r1, [r2]
 1287 001a 9943     		bics	r1, r3
 1288 001c 0B00     		movs	r3, r1
 1289              	.LVL97:
1117:Generated_Source\PSoC4/CyLFClk.c **** 
 1290              		.loc 2 1117 0
 1291 001e 2900     		movs	r1, r5
 1292              	.LVL98:
 1293 0020 A140     		lsls	r1, r1, r4
 1294 0022 1943     		orrs	r1, r3
 1295              	.LVL99:
1119:Generated_Source\PSoC4/CyLFClk.c ****         }
 1296              		.loc 2 1119 0
 1297 0024 1160     		str	r1, [r2]
 1298              	.LVL100:
 1299              	.L117:
1121:Generated_Source\PSoC4/CyLFClk.c **** 
 1300              		.loc 2 1121 0
 1301              		@ sp needed
 1302              	.LVL101:
 1303 0026 70BD     		pop	{r4, r5, r6, pc}
 1304              	.L120:
 1305              		.align	2
 1306              	.L119:
 1307 0028 0C020B40 		.word	1074463244
 1308              		.cfi_endproc
 1309              	.LFE24:
 1310              		.size	CySysWdtSetClearOnMatch, .-CySysWdtSetClearOnMatch
 1311              		.section	.text.CySysWdtGetClearOnMatch,"ax",%progbits
 1312              		.align	1
 1313              		.global	CySysWdtGetClearOnMatch
 1314              		.code	16
 1315              		.thumb_func
 1316              		.type	CySysWdtGetClearOnMatch, %function
 1317              	CySysWdtGetClearOnMatch:
 1318              	.LFB25:
1138:Generated_Source\PSoC4/CyLFClk.c ****         CYASSERT((counterNum == CY_SYS_WDT_COUNTER0) ||
ARM GAS  C:\Users\user\AppData\Local\Temp\ccsPNKJ0.s 			page 72


 1319              		.loc 2 1138 0
 1320              		.cfi_startproc
 1321              		@ args = 0, pretend = 0, frame = 0
 1322              		@ frame_needed = 0, uses_anonymous_args = 0
 1323              		@ link register save eliminated.
 1324              	.LVL102:
1138:Generated_Source\PSoC4/CyLFClk.c ****         CYASSERT((counterNum == CY_SYS_WDT_COUNTER0) ||
 1325              		.loc 2 1138 0
 1326 0000 0300     		movs	r3, r0
1142:Generated_Source\PSoC4/CyLFClk.c ****                         ((counterNum * CY_SYS_WDT_CNT_SHIFT) + CY_SYS_WDT_CNT_MATCH_CLR_SHIFT)) & 0
 1327              		.loc 2 1142 0
 1328 0002 044A     		ldr	r2, .L122
 1329 0004 DB00     		lsls	r3, r3, #3
 1330 0006 1068     		ldr	r0, [r2]
 1331              	.LVL103:
 1332 0008 0233     		adds	r3, r3, #2
 1333 000a D840     		lsrs	r0, r0, r3
 1334 000c 0123     		movs	r3, #1
1144:Generated_Source\PSoC4/CyLFClk.c **** 
 1335              		.loc 2 1144 0
 1336              		@ sp needed
1142:Generated_Source\PSoC4/CyLFClk.c ****                         ((counterNum * CY_SYS_WDT_CNT_SHIFT) + CY_SYS_WDT_CNT_MATCH_CLR_SHIFT)) & 0
 1337              		.loc 2 1142 0
 1338 000e 1840     		ands	r0, r3
1144:Generated_Source\PSoC4/CyLFClk.c **** 
 1339              		.loc 2 1144 0
 1340 0010 7047     		bx	lr
 1341              	.L123:
 1342 0012 C046     		.align	2
 1343              	.L122:
 1344 0014 0C020B40 		.word	1074463244
 1345              		.cfi_endproc
 1346              	.LFE25:
 1347              		.size	CySysWdtGetClearOnMatch, .-CySysWdtGetClearOnMatch
 1348              		.section	.text.CySysWdtEnable,"ax",%progbits
 1349              		.align	1
 1350              		.global	CySysWdtEnable
 1351              		.code	16
 1352              		.thumb_func
 1353              		.type	CySysWdtEnable, %function
 1354              	CySysWdtEnable:
 1355              	.LFB26:
1179:Generated_Source\PSoC4/CyLFClk.c ****         #if (!CY_IP_WCO)
 1356              		.loc 2 1179 0
 1357              		.cfi_startproc
 1358              		@ args = 0, pretend = 0, frame = 0
 1359              		@ frame_needed = 0, uses_anonymous_args = 0
 1360              		@ link register save eliminated.
 1361              	.LVL104:
1184:Generated_Source\PSoC4/CyLFClk.c **** 
 1362              		.loc 2 1184 0
 1363 0000 0C4B     		ldr	r3, .L149
 1364 0002 1A68     		ldr	r2, [r3]
 1365 0004 0243     		orrs	r2, r0
 1366 0006 1A60     		str	r2, [r3]
1186:Generated_Source\PSoC4/CyLFClk.c ****         {
 1367              		.loc 2 1186 0
ARM GAS  C:\Users\user\AppData\Local\Temp\ccsPNKJ0.s 			page 73


 1368 0008 C207     		lsls	r2, r0, #31
 1369 000a 03D5     		bpl	.L125
1188:Generated_Source\PSoC4/CyLFClk.c ****             {
 1370              		.loc 2 1188 0 discriminator 1
 1371 000c 0222     		movs	r2, #2
 1372              	.L140:
 1373              	.LVL105:
 1374              	.LBB70:
 1375              	.LBB71:
1020:Generated_Source\PSoC4/CyLFClk.c ****     }
 1376              		.loc 2 1020 0 discriminator 1
 1377 000e 1968     		ldr	r1, [r3]
 1378              	.LVL106:
 1379              	.LBE71:
 1380              	.LBE70:
1188:Generated_Source\PSoC4/CyLFClk.c ****             {
 1381              		.loc 2 1188 0 discriminator 1
 1382 0010 1142     		tst	r1, r2
 1383 0012 FCD0     		beq	.L140
 1384              	.L125:
1194:Generated_Source\PSoC4/CyLFClk.c ****         {
 1385              		.loc 2 1194 0
 1386 0014 C205     		lsls	r2, r0, #23
 1387 0016 04D5     		bpl	.L127
1196:Generated_Source\PSoC4/CyLFClk.c ****             {
 1388              		.loc 2 1196 0 discriminator 1
 1389 0018 8022     		movs	r2, #128
 1390 001a 9200     		lsls	r2, r2, #2
 1391              	.L141:
 1392              	.LVL107:
 1393              	.LBB72:
 1394              	.LBB73:
1020:Generated_Source\PSoC4/CyLFClk.c ****     }
 1395              		.loc 2 1020 0 discriminator 1
 1396 001c 1968     		ldr	r1, [r3]
 1397              	.LVL108:
 1398              	.LBE73:
 1399              	.LBE72:
1196:Generated_Source\PSoC4/CyLFClk.c ****             {
 1400              		.loc 2 1196 0 discriminator 1
 1401 001e 1142     		tst	r1, r2
 1402 0020 FCD0     		beq	.L141
 1403              	.L127:
1202:Generated_Source\PSoC4/CyLFClk.c ****         {
 1404              		.loc 2 1202 0
 1405 0022 C203     		lsls	r2, r0, #15
 1406 0024 04D5     		bpl	.L124
 1407              	.LBB74:
 1408              	.LBB75:
1204:Generated_Source\PSoC4/CyLFClk.c ****             {
 1409              		.loc 2 1204 0
 1410 0026 8022     		movs	r2, #128
 1411 0028 9202     		lsls	r2, r2, #10
 1412              	.L142:
 1413              	.LVL109:
 1414              	.LBB76:
 1415              	.LBB77:
ARM GAS  C:\Users\user\AppData\Local\Temp\ccsPNKJ0.s 			page 74


1020:Generated_Source\PSoC4/CyLFClk.c ****     }
 1416              		.loc 2 1020 0
 1417 002a 1968     		ldr	r1, [r3]
 1418              	.LVL110:
 1419              	.LBE77:
 1420              	.LBE76:
1204:Generated_Source\PSoC4/CyLFClk.c ****             {
 1421              		.loc 2 1204 0
 1422 002c 1142     		tst	r1, r2
 1423 002e FCD0     		beq	.L142
 1424              	.L124:
 1425              	.LBE75:
 1426              	.LBE74:
1209:Generated_Source\PSoC4/CyLFClk.c **** 
 1427              		.loc 2 1209 0
 1428              		@ sp needed
 1429 0030 7047     		bx	lr
 1430              	.L150:
 1431 0032 C046     		.align	2
 1432              	.L149:
 1433 0034 10020B40 		.word	1074463248
 1434              		.cfi_endproc
 1435              	.LFE26:
 1436              		.size	CySysWdtEnable, .-CySysWdtEnable
 1437              		.section	.text.CySysWdtDisable,"ax",%progbits
 1438              		.align	1
 1439              		.global	CySysWdtDisable
 1440              		.code	16
 1441              		.thumb_func
 1442              		.type	CySysWdtDisable, %function
 1443              	CySysWdtDisable:
 1444              	.LFB27:
1227:Generated_Source\PSoC4/CyLFClk.c ****         if (0uL == CySysWdtLocked())
 1445              		.loc 2 1227 0
 1446              		.cfi_startproc
 1447              		@ args = 0, pretend = 0, frame = 0
 1448              		@ frame_needed = 0, uses_anonymous_args = 0
 1449              		@ link register save eliminated.
 1450              	.LVL111:
 1451              	.LBB86:
 1452              	.LBB87:
 972:Generated_Source\PSoC4/CyLFClk.c ****     }
 1453              		.loc 2 972 0
 1454 0000 0F4B     		ldr	r3, .L171
 1455 0002 1A68     		ldr	r2, [r3]
 1456 0004 C023     		movs	r3, #192
 1457 0006 1B02     		lsls	r3, r3, #8
 1458 0008 1A42     		tst	r2, r3
 1459 000a 17D1     		bne	.L151
 1460              	.LBE87:
 1461              	.LBE86:
1230:Generated_Source\PSoC4/CyLFClk.c **** 
 1462              		.loc 2 1230 0
 1463 000c 0D4B     		ldr	r3, .L171+4
 1464 000e 1A68     		ldr	r2, [r3]
 1465 0010 8243     		bics	r2, r0
 1466 0012 1A60     		str	r2, [r3]
ARM GAS  C:\Users\user\AppData\Local\Temp\ccsPNKJ0.s 			page 75


1232:Generated_Source\PSoC4/CyLFClk.c ****             {
 1467              		.loc 2 1232 0
 1468 0014 C207     		lsls	r2, r0, #31
 1469 0016 03D5     		bpl	.L158
1234:Generated_Source\PSoC4/CyLFClk.c ****                 {
 1470              		.loc 2 1234 0 discriminator 1
 1471 0018 0222     		movs	r2, #2
 1472              	.L165:
 1473              	.LVL112:
 1474              	.LBB88:
 1475              	.LBB89:
1020:Generated_Source\PSoC4/CyLFClk.c ****     }
 1476              		.loc 2 1020 0 discriminator 1
 1477 001a 1968     		ldr	r1, [r3]
 1478              	.LVL113:
 1479              	.LBE89:
 1480              	.LBE88:
1234:Generated_Source\PSoC4/CyLFClk.c ****                 {
 1481              		.loc 2 1234 0 discriminator 1
 1482 001c 1142     		tst	r1, r2
 1483 001e FCD1     		bne	.L165
 1484              	.L158:
1240:Generated_Source\PSoC4/CyLFClk.c ****             {
 1485              		.loc 2 1240 0
 1486 0020 C205     		lsls	r2, r0, #23
 1487 0022 04D5     		bpl	.L154
1242:Generated_Source\PSoC4/CyLFClk.c ****                 {
 1488              		.loc 2 1242 0 discriminator 1
 1489 0024 8022     		movs	r2, #128
 1490 0026 9200     		lsls	r2, r2, #2
 1491              	.L164:
 1492              	.LVL114:
 1493              	.LBB90:
 1494              	.LBB91:
1020:Generated_Source\PSoC4/CyLFClk.c ****     }
 1495              		.loc 2 1020 0 discriminator 1
 1496 0028 1968     		ldr	r1, [r3]
 1497              	.LVL115:
 1498              	.LBE91:
 1499              	.LBE90:
1242:Generated_Source\PSoC4/CyLFClk.c ****                 {
 1500              		.loc 2 1242 0 discriminator 1
 1501 002a 1142     		tst	r1, r2
 1502 002c FCD1     		bne	.L164
 1503              	.L154:
1248:Generated_Source\PSoC4/CyLFClk.c ****             {
 1504              		.loc 2 1248 0
 1505 002e C203     		lsls	r2, r0, #15
 1506 0030 04D5     		bpl	.L151
1250:Generated_Source\PSoC4/CyLFClk.c ****                 {
 1507              		.loc 2 1250 0 discriminator 1
 1508 0032 8022     		movs	r2, #128
 1509 0034 9202     		lsls	r2, r2, #10
 1510              	.L163:
 1511              	.LVL116:
 1512              	.LBB92:
 1513              	.LBB93:
ARM GAS  C:\Users\user\AppData\Local\Temp\ccsPNKJ0.s 			page 76


1020:Generated_Source\PSoC4/CyLFClk.c ****     }
 1514              		.loc 2 1020 0 discriminator 1
 1515 0036 1968     		ldr	r1, [r3]
 1516              	.LVL117:
 1517              	.LBE93:
 1518              	.LBE92:
1250:Generated_Source\PSoC4/CyLFClk.c ****                 {
 1519              		.loc 2 1250 0 discriminator 1
 1520 0038 1142     		tst	r1, r2
 1521 003a FCD1     		bne	.L163
 1522              	.L151:
1256:Generated_Source\PSoC4/CyLFClk.c **** 
 1523              		.loc 2 1256 0
 1524              		@ sp needed
 1525 003c 7047     		bx	lr
 1526              	.L172:
 1527 003e C046     		.align	2
 1528              	.L171:
 1529 0040 00010B40 		.word	1074462976
 1530 0044 10020B40 		.word	1074463248
 1531              		.cfi_endproc
 1532              	.LFE27:
 1533              		.size	CySysWdtDisable, .-CySysWdtDisable
 1534              		.section	.text.CySysWdtSetCascade,"ax",%progbits
 1535              		.align	1
 1536              		.global	CySysWdtSetCascade
 1537              		.code	16
 1538              		.thumb_func
 1539              		.type	CySysWdtSetCascade, %function
 1540              	CySysWdtSetCascade:
 1541              	.LFB28:
1286:Generated_Source\PSoC4/CyLFClk.c ****         uint32 configRegValue;
 1542              		.loc 2 1286 0
 1543              		.cfi_startproc
 1544              		@ args = 0, pretend = 0, frame = 0
 1545              		@ frame_needed = 0, uses_anonymous_args = 0
 1546              	.LVL118:
 1547              	.LBB94:
 1548              	.LBB95:
1020:Generated_Source\PSoC4/CyLFClk.c ****     }
 1549              		.loc 2 1020 0
 1550 0000 094A     		ldr	r2, .L175
 1551              	.LBE95:
 1552              	.LBE94:
1286:Generated_Source\PSoC4/CyLFClk.c ****         uint32 configRegValue;
 1553              		.loc 2 1286 0
 1554 0002 10B5     		push	{r4, lr}
 1555              		.cfi_def_cfa_offset 8
 1556              		.cfi_offset 4, -8
 1557              		.cfi_offset 14, -4
 1558              	.LBB97:
 1559              	.LBB96:
1020:Generated_Source\PSoC4/CyLFClk.c ****     }
 1560              		.loc 2 1020 0
 1561 0004 1168     		ldr	r1, [r2]
 1562              	.LVL119:
 1563              	.LBE96:
ARM GAS  C:\Users\user\AppData\Local\Temp\ccsPNKJ0.s 			page 77


 1564              	.LBE97:
 1565              	.LBB98:
 1566              	.LBB99:
 1567 0006 1368     		ldr	r3, [r2]
 1568              	.LVL120:
 1569              	.LBE99:
 1570              	.LBE98:
 1571              	.LBB100:
 1572              	.LBB101:
 1573 0008 1268     		ldr	r2, [r2]
 1574              	.LVL121:
 1575              	.LBE101:
 1576              	.LBE100:
1294:Generated_Source\PSoC4/CyLFClk.c ****         {
 1577              		.loc 2 1294 0
 1578 000a 5C0A     		lsrs	r4, r3, #9
 1579 000c 4B08     		lsrs	r3, r1, #1
 1580              	.LVL122:
 1581 000e 2343     		orrs	r3, r4
 1582 0010 520C     		lsrs	r2, r2, #17
 1583 0012 1343     		orrs	r3, r2
 1584 0014 DB07     		lsls	r3, r3, #31
 1585 0016 05D4     		bmi	.L173
1296:Generated_Source\PSoC4/CyLFClk.c ****             configRegValue &= ((uint32)(~(CY_SYS_WDT_CASCADE_01|CY_SYS_WDT_CASCADE_12)));
 1586              		.loc 2 1296 0
 1587 0018 044A     		ldr	r2, .L175+4
1297:Generated_Source\PSoC4/CyLFClk.c ****             configRegValue |= cascadeMask;
 1588              		.loc 2 1297 0
 1589 001a 054B     		ldr	r3, .L175+8
1296:Generated_Source\PSoC4/CyLFClk.c ****             configRegValue &= ((uint32)(~(CY_SYS_WDT_CASCADE_01|CY_SYS_WDT_CASCADE_12)));
 1590              		.loc 2 1296 0
 1591 001c 1168     		ldr	r1, [r2]
 1592              	.LVL123:
1297:Generated_Source\PSoC4/CyLFClk.c ****             configRegValue |= cascadeMask;
 1593              		.loc 2 1297 0
 1594 001e 0B40     		ands	r3, r1
 1595              	.LVL124:
1298:Generated_Source\PSoC4/CyLFClk.c ****             CY_SYS_WDT_CONFIG_REG = configRegValue;
 1596              		.loc 2 1298 0
 1597 0020 1843     		orrs	r0, r3
 1598              	.LVL125:
1299:Generated_Source\PSoC4/CyLFClk.c ****         }
 1599              		.loc 2 1299 0
 1600 0022 1060     		str	r0, [r2]
 1601              	.LVL126:
 1602              	.L173:
1301:Generated_Source\PSoC4/CyLFClk.c **** 
 1603              		.loc 2 1301 0
 1604              		@ sp needed
 1605 0024 10BD     		pop	{r4, pc}
 1606              	.L176:
 1607 0026 C046     		.align	2
 1608              	.L175:
 1609 0028 10020B40 		.word	1074463248
 1610 002c 0C020B40 		.word	1074463244
 1611 0030 F7F7FFFF 		.word	-2057
 1612              		.cfi_endproc
ARM GAS  C:\Users\user\AppData\Local\Temp\ccsPNKJ0.s 			page 78


 1613              	.LFE28:
 1614              		.size	CySysWdtSetCascade, .-CySysWdtSetCascade
 1615              		.section	.text.CySysWdtGetCascade,"ax",%progbits
 1616              		.align	1
 1617              		.global	CySysWdtGetCascade
 1618              		.code	16
 1619              		.thumb_func
 1620              		.type	CySysWdtGetCascade, %function
 1621              	CySysWdtGetCascade:
 1622              	.LFB29:
1317:Generated_Source\PSoC4/CyLFClk.c ****         return (CY_SYS_WDT_CONFIG_REG & (CY_SYS_WDT_CASCADE_01 | CY_SYS_WDT_CASCADE_12));
 1623              		.loc 2 1317 0
 1624              		.cfi_startproc
 1625              		@ args = 0, pretend = 0, frame = 0
 1626              		@ frame_needed = 0, uses_anonymous_args = 0
 1627              		@ link register save eliminated.
1318:Generated_Source\PSoC4/CyLFClk.c ****     }
 1628              		.loc 2 1318 0
 1629 0000 024B     		ldr	r3, .L178
1319:Generated_Source\PSoC4/CyLFClk.c **** 
 1630              		.loc 2 1319 0
 1631              		@ sp needed
1318:Generated_Source\PSoC4/CyLFClk.c ****     }
 1632              		.loc 2 1318 0
 1633 0002 1868     		ldr	r0, [r3]
 1634 0004 024B     		ldr	r3, .L178+4
 1635 0006 1840     		ands	r0, r3
1319:Generated_Source\PSoC4/CyLFClk.c **** 
 1636              		.loc 2 1319 0
 1637 0008 7047     		bx	lr
 1638              	.L179:
 1639 000a C046     		.align	2
 1640              	.L178:
 1641 000c 0C020B40 		.word	1074463244
 1642 0010 08080000 		.word	2056
 1643              		.cfi_endproc
 1644              	.LFE29:
 1645              		.size	CySysWdtGetCascade, .-CySysWdtGetCascade
 1646              		.section	.text.CySysWdtSetMatch,"ax",%progbits
 1647              		.align	1
 1648              		.global	CySysWdtSetMatch
 1649              		.code	16
 1650              		.thumb_func
 1651              		.type	CySysWdtSetMatch, %function
 1652              	CySysWdtSetMatch:
 1653              	.LFB30:
1337:Generated_Source\PSoC4/CyLFClk.c ****         uint32 regValue;
 1654              		.loc 2 1337 0
 1655              		.cfi_startproc
 1656              		@ args = 0, pretend = 0, frame = 0
 1657              		@ frame_needed = 0, uses_anonymous_args = 0
 1658              	.LVL127:
 1659 0000 70B5     		push	{r4, r5, r6, lr}
 1660              		.cfi_def_cfa_offset 16
 1661              		.cfi_offset 4, -16
 1662              		.cfi_offset 5, -12
 1663              		.cfi_offset 6, -8
ARM GAS  C:\Users\user\AppData\Local\Temp\ccsPNKJ0.s 			page 79


 1664              		.cfi_offset 14, -4
1344:Generated_Source\PSoC4/CyLFClk.c **** 
 1665              		.loc 2 1344 0
 1666 0002 0E4D     		ldr	r5, .L187
1337:Generated_Source\PSoC4/CyLFClk.c ****         uint32 regValue;
 1667              		.loc 2 1337 0
 1668 0004 0600     		movs	r6, r0
1344:Generated_Source\PSoC4/CyLFClk.c **** 
 1669              		.loc 2 1344 0
 1670 0006 2B68     		ldr	r3, [r5]
1337:Generated_Source\PSoC4/CyLFClk.c ****         uint32 regValue;
 1671              		.loc 2 1337 0
 1672 0008 0C00     		movs	r4, r1
1344:Generated_Source\PSoC4/CyLFClk.c **** 
 1673              		.loc 2 1344 0
 1674 000a 9B0F     		lsrs	r3, r3, #30
 1675 000c C920     		movs	r0, #201
 1676              	.LVL128:
 1677 000e 002B     		cmp	r3, #0
 1678 0010 00D0     		beq	.L181
 1679 0012 6C38     		subs	r0, r0, #108
 1680              	.L181:
1344:Generated_Source\PSoC4/CyLFClk.c **** 
 1681              		.loc 2 1344 0 is_stmt 0 discriminator 4
 1682 0014 FFF7FEFF 		bl	CyDelayUs
 1683              	.LVL129:
1348:Generated_Source\PSoC4/CyLFClk.c **** 
 1684              		.loc 2 1348 0 is_stmt 1 discriminator 4
 1685 0018 0949     		ldr	r1, .L187+4
1347:Generated_Source\PSoC4/CyLFClk.c ****         CY_SYS_WDT_MATCH_REG = (regValue | (match << (counterNum * CY_SYS_WDT_CNT_MATCH_SHIFT)));
 1686              		.loc 2 1347 0 discriminator 4
 1687 001a 3001     		lsls	r0, r6, #4
1348:Generated_Source\PSoC4/CyLFClk.c **** 
 1688              		.loc 2 1348 0 discriminator 4
 1689 001c 8140     		lsls	r1, r1, r0
 1690 001e 8440     		lsls	r4, r4, r0
 1691              	.LVL130:
1346:Generated_Source\PSoC4/CyLFClk.c ****         regValue &= (uint32)~((uint32)(CY_SYS_WDT_LOWER_16BITS_MASK << (counterNum * CY_SYS_WDT_CNT
 1692              		.loc 2 1346 0 discriminator 4
 1693 0020 084A     		ldr	r2, .L187+8
1351:Generated_Source\PSoC4/CyLFClk.c ****     }
 1694              		.loc 2 1351 0 discriminator 4
 1695 0022 4320     		movs	r0, #67
1346:Generated_Source\PSoC4/CyLFClk.c ****         regValue &= (uint32)~((uint32)(CY_SYS_WDT_LOWER_16BITS_MASK << (counterNum * CY_SYS_WDT_CNT
 1696              		.loc 2 1346 0 discriminator 4
 1697 0024 1368     		ldr	r3, [r2]
 1698              	.LVL131:
1348:Generated_Source\PSoC4/CyLFClk.c **** 
 1699              		.loc 2 1348 0 discriminator 4
 1700 0026 8B43     		bics	r3, r1
 1701 0028 1C43     		orrs	r4, r3
 1702 002a 1460     		str	r4, [r2]
1351:Generated_Source\PSoC4/CyLFClk.c ****     }
 1703              		.loc 2 1351 0 discriminator 4
 1704 002c 2B68     		ldr	r3, [r5]
 1705 002e 9B0F     		lsrs	r3, r3, #30
 1706 0030 00D0     		beq	.L182
ARM GAS  C:\Users\user\AppData\Local\Temp\ccsPNKJ0.s 			page 80


1351:Generated_Source\PSoC4/CyLFClk.c ****     }
 1707              		.loc 2 1351 0 is_stmt 0
 1708 0032 2438     		subs	r0, r0, #36
 1709              	.L182:
1351:Generated_Source\PSoC4/CyLFClk.c ****     }
 1710              		.loc 2 1351 0 discriminator 4
 1711 0034 FFF7FEFF 		bl	CyDelayUs
 1712              	.LVL132:
1352:Generated_Source\PSoC4/CyLFClk.c **** 
 1713              		.loc 2 1352 0 is_stmt 1 discriminator 4
 1714              		@ sp needed
 1715              	.LVL133:
 1716 0038 70BD     		pop	{r4, r5, r6, pc}
 1717              	.L188:
 1718 003a C046     		.align	2
 1719              	.L187:
 1720 003c 0C020B40 		.word	1074463244
 1721 0040 FFFF0000 		.word	65535
 1722 0044 08020B40 		.word	1074463240
 1723              		.cfi_endproc
 1724              	.LFE30:
 1725              		.size	CySysWdtSetMatch, .-CySysWdtSetMatch
 1726              		.section	.text.CySysWdtSetToggleBit,"ax",%progbits
 1727              		.align	1
 1728              		.global	CySysWdtSetToggleBit
 1729              		.code	16
 1730              		.thumb_func
 1731              		.type	CySysWdtSetToggleBit, %function
 1732              	CySysWdtSetToggleBit:
 1733              	.LFB31:
1376:Generated_Source\PSoC4/CyLFClk.c ****         uint32 configRegValue;
 1734              		.loc 2 1376 0
 1735              		.cfi_startproc
 1736              		@ args = 0, pretend = 0, frame = 0
 1737              		@ frame_needed = 0, uses_anonymous_args = 0
 1738              		@ link register save eliminated.
 1739              	.LVL134:
 1740              	.LBB102:
 1741              	.LBB103:
1020:Generated_Source\PSoC4/CyLFClk.c ****     }
 1742              		.loc 2 1020 0
 1743 0000 074B     		ldr	r3, .L191
 1744 0002 1B68     		ldr	r3, [r3]
 1745              	.LVL135:
 1746              	.LBE103:
 1747              	.LBE102:
1379:Generated_Source\PSoC4/CyLFClk.c ****         {
 1748              		.loc 2 1379 0
 1749 0004 9B03     		lsls	r3, r3, #14
 1750 0006 09D4     		bmi	.L189
1381:Generated_Source\PSoC4/CyLFClk.c ****             configRegValue &= (uint32)(~((uint32)(CY_SYS_WDT_CONFIG_BITS2_MASK << CY_SYS_WDT_CONFIG
 1751              		.loc 2 1381 0
 1752 0008 0649     		ldr	r1, .L191+4
1382:Generated_Source\PSoC4/CyLFClk.c ****             configRegValue |= ((bits & CY_SYS_WDT_CONFIG_BITS2_MASK) << CY_SYS_WDT_CONFIG_BITS2_POS
 1753              		.loc 2 1382 0
 1754 000a 074B     		ldr	r3, .L191+8
1381:Generated_Source\PSoC4/CyLFClk.c ****             configRegValue &= (uint32)(~((uint32)(CY_SYS_WDT_CONFIG_BITS2_MASK << CY_SYS_WDT_CONFIG
ARM GAS  C:\Users\user\AppData\Local\Temp\ccsPNKJ0.s 			page 81


 1755              		.loc 2 1381 0
 1756 000c 0A68     		ldr	r2, [r1]
 1757              	.LVL136:
1383:Generated_Source\PSoC4/CyLFClk.c ****             CY_SYS_WDT_CONFIG_REG = configRegValue;
 1758              		.loc 2 1383 0
 1759 000e 0006     		lsls	r0, r0, #24
 1760              	.LVL137:
1382:Generated_Source\PSoC4/CyLFClk.c ****             configRegValue |= ((bits & CY_SYS_WDT_CONFIG_BITS2_MASK) << CY_SYS_WDT_CONFIG_BITS2_POS
 1761              		.loc 2 1382 0
 1762 0010 1340     		ands	r3, r2
 1763              	.LVL138:
1383:Generated_Source\PSoC4/CyLFClk.c ****             CY_SYS_WDT_CONFIG_REG = configRegValue;
 1764              		.loc 2 1383 0
 1765 0012 F822     		movs	r2, #248
 1766 0014 5205     		lsls	r2, r2, #21
 1767 0016 1040     		ands	r0, r2
 1768 0018 1843     		orrs	r0, r3
 1769              	.LVL139:
1384:Generated_Source\PSoC4/CyLFClk.c ****         }
 1770              		.loc 2 1384 0
 1771 001a 0860     		str	r0, [r1]
 1772              	.LVL140:
 1773              	.L189:
1386:Generated_Source\PSoC4/CyLFClk.c **** 
 1774              		.loc 2 1386 0
 1775              		@ sp needed
 1776 001c 7047     		bx	lr
 1777              	.L192:
 1778 001e C046     		.align	2
 1779              	.L191:
 1780 0020 10020B40 		.word	1074463248
 1781 0024 0C020B40 		.word	1074463244
 1782 0028 FFFFFFE0 		.word	-520093697
 1783              		.cfi_endproc
 1784              	.LFE31:
 1785              		.size	CySysWdtSetToggleBit, .-CySysWdtSetToggleBit
 1786              		.section	.text.CySysWdtGetToggleBit,"ax",%progbits
 1787              		.align	1
 1788              		.global	CySysWdtGetToggleBit
 1789              		.code	16
 1790              		.thumb_func
 1791              		.type	CySysWdtGetToggleBit, %function
 1792              	CySysWdtGetToggleBit:
 1793              	.LFB32:
1399:Generated_Source\PSoC4/CyLFClk.c ****         return ((CY_SYS_WDT_CONFIG_REG >> CY_SYS_WDT_CONFIG_BITS2_POS) & CY_SYS_WDT_CONFIG_BITS2_MA
 1794              		.loc 2 1399 0
 1795              		.cfi_startproc
 1796              		@ args = 0, pretend = 0, frame = 0
 1797              		@ frame_needed = 0, uses_anonymous_args = 0
 1798              		@ link register save eliminated.
1400:Generated_Source\PSoC4/CyLFClk.c ****     }
 1799              		.loc 2 1400 0
 1800 0000 024B     		ldr	r3, .L194
1401:Generated_Source\PSoC4/CyLFClk.c **** 
 1801              		.loc 2 1401 0
 1802              		@ sp needed
1400:Generated_Source\PSoC4/CyLFClk.c ****     }
ARM GAS  C:\Users\user\AppData\Local\Temp\ccsPNKJ0.s 			page 82


 1803              		.loc 2 1400 0
 1804 0002 1868     		ldr	r0, [r3]
 1805 0004 C000     		lsls	r0, r0, #3
 1806 0006 C00E     		lsrs	r0, r0, #27
1401:Generated_Source\PSoC4/CyLFClk.c **** 
 1807              		.loc 2 1401 0
 1808 0008 7047     		bx	lr
 1809              	.L195:
 1810 000a C046     		.align	2
 1811              	.L194:
 1812 000c 0C020B40 		.word	1074463244
 1813              		.cfi_endproc
 1814              	.LFE32:
 1815              		.size	CySysWdtGetToggleBit, .-CySysWdtGetToggleBit
 1816              		.section	.text.CySysWdtGetMatch,"ax",%progbits
 1817              		.align	1
 1818              		.global	CySysWdtGetMatch
 1819              		.code	16
 1820              		.thumb_func
 1821              		.type	CySysWdtGetMatch, %function
 1822              	CySysWdtGetMatch:
 1823              	.LFB33:
1417:Generated_Source\PSoC4/CyLFClk.c ****         CYASSERT((counterNum == CY_SYS_WDT_COUNTER0) ||
 1824              		.loc 2 1417 0
 1825              		.cfi_startproc
 1826              		@ args = 0, pretend = 0, frame = 0
 1827              		@ frame_needed = 0, uses_anonymous_args = 0
 1828              		@ link register save eliminated.
 1829              	.LVL141:
1417:Generated_Source\PSoC4/CyLFClk.c ****         CYASSERT((counterNum == CY_SYS_WDT_COUNTER0) ||
 1830              		.loc 2 1417 0
 1831 0000 0300     		movs	r3, r0
1421:Generated_Source\PSoC4/CyLFClk.c ****                                             (counterNum * CY_SYS_WDT_CNT_MATCH_SHIFT)) & CY_SYS_WDT
 1832              		.loc 2 1421 0
 1833 0002 034A     		ldr	r2, .L197
 1834 0004 1B01     		lsls	r3, r3, #4
 1835 0006 1068     		ldr	r0, [r2]
 1836              	.LVL142:
1423:Generated_Source\PSoC4/CyLFClk.c **** 
 1837              		.loc 2 1423 0
 1838              		@ sp needed
1421:Generated_Source\PSoC4/CyLFClk.c ****                                             (counterNum * CY_SYS_WDT_CNT_MATCH_SHIFT)) & CY_SYS_WDT
 1839              		.loc 2 1421 0
 1840 0008 D840     		lsrs	r0, r0, r3
 1841 000a 80B2     		uxth	r0, r0
1423:Generated_Source\PSoC4/CyLFClk.c **** 
 1842              		.loc 2 1423 0
 1843 000c 7047     		bx	lr
 1844              	.L198:
 1845 000e C046     		.align	2
 1846              	.L197:
 1847 0010 08020B40 		.word	1074463240
 1848              		.cfi_endproc
 1849              	.LFE33:
 1850              		.size	CySysWdtGetMatch, .-CySysWdtGetMatch
 1851              		.section	.text.CySysWdtGetCount,"ax",%progbits
 1852              		.align	1
ARM GAS  C:\Users\user\AppData\Local\Temp\ccsPNKJ0.s 			page 83


 1853              		.global	CySysWdtGetCount
 1854              		.code	16
 1855              		.thumb_func
 1856              		.type	CySysWdtGetCount, %function
 1857              	CySysWdtGetCount:
 1858              	.LFB34:
1439:Generated_Source\PSoC4/CyLFClk.c ****         uint32 regValue = 0u;
 1859              		.loc 2 1439 0
 1860              		.cfi_startproc
 1861              		@ args = 0, pretend = 0, frame = 0
 1862              		@ frame_needed = 0, uses_anonymous_args = 0
 1863              		@ link register save eliminated.
 1864              	.LVL143:
1442:Generated_Source\PSoC4/CyLFClk.c ****         {
 1865              		.loc 2 1442 0
 1866 0000 0128     		cmp	r0, #1
 1867 0002 0AD0     		beq	.L201
 1868 0004 0028     		cmp	r0, #0
 1869 0006 04D0     		beq	.L202
 1870 0008 0228     		cmp	r0, #2
 1871 000a 0AD1     		bne	.L206
1456:Generated_Source\PSoC4/CyLFClk.c ****             break;
 1872              		.loc 2 1456 0
 1873 000c 064B     		ldr	r3, .L207
 1874 000e 1868     		ldr	r0, [r3]
 1875              	.LVL144:
1457:Generated_Source\PSoC4/CyLFClk.c **** 
 1876              		.loc 2 1457 0
 1877 0010 08E0     		b	.L200
 1878              	.LVL145:
 1879              	.L202:
1446:Generated_Source\PSoC4/CyLFClk.c ****             break;
 1880              		.loc 2 1446 0
 1881 0012 064B     		ldr	r3, .L207+4
 1882 0014 1868     		ldr	r0, [r3]
 1883              	.LVL146:
 1884 0016 80B2     		uxth	r0, r0
 1885              	.LVL147:
1447:Generated_Source\PSoC4/CyLFClk.c **** 
 1886              		.loc 2 1447 0
 1887 0018 04E0     		b	.L200
 1888              	.LVL148:
 1889              	.L201:
1451:Generated_Source\PSoC4/CyLFClk.c ****             break;
 1890              		.loc 2 1451 0
 1891 001a 044B     		ldr	r3, .L207+4
 1892 001c 1868     		ldr	r0, [r3]
 1893              	.LVL149:
 1894 001e 000C     		lsrs	r0, r0, #16
 1895              	.LVL150:
1452:Generated_Source\PSoC4/CyLFClk.c **** 
 1896              		.loc 2 1452 0
 1897 0020 00E0     		b	.L200
 1898              	.LVL151:
 1899              	.L206:
1440:Generated_Source\PSoC4/CyLFClk.c **** 
 1900              		.loc 2 1440 0
ARM GAS  C:\Users\user\AppData\Local\Temp\ccsPNKJ0.s 			page 84


 1901 0022 0020     		movs	r0, #0
 1902              	.LVL152:
 1903              	.L200:
1465:Generated_Source\PSoC4/CyLFClk.c **** 
 1904              		.loc 2 1465 0
 1905              		@ sp needed
 1906 0024 7047     		bx	lr
 1907              	.L208:
 1908 0026 C046     		.align	2
 1909              	.L207:
 1910 0028 04020B40 		.word	1074463236
 1911 002c 00020B40 		.word	1074463232
 1912              		.cfi_endproc
 1913              	.LFE34:
 1914              		.size	CySysWdtGetCount, .-CySysWdtGetCount
 1915              		.section	.text.CySysClkLfclkPosedgeCatch,"ax",%progbits
 1916              		.align	1
 1917              		.code	16
 1918              		.thumb_func
 1919              		.type	CySysClkLfclkPosedgeCatch, %function
 1920              	CySysClkLfclkPosedgeCatch:
 1921              	.LFB44:
1841:Generated_Source\PSoC4/CyLFClk.c ****         uint32 firstCount;
 1922              		.loc 2 1841 0
 1923              		.cfi_startproc
 1924              		@ args = 0, pretend = 0, frame = 0
 1925              		@ frame_needed = 0, uses_anonymous_args = 0
 1926              	.LVL153:
 1927              	.LBB104:
 1928              	.LBB105:
1020:Generated_Source\PSoC4/CyLFClk.c ****     }
 1929              		.loc 2 1020 0
 1930 0000 164B     		ldr	r3, .L217
 1931              	.LBE105:
 1932              	.LBE104:
1841:Generated_Source\PSoC4/CyLFClk.c ****         uint32 firstCount;
 1933              		.loc 2 1841 0
 1934 0002 70B5     		push	{r4, r5, r6, lr}
 1935              		.cfi_def_cfa_offset 16
 1936              		.cfi_offset 4, -16
 1937              		.cfi_offset 5, -12
 1938              		.cfi_offset 6, -8
 1939              		.cfi_offset 14, -4
 1940              	.LBB107:
 1941              	.LBB106:
1020:Generated_Source\PSoC4/CyLFClk.c ****     }
 1942              		.loc 2 1020 0
 1943 0004 1A68     		ldr	r2, [r3]
 1944              	.LVL154:
 1945              	.LBE106:
 1946              	.LBE107:
1845:Generated_Source\PSoC4/CyLFClk.c ****         {
 1947              		.loc 2 1845 0
 1948 0006 0125     		movs	r5, #1
 1949 0008 154C     		ldr	r4, .L217+4
 1950 000a 9207     		lsls	r2, r2, #30
 1951 000c 01D5     		bpl	.L210
ARM GAS  C:\Users\user\AppData\Local\Temp\ccsPNKJ0.s 			page 85


1847:Generated_Source\PSoC4/CyLFClk.c ****         }
 1952              		.loc 2 1847 0
 1953 000e 0023     		movs	r3, #0
 1954 0010 0AE0     		b	.L216
 1955              	.L210:
 1956              	.LVL155:
 1957              	.LBB108:
 1958              	.LBB109:
1020:Generated_Source\PSoC4/CyLFClk.c ****     }
 1959              		.loc 2 1020 0
 1960 0012 1A68     		ldr	r2, [r3]
 1961              	.LVL156:
 1962              	.LBE109:
 1963              	.LBE108:
1849:Generated_Source\PSoC4/CyLFClk.c ****         {
 1964              		.loc 2 1849 0
 1965 0014 520A     		lsrs	r2, r2, #9
 1966 0016 2A42     		tst	r2, r5
 1967 0018 01D0     		beq	.L212
1851:Generated_Source\PSoC4/CyLFClk.c ****         }
 1968              		.loc 2 1851 0
 1969 001a 6561     		str	r5, [r4, #20]
 1970 001c 13E0     		b	.L211
 1971              	.L212:
 1972              	.LVL157:
 1973              	.LBB110:
 1974              	.LBB111:
1020:Generated_Source\PSoC4/CyLFClk.c ****     }
 1975              		.loc 2 1020 0
 1976 001e 1868     		ldr	r0, [r3]
 1977              	.LVL158:
 1978              	.LBE111:
 1979              	.LBE110:
1853:Generated_Source\PSoC4/CyLFClk.c ****         {
 1980              		.loc 2 1853 0
 1981 0020 400C     		lsrs	r0, r0, #17
 1982 0022 2840     		ands	r0, r5
 1983 0024 02D0     		beq	.L213
1855:Generated_Source\PSoC4/CyLFClk.c ****         }
 1984              		.loc 2 1855 0
 1985 0026 0223     		movs	r3, #2
 1986              	.L216:
 1987 0028 6361     		str	r3, [r4, #20]
 1988 002a 0CE0     		b	.L211
 1989              	.L213:
 1990              	.LBB112:
 1991              	.LBB113:
1077:Generated_Source\PSoC4/CyLFClk.c ****     }
 1992              		.loc 2 1077 0
 1993 002c 0D4B     		ldr	r3, .L217+8
 1994              	.LBE113:
 1995              	.LBE112:
1861:Generated_Source\PSoC4/CyLFClk.c **** 
 1996              		.loc 2 1861 0
 1997 002e 6061     		str	r0, [r4, #20]
 1998              	.LVL159:
1860:Generated_Source\PSoC4/CyLFClk.c ****             lfclkPosedgeEnabledWdtCounter = CY_SYS_WDT_COUNTER0;
ARM GAS  C:\Users\user\AppData\Local\Temp\ccsPNKJ0.s 			page 86


 1999              		.loc 2 1860 0
 2000 0030 E560     		str	r5, [r4, #12]
 2001              	.LBB115:
 2002              	.LBB114:
1077:Generated_Source\PSoC4/CyLFClk.c ****     }
 2003              		.loc 2 1077 0
 2004 0032 1A68     		ldr	r2, [r3]
 2005              	.LVL160:
 2006              	.LBE114:
 2007              	.LBE115:
1863:Generated_Source\PSoC4/CyLFClk.c ****             CySysWdtSetMode(CY_SYS_WDT_COUNTER0, CY_SYS_WDT_MODE_NONE);
 2008              		.loc 2 1863 0
 2009 0034 0323     		movs	r3, #3
1864:Generated_Source\PSoC4/CyLFClk.c ****             CySysWdtEnable(CY_SYS_WDT_COUNTER0_MASK);
 2010              		.loc 2 1864 0
 2011 0036 0100     		movs	r1, r0
1863:Generated_Source\PSoC4/CyLFClk.c ****             CySysWdtSetMode(CY_SYS_WDT_COUNTER0, CY_SYS_WDT_MODE_NONE);
 2012              		.loc 2 1863 0
 2013 0038 1340     		ands	r3, r2
 2014 003a 2361     		str	r3, [r4, #16]
1864:Generated_Source\PSoC4/CyLFClk.c ****             CySysWdtEnable(CY_SYS_WDT_COUNTER0_MASK);
 2015              		.loc 2 1864 0
 2016 003c FFF7FEFF 		bl	CySysWdtSetMode
 2017              	.LVL161:
1865:Generated_Source\PSoC4/CyLFClk.c ****         }
 2018              		.loc 2 1865 0
 2019 0040 2800     		movs	r0, r5
 2020 0042 FFF7FEFF 		bl	CySysWdtEnable
 2021              	.LVL162:
 2022              	.L211:
1868:Generated_Source\PSoC4/CyLFClk.c ****         while (CySysWdtGetCount(lfclkPosedgeEnabledWdtCounter) == firstCount)
 2023              		.loc 2 1868 0
 2024 0046 6469     		ldr	r4, [r4, #20]
 2025 0048 2000     		movs	r0, r4
 2026 004a FFF7FEFF 		bl	CySysWdtGetCount
 2027              	.LVL163:
 2028 004e 0500     		movs	r5, r0
 2029              	.LVL164:
 2030              	.L214:
1869:Generated_Source\PSoC4/CyLFClk.c ****         {
 2031              		.loc 2 1869 0 discriminator 1
 2032 0050 2000     		movs	r0, r4
 2033 0052 FFF7FEFF 		bl	CySysWdtGetCount
 2034              	.LVL165:
 2035 0056 8542     		cmp	r5, r0
 2036 0058 FAD0     		beq	.L214
1873:Generated_Source\PSoC4/CyLFClk.c **** 
 2037              		.loc 2 1873 0
 2038              		@ sp needed
 2039              	.LVL166:
 2040 005a 70BD     		pop	{r4, r5, r6, pc}
 2041              	.L218:
 2042              		.align	2
 2043              	.L217:
 2044 005c 10020B40 		.word	1074463248
 2045 0060 00000000 		.word	.LANCHOR0
 2046 0064 0C020B40 		.word	1074463244
ARM GAS  C:\Users\user\AppData\Local\Temp\ccsPNKJ0.s 			page 87


 2047              		.cfi_endproc
 2048              	.LFE44:
 2049              		.size	CySysClkLfclkPosedgeCatch, .-CySysClkLfclkPosedgeCatch
 2050              		.section	.text.CySysClkIloStop,"ax",%progbits
 2051              		.align	1
 2052              		.global	CySysClkIloStop
 2053              		.code	16
 2054              		.thumb_func
 2055              		.type	CySysClkIloStop, %function
 2056              	CySysClkIloStop:
 2057              	.LFB3:
 109:Generated_Source\PSoC4/CyLFClk.c ****     #if(CY_IP_SRSSV2)
 2058              		.loc 2 109 0
 2059              		.cfi_startproc
 2060              		@ args = 0, pretend = 0, frame = 0
 2061              		@ frame_needed = 0, uses_anonymous_args = 0
 2062              	.LBB122:
 2063              	.LBB123:
 972:Generated_Source\PSoC4/CyLFClk.c ****     }
 2064              		.loc 2 972 0
 2065 0000 114B     		ldr	r3, .L226
 2066              	.LBE123:
 2067              	.LBE122:
 109:Generated_Source\PSoC4/CyLFClk.c ****     #if(CY_IP_SRSSV2)
 2068              		.loc 2 109 0
 2069 0002 70B5     		push	{r4, r5, r6, lr}
 2070              		.cfi_def_cfa_offset 16
 2071              		.cfi_offset 4, -16
 2072              		.cfi_offset 5, -12
 2073              		.cfi_offset 6, -8
 2074              		.cfi_offset 14, -4
 2075              	.LBB125:
 2076              	.LBB124:
 972:Generated_Source\PSoC4/CyLFClk.c ****     }
 2077              		.loc 2 972 0
 2078 0004 1A68     		ldr	r2, [r3]
 2079 0006 C023     		movs	r3, #192
 2080 0008 1B02     		lsls	r3, r3, #8
 2081 000a 1A42     		tst	r2, r3
 2082 000c 1AD1     		bne	.L219
 2083              	.LBE124:
 2084              	.LBE125:
 2085              	.LBB126:
 2086              	.LBB127:
 373:Generated_Source\PSoC4/CyLFClk.c ****             (uint32) 1u :
 2087              		.loc 2 373 0
 2088 000e 0F4C     		ldr	r4, .L226+4
 2089 0010 2368     		ldr	r3, [r4]
 374:Generated_Source\PSoC4/CyLFClk.c ****             (uint32) 0u);
 2090              		.loc 2 374 0
 2091 0012 002B     		cmp	r3, #0
 2092 0014 16DA     		bge	.L219
 2093              	.LBE127:
 2094              	.LBE126:
 2095              	.LBB128:
 2096              	.LBB129:
 688:Generated_Source\PSoC4/CyLFClk.c ****         return (lfclkSource);
ARM GAS  C:\Users\user\AppData\Local\Temp\ccsPNKJ0.s 			page 88


 2097              		.loc 2 688 0
 2098 0016 0E4B     		ldr	r3, .L226+8
 2099 0018 1B68     		ldr	r3, [r3]
 2100              	.LBE129:
 2101              	.LBE128:
 120:Generated_Source\PSoC4/CyLFClk.c ****                 {
 2102              		.loc 2 120 0
 2103 001a 9B0F     		lsrs	r3, r3, #30
 2104 001c 0ED1     		bne	.L225
 124:Generated_Source\PSoC4/CyLFClk.c ****                 CySysClkLfclkPosedgeCatch();
 2105              		.loc 2 124 0
 2106 001e FFF7FEFF 		bl	CyEnterCriticalSection
 2107              	.LVL167:
 2108 0022 0500     		movs	r5, r0
 2109              	.LVL168:
 125:Generated_Source\PSoC4/CyLFClk.c ****                 CY_SYS_CLK_ILO_CONFIG_REG &= (uint32) ( ~(uint32)CY_SYS_CLK_ILO_CONFIG_ENABLE);
 2110              		.loc 2 125 0
 2111 0024 FFF7FEFF 		bl	CySysClkLfclkPosedgeCatch
 2112              	.LVL169:
 126:Generated_Source\PSoC4/CyLFClk.c ****                 CySysClkLfclkPosedgeRestore();
 2113              		.loc 2 126 0
 2114 0028 2368     		ldr	r3, [r4]
 2115 002a 5B00     		lsls	r3, r3, #1
 2116 002c 5B08     		lsrs	r3, r3, #1
 2117 002e 2360     		str	r3, [r4]
 127:Generated_Source\PSoC4/CyLFClk.c ****                 CyExitCriticalSection(interruptState);
 2118              		.loc 2 127 0
 2119 0030 FFF7FEFF 		bl	CySysClkLfclkPosedgeRestore
 2120              	.LVL170:
 128:Generated_Source\PSoC4/CyLFClk.c **** 
 2121              		.loc 2 128 0
 2122 0034 2800     		movs	r0, r5
 2123 0036 FFF7FEFF 		bl	CyExitCriticalSection
 2124              	.LVL171:
 2125 003a 03E0     		b	.L219
 2126              	.LVL172:
 2127              	.L225:
 134:Generated_Source\PSoC4/CyLFClk.c ****                 }
 2128              		.loc 2 134 0
 2129 003c 2368     		ldr	r3, [r4]
 2130 003e 5B00     		lsls	r3, r3, #1
 2131 0040 5B08     		lsrs	r3, r3, #1
 2132 0042 2360     		str	r3, [r4]
 2133              	.L219:
 143:Generated_Source\PSoC4/CyLFClk.c **** 
 2134              		.loc 2 143 0
 2135              		@ sp needed
 2136 0044 70BD     		pop	{r4, r5, r6, pc}
 2137              	.L227:
 2138 0046 C046     		.align	2
 2139              	.L226:
 2140 0048 00010B40 		.word	1074462976
 2141 004c 04010B40 		.word	1074462980
 2142 0050 0C020B40 		.word	1074463244
 2143              		.cfi_endproc
 2144              	.LFE3:
 2145              		.size	CySysClkIloStop, .-CySysClkIloStop
ARM GAS  C:\Users\user\AppData\Local\Temp\ccsPNKJ0.s 			page 89


 2146              		.section	.text.CySysClkSetLfclkSource,"ax",%progbits
 2147              		.align	1
 2148              		.global	CySysClkSetLfclkSource
 2149              		.code	16
 2150              		.thumb_func
 2151              		.type	CySysClkSetLfclkSource, %function
 2152              	CySysClkSetLfclkSource:
 2153              	.LFB12:
 735:Generated_Source\PSoC4/CyLFClk.c ****         uint8  interruptState;
 2154              		.loc 2 735 0
 2155              		.cfi_startproc
 2156              		@ args = 0, pretend = 0, frame = 0
 2157              		@ frame_needed = 0, uses_anonymous_args = 0
 2158              	.LVL173:
 2159 0000 70B5     		push	{r4, r5, r6, lr}
 2160              		.cfi_def_cfa_offset 16
 2161              		.cfi_offset 4, -16
 2162              		.cfi_offset 5, -12
 2163              		.cfi_offset 6, -8
 2164              		.cfi_offset 14, -4
 2165              	.LBB130:
 2166              	.LBB131:
 688:Generated_Source\PSoC4/CyLFClk.c ****         return (lfclkSource);
 2167              		.loc 2 688 0
 2168 0002 0C4D     		ldr	r5, .L230
 2169              	.LBE131:
 2170              	.LBE130:
 735:Generated_Source\PSoC4/CyLFClk.c ****         uint8  interruptState;
 2171              		.loc 2 735 0
 2172 0004 0400     		movs	r4, r0
 2173              	.LBB133:
 2174              	.LBB132:
 688:Generated_Source\PSoC4/CyLFClk.c ****         return (lfclkSource);
 2175              		.loc 2 688 0
 2176 0006 2B68     		ldr	r3, [r5]
 2177              	.LBE132:
 2178              	.LBE133:
 738:Generated_Source\PSoC4/CyLFClk.c ****         {
 2179              		.loc 2 738 0
 2180 0008 9B0F     		lsrs	r3, r3, #30
 2181 000a 9B07     		lsls	r3, r3, #30
 2182 000c 9842     		cmp	r0, r3
 2183 000e 10D0     		beq	.L228
 740:Generated_Source\PSoC4/CyLFClk.c ****             CySysClkLfclkPosedgeCatch();
 2184              		.loc 2 740 0
 2185 0010 FFF7FEFF 		bl	CyEnterCriticalSection
 2186              	.LVL174:
 2187 0014 0600     		movs	r6, r0
 2188              	.LVL175:
 741:Generated_Source\PSoC4/CyLFClk.c ****             CY_SYS_WDT_CONFIG_REG = (CY_SYS_WDT_CONFIG_REG & (uint32)(~CY_SYS_CLK_LFCLK_SEL_MASK)) 
 2189              		.loc 2 741 0
 2190 0016 FFF7FEFF 		bl	CySysClkLfclkPosedgeCatch
 2191              	.LVL176:
 742:Generated_Source\PSoC4/CyLFClk.c ****                                     (source & CY_SYS_CLK_LFCLK_SEL_MASK);
 2192              		.loc 2 742 0
 2193 001a 2B68     		ldr	r3, [r5]
 2194 001c A40F     		lsrs	r4, r4, #30
ARM GAS  C:\Users\user\AppData\Local\Temp\ccsPNKJ0.s 			page 90


 2195              	.LVL177:
 2196 001e 9B00     		lsls	r3, r3, #2
 2197 0020 9B08     		lsrs	r3, r3, #2
 2198 0022 A407     		lsls	r4, r4, #30
 2199 0024 1C43     		orrs	r4, r3
 2200 0026 2C60     		str	r4, [r5]
 744:Generated_Source\PSoC4/CyLFClk.c ****             CyExitCriticalSection(interruptState);
 2201              		.loc 2 744 0
 2202 0028 FFF7FEFF 		bl	CySysClkLfclkPosedgeRestore
 2203              	.LVL178:
 745:Generated_Source\PSoC4/CyLFClk.c ****         }
 2204              		.loc 2 745 0
 2205 002c 3000     		movs	r0, r6
 2206 002e FFF7FEFF 		bl	CyExitCriticalSection
 2207              	.LVL179:
 2208              	.L228:
 747:Generated_Source\PSoC4/CyLFClk.c **** #endif /* (CY_IP_WCO && CY_IP_SRSSV2) */
 2209              		.loc 2 747 0
 2210              		@ sp needed
 2211 0032 70BD     		pop	{r4, r5, r6, pc}
 2212              	.L231:
 2213              		.align	2
 2214              	.L230:
 2215 0034 0C020B40 		.word	1074463244
 2216              		.cfi_endproc
 2217              	.LFE12:
 2218              		.size	CySysClkSetLfclkSource, .-CySysClkSetLfclkSource
 2219              		.section	.text.CySysClkWcoStop,"ax",%progbits
 2220              		.align	1
 2221              		.global	CySysClkWcoStop
 2222              		.code	16
 2223              		.thumb_func
 2224              		.type	CySysClkWcoStop, %function
 2225              	CySysClkWcoStop:
 2226              	.LFB14:
 790:Generated_Source\PSoC4/CyLFClk.c ****         #if (CY_IP_SRSSV2)
 2227              		.loc 2 790 0
 2228              		.cfi_startproc
 2229              		@ args = 0, pretend = 0, frame = 0
 2230              		@ frame_needed = 0, uses_anonymous_args = 0
 2231 0000 70B5     		push	{r4, r5, r6, lr}
 2232              		.cfi_def_cfa_offset 16
 2233              		.cfi_offset 4, -16
 2234              		.cfi_offset 5, -12
 2235              		.cfi_offset 6, -8
 2236              		.cfi_offset 14, -4
 795:Generated_Source\PSoC4/CyLFClk.c ****         {
 2237              		.loc 2 795 0
 2238 0002 FFF7FEFF 		bl	CySysClkWcoEnabled
 2239              	.LVL180:
 2240 0006 0028     		cmp	r0, #0
 2241 0008 18D0     		beq	.L232
 2242              	.LBB134:
 2243              	.LBB135:
 688:Generated_Source\PSoC4/CyLFClk.c ****         return (lfclkSource);
 2244              		.loc 2 688 0
 2245 000a 0D4B     		ldr	r3, .L238
ARM GAS  C:\Users\user\AppData\Local\Temp\ccsPNKJ0.s 			page 91


 2246 000c 0D4C     		ldr	r4, .L238+4
 2247 000e 1B68     		ldr	r3, [r3]
 2248              	.LBE135:
 2249              	.LBE134:
 798:Generated_Source\PSoC4/CyLFClk.c ****                 {
 2250              		.loc 2 798 0
 2251 0010 9B0F     		lsrs	r3, r3, #30
 2252 0012 012B     		cmp	r3, #1
 2253 0014 0ED1     		bne	.L234
 800:Generated_Source\PSoC4/CyLFClk.c ****                     CySysClkLfclkPosedgeCatch();
 2254              		.loc 2 800 0
 2255 0016 FFF7FEFF 		bl	CyEnterCriticalSection
 2256              	.LVL181:
 2257 001a 0500     		movs	r5, r0
 2258              	.LVL182:
 801:Generated_Source\PSoC4/CyLFClk.c ****                     CY_SYS_CLK_WCO_CONFIG_REG &= (uint32) ~CY_SYS_CLK_WCO_CONFIG_LPM_ENABLE;
 2259              		.loc 2 801 0
 2260 001c FFF7FEFF 		bl	CySysClkLfclkPosedgeCatch
 2261              	.LVL183:
 802:Generated_Source\PSoC4/CyLFClk.c ****                     CySysClkLfclkPosedgeRestore();
 2262              		.loc 2 802 0
 2263 0020 2368     		ldr	r3, [r4]
 2264 0022 5B00     		lsls	r3, r3, #1
 2265 0024 5B08     		lsrs	r3, r3, #1
 2266 0026 2360     		str	r3, [r4]
 803:Generated_Source\PSoC4/CyLFClk.c ****                     CyExitCriticalSection(interruptState);
 2267              		.loc 2 803 0
 2268 0028 FFF7FEFF 		bl	CySysClkLfclkPosedgeRestore
 2269              	.LVL184:
 804:Generated_Source\PSoC4/CyLFClk.c ****                 }
 2270              		.loc 2 804 0
 2271 002c 2800     		movs	r0, r5
 2272 002e FFF7FEFF 		bl	CyExitCriticalSection
 2273              	.LVL185:
 2274 0032 03E0     		b	.L232
 2275              	.LVL186:
 2276              	.L234:
 809:Generated_Source\PSoC4/CyLFClk.c ****             }
 2277              		.loc 2 809 0
 2278 0034 2368     		ldr	r3, [r4]
 2279 0036 5B00     		lsls	r3, r3, #1
 2280 0038 5B08     		lsrs	r3, r3, #1
 2281 003a 2360     		str	r3, [r4]
 2282              	.L232:
 812:Generated_Source\PSoC4/CyLFClk.c **** 
 2283              		.loc 2 812 0
 2284              		@ sp needed
 2285 003c 70BD     		pop	{r4, r5, r6, pc}
 2286              	.L239:
 2287 003e C046     		.align	2
 2288              	.L238:
 2289 0040 0C020B40 		.word	1074463244
 2290 0044 00F02E40 		.word	1076817920
 2291              		.cfi_endproc
 2292              	.LFE14:
 2293              		.size	CySysClkWcoStop, .-CySysClkWcoStop
 2294              		.section	.text.CySysWdtGetInterruptSource,"ax",%progbits
ARM GAS  C:\Users\user\AppData\Local\Temp\ccsPNKJ0.s 			page 92


 2295              		.align	1
 2296              		.global	CySysWdtGetInterruptSource
 2297              		.code	16
 2298              		.thumb_func
 2299              		.type	CySysWdtGetInterruptSource, %function
 2300              	CySysWdtGetInterruptSource:
 2301              	.LFB35:
1482:Generated_Source\PSoC4/CyLFClk.c ****         return (CY_SYS_WDT_CONTROL_REG & (CY_SYS_WDT_COUNTER0_INT | CY_SYS_WDT_COUNTER1_INT | CY_SY
 2302              		.loc 2 1482 0
 2303              		.cfi_startproc
 2304              		@ args = 0, pretend = 0, frame = 0
 2305              		@ frame_needed = 0, uses_anonymous_args = 0
 2306              		@ link register save eliminated.
1483:Generated_Source\PSoC4/CyLFClk.c ****     }
 2307              		.loc 2 1483 0
 2308 0000 024B     		ldr	r3, .L241
1484:Generated_Source\PSoC4/CyLFClk.c **** 
 2309              		.loc 2 1484 0
 2310              		@ sp needed
1483:Generated_Source\PSoC4/CyLFClk.c ****     }
 2311              		.loc 2 1483 0
 2312 0002 1868     		ldr	r0, [r3]
 2313 0004 024B     		ldr	r3, .L241+4
 2314 0006 1840     		ands	r0, r3
1484:Generated_Source\PSoC4/CyLFClk.c **** 
 2315              		.loc 2 1484 0
 2316 0008 7047     		bx	lr
 2317              	.L242:
 2318 000a C046     		.align	2
 2319              	.L241:
 2320 000c 10020B40 		.word	1074463248
 2321 0010 04040400 		.word	263172
 2322              		.cfi_endproc
 2323              	.LFE35:
 2324              		.size	CySysWdtGetInterruptSource, .-CySysWdtGetInterruptSource
 2325              		.section	.text.CySysWdtClearInterrupt,"ax",%progbits
 2326              		.align	1
 2327              		.global	CySysWdtClearInterrupt
 2328              		.code	16
 2329              		.thumb_func
 2330              		.type	CySysWdtClearInterrupt, %function
 2331              	CySysWdtClearInterrupt:
 2332              	.LFB36:
1511:Generated_Source\PSoC4/CyLFClk.c ****         uint8 interruptState;
 2333              		.loc 2 1511 0
 2334              		.cfi_startproc
 2335              		@ args = 0, pretend = 0, frame = 0
 2336              		@ frame_needed = 0, uses_anonymous_args = 0
 2337              	.LVL187:
 2338 0000 70B5     		push	{r4, r5, r6, lr}
 2339              		.cfi_def_cfa_offset 16
 2340              		.cfi_offset 4, -16
 2341              		.cfi_offset 5, -12
 2342              		.cfi_offset 6, -8
 2343              		.cfi_offset 14, -4
1511:Generated_Source\PSoC4/CyLFClk.c ****         uint8 interruptState;
 2344              		.loc 2 1511 0
ARM GAS  C:\Users\user\AppData\Local\Temp\ccsPNKJ0.s 			page 93


 2345 0002 0500     		movs	r5, r0
1515:Generated_Source\PSoC4/CyLFClk.c **** 
 2346              		.loc 2 1515 0
 2347 0004 FFF7FEFF 		bl	CyEnterCriticalSection
 2348              	.LVL188:
 2349              	.LBB138:
 2350              	.LBB139:
 972:Generated_Source\PSoC4/CyLFClk.c ****     }
 2351              		.loc 2 972 0
 2352 0008 0E4B     		ldr	r3, .L248
 2353              	.LBE139:
 2354              	.LBE138:
1515:Generated_Source\PSoC4/CyLFClk.c **** 
 2355              		.loc 2 1515 0
 2356 000a 0400     		movs	r4, r0
 2357              	.LVL189:
 2358              	.LBB141:
 2359              	.LBB140:
 972:Generated_Source\PSoC4/CyLFClk.c ****     }
 2360              		.loc 2 972 0
 2361 000c 1A68     		ldr	r2, [r3]
 2362 000e C023     		movs	r3, #192
 2363 0010 1B02     		lsls	r3, r3, #8
 2364 0012 1340     		ands	r3, r2
 2365 0014 11D1     		bne	.L244
 2366              	.L246:
 2367              	.LVL190:
 2368              	.LBE140:
 2369              	.LBE141:
1532:Generated_Source\PSoC4/CyLFClk.c ****                                                                            CY_SYS_WDT_COUNTER1_INT 
 2370              		.loc 2 1532 0
 2371 0016 0C48     		ldr	r0, .L248+4
 2372 0018 0C49     		ldr	r1, .L248+8
 2373 001a 0540     		ands	r5, r0
 2374              	.LVL191:
 2375 001c 2800     		movs	r0, r5
 2376 001e 0E68     		ldr	r6, [r1]
 2377 0020 0B4A     		ldr	r2, .L248+12
 2378 0022 3240     		ands	r2, r6
 2379 0024 1043     		orrs	r0, r2
 2380 0026 0860     		str	r0, [r1]
1539:Generated_Source\PSoC4/CyLFClk.c **** 
 2381              		.loc 2 1539 0
 2382 0028 0A68     		ldr	r2, [r1]
1541:Generated_Source\PSoC4/CyLFClk.c ****         {
 2383              		.loc 2 1541 0
 2384 002a 012B     		cmp	r3, #1
 2385 002c 01D1     		bne	.L245
 2386              	.LVL192:
1543:Generated_Source\PSoC4/CyLFClk.c ****         }
 2387              		.loc 2 1543 0
 2388 002e FFF7FEFF 		bl	CySysWdtLock
 2389              	.LVL193:
 2390              	.L245:
1546:Generated_Source\PSoC4/CyLFClk.c ****     }
 2391              		.loc 2 1546 0
 2392 0032 2000     		movs	r0, r4
ARM GAS  C:\Users\user\AppData\Local\Temp\ccsPNKJ0.s 			page 94


 2393 0034 FFF7FEFF 		bl	CyExitCriticalSection
 2394              	.LVL194:
1547:Generated_Source\PSoC4/CyLFClk.c **** 
 2395              		.loc 2 1547 0
 2396              		@ sp needed
 2397              	.LVL195:
 2398 0038 70BD     		pop	{r4, r5, r6, pc}
 2399              	.LVL196:
 2400              	.L244:
1520:Generated_Source\PSoC4/CyLFClk.c ****         }
 2401              		.loc 2 1520 0
 2402 003a FFF7FEFF 		bl	CySysWdtUnlock
 2403              	.LVL197:
1519:Generated_Source\PSoC4/CyLFClk.c ****             CySysWdtUnlock();
 2404              		.loc 2 1519 0
 2405 003e 0123     		movs	r3, #1
 2406 0040 E9E7     		b	.L246
 2407              	.L249:
 2408 0042 C046     		.align	2
 2409              	.L248:
 2410 0044 00010B40 		.word	1074462976
 2411 0048 04040400 		.word	263172
 2412 004c 10020B40 		.word	1074463248
 2413 0050 FBFBFBFF 		.word	-263173
 2414              		.cfi_endproc
 2415              	.LFE36:
 2416              		.size	CySysWdtClearInterrupt, .-CySysWdtClearInterrupt
 2417              		.section	.text.CySysWdtResetCounters,"ax",%progbits
 2418              		.align	1
 2419              		.global	CySysWdtResetCounters
 2420              		.code	16
 2421              		.thumb_func
 2422              		.type	CySysWdtResetCounters, %function
 2423              	CySysWdtResetCounters:
 2424              	.LFB37:
1569:Generated_Source\PSoC4/CyLFClk.c ****         /* Set new WDT reset value */
 2425              		.loc 2 1569 0
 2426              		.cfi_startproc
 2427              		@ args = 0, pretend = 0, frame = 0
 2428              		@ frame_needed = 0, uses_anonymous_args = 0
 2429              		@ link register save eliminated.
 2430              	.LVL198:
1571:Generated_Source\PSoC4/CyLFClk.c **** 
 2431              		.loc 2 1571 0
 2432 0000 044B     		ldr	r3, .L253
 2433 0002 054A     		ldr	r2, .L253+4
 2434 0004 1968     		ldr	r1, [r3]
 2435 0006 1040     		ands	r0, r2
 2436              	.LVL199:
 2437 0008 0843     		orrs	r0, r1
 2438 000a 1860     		str	r0, [r3]
 2439              	.L251:
1573:Generated_Source\PSoC4/CyLFClk.c ****         {
 2440              		.loc 2 1573 0 discriminator 1
 2441 000c 1968     		ldr	r1, [r3]
 2442 000e 1142     		tst	r1, r2
 2443 0010 FCD1     		bne	.L251
ARM GAS  C:\Users\user\AppData\Local\Temp\ccsPNKJ0.s 			page 95


1577:Generated_Source\PSoC4/CyLFClk.c **** 
 2444              		.loc 2 1577 0
 2445              		@ sp needed
 2446 0012 7047     		bx	lr
 2447              	.L254:
 2448              		.align	2
 2449              	.L253:
 2450 0014 10020B40 		.word	1074463248
 2451 0018 08080800 		.word	526344
 2452              		.cfi_endproc
 2453              	.LFE37:
 2454              		.size	CySysWdtResetCounters, .-CySysWdtResetCounters
 2455              		.section	.text.CySysWdtSetInterruptCallback,"ax",%progbits
 2456              		.align	1
 2457              		.global	CySysWdtSetInterruptCallback
 2458              		.code	16
 2459              		.thumb_func
 2460              		.type	CySysWdtSetInterruptCallback, %function
 2461              	CySysWdtSetInterruptCallback:
 2462              	.LFB38:
1595:Generated_Source\PSoC4/CyLFClk.c ****         cyWdtCallback prevCallback = (void *)0;
 2463              		.loc 2 1595 0
 2464              		.cfi_startproc
 2465              		@ args = 0, pretend = 0, frame = 0
 2466              		@ frame_needed = 0, uses_anonymous_args = 0
 2467              		@ link register save eliminated.
 2468              	.LVL200:
1596:Generated_Source\PSoC4/CyLFClk.c **** 
 2469              		.loc 2 1596 0
 2470 0000 0022     		movs	r2, #0
1598:Generated_Source\PSoC4/CyLFClk.c ****         {
 2471              		.loc 2 1598 0
 2472 0002 0228     		cmp	r0, #2
 2473 0004 04D8     		bhi	.L256
1600:Generated_Source\PSoC4/CyLFClk.c ****             cySysWdtCallback[counterNum] = function;
 2474              		.loc 2 1600 0
 2475 0006 034B     		ldr	r3, .L258
 2476 0008 8000     		lsls	r0, r0, #2
 2477              	.LVL201:
 2478 000a 1B18     		adds	r3, r3, r0
 2479 000c 9A69     		ldr	r2, [r3, #24]
 2480              	.LVL202:
1601:Generated_Source\PSoC4/CyLFClk.c ****         }
 2481              		.loc 2 1601 0
 2482 000e 9961     		str	r1, [r3, #24]
 2483              	.LVL203:
 2484              	.L256:
1609:Generated_Source\PSoC4/CyLFClk.c **** 
 2485              		.loc 2 1609 0
 2486 0010 1000     		movs	r0, r2
 2487              		@ sp needed
 2488 0012 7047     		bx	lr
 2489              	.L259:
 2490              		.align	2
 2491              	.L258:
 2492 0014 00000000 		.word	.LANCHOR0
 2493              		.cfi_endproc
ARM GAS  C:\Users\user\AppData\Local\Temp\ccsPNKJ0.s 			page 96


 2494              	.LFE38:
 2495              		.size	CySysWdtSetInterruptCallback, .-CySysWdtSetInterruptCallback
 2496              		.section	.text.CySysWdtGetInterruptCallback,"ax",%progbits
 2497              		.align	1
 2498              		.global	CySysWdtGetInterruptCallback
 2499              		.code	16
 2500              		.thumb_func
 2501              		.type	CySysWdtGetInterruptCallback, %function
 2502              	CySysWdtGetInterruptCallback:
 2503              	.LFB39:
1625:Generated_Source\PSoC4/CyLFClk.c ****         cyWdtCallback retCallback = (void *)0;
 2504              		.loc 2 1625 0
 2505              		.cfi_startproc
 2506              		@ args = 0, pretend = 0, frame = 0
 2507              		@ frame_needed = 0, uses_anonymous_args = 0
 2508              		@ link register save eliminated.
 2509              	.LVL204:
1626:Generated_Source\PSoC4/CyLFClk.c **** 
 2510              		.loc 2 1626 0
 2511 0000 0023     		movs	r3, #0
1628:Generated_Source\PSoC4/CyLFClk.c ****         {
 2512              		.loc 2 1628 0
 2513 0002 0228     		cmp	r0, #2
 2514 0004 03D8     		bhi	.L261
1630:Generated_Source\PSoC4/CyLFClk.c ****         }
 2515              		.loc 2 1630 0
 2516 0006 034B     		ldr	r3, .L263
 2517 0008 8000     		lsls	r0, r0, #2
 2518              	.LVL205:
 2519 000a 1818     		adds	r0, r3, r0
 2520 000c 8369     		ldr	r3, [r0, #24]
 2521              	.LVL206:
 2522              	.L261:
1638:Generated_Source\PSoC4/CyLFClk.c **** 
 2523              		.loc 2 1638 0
 2524 000e 1800     		movs	r0, r3
 2525              		@ sp needed
 2526 0010 7047     		bx	lr
 2527              	.L264:
 2528 0012 C046     		.align	2
 2529              	.L263:
 2530 0014 00000000 		.word	.LANCHOR0
 2531              		.cfi_endproc
 2532              	.LFE39:
 2533              		.size	CySysWdtGetInterruptCallback, .-CySysWdtGetInterruptCallback
 2534              		.section	.text.CySysWdtEnableCounterIsr,"ax",%progbits
 2535              		.align	1
 2536              		.global	CySysWdtEnableCounterIsr
 2537              		.code	16
 2538              		.thumb_func
 2539              		.type	CySysWdtEnableCounterIsr, %function
 2540              	CySysWdtEnableCounterIsr:
 2541              	.LFB40:
1654:Generated_Source\PSoC4/CyLFClk.c ****         if(counterNum <= CY_SYS_WDT_COUNTER2)
 2542              		.loc 2 1654 0
 2543              		.cfi_startproc
 2544              		@ args = 0, pretend = 0, frame = 0
ARM GAS  C:\Users\user\AppData\Local\Temp\ccsPNKJ0.s 			page 97


 2545              		@ frame_needed = 0, uses_anonymous_args = 0
 2546              		@ link register save eliminated.
 2547              	.LVL207:
1655:Generated_Source\PSoC4/CyLFClk.c ****         {
 2548              		.loc 2 1655 0
 2549 0000 0228     		cmp	r0, #2
 2550 0002 0AD8     		bhi	.L265
1657:Generated_Source\PSoC4/CyLFClk.c ****             wdtIsrMask |= counterIntMaskTbl[counterNum];
 2551              		.loc 2 1657 0
 2552 0004 054B     		ldr	r3, .L267
 2553 0006 8000     		lsls	r0, r0, #2
 2554              	.LVL208:
 2555 0008 C158     		ldr	r1, [r0, r3]
 2556 000a 054B     		ldr	r3, .L267+4
 2557 000c 5A6A     		ldr	r2, [r3, #36]
 2558 000e 8A43     		bics	r2, r1
 2559 0010 5A62     		str	r2, [r3, #36]
1658:Generated_Source\PSoC4/CyLFClk.c ****         }
 2560              		.loc 2 1658 0
 2561 0012 044A     		ldr	r2, .L267+8
 2562 0014 5368     		ldr	r3, [r2, #4]
 2563 0016 0B43     		orrs	r3, r1
 2564 0018 5360     		str	r3, [r2, #4]
 2565              	.L265:
1664:Generated_Source\PSoC4/CyLFClk.c **** 
 2566              		.loc 2 1664 0
 2567              		@ sp needed
 2568 001a 7047     		bx	lr
 2569              	.L268:
 2570              		.align	2
 2571              	.L267:
 2572 001c 00000000 		.word	.LANCHOR2
 2573 0020 00000000 		.word	.LANCHOR0
 2574 0024 00000000 		.word	.LANCHOR1
 2575              		.cfi_endproc
 2576              	.LFE40:
 2577              		.size	CySysWdtEnableCounterIsr, .-CySysWdtEnableCounterIsr
 2578              		.section	.text.CySysWdtDisableCounterIsr,"ax",%progbits
 2579              		.align	1
 2580              		.global	CySysWdtDisableCounterIsr
 2581              		.code	16
 2582              		.thumb_func
 2583              		.type	CySysWdtDisableCounterIsr, %function
 2584              	CySysWdtDisableCounterIsr:
 2585              	.LFB41:
1677:Generated_Source\PSoC4/CyLFClk.c ****         if(counterNum <= CY_SYS_WDT_COUNTER2)
 2586              		.loc 2 1677 0
 2587              		.cfi_startproc
 2588              		@ args = 0, pretend = 0, frame = 0
 2589              		@ frame_needed = 0, uses_anonymous_args = 0
 2590              		@ link register save eliminated.
 2591              	.LVL209:
1678:Generated_Source\PSoC4/CyLFClk.c ****         {
 2592              		.loc 2 1678 0
 2593 0000 0228     		cmp	r0, #2
 2594 0002 06D8     		bhi	.L269
1680:Generated_Source\PSoC4/CyLFClk.c ****         }
ARM GAS  C:\Users\user\AppData\Local\Temp\ccsPNKJ0.s 			page 98


 2595              		.loc 2 1680 0
 2596 0004 034A     		ldr	r2, .L271
 2597 0006 0449     		ldr	r1, .L271+4
 2598 0008 8000     		lsls	r0, r0, #2
 2599              	.LVL210:
 2600 000a 5368     		ldr	r3, [r2, #4]
 2601 000c 4158     		ldr	r1, [r0, r1]
 2602 000e 8B43     		bics	r3, r1
 2603 0010 5360     		str	r3, [r2, #4]
 2604              	.L269:
1686:Generated_Source\PSoC4/CyLFClk.c **** 
 2605              		.loc 2 1686 0
 2606              		@ sp needed
 2607 0012 7047     		bx	lr
 2608              	.L272:
 2609              		.align	2
 2610              	.L271:
 2611 0014 00000000 		.word	.LANCHOR1
 2612 0018 00000000 		.word	.LANCHOR2
 2613              		.cfi_endproc
 2614              	.LFE41:
 2615              		.size	CySysWdtDisableCounterIsr, .-CySysWdtDisableCounterIsr
 2616              		.section	.text.CySysWdtIsr,"ax",%progbits
 2617              		.align	1
 2618              		.global	CySysWdtIsr
 2619              		.code	16
 2620              		.thumb_func
 2621              		.type	CySysWdtIsr, %function
 2622              	CySysWdtIsr:
 2623              	.LFB42:
1710:Generated_Source\PSoC4/CyLFClk.c ****         if(0u != (CY_SYS_WDT_COUNTER0_INT & CY_SYS_WDT_CONTROL_REG))
 2624              		.loc 2 1710 0
 2625              		.cfi_startproc
 2626              		@ args = 0, pretend = 0, frame = 0
 2627              		@ frame_needed = 0, uses_anonymous_args = 0
1711:Generated_Source\PSoC4/CyLFClk.c ****         {
 2628              		.loc 2 1711 0
 2629 0000 0422     		movs	r2, #4
1710:Generated_Source\PSoC4/CyLFClk.c ****         if(0u != (CY_SYS_WDT_COUNTER0_INT & CY_SYS_WDT_CONTROL_REG))
 2630              		.loc 2 1710 0
 2631 0002 70B5     		push	{r4, r5, r6, lr}
 2632              		.cfi_def_cfa_offset 16
 2633              		.cfi_offset 4, -16
 2634              		.cfi_offset 5, -12
 2635              		.cfi_offset 6, -8
 2636              		.cfi_offset 14, -4
1711:Generated_Source\PSoC4/CyLFClk.c ****         {
 2637              		.loc 2 1711 0
 2638 0004 224C     		ldr	r4, .L305
 2639 0006 2368     		ldr	r3, [r4]
 2640 0008 1342     		tst	r3, r2
 2641 000a 13D0     		beq	.L274
1713:Generated_Source\PSoC4/CyLFClk.c ****             {
 2642              		.loc 2 1713 0
 2643 000c 2149     		ldr	r1, .L305+4
 2644 000e 4B68     		ldr	r3, [r1, #4]
 2645 0010 1342     		tst	r3, r2
ARM GAS  C:\Users\user\AppData\Local\Temp\ccsPNKJ0.s 			page 99


 2646 0012 0CD0     		beq	.L276
1715:Generated_Source\PSoC4/CyLFClk.c ****                 disableServicedIsr  &= ~CY_SYS_WDT_COUNTER0_INT;
 2647              		.loc 2 1715 0
 2648 0014 204B     		ldr	r3, .L305+8
 2649 0016 5D6A     		ldr	r5, [r3, #36]
 2650 0018 4868     		ldr	r0, [r1, #4]
 2651 001a 1540     		ands	r5, r2
 2652 001c A843     		bics	r0, r5
 2653 001e 4860     		str	r0, [r1, #4]
1716:Generated_Source\PSoC4/CyLFClk.c ****                 if(cySysWdtCallback[CY_SYS_WDT_COUNTER0] != (void *) 0)
 2654              		.loc 2 1716 0
 2655 0020 596A     		ldr	r1, [r3, #36]
 2656 0022 9143     		bics	r1, r2
 2657 0024 5962     		str	r1, [r3, #36]
1717:Generated_Source\PSoC4/CyLFClk.c ****                 {
 2658              		.loc 2 1717 0
 2659 0026 9B69     		ldr	r3, [r3, #24]
 2660 0028 002B     		cmp	r3, #0
 2661 002a 00D0     		beq	.L276
1719:Generated_Source\PSoC4/CyLFClk.c ****                 }
 2662              		.loc 2 1719 0
 2663 002c 9847     		blx	r3
 2664              	.LVL211:
 2665              	.L276:
1722:Generated_Source\PSoC4/CyLFClk.c ****         }
 2666              		.loc 2 1722 0
 2667 002e 0420     		movs	r0, #4
 2668 0030 FFF7FEFF 		bl	CySysWdtClearInterrupt
 2669              	.LVL212:
 2670              	.L274:
1725:Generated_Source\PSoC4/CyLFClk.c ****         {
 2671              		.loc 2 1725 0
 2672 0034 8023     		movs	r3, #128
 2673 0036 2268     		ldr	r2, [r4]
 2674 0038 DB00     		lsls	r3, r3, #3
 2675 003a 1A42     		tst	r2, r3
 2676 003c 15D0     		beq	.L278
1727:Generated_Source\PSoC4/CyLFClk.c ****             {
 2677              		.loc 2 1727 0
 2678 003e 1549     		ldr	r1, .L305+4
 2679 0040 4A68     		ldr	r2, [r1, #4]
 2680 0042 1A42     		tst	r2, r3
 2681 0044 0DD0     		beq	.L280
1729:Generated_Source\PSoC4/CyLFClk.c ****                 disableServicedIsr  &= ~CY_SYS_WDT_COUNTER1_INT;
 2682              		.loc 2 1729 0
 2683 0046 144A     		ldr	r2, .L305+8
 2684 0048 556A     		ldr	r5, [r2, #36]
 2685 004a 4868     		ldr	r0, [r1, #4]
 2686 004c 2B40     		ands	r3, r5
 2687 004e 9843     		bics	r0, r3
 2688 0050 4860     		str	r0, [r1, #4]
1730:Generated_Source\PSoC4/CyLFClk.c ****                 if(cySysWdtCallback[CY_SYS_WDT_COUNTER1] != (void *) 0)
 2689              		.loc 2 1730 0
 2690 0052 516A     		ldr	r1, [r2, #36]
 2691 0054 114B     		ldr	r3, .L305+12
 2692 0056 0B40     		ands	r3, r1
 2693 0058 5362     		str	r3, [r2, #36]
ARM GAS  C:\Users\user\AppData\Local\Temp\ccsPNKJ0.s 			page 100


1731:Generated_Source\PSoC4/CyLFClk.c ****                 {
 2694              		.loc 2 1731 0
 2695 005a D369     		ldr	r3, [r2, #28]
 2696 005c 002B     		cmp	r3, #0
 2697 005e 00D0     		beq	.L280
1733:Generated_Source\PSoC4/CyLFClk.c ****                 }
 2698              		.loc 2 1733 0
 2699 0060 9847     		blx	r3
 2700              	.LVL213:
 2701              	.L280:
1736:Generated_Source\PSoC4/CyLFClk.c ****         }
 2702              		.loc 2 1736 0
 2703 0062 8020     		movs	r0, #128
 2704 0064 C000     		lsls	r0, r0, #3
 2705 0066 FFF7FEFF 		bl	CySysWdtClearInterrupt
 2706              	.LVL214:
 2707              	.L278:
1739:Generated_Source\PSoC4/CyLFClk.c ****         {
 2708              		.loc 2 1739 0
 2709 006a 8023     		movs	r3, #128
 2710 006c 2268     		ldr	r2, [r4]
 2711 006e DB02     		lsls	r3, r3, #11
 2712 0070 1A42     		tst	r2, r3
 2713 0072 0CD0     		beq	.L273
1741:Generated_Source\PSoC4/CyLFClk.c ****             {
 2714              		.loc 2 1741 0
 2715 0074 074A     		ldr	r2, .L305+4
 2716 0076 5268     		ldr	r2, [r2, #4]
 2717 0078 1A42     		tst	r2, r3
 2718 007a 04D0     		beq	.L283
1743:Generated_Source\PSoC4/CyLFClk.c ****                 {
 2719              		.loc 2 1743 0
 2720 007c 064B     		ldr	r3, .L305+8
 2721 007e 1B6A     		ldr	r3, [r3, #32]
 2722 0080 002B     		cmp	r3, #0
 2723 0082 00D0     		beq	.L283
1745:Generated_Source\PSoC4/CyLFClk.c ****                 }
 2724              		.loc 2 1745 0
 2725 0084 9847     		blx	r3
 2726              	.LVL215:
 2727              	.L283:
1748:Generated_Source\PSoC4/CyLFClk.c ****         }
 2728              		.loc 2 1748 0
 2729 0086 8020     		movs	r0, #128
 2730 0088 C002     		lsls	r0, r0, #11
 2731 008a FFF7FEFF 		bl	CySysWdtClearInterrupt
 2732              	.LVL216:
 2733              	.L273:
1750:Generated_Source\PSoC4/CyLFClk.c **** 
 2734              		.loc 2 1750 0
 2735              		@ sp needed
 2736 008e 70BD     		pop	{r4, r5, r6, pc}
 2737              	.L306:
 2738              		.align	2
 2739              	.L305:
 2740 0090 10020B40 		.word	1074463248
 2741 0094 00000000 		.word	.LANCHOR1
ARM GAS  C:\Users\user\AppData\Local\Temp\ccsPNKJ0.s 			page 101


 2742 0098 00000000 		.word	.LANCHOR0
 2743 009c FFFBFFFF 		.word	-1025
 2744              		.cfi_endproc
 2745              	.LFE42:
 2746              		.size	CySysWdtIsr, .-CySysWdtIsr
 2747              		.section	.text.CySysWatchdogFeed,"ax",%progbits
 2748              		.align	1
 2749              		.global	CySysWatchdogFeed
 2750              		.code	16
 2751              		.thumb_func
 2752              		.type	CySysWatchdogFeed, %function
 2753              	CySysWatchdogFeed:
 2754              	.LFB43:
1775:Generated_Source\PSoC4/CyLFClk.c ****         if(counterNum == CY_SYS_WDT_COUNTER0)
 2755              		.loc 2 1775 0
 2756              		.cfi_startproc
 2757              		@ args = 0, pretend = 0, frame = 0
 2758              		@ frame_needed = 0, uses_anonymous_args = 0
 2759              	.LVL217:
 2760 0000 10B5     		push	{r4, lr}
 2761              		.cfi_def_cfa_offset 8
 2762              		.cfi_offset 4, -8
 2763              		.cfi_offset 14, -4
1775:Generated_Source\PSoC4/CyLFClk.c ****         if(counterNum == CY_SYS_WDT_COUNTER0)
 2764              		.loc 2 1775 0
 2765 0002 041E     		subs	r4, r0, #0
1776:Generated_Source\PSoC4/CyLFClk.c ****         {
 2766              		.loc 2 1776 0
 2767 0004 0FD1     		bne	.L308
1778:Generated_Source\PSoC4/CyLFClk.c ****             {
 2768              		.loc 2 1778 0
 2769 0006 FFF7FEFF 		bl	CySysWdtGetMode
 2770              	.LVL218:
 2771 000a 0328     		cmp	r0, #3
 2772 000c 01D1     		bne	.L309
1780:Generated_Source\PSoC4/CyLFClk.c ****             }
 2773              		.loc 2 1780 0
 2774 000e 0130     		adds	r0, r0, #1
 2775 0010 1AE0     		b	.L314
 2776              	.L309:
1782:Generated_Source\PSoC4/CyLFClk.c ****             {
 2777              		.loc 2 1782 0
 2778 0012 2000     		movs	r0, r4
 2779 0014 FFF7FEFF 		bl	CySysWdtGetMode
 2780              	.LVL219:
 2781 0018 0228     		cmp	r0, #2
 2782 001a 17D1     		bne	.L307
1784:Generated_Source\PSoC4/CyLFClk.c ****                 CySysWdtClearInterrupt(CY_SYS_WDT_COUNTER0_INT);
 2783              		.loc 2 1784 0
 2784 001c 0630     		adds	r0, r0, #6
 2785 001e FFF7FEFF 		bl	CySysWdtResetCounters
 2786              	.LVL220:
1785:Generated_Source\PSoC4/CyLFClk.c ****             }
 2787              		.loc 2 1785 0
 2788 0022 0420     		movs	r0, #4
 2789 0024 10E0     		b	.L314
 2790              	.LVL221:
ARM GAS  C:\Users\user\AppData\Local\Temp\ccsPNKJ0.s 			page 102


 2791              	.L308:
1792:Generated_Source\PSoC4/CyLFClk.c ****         {
 2792              		.loc 2 1792 0
 2793 0026 0128     		cmp	r0, #1
 2794 0028 10D1     		bne	.L307
1794:Generated_Source\PSoC4/CyLFClk.c ****             {
 2795              		.loc 2 1794 0
 2796 002a FFF7FEFF 		bl	CySysWdtGetMode
 2797              	.LVL222:
 2798 002e 0328     		cmp	r0, #3
 2799 0030 08D0     		beq	.L315
1798:Generated_Source\PSoC4/CyLFClk.c ****             {
 2800              		.loc 2 1798 0
 2801 0032 2000     		movs	r0, r4
 2802 0034 FFF7FEFF 		bl	CySysWdtGetMode
 2803              	.LVL223:
 2804 0038 0228     		cmp	r0, #2
 2805 003a 07D1     		bne	.L307
1800:Generated_Source\PSoC4/CyLFClk.c ****                 CySysWdtClearInterrupt(CY_SYS_WDT_COUNTER1_INT);
 2806              		.loc 2 1800 0
 2807 003c 8020     		movs	r0, #128
 2808 003e 0001     		lsls	r0, r0, #4
 2809 0040 FFF7FEFF 		bl	CySysWdtResetCounters
 2810              	.LVL224:
 2811              	.L315:
1801:Generated_Source\PSoC4/CyLFClk.c ****             }
 2812              		.loc 2 1801 0
 2813 0044 8020     		movs	r0, #128
 2814 0046 C000     		lsls	r0, r0, #3
 2815              	.L314:
 2816 0048 FFF7FEFF 		bl	CySysWdtClearInterrupt
 2817              	.LVL225:
 2818              	.L307:
1812:Generated_Source\PSoC4/CyLFClk.c **** 
 2819              		.loc 2 1812 0
 2820              		@ sp needed
 2821              	.LVL226:
 2822 004c 10BD     		pop	{r4, pc}
 2823              		.cfi_endproc
 2824              	.LFE43:
 2825              		.size	CySysWatchdogFeed, .-CySysWatchdogFeed
 2826              		.section	.text.CySysTimerDelayUntilMatch,"ax",%progbits
 2827              		.align	1
 2828              		.global	CySysTimerDelayUntilMatch
 2829              		.code	16
 2830              		.thumb_func
 2831              		.type	CySysTimerDelayUntilMatch, %function
 2832              	CySysTimerDelayUntilMatch:
 2833              	.LFB47:
1904:Generated_Source\PSoC4/CyLFClk.c **** 
1905:Generated_Source\PSoC4/CyLFClk.c **** #else
1906:Generated_Source\PSoC4/CyLFClk.c **** 
1907:Generated_Source\PSoC4/CyLFClk.c ****     /*******************************************************************************
1908:Generated_Source\PSoC4/CyLFClk.c ****     * Function Name: CySysWdtGetEnabledStatus
1909:Generated_Source\PSoC4/CyLFClk.c ****     ****************************************************************************//**
1910:Generated_Source\PSoC4/CyLFClk.c ****     *
1911:Generated_Source\PSoC4/CyLFClk.c ****     * \brief Reads the enabled status of the WDT counter.
ARM GAS  C:\Users\user\AppData\Local\Temp\ccsPNKJ0.s 			page 103


1912:Generated_Source\PSoC4/CyLFClk.c ****     *
1913:Generated_Source\PSoC4/CyLFClk.c ****     * \return The status of the WDT counter:
1914:Generated_Source\PSoC4/CyLFClk.c ****     * \return 0 - Counter is disabled
1915:Generated_Source\PSoC4/CyLFClk.c ****     * \return 1 - Counter is enabled
1916:Generated_Source\PSoC4/CyLFClk.c ****     *
1917:Generated_Source\PSoC4/CyLFClk.c ****     *******************************************************************************/
1918:Generated_Source\PSoC4/CyLFClk.c ****     uint32 CySysWdtGetEnabledStatus(void)
1919:Generated_Source\PSoC4/CyLFClk.c ****     {
1920:Generated_Source\PSoC4/CyLFClk.c ****         return ((CY_SYS_WDT_DISABLE_KEY_REG == CY_SYS_WDT_KEY) ? (uint32) 0u : (uint32) 1u);
1921:Generated_Source\PSoC4/CyLFClk.c ****     }
1922:Generated_Source\PSoC4/CyLFClk.c **** 
1923:Generated_Source\PSoC4/CyLFClk.c **** 
1924:Generated_Source\PSoC4/CyLFClk.c ****     /*******************************************************************************
1925:Generated_Source\PSoC4/CyLFClk.c ****     * Function Name: CySysWdtEnable
1926:Generated_Source\PSoC4/CyLFClk.c ****     ****************************************************************************//**
1927:Generated_Source\PSoC4/CyLFClk.c ****     *
1928:Generated_Source\PSoC4/CyLFClk.c ****     * \brief
1929:Generated_Source\PSoC4/CyLFClk.c ****     * Enables watchdog timer reset generation.
1930:Generated_Source\PSoC4/CyLFClk.c ****     *
1931:Generated_Source\PSoC4/CyLFClk.c ****     * CySysWdtClearInterrupt() feeds the watchdog. Two unserviced interrupts lead 
1932:Generated_Source\PSoC4/CyLFClk.c ****     * to a system reset (i.e. at the third match).
1933:Generated_Source\PSoC4/CyLFClk.c ****     *
1934:Generated_Source\PSoC4/CyLFClk.c ****     * ILO is enabled by the hardware once WDT is started.
1935:Generated_Source\PSoC4/CyLFClk.c ****     *
1936:Generated_Source\PSoC4/CyLFClk.c ****     *******************************************************************************/
1937:Generated_Source\PSoC4/CyLFClk.c ****     void CySysWdtEnable(void)
1938:Generated_Source\PSoC4/CyLFClk.c ****     {
1939:Generated_Source\PSoC4/CyLFClk.c ****         CY_SYS_WDT_DISABLE_KEY_REG = 0u;
1940:Generated_Source\PSoC4/CyLFClk.c ****     }
1941:Generated_Source\PSoC4/CyLFClk.c **** 
1942:Generated_Source\PSoC4/CyLFClk.c **** 
1943:Generated_Source\PSoC4/CyLFClk.c ****     /*******************************************************************************
1944:Generated_Source\PSoC4/CyLFClk.c ****     * Function Name: CySysWdtDisable
1945:Generated_Source\PSoC4/CyLFClk.c ****     ****************************************************************************//**
1946:Generated_Source\PSoC4/CyLFClk.c ****     *
1947:Generated_Source\PSoC4/CyLFClk.c ****     * \brief Disables the WDT reset generation.
1948:Generated_Source\PSoC4/CyLFClk.c ****     *
1949:Generated_Source\PSoC4/CyLFClk.c ****     * This function unlocks the ENABLE bit in the CLK_ILO_CONFIG registers and
1950:Generated_Source\PSoC4/CyLFClk.c ****     * enables the user to disable ILO.
1951:Generated_Source\PSoC4/CyLFClk.c ****     *
1952:Generated_Source\PSoC4/CyLFClk.c ****     *******************************************************************************/
1953:Generated_Source\PSoC4/CyLFClk.c ****     void CySysWdtDisable(void)
1954:Generated_Source\PSoC4/CyLFClk.c ****     {
1955:Generated_Source\PSoC4/CyLFClk.c ****         CY_SYS_WDT_DISABLE_KEY_REG = CY_SYS_WDT_KEY;
1956:Generated_Source\PSoC4/CyLFClk.c ****     }
1957:Generated_Source\PSoC4/CyLFClk.c **** 
1958:Generated_Source\PSoC4/CyLFClk.c **** 
1959:Generated_Source\PSoC4/CyLFClk.c ****     /*******************************************************************************
1960:Generated_Source\PSoC4/CyLFClk.c ****     * Function Name: CySysWdtSetMatch
1961:Generated_Source\PSoC4/CyLFClk.c ****     ****************************************************************************//**
1962:Generated_Source\PSoC4/CyLFClk.c ****     *
1963:Generated_Source\PSoC4/CyLFClk.c ****     * \brief Configures the WDT counter match comparison value.
1964:Generated_Source\PSoC4/CyLFClk.c ****     *
1965:Generated_Source\PSoC4/CyLFClk.c ****     * \param match Valid range [0-65535]. The value to be used to match against 
1966:Generated_Source\PSoC4/CyLFClk.c ****     * the counter.
1967:Generated_Source\PSoC4/CyLFClk.c ****     *
1968:Generated_Source\PSoC4/CyLFClk.c ****     *******************************************************************************/
ARM GAS  C:\Users\user\AppData\Local\Temp\ccsPNKJ0.s 			page 104


1969:Generated_Source\PSoC4/CyLFClk.c ****     void CySysWdtSetMatch(uint32 match)
1970:Generated_Source\PSoC4/CyLFClk.c ****     {
1971:Generated_Source\PSoC4/CyLFClk.c ****         match &= CY_SYS_WDT_MATCH_MASK;
1972:Generated_Source\PSoC4/CyLFClk.c ****         CY_SYS_WDT_MATCH_REG = (CY_SYS_WDT_MATCH_REG & (uint32)(~CY_SYS_WDT_MATCH_MASK)) | match;
1973:Generated_Source\PSoC4/CyLFClk.c ****     }
1974:Generated_Source\PSoC4/CyLFClk.c **** 
1975:Generated_Source\PSoC4/CyLFClk.c **** 
1976:Generated_Source\PSoC4/CyLFClk.c ****     /*******************************************************************************
1977:Generated_Source\PSoC4/CyLFClk.c ****     * Function Name: CySysWdtGetMatch
1978:Generated_Source\PSoC4/CyLFClk.c ****     ****************************************************************************//**
1979:Generated_Source\PSoC4/CyLFClk.c ****     *
1980:Generated_Source\PSoC4/CyLFClk.c ****     * \brief Reads the WDT counter match comparison value.
1981:Generated_Source\PSoC4/CyLFClk.c ****     *
1982:Generated_Source\PSoC4/CyLFClk.c ****     * \return The counter match value.
1983:Generated_Source\PSoC4/CyLFClk.c ****     *
1984:Generated_Source\PSoC4/CyLFClk.c ****     *******************************************************************************/
1985:Generated_Source\PSoC4/CyLFClk.c ****     uint32 CySysWdtGetMatch(void)
1986:Generated_Source\PSoC4/CyLFClk.c ****     {
1987:Generated_Source\PSoC4/CyLFClk.c ****         return (CY_SYS_WDT_MATCH_REG & CY_SYS_WDT_MATCH_MASK);
1988:Generated_Source\PSoC4/CyLFClk.c ****     }
1989:Generated_Source\PSoC4/CyLFClk.c **** 
1990:Generated_Source\PSoC4/CyLFClk.c **** 
1991:Generated_Source\PSoC4/CyLFClk.c ****     /*******************************************************************************
1992:Generated_Source\PSoC4/CyLFClk.c ****     * Function Name: CySysWdtGetCount
1993:Generated_Source\PSoC4/CyLFClk.c ****     ****************************************************************************//**
1994:Generated_Source\PSoC4/CyLFClk.c ****     *
1995:Generated_Source\PSoC4/CyLFClk.c ****     * \brief Reads the current WDT counter value.
1996:Generated_Source\PSoC4/CyLFClk.c ****     *
1997:Generated_Source\PSoC4/CyLFClk.c ****     * \return A live counter value.
1998:Generated_Source\PSoC4/CyLFClk.c ****     *
1999:Generated_Source\PSoC4/CyLFClk.c ****     *******************************************************************************/
2000:Generated_Source\PSoC4/CyLFClk.c ****     uint32 CySysWdtGetCount(void)
2001:Generated_Source\PSoC4/CyLFClk.c ****     {
2002:Generated_Source\PSoC4/CyLFClk.c ****         return ((uint32)CY_SYS_WDT_COUNTER_REG);
2003:Generated_Source\PSoC4/CyLFClk.c ****     }
2004:Generated_Source\PSoC4/CyLFClk.c **** 
2005:Generated_Source\PSoC4/CyLFClk.c **** 
2006:Generated_Source\PSoC4/CyLFClk.c ****     /*******************************************************************************
2007:Generated_Source\PSoC4/CyLFClk.c ****     * Function Name: CySysWdtSetIgnoreBits
2008:Generated_Source\PSoC4/CyLFClk.c ****     ****************************************************************************//**
2009:Generated_Source\PSoC4/CyLFClk.c ****     *
2010:Generated_Source\PSoC4/CyLFClk.c ****     * \brief
2011:Generated_Source\PSoC4/CyLFClk.c ****     * Configures the number of the MSB bits of the watchdog timer that are not
2012:Generated_Source\PSoC4/CyLFClk.c ****     * checked against the match.
2013:Generated_Source\PSoC4/CyLFClk.c ****     *
2014:Generated_Source\PSoC4/CyLFClk.c ****     * \param bitsNum Valid range [0-15]. The number of the MSB bits.
2015:Generated_Source\PSoC4/CyLFClk.c ****     *
2016:Generated_Source\PSoC4/CyLFClk.c ****     * \details The value of bitsNum controls the time-to-reset of the watchdog
2017:Generated_Source\PSoC4/CyLFClk.c ****     * (which happens after 3 successive matches).
2018:Generated_Source\PSoC4/CyLFClk.c ****     *
2019:Generated_Source\PSoC4/CyLFClk.c ****     *******************************************************************************/
2020:Generated_Source\PSoC4/CyLFClk.c ****     void CySysWdtSetIgnoreBits(uint32 bitsNum)
2021:Generated_Source\PSoC4/CyLFClk.c ****     {
2022:Generated_Source\PSoC4/CyLFClk.c ****         bitsNum = ((uint32)(bitsNum << CY_SYS_WDT_IGNORE_BITS_SHIFT) & CY_SYS_WDT_IGNORE_BITS_MASK)
2023:Generated_Source\PSoC4/CyLFClk.c ****         CY_SYS_WDT_MATCH_REG = (CY_SYS_WDT_MATCH_REG & (uint32)(~CY_SYS_WDT_IGNORE_BITS_MASK)) | bi
2024:Generated_Source\PSoC4/CyLFClk.c ****     }
2025:Generated_Source\PSoC4/CyLFClk.c **** 
ARM GAS  C:\Users\user\AppData\Local\Temp\ccsPNKJ0.s 			page 105


2026:Generated_Source\PSoC4/CyLFClk.c **** 
2027:Generated_Source\PSoC4/CyLFClk.c ****     /*******************************************************************************
2028:Generated_Source\PSoC4/CyLFClk.c ****     * Function Name: CySysWdtGetIgnoreBits
2029:Generated_Source\PSoC4/CyLFClk.c ****     ****************************************************************************//**
2030:Generated_Source\PSoC4/CyLFClk.c ****     *
2031:Generated_Source\PSoC4/CyLFClk.c ****     * \brief
2032:Generated_Source\PSoC4/CyLFClk.c ****     * Reads the number of the  MSB bits of the watchdog timer that are not
2033:Generated_Source\PSoC4/CyLFClk.c ****     * checked against the match.
2034:Generated_Source\PSoC4/CyLFClk.c ****     *
2035:Generated_Source\PSoC4/CyLFClk.c ****     * \return The number of the MSB bits.
2036:Generated_Source\PSoC4/CyLFClk.c ****     *
2037:Generated_Source\PSoC4/CyLFClk.c ****     *******************************************************************************/
2038:Generated_Source\PSoC4/CyLFClk.c ****     uint32 CySysWdtGetIgnoreBits(void)
2039:Generated_Source\PSoC4/CyLFClk.c ****     {
2040:Generated_Source\PSoC4/CyLFClk.c ****         return((uint32)((CY_SYS_WDT_MATCH_REG & CY_SYS_WDT_IGNORE_BITS_MASK) >> CY_SYS_WDT_IGNORE_B
2041:Generated_Source\PSoC4/CyLFClk.c ****     }
2042:Generated_Source\PSoC4/CyLFClk.c **** 
2043:Generated_Source\PSoC4/CyLFClk.c **** 
2044:Generated_Source\PSoC4/CyLFClk.c ****     /*******************************************************************************
2045:Generated_Source\PSoC4/CyLFClk.c ****     * Function Name: CySysWdtClearInterrupt
2046:Generated_Source\PSoC4/CyLFClk.c ****     ****************************************************************************//**
2047:Generated_Source\PSoC4/CyLFClk.c ****     *
2048:Generated_Source\PSoC4/CyLFClk.c ****     * \brief
2049:Generated_Source\PSoC4/CyLFClk.c ****     * Feeds the watchdog.
2050:Generated_Source\PSoC4/CyLFClk.c ****     * Cleans the WDT match flag which is set every time the WDT counter reaches a 
2051:Generated_Source\PSoC4/CyLFClk.c ****     * WDT match value. Two unserviced interrupts lead to a system reset 
2052:Generated_Source\PSoC4/CyLFClk.c ****     * (i.e. at the third match).
2053:Generated_Source\PSoC4/CyLFClk.c ****     *
2054:Generated_Source\PSoC4/CyLFClk.c ****     *******************************************************************************/
2055:Generated_Source\PSoC4/CyLFClk.c ****     void CySysWdtClearInterrupt(void)
2056:Generated_Source\PSoC4/CyLFClk.c ****     {
2057:Generated_Source\PSoC4/CyLFClk.c ****         CY_SYS_SRSS_INTR_REG |= CY_SYS_WDT_LOWER_BIT_MASK;
2058:Generated_Source\PSoC4/CyLFClk.c ****     }
2059:Generated_Source\PSoC4/CyLFClk.c **** 
2060:Generated_Source\PSoC4/CyLFClk.c **** 
2061:Generated_Source\PSoC4/CyLFClk.c ****     /*******************************************************************************
2062:Generated_Source\PSoC4/CyLFClk.c ****     * Function Name: CySysWdtMaskInterrupt
2063:Generated_Source\PSoC4/CyLFClk.c ****     ****************************************************************************//**
2064:Generated_Source\PSoC4/CyLFClk.c ****     *
2065:Generated_Source\PSoC4/CyLFClk.c ****     * \brief
2066:Generated_Source\PSoC4/CyLFClk.c ****     * After masking interrupts from WDT, they are not passed to CPU.
2067:Generated_Source\PSoC4/CyLFClk.c ****     * This function does not disable WDT reset generation.
2068:Generated_Source\PSoC4/CyLFClk.c ****     *
2069:Generated_Source\PSoC4/CyLFClk.c ****     *******************************************************************************/
2070:Generated_Source\PSoC4/CyLFClk.c ****     void CySysWdtMaskInterrupt(void)
2071:Generated_Source\PSoC4/CyLFClk.c ****     {
2072:Generated_Source\PSoC4/CyLFClk.c ****         CY_SYS_SRSS_INTR_MASK_REG &= (uint32)(~ (uint32)CY_SYS_WDT_LOWER_BIT_MASK);
2073:Generated_Source\PSoC4/CyLFClk.c ****     }
2074:Generated_Source\PSoC4/CyLFClk.c **** 
2075:Generated_Source\PSoC4/CyLFClk.c **** 
2076:Generated_Source\PSoC4/CyLFClk.c ****     /*******************************************************************************
2077:Generated_Source\PSoC4/CyLFClk.c ****     * Function Name: CySysWdtUnmaskInterrupt
2078:Generated_Source\PSoC4/CyLFClk.c ****     ****************************************************************************//**
2079:Generated_Source\PSoC4/CyLFClk.c ****     *
2080:Generated_Source\PSoC4/CyLFClk.c ****     * \brief
2081:Generated_Source\PSoC4/CyLFClk.c ****     * After unmasking interrupts from WDT, they are passed to CPU.
2082:Generated_Source\PSoC4/CyLFClk.c ****     * This function does not impact the reset generation.
ARM GAS  C:\Users\user\AppData\Local\Temp\ccsPNKJ0.s 			page 106


2083:Generated_Source\PSoC4/CyLFClk.c ****     *
2084:Generated_Source\PSoC4/CyLFClk.c ****     *******************************************************************************/
2085:Generated_Source\PSoC4/CyLFClk.c ****     void CySysWdtUnmaskInterrupt(void)
2086:Generated_Source\PSoC4/CyLFClk.c ****     {
2087:Generated_Source\PSoC4/CyLFClk.c ****         CY_SYS_SRSS_INTR_MASK_REG |= CY_SYS_WDT_LOWER_BIT_MASK;
2088:Generated_Source\PSoC4/CyLFClk.c ****     }
2089:Generated_Source\PSoC4/CyLFClk.c **** 
2090:Generated_Source\PSoC4/CyLFClk.c **** 
2091:Generated_Source\PSoC4/CyLFClk.c ****     /*******************************************************************************
2092:Generated_Source\PSoC4/CyLFClk.c ****     * Function Name: CySysWdtSetIsrCallback
2093:Generated_Source\PSoC4/CyLFClk.c ****     ****************************************************************************//**
2094:Generated_Source\PSoC4/CyLFClk.c ****     *
2095:Generated_Source\PSoC4/CyLFClk.c ****     * \brief
2096:Generated_Source\PSoC4/CyLFClk.c ****     * Sets the ISR callback function for the WDT counter
2097:Generated_Source\PSoC4/CyLFClk.c ****     *
2098:Generated_Source\PSoC4/CyLFClk.c ****     * \param function The pointer to the callback function.
2099:Generated_Source\PSoC4/CyLFClk.c ****     *
2100:Generated_Source\PSoC4/CyLFClk.c ****     * \return The pointer to a previous callback function.
2101:Generated_Source\PSoC4/CyLFClk.c ****     *
2102:Generated_Source\PSoC4/CyLFClk.c ****     *******************************************************************************/
2103:Generated_Source\PSoC4/CyLFClk.c ****     cyWdtCallback CySysWdtSetInterruptCallback(cyWdtCallback function)
2104:Generated_Source\PSoC4/CyLFClk.c ****     {
2105:Generated_Source\PSoC4/CyLFClk.c ****         cyWdtCallback prevCallback = (void *)0;
2106:Generated_Source\PSoC4/CyLFClk.c **** 
2107:Generated_Source\PSoC4/CyLFClk.c ****         prevCallback = cySysWdtCallback;
2108:Generated_Source\PSoC4/CyLFClk.c ****         cySysWdtCallback = function;
2109:Generated_Source\PSoC4/CyLFClk.c **** 
2110:Generated_Source\PSoC4/CyLFClk.c ****         return(prevCallback);
2111:Generated_Source\PSoC4/CyLFClk.c ****     }
2112:Generated_Source\PSoC4/CyLFClk.c **** 
2113:Generated_Source\PSoC4/CyLFClk.c **** 
2114:Generated_Source\PSoC4/CyLFClk.c ****     /*******************************************************************************
2115:Generated_Source\PSoC4/CyLFClk.c ****     * Function Name: CySysWdtGetIsrCallback
2116:Generated_Source\PSoC4/CyLFClk.c ****     ****************************************************************************//**
2117:Generated_Source\PSoC4/CyLFClk.c ****     *
2118:Generated_Source\PSoC4/CyLFClk.c ****     * \brief
2119:Generated_Source\PSoC4/CyLFClk.c ****     * Gets the ISR callback function for the WDT counter
2120:Generated_Source\PSoC4/CyLFClk.c ****     *
2121:Generated_Source\PSoC4/CyLFClk.c ****     * \return The pointer to the callback function registered for WDT.
2122:Generated_Source\PSoC4/CyLFClk.c ****     *
2123:Generated_Source\PSoC4/CyLFClk.c ****     *******************************************************************************/
2124:Generated_Source\PSoC4/CyLFClk.c ****     cyWdtCallback CySysWdtGetInterruptCallback(void)
2125:Generated_Source\PSoC4/CyLFClk.c ****     {
2126:Generated_Source\PSoC4/CyLFClk.c ****         return(cySysWdtCallback);
2127:Generated_Source\PSoC4/CyLFClk.c ****     }
2128:Generated_Source\PSoC4/CyLFClk.c **** 
2129:Generated_Source\PSoC4/CyLFClk.c **** 
2130:Generated_Source\PSoC4/CyLFClk.c ****     /*******************************************************************************
2131:Generated_Source\PSoC4/CyLFClk.c ****     * Function Name: CySysWdtIsr
2132:Generated_Source\PSoC4/CyLFClk.c ****     ****************************************************************************//**
2133:Generated_Source\PSoC4/CyLFClk.c ****     *
2134:Generated_Source\PSoC4/CyLFClk.c ****     * \brief
2135:Generated_Source\PSoC4/CyLFClk.c ****     * This is the handler of the WDT interrupt in CPU NVIC.
2136:Generated_Source\PSoC4/CyLFClk.c ****     *
2137:Generated_Source\PSoC4/CyLFClk.c ****     * The handler calls the respective callback functions configured by the user 
2138:Generated_Source\PSoC4/CyLFClk.c ****     * by using CySysWdtSetIsrCallback() API.
2139:Generated_Source\PSoC4/CyLFClk.c ****     *
ARM GAS  C:\Users\user\AppData\Local\Temp\ccsPNKJ0.s 			page 107


2140:Generated_Source\PSoC4/CyLFClk.c ****     *
2141:Generated_Source\PSoC4/CyLFClk.c ****     * \details
2142:Generated_Source\PSoC4/CyLFClk.c ****     * This function clears the WDT interrupt every time when it is called.
2143:Generated_Source\PSoC4/CyLFClk.c ****     * Reset after the 3rd interrupt does not happen if this function is registered
2144:Generated_Source\PSoC4/CyLFClk.c ****     * as the interrupt handler even if the "Watchdog with Interrupt" mode is
2145:Generated_Source\PSoC4/CyLFClk.c ****     * selected on the "Low Frequency Clocks" tab.
2146:Generated_Source\PSoC4/CyLFClk.c ****     *
2147:Generated_Source\PSoC4/CyLFClk.c ****     *******************************************************************************/
2148:Generated_Source\PSoC4/CyLFClk.c ****     void CySysWdtIsr(void)
2149:Generated_Source\PSoC4/CyLFClk.c ****     {
2150:Generated_Source\PSoC4/CyLFClk.c ****         if(cySysWdtCallback != (void *) 0)
2151:Generated_Source\PSoC4/CyLFClk.c ****         {
2152:Generated_Source\PSoC4/CyLFClk.c ****             (void)(cySysWdtCallback)();
2153:Generated_Source\PSoC4/CyLFClk.c ****         }
2154:Generated_Source\PSoC4/CyLFClk.c **** 
2155:Generated_Source\PSoC4/CyLFClk.c ****         CySysWdtClearInterrupt();
2156:Generated_Source\PSoC4/CyLFClk.c ****     }
2157:Generated_Source\PSoC4/CyLFClk.c **** 
2158:Generated_Source\PSoC4/CyLFClk.c **** #endif /* (CY_IP_SRSSV2) */
2159:Generated_Source\PSoC4/CyLFClk.c **** 
2160:Generated_Source\PSoC4/CyLFClk.c **** 
2161:Generated_Source\PSoC4/CyLFClk.c **** #if(CY_IP_SRSSLT && CY_IP_WCO && CY_IP_WCO_WDT_EN)
2162:Generated_Source\PSoC4/CyLFClk.c **** 
2163:Generated_Source\PSoC4/CyLFClk.c **** /*******************************************************************************
2164:Generated_Source\PSoC4/CyLFClk.c **** * Function Name: CySysClkGetTimerSource
2165:Generated_Source\PSoC4/CyLFClk.c **** ********************************************************************************
2166:Generated_Source\PSoC4/CyLFClk.c **** *
2167:Generated_Source\PSoC4/CyLFClk.c **** * \brief Gets the clock source for the DeepSleep Timers.
2168:Generated_Source\PSoC4/CyLFClk.c **** *
2169:Generated_Source\PSoC4/CyLFClk.c **** * The function is applicable only for PSoC 4100S / PSoC Analog Coprocessor.
2170:Generated_Source\PSoC4/CyLFClk.c **** *
2171:Generated_Source\PSoC4/CyLFClk.c **** * \return The DeepSleep Timer source
2172:Generated_Source\PSoC4/CyLFClk.c **** * CY_SYS_CLK_TIMER_SRC_ILO Internal Low Frequency (32 kHz) Oscillator (ILO)
2173:Generated_Source\PSoC4/CyLFClk.c **** * CY_SYS_CLK_TIMER_SRC_WCO Low Frequency Watch Crystal Oscillator (WCO)
2174:Generated_Source\PSoC4/CyLFClk.c **** *
2175:Generated_Source\PSoC4/CyLFClk.c **** *******************************************************************************/
2176:Generated_Source\PSoC4/CyLFClk.c ****     static uint32 CySysClkGetTimerSource(void)
2177:Generated_Source\PSoC4/CyLFClk.c ****     {
2178:Generated_Source\PSoC4/CyLFClk.c ****         uint32 timerSource;
2179:Generated_Source\PSoC4/CyLFClk.c ****         timerSource = CY_SYS_WCO_WDT_CONFIG_REG & CY_SYS_CLK_TIMER_SEL_MASK;
2180:Generated_Source\PSoC4/CyLFClk.c ****         return (timerSource);
2181:Generated_Source\PSoC4/CyLFClk.c ****     }    
2182:Generated_Source\PSoC4/CyLFClk.c **** 
2183:Generated_Source\PSoC4/CyLFClk.c **** 
2184:Generated_Source\PSoC4/CyLFClk.c **** /*******************************************************************************
2185:Generated_Source\PSoC4/CyLFClk.c **** * Function Name: CySysClkSetTimerSource
2186:Generated_Source\PSoC4/CyLFClk.c **** ****************************************************************************//**
2187:Generated_Source\PSoC4/CyLFClk.c **** *
2188:Generated_Source\PSoC4/CyLFClk.c **** * \brief Sets the clock source for the DeepSleep Timers.
2189:Generated_Source\PSoC4/CyLFClk.c **** *
2190:Generated_Source\PSoC4/CyLFClk.c **** * The function is applicable only for PSoC 4100S / PSoC Analog Coprocessor 
2191:Generated_Source\PSoC4/CyLFClk.c **** * devices.
2192:Generated_Source\PSoC4/CyLFClk.c **** *
2193:Generated_Source\PSoC4/CyLFClk.c **** * \param source
2194:Generated_Source\PSoC4/CyLFClk.c **** *  CY_SYS_CLK_TIMER_SRC_ILO - Internal Low Frequency (32 kHz) Oscillator 
2195:Generated_Source\PSoC4/CyLFClk.c **** * (ILO).<br>
2196:Generated_Source\PSoC4/CyLFClk.c **** * CY_SYS_CLK_TIMER_SRC_WCO - Low Frequency Watch Crystal Oscillator 
ARM GAS  C:\Users\user\AppData\Local\Temp\ccsPNKJ0.s 			page 108


2197:Generated_Source\PSoC4/CyLFClk.c **** * (WCO).
2198:Generated_Source\PSoC4/CyLFClk.c **** *
2199:Generated_Source\PSoC4/CyLFClk.c **** * \details Both the current source and the new source must be running and stable 
2200:Generated_Source\PSoC4/CyLFClk.c **** * before calling this function.
2201:Generated_Source\PSoC4/CyLFClk.c **** *
2202:Generated_Source\PSoC4/CyLFClk.c **** * \warning DeepSleep Timer reset is required if Timer source was switched while 
2203:Generated_Source\PSoC4/CyLFClk.c **** * DeepSleep Timers were running. Call CySysTimerResetCounters() API after 
2204:Generated_Source\PSoC4/CyLFClk.c **** * Timer source switching.
2205:Generated_Source\PSoC4/CyLFClk.c **** * It is highly recommended to disable DeepSleep Timers before Timer source 
2206:Generated_Source\PSoC4/CyLFClk.c **** * switching. Changing the Timer source may change the functionality that uses 
2207:Generated_Source\PSoC4/CyLFClk.c **** * this Timers as clock source.
2208:Generated_Source\PSoC4/CyLFClk.c **** *******************************************************************************/
2209:Generated_Source\PSoC4/CyLFClk.c ****     void CySysClkSetTimerSource(uint32 source)
2210:Generated_Source\PSoC4/CyLFClk.c ****     {
2211:Generated_Source\PSoC4/CyLFClk.c ****         uint8  interruptState;
2212:Generated_Source\PSoC4/CyLFClk.c **** 
2213:Generated_Source\PSoC4/CyLFClk.c ****         if (CySysClkGetTimerSource() != source)
2214:Generated_Source\PSoC4/CyLFClk.c ****         {
2215:Generated_Source\PSoC4/CyLFClk.c **** 
2216:Generated_Source\PSoC4/CyLFClk.c ****             /* Reset both _EN bits in WCO_WDT_CLKEN register */
2217:Generated_Source\PSoC4/CyLFClk.c ****             CY_SYS_WCO_WDT_CLKEN_REG &= ~CY_SYS_WCO_WDT_CLKEN_RESET_MASK;
2218:Generated_Source\PSoC4/CyLFClk.c ****             
2219:Generated_Source\PSoC4/CyLFClk.c ****             /* Wait 4 new clock source-cycles for change to come into effect */
2220:Generated_Source\PSoC4/CyLFClk.c ****             CyDelayUs(CY_SYS_4TIMER_DELAY_US);
2221:Generated_Source\PSoC4/CyLFClk.c **** 
2222:Generated_Source\PSoC4/CyLFClk.c ****             interruptState = CyEnterCriticalSection();
2223:Generated_Source\PSoC4/CyLFClk.c ****             CY_SYS_WCO_WDT_CONFIG_REG = (CY_SYS_WCO_WDT_CONFIG_REG & (uint32)(~CY_SYS_CLK_TIMER_SEL
2224:Generated_Source\PSoC4/CyLFClk.c ****                                     (source & CY_SYS_CLK_TIMER_SEL_MASK);
2225:Generated_Source\PSoC4/CyLFClk.c ****             CyExitCriticalSection(interruptState);
2226:Generated_Source\PSoC4/CyLFClk.c ****         }
2227:Generated_Source\PSoC4/CyLFClk.c **** 
2228:Generated_Source\PSoC4/CyLFClk.c ****         CY_SYS_WCO_WDT_CLKEN_REG = (CY_SYS_WCO_WDT_CLKEN_REG & (uint32)(~CY_SYS_WCO_WDT_CLKEN_RESET
2229:Generated_Source\PSoC4/CyLFClk.c ****                                     CY_SYS_SET_CURRENT_TIMER_SOURCE_BIT;
2230:Generated_Source\PSoC4/CyLFClk.c ****     }
2231:Generated_Source\PSoC4/CyLFClk.c **** 
2232:Generated_Source\PSoC4/CyLFClk.c **** 
2233:Generated_Source\PSoC4/CyLFClk.c ****     /*******************************************************************************
2234:Generated_Source\PSoC4/CyLFClk.c ****     * Function Name: CySysTimerGetEnabledStatus
2235:Generated_Source\PSoC4/CyLFClk.c ****     ****************************************************************************//**
2236:Generated_Source\PSoC4/CyLFClk.c ****     *
2237:Generated_Source\PSoC4/CyLFClk.c ****     * \brief Reads the enabled status of one of the three DeepSleep Timer 
2238:Generated_Source\PSoC4/CyLFClk.c ****     * counters.
2239:Generated_Source\PSoC4/CyLFClk.c ****     *
2240:Generated_Source\PSoC4/CyLFClk.c ****     * \param counterNum: Valid range [0-2]. The number of the DeepSleep Timer 
2241:Generated_Source\PSoC4/CyLFClk.c ****     * counter.
2242:Generated_Source\PSoC4/CyLFClk.c ****     *
2243:Generated_Source\PSoC4/CyLFClk.c ****     * \return The status of the Timers counter:
2244:Generated_Source\PSoC4/CyLFClk.c ****     * \return 0 - If the Counter is disabled.
2245:Generated_Source\PSoC4/CyLFClk.c ****     * \return 1 - If the Counter is enabled.
2246:Generated_Source\PSoC4/CyLFClk.c ****     *
2247:Generated_Source\PSoC4/CyLFClk.c ****     * \details
2248:Generated_Source\PSoC4/CyLFClk.c ****     * This function returns an actual DeepSleep Timer counter status from the 
2249:Generated_Source\PSoC4/CyLFClk.c ****     * status register. It may take up to 3 LFCLK cycles for the Timer status 
2250:Generated_Source\PSoC4/CyLFClk.c ****     * register to contain actual data after the Timer counter is enabled.
2251:Generated_Source\PSoC4/CyLFClk.c ****     *
2252:Generated_Source\PSoC4/CyLFClk.c ****     *******************************************************************************/
2253:Generated_Source\PSoC4/CyLFClk.c ****     uint32 CySysTimerGetEnabledStatus(uint32 counterNum)
ARM GAS  C:\Users\user\AppData\Local\Temp\ccsPNKJ0.s 			page 109


2254:Generated_Source\PSoC4/CyLFClk.c ****     {
2255:Generated_Source\PSoC4/CyLFClk.c ****         CYASSERT(counterNum < CY_SYS_TIMER_COUNTERS_MAX);
2256:Generated_Source\PSoC4/CyLFClk.c ****         return ((CY_SYS_WCO_WDT_CONTROL_REG >> ((CY_SYS_TIMER_CNT_SHIFT * counterNum) + 
2257:Generated_Source\PSoC4/CyLFClk.c ****                                                  CY_SYS_TIMER_CNT_STTS_SHIFT)) & 0x01u);
2258:Generated_Source\PSoC4/CyLFClk.c ****     }
2259:Generated_Source\PSoC4/CyLFClk.c **** 
2260:Generated_Source\PSoC4/CyLFClk.c **** 
2261:Generated_Source\PSoC4/CyLFClk.c ****     /*******************************************************************************
2262:Generated_Source\PSoC4/CyLFClk.c ****     * Function Name: CySysTimerSetMode
2263:Generated_Source\PSoC4/CyLFClk.c ****     ****************************************************************************//**
2264:Generated_Source\PSoC4/CyLFClk.c ****     *
2265:Generated_Source\PSoC4/CyLFClk.c ****     * \brief Writes the mode of one of the three DeepSleep Timer counters.
2266:Generated_Source\PSoC4/CyLFClk.c ****     *
2267:Generated_Source\PSoC4/CyLFClk.c ****     * \param counterNum: Valid range [0-2]. The number of the DeepSleep Timer 
2268:Generated_Source\PSoC4/CyLFClk.c ****     * counter.
2269:Generated_Source\PSoC4/CyLFClk.c ****     *
2270:Generated_Source\PSoC4/CyLFClk.c ****     * \param mode
2271:Generated_Source\PSoC4/CyLFClk.c ****     *  CY_SYS_TIMER_MODE_NONE - Free running.<br>
2272:Generated_Source\PSoC4/CyLFClk.c ****     * CY_SYS_TIMER_MODE_INT - The interrupt generated on match for counter 0
2273:Generated_Source\PSoC4/CyLFClk.c ****     * and 1, and on bit toggle for counter 2.
2274:Generated_Source\PSoC4/CyLFClk.c ****     *
2275:Generated_Source\PSoC4/CyLFClk.c ****     * \details
2276:Generated_Source\PSoC4/CyLFClk.c ****     * DeepSleep Timer counter counterNum should be disabled to set a mode. 
2277:Generated_Source\PSoC4/CyLFClk.c ****     * Otherwise, this function call has no effect. If the specified counter is 
2278:Generated_Source\PSoC4/CyLFClk.c ****     * enabled, call the CySysTimerDisable() function with the corresponding 
2279:Generated_Source\PSoC4/CyLFClk.c ****     * parameter to disable the specified counter and wait for it to stop.
2280:Generated_Source\PSoC4/CyLFClk.c ****     *
2281:Generated_Source\PSoC4/CyLFClk.c ****     *******************************************************************************/
2282:Generated_Source\PSoC4/CyLFClk.c ****     void CySysTimerSetMode(uint32 counterNum, uint32 mode)
2283:Generated_Source\PSoC4/CyLFClk.c ****     {
2284:Generated_Source\PSoC4/CyLFClk.c ****         uint32 configRegValue;
2285:Generated_Source\PSoC4/CyLFClk.c **** 
2286:Generated_Source\PSoC4/CyLFClk.c ****         CYASSERT(counterNum < CY_SYS_TIMER_COUNTERS_MAX);
2287:Generated_Source\PSoC4/CyLFClk.c **** 
2288:Generated_Source\PSoC4/CyLFClk.c ****         CYASSERT(mode <= CY_SYS_TIMER_MODE_MASK);
2289:Generated_Source\PSoC4/CyLFClk.c **** 
2290:Generated_Source\PSoC4/CyLFClk.c ****         if(0u == CySysTimerGetEnabledStatus(counterNum))
2291:Generated_Source\PSoC4/CyLFClk.c ****         {
2292:Generated_Source\PSoC4/CyLFClk.c ****             configRegValue = CY_SYS_WCO_WDT_CONFIG_REG &
2293:Generated_Source\PSoC4/CyLFClk.c ****                                 (uint32)~((uint32)(CY_SYS_TIMER_MODE_MASK << (counterNum * CY_SYS_T
2294:Generated_Source\PSoC4/CyLFClk.c ****             configRegValue |= (uint32)((mode & CY_SYS_TIMER_MODE_MASK) << (counterNum * CY_SYS_TIME
2295:Generated_Source\PSoC4/CyLFClk.c ****             CY_SYS_WCO_WDT_CONFIG_REG = configRegValue;
2296:Generated_Source\PSoC4/CyLFClk.c ****         }
2297:Generated_Source\PSoC4/CyLFClk.c ****     }
2298:Generated_Source\PSoC4/CyLFClk.c **** 
2299:Generated_Source\PSoC4/CyLFClk.c **** 
2300:Generated_Source\PSoC4/CyLFClk.c ****     /*******************************************************************************
2301:Generated_Source\PSoC4/CyLFClk.c ****     * Function Name: CySysTimerGetMode
2302:Generated_Source\PSoC4/CyLFClk.c ****     ****************************************************************************//**
2303:Generated_Source\PSoC4/CyLFClk.c ****     *
2304:Generated_Source\PSoC4/CyLFClk.c ****     * \brief Reads the mode of one of the three DeepSleep Timer counters.
2305:Generated_Source\PSoC4/CyLFClk.c ****     *
2306:Generated_Source\PSoC4/CyLFClk.c ****     * \param counterNum Valid range [0-2]. The number of the Timer counter.
2307:Generated_Source\PSoC4/CyLFClk.c ****     *
2308:Generated_Source\PSoC4/CyLFClk.c ****     * \return The mode of the counter. The same enumerated values as the mode 
2309:Generated_Source\PSoC4/CyLFClk.c ****     * parameter used in CySysTimerSetMode().
2310:Generated_Source\PSoC4/CyLFClk.c ****     *
ARM GAS  C:\Users\user\AppData\Local\Temp\ccsPNKJ0.s 			page 110


2311:Generated_Source\PSoC4/CyLFClk.c ****     *******************************************************************************/
2312:Generated_Source\PSoC4/CyLFClk.c ****     uint32 CySysTimerGetMode(uint32 counterNum)
2313:Generated_Source\PSoC4/CyLFClk.c ****     {
2314:Generated_Source\PSoC4/CyLFClk.c ****         return ((CY_SYS_WCO_WDT_CONFIG_REG >> (counterNum * CY_SYS_TIMER_CNT_SHIFT)) & CY_SYS_TIMER
2315:Generated_Source\PSoC4/CyLFClk.c ****     }
2316:Generated_Source\PSoC4/CyLFClk.c **** 
2317:Generated_Source\PSoC4/CyLFClk.c **** 
2318:Generated_Source\PSoC4/CyLFClk.c ****     /*******************************************************************************
2319:Generated_Source\PSoC4/CyLFClk.c ****     * Function Name: CySysTimerSetClearOnMatch
2320:Generated_Source\PSoC4/CyLFClk.c ****     ****************************************************************************//**
2321:Generated_Source\PSoC4/CyLFClk.c ****     *
2322:Generated_Source\PSoC4/CyLFClk.c ****     * \brief Configures the DeepSleep Timer counter "clear on match" setting.
2323:Generated_Source\PSoC4/CyLFClk.c ****     *
2324:Generated_Source\PSoC4/CyLFClk.c ****     * If configured to "clear on match", the counter counts from 0 to MatchValue 
2325:Generated_Source\PSoC4/CyLFClk.c ****     * giving it a period of (MatchValue + 1).
2326:Generated_Source\PSoC4/CyLFClk.c ****     *
2327:Generated_Source\PSoC4/CyLFClk.c ****     * \param counterNum
2328:Generated_Source\PSoC4/CyLFClk.c ****     * Valid range [0-1]. The number of the Timer counter. The match values are not
2329:Generated_Source\PSoC4/CyLFClk.c ****     * supported by counter 2.
2330:Generated_Source\PSoC4/CyLFClk.c ****     * \param enable 0 to disable appropriate counter <br>
2331:Generated_Source\PSoC4/CyLFClk.c ****     * 1 to enable appropriate counter
2332:Generated_Source\PSoC4/CyLFClk.c ****     *
2333:Generated_Source\PSoC4/CyLFClk.c ****     * \details
2334:Generated_Source\PSoC4/CyLFClk.c ****     * Timer counter counterNum should be disabled. Otherwise this function call
2335:Generated_Source\PSoC4/CyLFClk.c ****     * has no effect. If the specified counter is enabled, call the CySysTimerDisable()
2336:Generated_Source\PSoC4/CyLFClk.c ****     * function with the corresponding parameter to disable the specified counter and
2337:Generated_Source\PSoC4/CyLFClk.c ****     * wait for it to stop. This may take up to three Timer source-cycles.
2338:Generated_Source\PSoC4/CyLFClk.c ****     *
2339:Generated_Source\PSoC4/CyLFClk.c ****     *******************************************************************************/
2340:Generated_Source\PSoC4/CyLFClk.c ****     void CySysTimerSetClearOnMatch(uint32 counterNum, uint32 enable)
2341:Generated_Source\PSoC4/CyLFClk.c ****     {
2342:Generated_Source\PSoC4/CyLFClk.c ****         uint32 configRegValue;
2343:Generated_Source\PSoC4/CyLFClk.c **** 
2344:Generated_Source\PSoC4/CyLFClk.c ****         CYASSERT((counterNum == CY_SYS_TIMER0) ||
2345:Generated_Source\PSoC4/CyLFClk.c ****                  (counterNum == CY_SYS_TIMER1));
2346:Generated_Source\PSoC4/CyLFClk.c **** 
2347:Generated_Source\PSoC4/CyLFClk.c ****         if(0u == CySysTimerGetEnabledStatus(counterNum))
2348:Generated_Source\PSoC4/CyLFClk.c ****         {
2349:Generated_Source\PSoC4/CyLFClk.c ****             configRegValue = CY_SYS_WCO_WDT_CONFIG_REG & (uint32)~((uint32)((uint32)1u << 
2350:Generated_Source\PSoC4/CyLFClk.c ****              ((counterNum * CY_SYS_TIMER_CNT_SHIFT) + CY_SYS_TIMER_CNT_MATCH_CLR_SHIFT)));
2351:Generated_Source\PSoC4/CyLFClk.c **** 
2352:Generated_Source\PSoC4/CyLFClk.c ****             configRegValue
2353:Generated_Source\PSoC4/CyLFClk.c ****                 |= (uint32)(enable << ((counterNum * CY_SYS_TIMER_CNT_SHIFT) + CY_SYS_TIMER_CNT_MAT
2354:Generated_Source\PSoC4/CyLFClk.c **** 
2355:Generated_Source\PSoC4/CyLFClk.c ****             CY_SYS_WCO_WDT_CONFIG_REG = configRegValue;
2356:Generated_Source\PSoC4/CyLFClk.c ****         }
2357:Generated_Source\PSoC4/CyLFClk.c ****     }
2358:Generated_Source\PSoC4/CyLFClk.c **** 
2359:Generated_Source\PSoC4/CyLFClk.c **** 
2360:Generated_Source\PSoC4/CyLFClk.c ****     /*******************************************************************************
2361:Generated_Source\PSoC4/CyLFClk.c ****     * Function Name: CySysTimerGetClearOnMatch
2362:Generated_Source\PSoC4/CyLFClk.c ****     ****************************************************************************//**
2363:Generated_Source\PSoC4/CyLFClk.c ****     *
2364:Generated_Source\PSoC4/CyLFClk.c ****     * \brief Reads the "clear on match" setting for the specified DeepSleep Timer 
2365:Generated_Source\PSoC4/CyLFClk.c ****     * counter.
2366:Generated_Source\PSoC4/CyLFClk.c ****     *
2367:Generated_Source\PSoC4/CyLFClk.c ****     * \param counterNum Valid range [0-1].  The number of the Timer counter. The 
ARM GAS  C:\Users\user\AppData\Local\Temp\ccsPNKJ0.s 			page 111


2368:Generated_Source\PSoC4/CyLFClk.c ****     * match values are not supported by counter 2.
2369:Generated_Source\PSoC4/CyLFClk.c ****     *
2370:Generated_Source\PSoC4/CyLFClk.c ****     * \return The "clear on match" status: <br>1 if enabled <br>0 if disabled
2371:Generated_Source\PSoC4/CyLFClk.c ****     *
2372:Generated_Source\PSoC4/CyLFClk.c ****     *******************************************************************************/
2373:Generated_Source\PSoC4/CyLFClk.c ****     uint32 CySysTimerGetClearOnMatch(uint32 counterNum)
2374:Generated_Source\PSoC4/CyLFClk.c ****     {
2375:Generated_Source\PSoC4/CyLFClk.c ****         CYASSERT((counterNum == CY_SYS_TIMER0) ||
2376:Generated_Source\PSoC4/CyLFClk.c ****                  (counterNum == CY_SYS_TIMER1));
2377:Generated_Source\PSoC4/CyLFClk.c **** 
2378:Generated_Source\PSoC4/CyLFClk.c ****         return (uint32)((CY_SYS_WCO_WDT_CONFIG_REG >>
2379:Generated_Source\PSoC4/CyLFClk.c ****                         ((counterNum * CY_SYS_TIMER_CNT_SHIFT) + CY_SYS_TIMER_CNT_MATCH_CLR_SHIFT))
2380:Generated_Source\PSoC4/CyLFClk.c ****     }
2381:Generated_Source\PSoC4/CyLFClk.c **** 
2382:Generated_Source\PSoC4/CyLFClk.c **** 
2383:Generated_Source\PSoC4/CyLFClk.c ****     /*******************************************************************************
2384:Generated_Source\PSoC4/CyLFClk.c ****     * Function Name: CySysTimerEnable
2385:Generated_Source\PSoC4/CyLFClk.c ****     ****************************************************************************//**
2386:Generated_Source\PSoC4/CyLFClk.c ****     *
2387:Generated_Source\PSoC4/CyLFClk.c ****     * \brief Enables the specified DeepSleep Timer counters. All the counters 
2388:Generated_Source\PSoC4/CyLFClk.c ****     * specified in the mask are enabled.
2389:Generated_Source\PSoC4/CyLFClk.c ****     *
2390:Generated_Source\PSoC4/CyLFClk.c ****     * \param counterMask  CY_SYS_TIMER0_MASK - The mask for counter 0 to enable.<br>
2391:Generated_Source\PSoC4/CyLFClk.c ****     * CY_SYS_TIMER1_MASK - The mask for counter 1 to enable.<br>
2392:Generated_Source\PSoC4/CyLFClk.c ****     * CY_SYS_TIMER2_MASK - The mask for counter 2 to enable.
2393:Generated_Source\PSoC4/CyLFClk.c ****     *
2394:Generated_Source\PSoC4/CyLFClk.c ****     * \details
2395:Generated_Source\PSoC4/CyLFClk.c ****     * Enabling or disabling Timer requires 3 Timer source-cycles to come into effect.
2396:Generated_Source\PSoC4/CyLFClk.c ****     * Therefore, the Timer enable state must not be changed more than once in
2397:Generated_Source\PSoC4/CyLFClk.c ****     * that period.
2398:Generated_Source\PSoC4/CyLFClk.c ****     *
2399:Generated_Source\PSoC4/CyLFClk.c ****     * After Timer is enabled, it is illegal to write Timer configuration 
2400:Generated_Source\PSoC4/CyLFClk.c ****     * (WCO_WDT_CONFIG) and control (WCO_WDT_CONTROL) registers. This means that all
2401:Generated_Source\PSoC4/CyLFClk.c ****     * Timer functions that contain 'write' in the name (with the exception of 
2402:Generated_Source\PSoC4/CyLFClk.c ****     * CySysTimerSetMatch() function) are illegal to call once Timer enabled.
2403:Generated_Source\PSoC4/CyLFClk.c ****     *
2404:Generated_Source\PSoC4/CyLFClk.c ****     * Timer current source must be running and stable before calling this 
2405:Generated_Source\PSoC4/CyLFClk.c ****     * function.
2406:Generated_Source\PSoC4/CyLFClk.c ****     *
2407:Generated_Source\PSoC4/CyLFClk.c ****     *******************************************************************************/
2408:Generated_Source\PSoC4/CyLFClk.c ****     void CySysTimerEnable(uint32 counterMask)
2409:Generated_Source\PSoC4/CyLFClk.c ****     {
2410:Generated_Source\PSoC4/CyLFClk.c ****         CY_SYS_WCO_WDT_CONTROL_REG |= counterMask;
2411:Generated_Source\PSoC4/CyLFClk.c **** 
2412:Generated_Source\PSoC4/CyLFClk.c ****         if(0u != (counterMask & CY_SYS_TIMER0_MASK))
2413:Generated_Source\PSoC4/CyLFClk.c ****         {
2414:Generated_Source\PSoC4/CyLFClk.c ****             while (0u == CySysTimerGetEnabledStatus(CY_SYS_TIMER0))
2415:Generated_Source\PSoC4/CyLFClk.c ****             {
2416:Generated_Source\PSoC4/CyLFClk.c ****                 /* Wait for changes to come into effect */
2417:Generated_Source\PSoC4/CyLFClk.c ****             }
2418:Generated_Source\PSoC4/CyLFClk.c ****         }
2419:Generated_Source\PSoC4/CyLFClk.c **** 
2420:Generated_Source\PSoC4/CyLFClk.c ****         if(0u != (counterMask & CY_SYS_TIMER1_MASK))
2421:Generated_Source\PSoC4/CyLFClk.c ****         {
2422:Generated_Source\PSoC4/CyLFClk.c ****             while (0u == CySysTimerGetEnabledStatus(CY_SYS_TIMER1))
2423:Generated_Source\PSoC4/CyLFClk.c ****             {
2424:Generated_Source\PSoC4/CyLFClk.c ****                 /* Wait for changes to come into effect */
ARM GAS  C:\Users\user\AppData\Local\Temp\ccsPNKJ0.s 			page 112


2425:Generated_Source\PSoC4/CyLFClk.c ****             }
2426:Generated_Source\PSoC4/CyLFClk.c ****         }
2427:Generated_Source\PSoC4/CyLFClk.c **** 
2428:Generated_Source\PSoC4/CyLFClk.c ****         if(0u != (counterMask & CY_SYS_TIMER2_MASK))
2429:Generated_Source\PSoC4/CyLFClk.c ****         {
2430:Generated_Source\PSoC4/CyLFClk.c ****             while (0u == CySysTimerGetEnabledStatus(CY_SYS_TIMER2))
2431:Generated_Source\PSoC4/CyLFClk.c ****             {
2432:Generated_Source\PSoC4/CyLFClk.c ****                 /* Wait for changes to come into effect */
2433:Generated_Source\PSoC4/CyLFClk.c ****             }
2434:Generated_Source\PSoC4/CyLFClk.c ****         }
2435:Generated_Source\PSoC4/CyLFClk.c ****     }
2436:Generated_Source\PSoC4/CyLFClk.c **** 
2437:Generated_Source\PSoC4/CyLFClk.c **** 
2438:Generated_Source\PSoC4/CyLFClk.c ****     /*******************************************************************************
2439:Generated_Source\PSoC4/CyLFClk.c ****     * Function Name: CySysTimerDisable
2440:Generated_Source\PSoC4/CyLFClk.c ****     ****************************************************************************//**
2441:Generated_Source\PSoC4/CyLFClk.c ****     *
2442:Generated_Source\PSoC4/CyLFClk.c ****     * \brief Disables the specified DeepSleep Timer counters.
2443:Generated_Source\PSoC4/CyLFClk.c ****     *
2444:Generated_Source\PSoC4/CyLFClk.c ****     * All the counters specified in the mask are disabled. The function waits for 
2445:Generated_Source\PSoC4/CyLFClk.c ****     * the changes to come into effect.
2446:Generated_Source\PSoC4/CyLFClk.c ****     *
2447:Generated_Source\PSoC4/CyLFClk.c ****     * \param counterMask
2448:Generated_Source\PSoC4/CyLFClk.c ****     *  CY_SYS_TIMER0_MASK - The mask for Counter 0 to disable.<br>
2449:Generated_Source\PSoC4/CyLFClk.c ****     * CY_SYS_TIMER1_MASK - The mask for Counter 1 to disable.<br>
2450:Generated_Source\PSoC4/CyLFClk.c ****     * CY_SYS_TIMER2_MASK - The mask for Counter 2 to disable.
2451:Generated_Source\PSoC4/CyLFClk.c ****     *
2452:Generated_Source\PSoC4/CyLFClk.c ****     *******************************************************************************/
2453:Generated_Source\PSoC4/CyLFClk.c ****     void CySysTimerDisable(uint32 counterMask)
2454:Generated_Source\PSoC4/CyLFClk.c ****     {
2455:Generated_Source\PSoC4/CyLFClk.c **** 
2456:Generated_Source\PSoC4/CyLFClk.c ****         CY_SYS_WCO_WDT_CONTROL_REG &= ~counterMask;
2457:Generated_Source\PSoC4/CyLFClk.c **** 
2458:Generated_Source\PSoC4/CyLFClk.c ****         if(0u != (counterMask & CY_SYS_TIMER0_MASK))
2459:Generated_Source\PSoC4/CyLFClk.c ****         {
2460:Generated_Source\PSoC4/CyLFClk.c ****             while (0u != CySysTimerGetEnabledStatus(CY_SYS_TIMER0))
2461:Generated_Source\PSoC4/CyLFClk.c ****             {
2462:Generated_Source\PSoC4/CyLFClk.c ****                 /* Wait for changes to come into effect */
2463:Generated_Source\PSoC4/CyLFClk.c ****             }
2464:Generated_Source\PSoC4/CyLFClk.c ****         }
2465:Generated_Source\PSoC4/CyLFClk.c **** 
2466:Generated_Source\PSoC4/CyLFClk.c ****         if(0u != (counterMask & CY_SYS_TIMER1_MASK))
2467:Generated_Source\PSoC4/CyLFClk.c ****         {
2468:Generated_Source\PSoC4/CyLFClk.c ****             while (0u != CySysTimerGetEnabledStatus(CY_SYS_TIMER1))
2469:Generated_Source\PSoC4/CyLFClk.c ****             {
2470:Generated_Source\PSoC4/CyLFClk.c ****                 /* Wait for changes to come into effect */
2471:Generated_Source\PSoC4/CyLFClk.c ****             }
2472:Generated_Source\PSoC4/CyLFClk.c ****         }
2473:Generated_Source\PSoC4/CyLFClk.c **** 
2474:Generated_Source\PSoC4/CyLFClk.c ****         if(0u != (counterMask & CY_SYS_TIMER2_MASK))
2475:Generated_Source\PSoC4/CyLFClk.c ****         {
2476:Generated_Source\PSoC4/CyLFClk.c ****             while (0u != CySysTimerGetEnabledStatus(CY_SYS_TIMER2))
2477:Generated_Source\PSoC4/CyLFClk.c ****             {
2478:Generated_Source\PSoC4/CyLFClk.c ****                 /* Wait for changes to come into effect */
2479:Generated_Source\PSoC4/CyLFClk.c ****             }
2480:Generated_Source\PSoC4/CyLFClk.c ****         }
2481:Generated_Source\PSoC4/CyLFClk.c **** 
ARM GAS  C:\Users\user\AppData\Local\Temp\ccsPNKJ0.s 			page 113


2482:Generated_Source\PSoC4/CyLFClk.c ****     }
2483:Generated_Source\PSoC4/CyLFClk.c **** 
2484:Generated_Source\PSoC4/CyLFClk.c **** 
2485:Generated_Source\PSoC4/CyLFClk.c ****     /*******************************************************************************
2486:Generated_Source\PSoC4/CyLFClk.c ****     * Function Name: CySysTimerSetCascade
2487:Generated_Source\PSoC4/CyLFClk.c ****     ****************************************************************************//**
2488:Generated_Source\PSoC4/CyLFClk.c ****     *
2489:Generated_Source\PSoC4/CyLFClk.c ****     * \brief
2490:Generated_Source\PSoC4/CyLFClk.c ****     * Writes the two DeepSleep Timers cascade values based on the combination of 
2491:Generated_Source\PSoC4/CyLFClk.c ****     * mask values specified.
2492:Generated_Source\PSoC4/CyLFClk.c ****     *
2493:Generated_Source\PSoC4/CyLFClk.c ****     * \param cascadeMask The mask value used to set or clear the cascade values:
2494:Generated_Source\PSoC4/CyLFClk.c ****     * CY_SYS_TIMER_CASCADE_NONE - Neither<br>
2495:Generated_Source\PSoC4/CyLFClk.c ****     * CY_SYS_TIMER_CASCADE_01 - Cascade 01<br>
2496:Generated_Source\PSoC4/CyLFClk.c ****     * CY_SYS_TIMER_CASCADE_12 - Cascade 12
2497:Generated_Source\PSoC4/CyLFClk.c ****     *
2498:Generated_Source\PSoC4/CyLFClk.c ****     * If only one cascade mask is specified, the second cascade is disabled.
2499:Generated_Source\PSoC4/CyLFClk.c ****     * To set both cascade modes, two defines should be ORed:
2500:Generated_Source\PSoC4/CyLFClk.c ****     * (CY_SYS_TIMER_CASCADE_01 | CY_SYS_TIMER_CASCADE_12).
2501:Generated_Source\PSoC4/CyLFClk.c ****     * \note If CySysTimerSetCascade() was called with ORed defines it is necessary 
2502:Generated_Source\PSoC4/CyLFClk.c ****     * to call CySysTimeSetClearOnMatch(1,1). It is needed to make sure that 
2503:Generated_Source\PSoC4/CyLFClk.c ****     * Counter 2 will be updated in the expected way.
2504:Generated_Source\PSoC4/CyLFClk.c ****     *
2505:Generated_Source\PSoC4/CyLFClk.c ****     * Timer counters that are part of the specified cascade should be disabled.
2506:Generated_Source\PSoC4/CyLFClk.c ****     * Otherwise this function call has no effect. If the specified
2507:Generated_Source\PSoC4/CyLFClk.c ****     * counter is enabled, call CySysTimerDisable() function with the corresponding
2508:Generated_Source\PSoC4/CyLFClk.c ****     * parameter to disable the specified counter and wait for it to stop. This may
2509:Generated_Source\PSoC4/CyLFClk.c ****     * take up to 3 Timers source-cycles.
2510:Generated_Source\PSoC4/CyLFClk.c ****     *
2511:Generated_Source\PSoC4/CyLFClk.c ****     *******************************************************************************/
2512:Generated_Source\PSoC4/CyLFClk.c ****     void CySysTimerSetCascade(uint32 cascadeMask)
2513:Generated_Source\PSoC4/CyLFClk.c ****     {
2514:Generated_Source\PSoC4/CyLFClk.c ****         uint32 configRegValue;
2515:Generated_Source\PSoC4/CyLFClk.c ****         uint32 countersEnableStatus;
2516:Generated_Source\PSoC4/CyLFClk.c **** 
2517:Generated_Source\PSoC4/CyLFClk.c ****         countersEnableStatus = CySysTimerGetEnabledStatus(CY_SYS_TIMER0) |
2518:Generated_Source\PSoC4/CyLFClk.c ****                             CySysTimerGetEnabledStatus(CY_SYS_TIMER1) |
2519:Generated_Source\PSoC4/CyLFClk.c ****                             CySysTimerGetEnabledStatus(CY_SYS_TIMER2);
2520:Generated_Source\PSoC4/CyLFClk.c **** 
2521:Generated_Source\PSoC4/CyLFClk.c ****         if (0u == countersEnableStatus)
2522:Generated_Source\PSoC4/CyLFClk.c ****         {
2523:Generated_Source\PSoC4/CyLFClk.c ****             configRegValue = CY_SYS_WCO_WDT_CONFIG_REG;
2524:Generated_Source\PSoC4/CyLFClk.c ****             configRegValue &= ((uint32)(~(CY_SYS_TIMER_CASCADE_01|CY_SYS_TIMER_CASCADE_12)));
2525:Generated_Source\PSoC4/CyLFClk.c ****             configRegValue |= cascadeMask;
2526:Generated_Source\PSoC4/CyLFClk.c ****             CY_SYS_WCO_WDT_CONFIG_REG = configRegValue;
2527:Generated_Source\PSoC4/CyLFClk.c ****         }
2528:Generated_Source\PSoC4/CyLFClk.c ****     }
2529:Generated_Source\PSoC4/CyLFClk.c **** 
2530:Generated_Source\PSoC4/CyLFClk.c **** 
2531:Generated_Source\PSoC4/CyLFClk.c ****     /*******************************************************************************
2532:Generated_Source\PSoC4/CyLFClk.c ****     * Function Name: CySysTimerGetCascade
2533:Generated_Source\PSoC4/CyLFClk.c ****     ****************************************************************************//**
2534:Generated_Source\PSoC4/CyLFClk.c ****     *
2535:Generated_Source\PSoC4/CyLFClk.c ****     * \brief Reads the two DeepSleep Timer cascade values returning a mask of the 
2536:Generated_Source\PSoC4/CyLFClk.c ****     * bits set.
2537:Generated_Source\PSoC4/CyLFClk.c ****     *
2538:Generated_Source\PSoC4/CyLFClk.c ****     * \return The mask of the cascade values set.
ARM GAS  C:\Users\user\AppData\Local\Temp\ccsPNKJ0.s 			page 114


2539:Generated_Source\PSoC4/CyLFClk.c ****     * \return CY_SYS_TIMER_CASCADE_NONE - Neither
2540:Generated_Source\PSoC4/CyLFClk.c ****     * \return CY_SYS_TIMER_CASCADE_01 - Cascade 01
2541:Generated_Source\PSoC4/CyLFClk.c ****     * \return CY_SYS_TIMER_CASCADE_12 - Cascade 12
2542:Generated_Source\PSoC4/CyLFClk.c ****     *
2543:Generated_Source\PSoC4/CyLFClk.c ****     *******************************************************************************/
2544:Generated_Source\PSoC4/CyLFClk.c ****     uint32 CySysTimerGetCascade(void)
2545:Generated_Source\PSoC4/CyLFClk.c ****     {
2546:Generated_Source\PSoC4/CyLFClk.c ****         return (CY_SYS_WCO_WDT_CONFIG_REG & (CY_SYS_TIMER_CASCADE_01 | CY_SYS_TIMER_CASCADE_12));
2547:Generated_Source\PSoC4/CyLFClk.c ****     }
2548:Generated_Source\PSoC4/CyLFClk.c **** 
2549:Generated_Source\PSoC4/CyLFClk.c **** 
2550:Generated_Source\PSoC4/CyLFClk.c ****     /*******************************************************************************
2551:Generated_Source\PSoC4/CyLFClk.c ****     * Function Name: CySysTimerSetMatch
2552:Generated_Source\PSoC4/CyLFClk.c ****     ****************************************************************************//**
2553:Generated_Source\PSoC4/CyLFClk.c ****     *
2554:Generated_Source\PSoC4/CyLFClk.c ****     * \brief Configures the Timer counter match comparison value.
2555:Generated_Source\PSoC4/CyLFClk.c ****     *
2556:Generated_Source\PSoC4/CyLFClk.c ****     * \param counterNum Valid range [0-1]. The number of the Timer counter. The 
2557:Generated_Source\PSoC4/CyLFClk.c ****     * match values are not supported by counter 2.
2558:Generated_Source\PSoC4/CyLFClk.c ****     *
2559:Generated_Source\PSoC4/CyLFClk.c ****     * \param match Valid range [0-65535]. The value to be used to match against 
2560:Generated_Source\PSoC4/CyLFClk.c ****     * the counter.
2561:Generated_Source\PSoC4/CyLFClk.c ****     *
2562:Generated_Source\PSoC4/CyLFClk.c ****     *******************************************************************************/
2563:Generated_Source\PSoC4/CyLFClk.c ****     void CySysTimerSetMatch(uint32 counterNum, uint32 match)
2564:Generated_Source\PSoC4/CyLFClk.c ****     {
2565:Generated_Source\PSoC4/CyLFClk.c ****         uint32 regValue;
2566:Generated_Source\PSoC4/CyLFClk.c **** 
2567:Generated_Source\PSoC4/CyLFClk.c ****         CYASSERT((counterNum == CY_SYS_TIMER0) ||
2568:Generated_Source\PSoC4/CyLFClk.c ****                  (counterNum == CY_SYS_TIMER1));
2569:Generated_Source\PSoC4/CyLFClk.c **** 
2570:Generated_Source\PSoC4/CyLFClk.c ****         /* Wait for previous changes to come into effect */
2571:Generated_Source\PSoC4/CyLFClk.c ****         CyDelayUs(CY_SYS_3TIMER_DELAY_US);
2572:Generated_Source\PSoC4/CyLFClk.c **** 
2573:Generated_Source\PSoC4/CyLFClk.c ****         regValue = CY_SYS_WCO_WDT_MATCH_REG;
2574:Generated_Source\PSoC4/CyLFClk.c ****         regValue &= (uint32)~((uint32)(CY_SYS_TIMER_LOWER_16BITS_MASK << (counterNum * CY_SYS_TIMER
2575:Generated_Source\PSoC4/CyLFClk.c ****         CY_SYS_WCO_WDT_MATCH_REG = (regValue | (match << (counterNum * CY_SYS_TIMER_CNT_MATCH_SHIFT
2576:Generated_Source\PSoC4/CyLFClk.c **** 
2577:Generated_Source\PSoC4/CyLFClk.c ****         /* Make sure match synchronization has started */
2578:Generated_Source\PSoC4/CyLFClk.c ****         CyDelayUs(CY_SYS_1TIMER_DELAY_US);
2579:Generated_Source\PSoC4/CyLFClk.c ****     }
2580:Generated_Source\PSoC4/CyLFClk.c **** 
2581:Generated_Source\PSoC4/CyLFClk.c **** 
2582:Generated_Source\PSoC4/CyLFClk.c ****     /*******************************************************************************
2583:Generated_Source\PSoC4/CyLFClk.c ****     * Function Name: CySysTimerSetToggleBit
2584:Generated_Source\PSoC4/CyLFClk.c ****     ****************************************************************************//**
2585:Generated_Source\PSoC4/CyLFClk.c ****     *
2586:Generated_Source\PSoC4/CyLFClk.c ****     * \brief Configures which bit in Timer counter 2 to monitor for a toggle.
2587:Generated_Source\PSoC4/CyLFClk.c ****     *
2588:Generated_Source\PSoC4/CyLFClk.c ****     * When that bit toggles, an interrupt is generated if mode for counter 2 has
2589:Generated_Source\PSoC4/CyLFClk.c ****     * enabled interrupts.
2590:Generated_Source\PSoC4/CyLFClk.c ****     *
2591:Generated_Source\PSoC4/CyLFClk.c ****     * \param bits Valid range [0-31]. Counter 2 bit to monitor for a toggle.
2592:Generated_Source\PSoC4/CyLFClk.c ****     *
2593:Generated_Source\PSoC4/CyLFClk.c ****     * \details Timer counter 2 should be disabled. Otherwise this function call has
2594:Generated_Source\PSoC4/CyLFClk.c ****     * no effect.
2595:Generated_Source\PSoC4/CyLFClk.c ****     *
ARM GAS  C:\Users\user\AppData\Local\Temp\ccsPNKJ0.s 			page 115


2596:Generated_Source\PSoC4/CyLFClk.c ****     * If the specified counter is enabled, call the CySysTimerDisable() function with
2597:Generated_Source\PSoC4/CyLFClk.c ****     * the corresponding parameter to disable the specified counter and wait for it to
2598:Generated_Source\PSoC4/CyLFClk.c ****     * stop. This may take up to three Timer source-cycles.
2599:Generated_Source\PSoC4/CyLFClk.c ****     *
2600:Generated_Source\PSoC4/CyLFClk.c ****     *******************************************************************************/
2601:Generated_Source\PSoC4/CyLFClk.c ****     void CySysTimerSetToggleBit(uint32 bits)
2602:Generated_Source\PSoC4/CyLFClk.c ****     {
2603:Generated_Source\PSoC4/CyLFClk.c ****         uint32 configRegValue;
2604:Generated_Source\PSoC4/CyLFClk.c **** 
2605:Generated_Source\PSoC4/CyLFClk.c ****         if (0u == CySysTimerGetEnabledStatus(CY_SYS_TIMER2))
2606:Generated_Source\PSoC4/CyLFClk.c ****         {
2607:Generated_Source\PSoC4/CyLFClk.c ****             configRegValue = CY_SYS_WCO_WDT_CONFIG_REG;
2608:Generated_Source\PSoC4/CyLFClk.c ****             configRegValue &= (uint32)(~((uint32)(CY_SYS_TIMER_CONFIG_BITS2_MASK << CY_SYS_TIMER_CO
2609:Generated_Source\PSoC4/CyLFClk.c ****             configRegValue |= ((bits & CY_SYS_TIMER_CONFIG_BITS2_MASK) << CY_SYS_TIMER_CONFIG_BITS2
2610:Generated_Source\PSoC4/CyLFClk.c ****             CY_SYS_WCO_WDT_CONFIG_REG = configRegValue;
2611:Generated_Source\PSoC4/CyLFClk.c ****         }
2612:Generated_Source\PSoC4/CyLFClk.c ****     }
2613:Generated_Source\PSoC4/CyLFClk.c **** 
2614:Generated_Source\PSoC4/CyLFClk.c **** 
2615:Generated_Source\PSoC4/CyLFClk.c ****     /*******************************************************************************
2616:Generated_Source\PSoC4/CyLFClk.c ****     * Function Name: CySysTimerGetToggleBit
2617:Generated_Source\PSoC4/CyLFClk.c ****     ****************************************************************************//**
2618:Generated_Source\PSoC4/CyLFClk.c ****     *
2619:Generated_Source\PSoC4/CyLFClk.c ****     * \brief Reads which bit in Timer counter 2 is monitored for a toggle.
2620:Generated_Source\PSoC4/CyLFClk.c ****     *
2621:Generated_Source\PSoC4/CyLFClk.c ****     * \return The bit that is monitored (range of 0 to 31)
2622:Generated_Source\PSoC4/CyLFClk.c ****     *
2623:Generated_Source\PSoC4/CyLFClk.c ****     *******************************************************************************/
2624:Generated_Source\PSoC4/CyLFClk.c ****     uint32 CySysTimerGetToggleBit(void)
2625:Generated_Source\PSoC4/CyLFClk.c ****     {
2626:Generated_Source\PSoC4/CyLFClk.c ****         return ((CY_SYS_WCO_WDT_CONFIG_REG >> CY_SYS_TIMER_CONFIG_BITS2_POS) & CY_SYS_TIMER_CONFIG_
2627:Generated_Source\PSoC4/CyLFClk.c ****     }
2628:Generated_Source\PSoC4/CyLFClk.c **** 
2629:Generated_Source\PSoC4/CyLFClk.c **** 
2630:Generated_Source\PSoC4/CyLFClk.c ****     /*******************************************************************************
2631:Generated_Source\PSoC4/CyLFClk.c ****     * Function Name: CySysTimerGetMatch
2632:Generated_Source\PSoC4/CyLFClk.c ****     ****************************************************************************//**
2633:Generated_Source\PSoC4/CyLFClk.c ****     *
2634:Generated_Source\PSoC4/CyLFClk.c ****     * \brief Reads the Timer counter match comparison value.
2635:Generated_Source\PSoC4/CyLFClk.c ****     *
2636:Generated_Source\PSoC4/CyLFClk.c ****     * \param counterNum Valid range [0-1]. The number of the DeepSleep Timer 
2637:Generated_Source\PSoC4/CyLFClk.c ****     * counter. The match values are not supported by counter 2.
2638:Generated_Source\PSoC4/CyLFClk.c ****     *
2639:Generated_Source\PSoC4/CyLFClk.c ****     * \return A 16-bit match value.
2640:Generated_Source\PSoC4/CyLFClk.c ****     *
2641:Generated_Source\PSoC4/CyLFClk.c ****     *******************************************************************************/
2642:Generated_Source\PSoC4/CyLFClk.c ****     uint32 CySysTimerGetMatch(uint32 counterNum)
2643:Generated_Source\PSoC4/CyLFClk.c ****     {
2644:Generated_Source\PSoC4/CyLFClk.c ****         CYASSERT((counterNum == CY_SYS_TIMER0) ||
2645:Generated_Source\PSoC4/CyLFClk.c ****                  (counterNum == CY_SYS_TIMER1));
2646:Generated_Source\PSoC4/CyLFClk.c **** 
2647:Generated_Source\PSoC4/CyLFClk.c ****         return ((uint32)(CY_SYS_WCO_WDT_MATCH_REG >> (counterNum * CY_SYS_TIMER_CNT_MATCH_SHIFT)) &
2648:Generated_Source\PSoC4/CyLFClk.c ****                                                                   CY_SYS_TIMER_LOWER_16BITS_MASK);
2649:Generated_Source\PSoC4/CyLFClk.c ****     }
2650:Generated_Source\PSoC4/CyLFClk.c **** 
2651:Generated_Source\PSoC4/CyLFClk.c **** 
2652:Generated_Source\PSoC4/CyLFClk.c ****     /*******************************************************************************
ARM GAS  C:\Users\user\AppData\Local\Temp\ccsPNKJ0.s 			page 116


2653:Generated_Source\PSoC4/CyLFClk.c ****     * Function Name: CySysTimerGetCount
2654:Generated_Source\PSoC4/CyLFClk.c ****     ****************************************************************************//**
2655:Generated_Source\PSoC4/CyLFClk.c ****     *
2656:Generated_Source\PSoC4/CyLFClk.c ****     * \brief Reads the current DeepSleep Timer counter value.
2657:Generated_Source\PSoC4/CyLFClk.c ****     *
2658:Generated_Source\PSoC4/CyLFClk.c ****     * \param counterNum Valid range [0-2]. The number of the Timer counter.
2659:Generated_Source\PSoC4/CyLFClk.c ****     *
2660:Generated_Source\PSoC4/CyLFClk.c ****     * \return A live counter value. Counter 0 and Counter 1 are 16 bit counters 
2661:Generated_Source\PSoC4/CyLFClk.c ****     * and counter 2 is a 32 bit counter.
2662:Generated_Source\PSoC4/CyLFClk.c ****     *
2663:Generated_Source\PSoC4/CyLFClk.c ****     *******************************************************************************/
2664:Generated_Source\PSoC4/CyLFClk.c ****     uint32 CySysTimerGetCount(uint32 counterNum)
2665:Generated_Source\PSoC4/CyLFClk.c ****     {
2666:Generated_Source\PSoC4/CyLFClk.c ****         uint32 regValue = 0u;
2667:Generated_Source\PSoC4/CyLFClk.c **** 
2668:Generated_Source\PSoC4/CyLFClk.c ****         switch(counterNum)
2669:Generated_Source\PSoC4/CyLFClk.c ****         {
2670:Generated_Source\PSoC4/CyLFClk.c ****             /* Timer Counter 0 */
2671:Generated_Source\PSoC4/CyLFClk.c ****             case 0u:
2672:Generated_Source\PSoC4/CyLFClk.c ****                 regValue = CY_SYS_WCO_WDT_CTRLOW_REG & CY_SYS_TIMER_LOWER_16BITS_MASK;
2673:Generated_Source\PSoC4/CyLFClk.c ****             break;
2674:Generated_Source\PSoC4/CyLFClk.c **** 
2675:Generated_Source\PSoC4/CyLFClk.c ****             /* Timer Counter 1 */
2676:Generated_Source\PSoC4/CyLFClk.c ****             case 1u:
2677:Generated_Source\PSoC4/CyLFClk.c ****                 regValue = (CY_SYS_WCO_WDT_CTRLOW_REG >> CY_SYS_TIMER_CNT_MATCH_SHIFT) & CY_SYS_TIM
2678:Generated_Source\PSoC4/CyLFClk.c ****             break;
2679:Generated_Source\PSoC4/CyLFClk.c **** 
2680:Generated_Source\PSoC4/CyLFClk.c ****             /* Timer Counter 2 */
2681:Generated_Source\PSoC4/CyLFClk.c ****             case 2u:
2682:Generated_Source\PSoC4/CyLFClk.c ****                 regValue = CY_SYS_WCO_WDT_CTRHIGH_REG;
2683:Generated_Source\PSoC4/CyLFClk.c ****             break;
2684:Generated_Source\PSoC4/CyLFClk.c **** 
2685:Generated_Source\PSoC4/CyLFClk.c ****             default:
2686:Generated_Source\PSoC4/CyLFClk.c ****                 CYASSERT(0u != 0u);
2687:Generated_Source\PSoC4/CyLFClk.c ****             break;
2688:Generated_Source\PSoC4/CyLFClk.c ****         }
2689:Generated_Source\PSoC4/CyLFClk.c **** 
2690:Generated_Source\PSoC4/CyLFClk.c ****         return (regValue);
2691:Generated_Source\PSoC4/CyLFClk.c ****     }
2692:Generated_Source\PSoC4/CyLFClk.c **** 
2693:Generated_Source\PSoC4/CyLFClk.c **** 
2694:Generated_Source\PSoC4/CyLFClk.c ****     /*******************************************************************************
2695:Generated_Source\PSoC4/CyLFClk.c ****     * Function Name: CySysTimerGetInterruptSource
2696:Generated_Source\PSoC4/CyLFClk.c ****     ****************************************************************************//**
2697:Generated_Source\PSoC4/CyLFClk.c ****     *
2698:Generated_Source\PSoC4/CyLFClk.c ****     * \brief
2699:Generated_Source\PSoC4/CyLFClk.c ****     * Reads a mask containing all the DeepSleep Timer counters interrupts that are 
2700:Generated_Source\PSoC4/CyLFClk.c ****     * currently set by the hardware, if a corresponding mode is selected.
2701:Generated_Source\PSoC4/CyLFClk.c ****     *
2702:Generated_Source\PSoC4/CyLFClk.c ****     * \return The mask of interrupts set
2703:Generated_Source\PSoC4/CyLFClk.c ****     * \return CY_SYS_TIMER0_INT - Set interrupt for Counter 0
2704:Generated_Source\PSoC4/CyLFClk.c ****     * \return CY_SYS_TIMER1_INT - Set interrupt for Counter 1
2705:Generated_Source\PSoC4/CyLFClk.c ****     * \return CY_SYS_TIMER2_INT - Set interrupt for Counter 2
2706:Generated_Source\PSoC4/CyLFClk.c ****     *
2707:Generated_Source\PSoC4/CyLFClk.c ****     *******************************************************************************/
2708:Generated_Source\PSoC4/CyLFClk.c ****     uint32 CySysTimerGetInterruptSource(void)
2709:Generated_Source\PSoC4/CyLFClk.c ****     {
ARM GAS  C:\Users\user\AppData\Local\Temp\ccsPNKJ0.s 			page 117


2710:Generated_Source\PSoC4/CyLFClk.c ****         return (CY_SYS_WCO_WDT_CONTROL_REG & (CY_SYS_TIMER0_INT | CY_SYS_TIMER1_INT | CY_SYS_TIMER2
2711:Generated_Source\PSoC4/CyLFClk.c ****     }
2712:Generated_Source\PSoC4/CyLFClk.c **** 
2713:Generated_Source\PSoC4/CyLFClk.c **** 
2714:Generated_Source\PSoC4/CyLFClk.c ****     /*******************************************************************************
2715:Generated_Source\PSoC4/CyLFClk.c ****     * Function Name: CySysTimerClearInterrupt
2716:Generated_Source\PSoC4/CyLFClk.c ****     ****************************************************************************//**
2717:Generated_Source\PSoC4/CyLFClk.c ****     *
2718:Generated_Source\PSoC4/CyLFClk.c ****     * \brief Clears all the DeepSleep Timer counter interrupts set in the mask.
2719:Generated_Source\PSoC4/CyLFClk.c ****     *
2720:Generated_Source\PSoC4/CyLFClk.c ****     * All the Timer interrupts are to be cleared by the firmware, otherwise
2721:Generated_Source\PSoC4/CyLFClk.c ****     * interrupts are generated continuously.
2722:Generated_Source\PSoC4/CyLFClk.c ****     *
2723:Generated_Source\PSoC4/CyLFClk.c ****     * \param counterMask
2724:Generated_Source\PSoC4/CyLFClk.c ****     *  CY_SYS_TIMER0_INT - Clear counter 0<br>
2725:Generated_Source\PSoC4/CyLFClk.c ****     * CY_SYS_TIMER1_INT - Clear counter 1<br>
2726:Generated_Source\PSoC4/CyLFClk.c ****     * CY_SYS_TIMER2_INT - Clear counter 2
2727:Generated_Source\PSoC4/CyLFClk.c ****     *
2728:Generated_Source\PSoC4/CyLFClk.c ****     *******************************************************************************/
2729:Generated_Source\PSoC4/CyLFClk.c ****     void CySysTimerClearInterrupt(uint32 counterMask)
2730:Generated_Source\PSoC4/CyLFClk.c ****     {
2731:Generated_Source\PSoC4/CyLFClk.c ****         uint8 interruptState;
2732:Generated_Source\PSoC4/CyLFClk.c ****         interruptState = CyEnterCriticalSection();
2733:Generated_Source\PSoC4/CyLFClk.c **** 
2734:Generated_Source\PSoC4/CyLFClk.c ****         /* Set new WCO_TIMER control register value */
2735:Generated_Source\PSoC4/CyLFClk.c ****         counterMask &= (CY_SYS_TIMER0_INT |
2736:Generated_Source\PSoC4/CyLFClk.c ****                         CY_SYS_TIMER1_INT |
2737:Generated_Source\PSoC4/CyLFClk.c ****                         CY_SYS_TIMER2_INT);
2738:Generated_Source\PSoC4/CyLFClk.c **** 
2739:Generated_Source\PSoC4/CyLFClk.c ****         CY_SYS_WCO_WDT_CONTROL_REG = counterMask | (CY_SYS_WCO_WDT_CONTROL_REG & ~(CY_SYS_TIMER0_IN
2740:Generated_Source\PSoC4/CyLFClk.c ****                                                                            CY_SYS_TIMER1_INT |
2741:Generated_Source\PSoC4/CyLFClk.c ****                                                                            CY_SYS_TIMER2_INT));
2742:Generated_Source\PSoC4/CyLFClk.c **** 
2743:Generated_Source\PSoC4/CyLFClk.c ****         /* Read the CY_SYS_WDT_CONTROL_REG to clear the interrupt request.
2744:Generated_Source\PSoC4/CyLFClk.c ****          * Cypress ID #207093, #206231
2745:Generated_Source\PSoC4/CyLFClk.c ****         */
2746:Generated_Source\PSoC4/CyLFClk.c ****         (void)CY_SYS_WCO_WDT_CONTROL_REG;
2747:Generated_Source\PSoC4/CyLFClk.c **** 
2748:Generated_Source\PSoC4/CyLFClk.c ****         CyExitCriticalSection(interruptState);
2749:Generated_Source\PSoC4/CyLFClk.c ****     }
2750:Generated_Source\PSoC4/CyLFClk.c **** 
2751:Generated_Source\PSoC4/CyLFClk.c **** 
2752:Generated_Source\PSoC4/CyLFClk.c ****     /*******************************************************************************
2753:Generated_Source\PSoC4/CyLFClk.c ****     * Function Name: CySysTimerSetInterruptCallback
2754:Generated_Source\PSoC4/CyLFClk.c ****     ****************************************************************************//**
2755:Generated_Source\PSoC4/CyLFClk.c ****     *
2756:Generated_Source\PSoC4/CyLFClk.c ****     * \brief
2757:Generated_Source\PSoC4/CyLFClk.c ****     * Sets the ISR callback function for the particular DeepSleep Timer counter.
2758:Generated_Source\PSoC4/CyLFClk.c ****     *
2759:Generated_Source\PSoC4/CyLFClk.c ****     * These functions are called on the Timer interrupt.
2760:Generated_Source\PSoC4/CyLFClk.c ****     *
2761:Generated_Source\PSoC4/CyLFClk.c ****     * \param counterNum The number of the Timer counter.
2762:Generated_Source\PSoC4/CyLFClk.c ****     * \param function The pointer to the callback function.
2763:Generated_Source\PSoC4/CyLFClk.c ****     *
2764:Generated_Source\PSoC4/CyLFClk.c ****     * \return  The pointer to the previous callback function. 
2765:Generated_Source\PSoC4/CyLFClk.c ****     * \return NULL is returned if the specified address is not set.
2766:Generated_Source\PSoC4/CyLFClk.c ****     *
ARM GAS  C:\Users\user\AppData\Local\Temp\ccsPNKJ0.s 			page 118


2767:Generated_Source\PSoC4/CyLFClk.c ****     *******************************************************************************/
2768:Generated_Source\PSoC4/CyLFClk.c ****     cyTimerCallback CySysTimerSetInterruptCallback(uint32 counterNum, cyTimerCallback function)
2769:Generated_Source\PSoC4/CyLFClk.c ****     {
2770:Generated_Source\PSoC4/CyLFClk.c ****         cyTimerCallback prevCallback = (void *)0;
2771:Generated_Source\PSoC4/CyLFClk.c **** 
2772:Generated_Source\PSoC4/CyLFClk.c ****         if(counterNum < CY_SYS_NUM_OF_TIMERS)
2773:Generated_Source\PSoC4/CyLFClk.c ****         {
2774:Generated_Source\PSoC4/CyLFClk.c ****             prevCallback = cySysTimerCallback[counterNum];
2775:Generated_Source\PSoC4/CyLFClk.c ****             cySysTimerCallback[counterNum] = function;
2776:Generated_Source\PSoC4/CyLFClk.c ****         }
2777:Generated_Source\PSoC4/CyLFClk.c ****         else
2778:Generated_Source\PSoC4/CyLFClk.c ****         {
2779:Generated_Source\PSoC4/CyLFClk.c ****             CYASSERT(0u != 0u);
2780:Generated_Source\PSoC4/CyLFClk.c ****         }
2781:Generated_Source\PSoC4/CyLFClk.c **** 
2782:Generated_Source\PSoC4/CyLFClk.c ****         return((cyTimerCallback)prevCallback);
2783:Generated_Source\PSoC4/CyLFClk.c ****     }
2784:Generated_Source\PSoC4/CyLFClk.c **** 
2785:Generated_Source\PSoC4/CyLFClk.c **** 
2786:Generated_Source\PSoC4/CyLFClk.c ****     /*******************************************************************************
2787:Generated_Source\PSoC4/CyLFClk.c ****     * Function Name: CySysTimerGetInterruptCallback
2788:Generated_Source\PSoC4/CyLFClk.c ****     ****************************************************************************//**
2789:Generated_Source\PSoC4/CyLFClk.c ****     *
2790:Generated_Source\PSoC4/CyLFClk.c ****     * \brief Gets the ISR callback function for the particular DeepSleep Timer 
2791:Generated_Source\PSoC4/CyLFClk.c ****     * counter.
2792:Generated_Source\PSoC4/CyLFClk.c ****     *
2793:Generated_Source\PSoC4/CyLFClk.c ****     * \param counterNum The number of the Timer counter.
2794:Generated_Source\PSoC4/CyLFClk.c ****     *
2795:Generated_Source\PSoC4/CyLFClk.c ****     * \return
2796:Generated_Source\PSoC4/CyLFClk.c ****     * The pointer to the callback function registered for a particular Timer by
2797:Generated_Source\PSoC4/CyLFClk.c ****     * a particular address that are passed through arguments.
2798:Generated_Source\PSoC4/CyLFClk.c ****     *
2799:Generated_Source\PSoC4/CyLFClk.c ****     *******************************************************************************/
2800:Generated_Source\PSoC4/CyLFClk.c ****     cyTimerCallback CySysTimerGetInterruptCallback(uint32 counterNum)
2801:Generated_Source\PSoC4/CyLFClk.c ****     {
2802:Generated_Source\PSoC4/CyLFClk.c ****         cyTimerCallback retCallback = (void *)0;
2803:Generated_Source\PSoC4/CyLFClk.c **** 
2804:Generated_Source\PSoC4/CyLFClk.c ****         if(counterNum < CY_SYS_NUM_OF_TIMERS)
2805:Generated_Source\PSoC4/CyLFClk.c ****         {
2806:Generated_Source\PSoC4/CyLFClk.c ****             retCallback = (cyTimerCallback)cySysTimerCallback[counterNum];
2807:Generated_Source\PSoC4/CyLFClk.c ****         }
2808:Generated_Source\PSoC4/CyLFClk.c ****         else
2809:Generated_Source\PSoC4/CyLFClk.c ****         {
2810:Generated_Source\PSoC4/CyLFClk.c ****             CYASSERT(0u != 0u);
2811:Generated_Source\PSoC4/CyLFClk.c ****         }
2812:Generated_Source\PSoC4/CyLFClk.c **** 
2813:Generated_Source\PSoC4/CyLFClk.c ****         return(retCallback);
2814:Generated_Source\PSoC4/CyLFClk.c ****     }
2815:Generated_Source\PSoC4/CyLFClk.c **** 
2816:Generated_Source\PSoC4/CyLFClk.c **** 
2817:Generated_Source\PSoC4/CyLFClk.c ****     /*******************************************************************************
2818:Generated_Source\PSoC4/CyLFClk.c ****     * Function Name: CySysTimerEnableIsr
2819:Generated_Source\PSoC4/CyLFClk.c ****     ****************************************************************************//**
2820:Generated_Source\PSoC4/CyLFClk.c ****     *
2821:Generated_Source\PSoC4/CyLFClk.c ****     * \brief Enables the ISR callback servicing for the particular Timer counter
2822:Generated_Source\PSoC4/CyLFClk.c ****     *
2823:Generated_Source\PSoC4/CyLFClk.c ****     * \param counterNum Valid range [0-2]. The number of the Timer counter.
ARM GAS  C:\Users\user\AppData\Local\Temp\ccsPNKJ0.s 			page 119


2824:Generated_Source\PSoC4/CyLFClk.c ****     *
2825:Generated_Source\PSoC4/CyLFClk.c ****     * Value corresponds to appropriate Timer counter. For example value 1 
2826:Generated_Source\PSoC4/CyLFClk.c ****     * corresponds to second Timer counter.
2827:Generated_Source\PSoC4/CyLFClk.c ****     *
2828:Generated_Source\PSoC4/CyLFClk.c ****     *******************************************************************************/
2829:Generated_Source\PSoC4/CyLFClk.c ****     void CySysTimerEnableIsr(uint32 counterNum)
2830:Generated_Source\PSoC4/CyLFClk.c ****     {
2831:Generated_Source\PSoC4/CyLFClk.c ****         if(counterNum <= CY_SYS_TIMER2)
2832:Generated_Source\PSoC4/CyLFClk.c ****         {
2833:Generated_Source\PSoC4/CyLFClk.c ****             disableTimerServicedIsr &= ~counterTimerIntMaskTbl[counterNum];
2834:Generated_Source\PSoC4/CyLFClk.c ****             timerIsrMask |= counterTimerIntMaskTbl[counterNum];
2835:Generated_Source\PSoC4/CyLFClk.c ****         }
2836:Generated_Source\PSoC4/CyLFClk.c ****         else
2837:Generated_Source\PSoC4/CyLFClk.c ****         {
2838:Generated_Source\PSoC4/CyLFClk.c ****             CYASSERT(0u != 0u);
2839:Generated_Source\PSoC4/CyLFClk.c ****         }
2840:Generated_Source\PSoC4/CyLFClk.c ****     }
2841:Generated_Source\PSoC4/CyLFClk.c **** 
2842:Generated_Source\PSoC4/CyLFClk.c **** 
2843:Generated_Source\PSoC4/CyLFClk.c ****     /*******************************************************************************
2844:Generated_Source\PSoC4/CyLFClk.c ****     * Function Name: CySysTimerDisableIsr
2845:Generated_Source\PSoC4/CyLFClk.c ****     ****************************************************************************//**
2846:Generated_Source\PSoC4/CyLFClk.c ****     *
2847:Generated_Source\PSoC4/CyLFClk.c ****     * \brief Disables the ISR callback servicing for the particular Timer counter
2848:Generated_Source\PSoC4/CyLFClk.c ****     *
2849:Generated_Source\PSoC4/CyLFClk.c ****     * \param counterNum Valid range [0-2]. The number of the Timer counter.
2850:Generated_Source\PSoC4/CyLFClk.c ****     *
2851:Generated_Source\PSoC4/CyLFClk.c ****     *******************************************************************************/
2852:Generated_Source\PSoC4/CyLFClk.c ****     void CySysTimerDisableIsr(uint32 counterNum)
2853:Generated_Source\PSoC4/CyLFClk.c ****     {
2854:Generated_Source\PSoC4/CyLFClk.c ****         if(counterNum <= CY_SYS_TIMER2)
2855:Generated_Source\PSoC4/CyLFClk.c ****         {
2856:Generated_Source\PSoC4/CyLFClk.c ****             timerIsrMask &= ~counterTimerIntMaskTbl[counterNum];
2857:Generated_Source\PSoC4/CyLFClk.c ****         }
2858:Generated_Source\PSoC4/CyLFClk.c ****         else
2859:Generated_Source\PSoC4/CyLFClk.c ****         {
2860:Generated_Source\PSoC4/CyLFClk.c ****             CYASSERT(0u != 0u);
2861:Generated_Source\PSoC4/CyLFClk.c ****         }
2862:Generated_Source\PSoC4/CyLFClk.c ****     }
2863:Generated_Source\PSoC4/CyLFClk.c **** 
2864:Generated_Source\PSoC4/CyLFClk.c **** 
2865:Generated_Source\PSoC4/CyLFClk.c ****     /*******************************************************************************
2866:Generated_Source\PSoC4/CyLFClk.c ****     * Function Name: CySysTimerIsr
2867:Generated_Source\PSoC4/CyLFClk.c ****     ****************************************************************************//**
2868:Generated_Source\PSoC4/CyLFClk.c ****     *
2869:Generated_Source\PSoC4/CyLFClk.c ****     * \brief This is the handler of the DeepSleep Timer interrupt in CPU NVIC.
2870:Generated_Source\PSoC4/CyLFClk.c ****     *
2871:Generated_Source\PSoC4/CyLFClk.c ****     * The handler checks which Timer triggered in the interrupt and calls the 
2872:Generated_Source\PSoC4/CyLFClk.c ****     * respective callback functions configured by the user by using 
2873:Generated_Source\PSoC4/CyLFClk.c ****     * CySysTimerSetIsrCallback() API.
2874:Generated_Source\PSoC4/CyLFClk.c ****     *
2875:Generated_Source\PSoC4/CyLFClk.c ****     * The order of the callback execution is incremental. Callback-0 is
2876:Generated_Source\PSoC4/CyLFClk.c ****     * run as the first one and callback-2 is called as the last one.
2877:Generated_Source\PSoC4/CyLFClk.c ****     *
2878:Generated_Source\PSoC4/CyLFClk.c ****     * \details This function clears the DeepSleep Timer interrupt every time when 
2879:Generated_Source\PSoC4/CyLFClk.c ****     * it is called.
2880:Generated_Source\PSoC4/CyLFClk.c ****     *
ARM GAS  C:\Users\user\AppData\Local\Temp\ccsPNKJ0.s 			page 120


2881:Generated_Source\PSoC4/CyLFClk.c ****     *******************************************************************************/
2882:Generated_Source\PSoC4/CyLFClk.c ****     void CySysTimerIsr(void)
2883:Generated_Source\PSoC4/CyLFClk.c ****     {
2884:Generated_Source\PSoC4/CyLFClk.c ****         if(0u != (CY_SYS_TIMER0_INT & CY_SYS_WCO_WDT_CONTROL_REG))
2885:Generated_Source\PSoC4/CyLFClk.c ****         {
2886:Generated_Source\PSoC4/CyLFClk.c ****             if(0u != (CY_SYS_TIMER0_INT & timerIsrMask))
2887:Generated_Source\PSoC4/CyLFClk.c ****             {
2888:Generated_Source\PSoC4/CyLFClk.c ****                 timerIsrMask &= ~(disableTimerServicedIsr & CY_SYS_TIMER0_INT);
2889:Generated_Source\PSoC4/CyLFClk.c ****                 disableTimerServicedIsr  &= ~CY_SYS_TIMER0_INT;
2890:Generated_Source\PSoC4/CyLFClk.c ****                 if(cySysTimerCallback[CY_SYS_TIMER0] != (void *) 0)
2891:Generated_Source\PSoC4/CyLFClk.c ****                 {
2892:Generated_Source\PSoC4/CyLFClk.c ****                     (void)(cySysTimerCallback[CY_SYS_TIMER0])();
2893:Generated_Source\PSoC4/CyLFClk.c ****                 }
2894:Generated_Source\PSoC4/CyLFClk.c ****             }
2895:Generated_Source\PSoC4/CyLFClk.c ****             CySysTimerClearInterrupt(CY_SYS_TIMER0_INT);
2896:Generated_Source\PSoC4/CyLFClk.c ****         }
2897:Generated_Source\PSoC4/CyLFClk.c **** 
2898:Generated_Source\PSoC4/CyLFClk.c ****         if(0u != (CY_SYS_TIMER1_INT & CY_SYS_WCO_WDT_CONTROL_REG))
2899:Generated_Source\PSoC4/CyLFClk.c ****         {
2900:Generated_Source\PSoC4/CyLFClk.c ****             if(0u != (CY_SYS_TIMER1_INT & timerIsrMask))
2901:Generated_Source\PSoC4/CyLFClk.c ****             {
2902:Generated_Source\PSoC4/CyLFClk.c ****                 timerIsrMask &= ~(disableTimerServicedIsr & CY_SYS_TIMER1_INT);
2903:Generated_Source\PSoC4/CyLFClk.c ****                 disableTimerServicedIsr  &= ~CY_SYS_TIMER1_INT;
2904:Generated_Source\PSoC4/CyLFClk.c ****                 if(cySysTimerCallback[CY_SYS_TIMER1] != (void *) 0)
2905:Generated_Source\PSoC4/CyLFClk.c ****                 {
2906:Generated_Source\PSoC4/CyLFClk.c ****                     (void)(cySysTimerCallback[CY_SYS_TIMER1])();
2907:Generated_Source\PSoC4/CyLFClk.c ****                 }
2908:Generated_Source\PSoC4/CyLFClk.c ****             }
2909:Generated_Source\PSoC4/CyLFClk.c ****             CySysTimerClearInterrupt(CY_SYS_TIMER1_INT);
2910:Generated_Source\PSoC4/CyLFClk.c ****         }
2911:Generated_Source\PSoC4/CyLFClk.c **** 
2912:Generated_Source\PSoC4/CyLFClk.c ****         if(0u != (CY_SYS_TIMER2_INT & CY_SYS_WCO_WDT_CONTROL_REG))
2913:Generated_Source\PSoC4/CyLFClk.c ****         {
2914:Generated_Source\PSoC4/CyLFClk.c ****             if(0u != (CY_SYS_TIMER2_INT & timerIsrMask))
2915:Generated_Source\PSoC4/CyLFClk.c ****             {
2916:Generated_Source\PSoC4/CyLFClk.c ****                 if(cySysTimerCallback[CY_SYS_TIMER2] != (void *) 0)
2917:Generated_Source\PSoC4/CyLFClk.c ****                 {
2918:Generated_Source\PSoC4/CyLFClk.c ****                     (void)(cySysTimerCallback[CY_SYS_TIMER2])();
2919:Generated_Source\PSoC4/CyLFClk.c ****                 }
2920:Generated_Source\PSoC4/CyLFClk.c ****             }
2921:Generated_Source\PSoC4/CyLFClk.c ****             CySysTimerClearInterrupt(CY_SYS_TIMER2_INT);
2922:Generated_Source\PSoC4/CyLFClk.c ****         }
2923:Generated_Source\PSoC4/CyLFClk.c ****     }
2924:Generated_Source\PSoC4/CyLFClk.c **** 
2925:Generated_Source\PSoC4/CyLFClk.c **** 
2926:Generated_Source\PSoC4/CyLFClk.c ****     /*******************************************************************************
2927:Generated_Source\PSoC4/CyLFClk.c ****     * Function Name: CySysTimerResetCounters
2928:Generated_Source\PSoC4/CyLFClk.c ****     ****************************************************************************//**
2929:Generated_Source\PSoC4/CyLFClk.c ****     *
2930:Generated_Source\PSoC4/CyLFClk.c ****     * \brief Resets all the Timer counters set in the mask.
2931:Generated_Source\PSoC4/CyLFClk.c ****     *
2932:Generated_Source\PSoC4/CyLFClk.c ****     * \param countersMask
2933:Generated_Source\PSoC4/CyLFClk.c ****     * CY_SYS_TIMER0_RESET - Reset the Counter 0<br>
2934:Generated_Source\PSoC4/CyLFClk.c ****     * CY_SYS_TIMER1_RESET - Reset the Counter 1<br>
2935:Generated_Source\PSoC4/CyLFClk.c ****     * CY_SYS_TIMER2_RESET - Reset the Counter 2
2936:Generated_Source\PSoC4/CyLFClk.c ****     *
2937:Generated_Source\PSoC4/CyLFClk.c ****     * \details
ARM GAS  C:\Users\user\AppData\Local\Temp\ccsPNKJ0.s 			page 121


2938:Generated_Source\PSoC4/CyLFClk.c ****     * This function waits while corresponding counters will be reset. This may
2939:Generated_Source\PSoC4/CyLFClk.c ****     * take up to 3 DeepSleep Timer source-cycles. DeepSleep Timer source must be 
2940:Generated_Source\PSoC4/CyLFClk.c ****     * enabled. Otherwise, the function will never exit.
2941:Generated_Source\PSoC4/CyLFClk.c ****     *
2942:Generated_Source\PSoC4/CyLFClk.c ****     *******************************************************************************/
2943:Generated_Source\PSoC4/CyLFClk.c ****     void CySysTimerResetCounters(uint32 countersMask)
2944:Generated_Source\PSoC4/CyLFClk.c ****     {
2945:Generated_Source\PSoC4/CyLFClk.c ****         /* Set new Timer reset value */
2946:Generated_Source\PSoC4/CyLFClk.c ****         CY_SYS_WCO_WDT_CONTROL_REG |= (countersMask & CY_SYS_TIMER_RESET);
2947:Generated_Source\PSoC4/CyLFClk.c **** 
2948:Generated_Source\PSoC4/CyLFClk.c ****         while (0uL != (CY_SYS_WCO_WDT_CONTROL_REG & CY_SYS_TIMER_RESET))
2949:Generated_Source\PSoC4/CyLFClk.c ****         {
2950:Generated_Source\PSoC4/CyLFClk.c ****             /* Wait for reset to come into effect */
2951:Generated_Source\PSoC4/CyLFClk.c ****         }
2952:Generated_Source\PSoC4/CyLFClk.c ****     }
2953:Generated_Source\PSoC4/CyLFClk.c **** #endif /* (CY_IP_SRSSLT && CY_IP_WCO && CY_IP_WCO_WDT_EN) */
2954:Generated_Source\PSoC4/CyLFClk.c **** 
2955:Generated_Source\PSoC4/CyLFClk.c **** 
2956:Generated_Source\PSoC4/CyLFClk.c **** #if(CY_IP_SRSSV2 || (CY_IP_WCO_WDT_EN && CY_IP_SRSSLT))
2957:Generated_Source\PSoC4/CyLFClk.c ****     /*******************************************************************************
2958:Generated_Source\PSoC4/CyLFClk.c ****     * Function Name: CySysTimerDelay
2959:Generated_Source\PSoC4/CyLFClk.c ****     ****************************************************************************//**
2960:Generated_Source\PSoC4/CyLFClk.c ****     *
2961:Generated_Source\PSoC4/CyLFClk.c ****     * \brief
2962:Generated_Source\PSoC4/CyLFClk.c ****     * The function implements the delay specified in the LFCLK clock ticks.
2963:Generated_Source\PSoC4/CyLFClk.c ****     *
2964:Generated_Source\PSoC4/CyLFClk.c ****     * This API is applicable for PSoC 4100 / PSoC 4200 / PSoC 4100 BLE / 
2965:Generated_Source\PSoC4/CyLFClk.c ****     * PSoC 4200 BLE / PRoC BLE / PSoC 4200L / PSoC 4100M / PSoC 4200M devices to 
2966:Generated_Source\PSoC4/CyLFClk.c ****     * use WDT. Also this API is available to use for PSoC4100S and / PSoC Analog 
2967:Generated_Source\PSoC4/CyLFClk.c ****     * Coprocessor devices to use DeepSleep Timers.
2968:Generated_Source\PSoC4/CyLFClk.c ****     *
2969:Generated_Source\PSoC4/CyLFClk.c ****     * For PSoC 4100 / PSoC 4200 / PSoC 4100 BLE / PSoC 4200 BLE / PRoC BLE / PSoC 
2970:Generated_Source\PSoC4/CyLFClk.c ****     * 4200L / PSoC 4100M / PSoC 4200M devices:
2971:Generated_Source\PSoC4/CyLFClk.c ****     * The specified WDT counter should be configured as described below and started.
2972:Generated_Source\PSoC4/CyLFClk.c ****     *
2973:Generated_Source\PSoC4/CyLFClk.c ****     * For PSoC 4100S / PSoC Analog Coprocessor devices:
2974:Generated_Source\PSoC4/CyLFClk.c ****     * The specified DeepSleep Timer counter should be configured as described below
2975:Generated_Source\PSoC4/CyLFClk.c ****     * and started.
2976:Generated_Source\PSoC4/CyLFClk.c ****     *
2977:Generated_Source\PSoC4/CyLFClk.c ****     * This function can operate in two modes: the "WAIT" and "INTERRUPT" modes. In
2978:Generated_Source\PSoC4/CyLFClk.c ****     * the "WAIT" mode, the function waits for the specified number of ticks. In the
2979:Generated_Source\PSoC4/CyLFClk.c ****     * "INTERRUPT" mode, the interrupt is generated after the specified number of
2980:Generated_Source\PSoC4/CyLFClk.c ****     * ticks.
2981:Generated_Source\PSoC4/CyLFClk.c ****     *
2982:Generated_Source\PSoC4/CyLFClk.c ****     * For the correct function operation, the "Clear On Match" option should be
2983:Generated_Source\PSoC4/CyLFClk.c ****     * disabled for the specified WDT or DeepSleep Timer counter. Use 
2984:Generated_Source\PSoC4/CyLFClk.c ****     * CySysWdtSetClearOnMatch() for WDT or CySysTimerSetClearOnMatch() for DeepSleep
2985:Generated_Source\PSoC4/CyLFClk.c ****     * Timer function with the "enable" parameter equal to zero for the used WDT 
2986:Generated_Source\PSoC4/CyLFClk.c ****     * counter or DeepSleep Timer counter.
2987:Generated_Source\PSoC4/CyLFClk.c ****     *
2988:Generated_Source\PSoC4/CyLFClk.c ****     * The corresponding WDT counter should be configured to match the selected
2989:Generated_Source\PSoC4/CyLFClk.c ****     * mode: "Free running Timer" for the "WAIT" mode, and
2990:Generated_Source\PSoC4/CyLFClk.c ****     * "Periodic Timer" / "Watchdog (w/Interrupt)" for the "INTERRUPT" mode.
2991:Generated_Source\PSoC4/CyLFClk.c ****     *
2992:Generated_Source\PSoC4/CyLFClk.c ****     * Or the corresponding DeepSleep Timer counter should be configured to match the
2993:Generated_Source\PSoC4/CyLFClk.c ****     * selected mode: "Free running Timer" for the "WAIT" mode, and
2994:Generated_Source\PSoC4/CyLFClk.c ****     * "Periodic Timer" for the "INTERRUPT" mode.
ARM GAS  C:\Users\user\AppData\Local\Temp\ccsPNKJ0.s 			page 122


2995:Generated_Source\PSoC4/CyLFClk.c ****     *
2996:Generated_Source\PSoC4/CyLFClk.c ****     * This can be configured in two ways:
2997:Generated_Source\PSoC4/CyLFClk.c ****     * - Through the DWR page. Open the "Clocks" tab, click the "Edit Clocks..."
2998:Generated_Source\PSoC4/CyLFClk.c ****     * button, in the "Configure System Clocks" window click on the
2999:Generated_Source\PSoC4/CyLFClk.c ****     * "Low Frequency Clocks" tab and choose the appropriate option for the used
3000:Generated_Source\PSoC4/CyLFClk.c ****     * WDT or DeepSleep Timer counter.
3001:Generated_Source\PSoC4/CyLFClk.c ****     *
3002:Generated_Source\PSoC4/CyLFClk.c ****     * - Through the CySysWdtSetMode() for WDT or CySysTimerSetMode() for DeepSleep
3003:Generated_Source\PSoC4/CyLFClk.c ****     * Timer function. Call it with the appropriate "mode" parameter for the 
3004:Generated_Source\PSoC4/CyLFClk.c ****     * used WDT or DeepSleep Timer counter.
3005:Generated_Source\PSoC4/CyLFClk.c ****     *
3006:Generated_Source\PSoC4/CyLFClk.c ****     * For the "INTERRUPT" mode, the recommended sequence is the following:
3007:Generated_Source\PSoC4/CyLFClk.c ****     * - Call the CySysWdtDisableCounterIsr() for WDT or 
3008:Generated_Source\PSoC4/CyLFClk.c ****     * CySysTimerDisableIsr() for DeepSleep Timer function to disable servicing
3009:Generated_Source\PSoC4/CyLFClk.c ****     * interrupts of the specified WDT or DeepSleep Timer counter.
3010:Generated_Source\PSoC4/CyLFClk.c ****     *
3011:Generated_Source\PSoC4/CyLFClk.c ****     * - Call the CySysWdtSetInterruptCallback() for WDT or 
3012:Generated_Source\PSoC4/CyLFClk.c ****     * CySysTimerSetIsrCallback() for DeepSleep Timer function to register 
3013:Generated_Source\PSoC4/CyLFClk.c ****     * the callback function for the corresponding WDT or DeepSleep Timer counter.
3014:Generated_Source\PSoC4/CyLFClk.c ****     *
3015:Generated_Source\PSoC4/CyLFClk.c ****     * - Call the CySysTimerDelay() function.
3016:Generated_Source\PSoC4/CyLFClk.c ****     *
3017:Generated_Source\PSoC4/CyLFClk.c ****     * \param counterNum Valid range [0-1]. The number of the counter 
3018:Generated_Source\PSoC4/CyLFClk.c ****     * (Timer0 or Timer1).
3019:Generated_Source\PSoC4/CyLFClk.c ****     * \param delayType
3020:Generated_Source\PSoC4/CyLFClk.c ****     * CY_SYS_TIMER_WAIT - "WAIT" mode. <br>
3021:Generated_Source\PSoC4/CyLFClk.c ****     * CY_SYS_TIMER_INTERRUPT - "INTERRUPT" mode.
3022:Generated_Source\PSoC4/CyLFClk.c ****     * \param delay The delay value in the LFCLK ticks 
3023:Generated_Source\PSoC4/CyLFClk.c ****     * (allowable range - 16-bit value).
3024:Generated_Source\PSoC4/CyLFClk.c ****     *
3025:Generated_Source\PSoC4/CyLFClk.c ****     * \details
3026:Generated_Source\PSoC4/CyLFClk.c ****     * In the "INTERRUPT" mode, this function enables ISR callback servicing
3027:Generated_Source\PSoC4/CyLFClk.c ****     * from the corresponding WDT or DeepSleep Timer counter. Servicing of this ISR 
3028:Generated_Source\PSoC4/CyLFClk.c ****     * callback will be disabled after the expiration of the delay time.
3029:Generated_Source\PSoC4/CyLFClk.c ****     *
3030:Generated_Source\PSoC4/CyLFClk.c ****     *******************************************************************************/
3031:Generated_Source\PSoC4/CyLFClk.c ****     void CySysTimerDelay(uint32 counterNum, cy_sys_timer_delaytype_enum delayType, uint32 delay)
3032:Generated_Source\PSoC4/CyLFClk.c ****     {
3033:Generated_Source\PSoC4/CyLFClk.c ****         uint32 regValue;
3034:Generated_Source\PSoC4/CyLFClk.c ****         uint32 matchValue;
3035:Generated_Source\PSoC4/CyLFClk.c **** 
3036:Generated_Source\PSoC4/CyLFClk.c ****         #if(CY_IP_SRSSV2)
3037:Generated_Source\PSoC4/CyLFClk.c ****             if((counterNum < CY_SYS_WDT_COUNTER2) && (0uL == CySysWdtGetClearOnMatch(counterNum)) &
3038:Generated_Source\PSoC4/CyLFClk.c ****                                                                 (delay <= CY_SYS_UINT16_MAX_VAL))
3039:Generated_Source\PSoC4/CyLFClk.c ****             {
3040:Generated_Source\PSoC4/CyLFClk.c ****                 regValue   = CySysWdtGetCount(counterNum);
3041:Generated_Source\PSoC4/CyLFClk.c ****                 matchValue = (regValue + delay) & (uint32)CY_SYS_UINT16_MAX_VAL;
3042:Generated_Source\PSoC4/CyLFClk.c **** 
3043:Generated_Source\PSoC4/CyLFClk.c ****                 CySysTimerDelayUntilMatch(counterNum, delayType, matchValue);
3044:Generated_Source\PSoC4/CyLFClk.c ****             }
3045:Generated_Source\PSoC4/CyLFClk.c ****             else
3046:Generated_Source\PSoC4/CyLFClk.c ****             {
3047:Generated_Source\PSoC4/CyLFClk.c ****                 CYASSERT(0u != 0u);
3048:Generated_Source\PSoC4/CyLFClk.c ****             }
3049:Generated_Source\PSoC4/CyLFClk.c ****         #endif /* (CY_IP_SRSSV2) */
3050:Generated_Source\PSoC4/CyLFClk.c **** 
3051:Generated_Source\PSoC4/CyLFClk.c ****         #if(CY_IP_WCO_WDT_EN && CY_IP_SRSSLT)
ARM GAS  C:\Users\user\AppData\Local\Temp\ccsPNKJ0.s 			page 123


3052:Generated_Source\PSoC4/CyLFClk.c ****             if((counterNum < CY_SYS_TIMER2) && (0uL == CySysTimerGetClearOnMatch(counterNum)) && 
3053:Generated_Source\PSoC4/CyLFClk.c ****                                                             (delay <= CY_SYS_UINT16_MAX_VAL))
3054:Generated_Source\PSoC4/CyLFClk.c ****             {
3055:Generated_Source\PSoC4/CyLFClk.c ****                 regValue   = CySysTimerGetCount(counterNum);
3056:Generated_Source\PSoC4/CyLFClk.c ****                 matchValue = (regValue + delay) & (uint32)CY_SYS_UINT16_MAX_VAL;
3057:Generated_Source\PSoC4/CyLFClk.c **** 
3058:Generated_Source\PSoC4/CyLFClk.c ****                 CySysTimerDelayUntilMatch(counterNum, delayType, matchValue);
3059:Generated_Source\PSoC4/CyLFClk.c ****             }
3060:Generated_Source\PSoC4/CyLFClk.c ****             else
3061:Generated_Source\PSoC4/CyLFClk.c ****             {
3062:Generated_Source\PSoC4/CyLFClk.c ****                 CYASSERT(0u != 0u);
3063:Generated_Source\PSoC4/CyLFClk.c ****             }
3064:Generated_Source\PSoC4/CyLFClk.c ****         #endif /* (CY_IP_WCO_WDT_EN) */
3065:Generated_Source\PSoC4/CyLFClk.c ****     }
3066:Generated_Source\PSoC4/CyLFClk.c **** 
3067:Generated_Source\PSoC4/CyLFClk.c **** 
3068:Generated_Source\PSoC4/CyLFClk.c ****     /*******************************************************************************
3069:Generated_Source\PSoC4/CyLFClk.c ****     * Function Name: CySysTimerDelayUntilMatch
3070:Generated_Source\PSoC4/CyLFClk.c ****     ****************************************************************************//**
3071:Generated_Source\PSoC4/CyLFClk.c ****     *
3072:Generated_Source\PSoC4/CyLFClk.c ****     * \brief
3073:Generated_Source\PSoC4/CyLFClk.c ****     * The function implements the delay specified as the number of WDT or DeepSleep
3074:Generated_Source\PSoC4/CyLFClk.c ****     * Timer clock source ticks between WDT or DeepSleep Timer current value and 
3075:Generated_Source\PSoC4/CyLFClk.c ****     * match" value.
3076:Generated_Source\PSoC4/CyLFClk.c ****     *
3077:Generated_Source\PSoC4/CyLFClk.c ****     * This API is applicable for PSoC 4100 / PSoC 4200 / PRoC BLE / PSoC 4100 BLE /
3078:Generated_Source\PSoC4/CyLFClk.c ****     * PSoC 4200 BLE / PSoC 4200L / PSoC 4100M / PSoC 4200M devices to use WDT.
3079:Generated_Source\PSoC4/CyLFClk.c ****     * Also this API is available to use for PSoC4100S / Analog Coprocessor devices
3080:Generated_Source\PSoC4/CyLFClk.c ****     * to use DeepSleep Timers.
3081:Generated_Source\PSoC4/CyLFClk.c ****     * 
3082:Generated_Source\PSoC4/CyLFClk.c ****     * For PSoC 4100 / PSoC 4200 / PSoC 4100 BLE / PSoC 4200 BLE / PRoC BLE / PSoC 
3083:Generated_Source\PSoC4/CyLFClk.c ****     * 4200L / PSoC 4100M / PSoC 4200M devices:
3084:Generated_Source\PSoC4/CyLFClk.c ****     * The function implements the delay specified as the number of LFCLK ticks
3085:Generated_Source\PSoC4/CyLFClk.c ****     * between the specified WDT counter's current value and the "match"
3086:Generated_Source\PSoC4/CyLFClk.c ****     * passed as the parameter to this function. The current WDT counter value can 
3087:Generated_Source\PSoC4/CyLFClk.c ****     * be obtained using the CySysWdtGetCount() function.
3088:Generated_Source\PSoC4/CyLFClk.c ****     *
3089:Generated_Source\PSoC4/CyLFClk.c ****     * For PSoC4100 S and Analog Coprocessor devices:
3090:Generated_Source\PSoC4/CyLFClk.c ****     * The function implements the delay specified as the number of DeepSleep Timer 
3091:Generated_Source\PSoC4/CyLFClk.c ****     * input clock ticks for Timer0/Timer1 counter's current value and the "match" 
3092:Generated_Source\PSoC4/CyLFClk.c ****     * passed as the parameter to this function. The current DeepSleep Timer counter
3093:Generated_Source\PSoC4/CyLFClk.c ****     * value can be obtained using the CySysWdtGetCount() function.
3094:Generated_Source\PSoC4/CyLFClk.c ****     *
3095:Generated_Source\PSoC4/CyLFClk.c ****     * For PSoC 4100 / PSoC 4200 / PSoC 4100 BLE / PSoC 4200 BLE / PRoC BLE / PSoC 
3096:Generated_Source\PSoC4/CyLFClk.c ****     * 4200L / PSoC 4100M / PSoC 4200M devices:
3097:Generated_Source\PSoC4/CyLFClk.c ****     * The specified WDT counter should be configured as described below and started.
3098:Generated_Source\PSoC4/CyLFClk.c ****     *
3099:Generated_Source\PSoC4/CyLFClk.c ****     * For PSoC PSoC 4100S / PSoC Analog Coprocessor devices:
3100:Generated_Source\PSoC4/CyLFClk.c ****     * The specified DeepSleep Timer counter should be configured as described below
3101:Generated_Source\PSoC4/CyLFClk.c ****     * and started.
3102:Generated_Source\PSoC4/CyLFClk.c ****     *
3103:Generated_Source\PSoC4/CyLFClk.c ****     * This function can operate in two modes: the "WAIT" and "INTERRUPT" modes. In
3104:Generated_Source\PSoC4/CyLFClk.c ****     * the "WAIT" mode, the function waits for the specified number of ticks. In the
3105:Generated_Source\PSoC4/CyLFClk.c ****     * "INTERRUPT" mode, the interrupt is generated after the specified number of
3106:Generated_Source\PSoC4/CyLFClk.c ****     * ticks.
3107:Generated_Source\PSoC4/CyLFClk.c ****     *
3108:Generated_Source\PSoC4/CyLFClk.c ****     * For the correct function operation, the "Clear On Match" option should be
ARM GAS  C:\Users\user\AppData\Local\Temp\ccsPNKJ0.s 			page 124


3109:Generated_Source\PSoC4/CyLFClk.c ****     * disabled for the specified WDT or DeepSleep Timer counter. Use 
3110:Generated_Source\PSoC4/CyLFClk.c ****     * CySysWdtSetClearOnMatch() for WDT or CySysTimerSetClearOnMatch() for DeepSleep
3111:Generated_Source\PSoC4/CyLFClk.c ****     * Timer function with the "enable" parameter equal to zero for the used WDT 
3112:Generated_Source\PSoC4/CyLFClk.c ****     * or DeepSleep Timer counter.
3113:Generated_Source\PSoC4/CyLFClk.c ****     *
3114:Generated_Source\PSoC4/CyLFClk.c ****     * For PSoC 4100 / PSoC 4200 / PSoC 4100 BLE / PSoC 4200 BLE / PRoC BLE / PSoC 
3115:Generated_Source\PSoC4/CyLFClk.c ****     * 4200L / PSoC 4100M/PSoC 4200M devices:
3116:Generated_Source\PSoC4/CyLFClk.c ****     * The corresponding WDT counter should be configured to match the selected
3117:Generated_Source\PSoC4/CyLFClk.c ****     * mode: "Free running Timer" for the "WAIT" mode, and
3118:Generated_Source\PSoC4/CyLFClk.c ****     * "Periodic Timer" / "Watchdog (w/Interrupt)" for the "INTERRUPT" mode.
3119:Generated_Source\PSoC4/CyLFClk.c ****     *
3120:Generated_Source\PSoC4/CyLFClk.c ****     * For PSoC 4100S / PSoC Analog Coprocessor devices:
3121:Generated_Source\PSoC4/CyLFClk.c ****     * Corresponding DeepSleep Timer counter should be configured to match the 
3122:Generated_Source\PSoC4/CyLFClk.c ****     * selected mode: "Free running Timer" for the "WAIT" mode, and
3123:Generated_Source\PSoC4/CyLFClk.c ****     * "Periodic Timer" for the "INTERRUPT" mode.
3124:Generated_Source\PSoC4/CyLFClk.c ****     *
3125:Generated_Source\PSoC4/CyLFClk.c ****     * This can be configured in two ways:
3126:Generated_Source\PSoC4/CyLFClk.c ****     * - Through the DWR page. Open the "Clocks" tab, click the "Edit Clocks..."
3127:Generated_Source\PSoC4/CyLFClk.c ****     * button, in the "Configure System Clocks" window click on the
3128:Generated_Source\PSoC4/CyLFClk.c ****     * "Low Frequency Clocks" tab and choose the appropriate option for the used
3129:Generated_Source\PSoC4/CyLFClk.c ****     * WDT or DeepSleep Timer counter.
3130:Generated_Source\PSoC4/CyLFClk.c ****     *
3131:Generated_Source\PSoC4/CyLFClk.c ****     * - Through the CySysWdtSetMode() for WDT or CySysTimerSetMode() for DeepSleep
3132:Generated_Source\PSoC4/CyLFClk.c ****     * Timer function. Call it with the appropriate "mode" parameter for the 
3133:Generated_Source\PSoC4/CyLFClk.c ****     * used WDT or DeepSleep Timer counter.
3134:Generated_Source\PSoC4/CyLFClk.c ****     *
3135:Generated_Source\PSoC4/CyLFClk.c ****     * For the "INTERRUPT" mode, the recommended sequence is the following:
3136:Generated_Source\PSoC4/CyLFClk.c ****     * - Call the CySysWdtDisableCounterIsr() for WDT or 
3137:Generated_Source\PSoC4/CyLFClk.c ****     * CySysTimerDisableIsr() for DeepSleep Timer function to disable servicing
3138:Generated_Source\PSoC4/CyLFClk.c ****     * interrupts of the specified WDT or DeepSleep Timer counter.
3139:Generated_Source\PSoC4/CyLFClk.c ****     *
3140:Generated_Source\PSoC4/CyLFClk.c ****     * - Call the CySysWdtSetInterruptCallback() for WDT or 
3141:Generated_Source\PSoC4/CyLFClk.c ****     * CySysTimerSetInterruptCallback() for DeepSleep Timer function to register 
3142:Generated_Source\PSoC4/CyLFClk.c ****     * the callback function for the corresponding WDT or DeepSleep Timer counter.
3143:Generated_Source\PSoC4/CyLFClk.c ****     *
3144:Generated_Source\PSoC4/CyLFClk.c ****     * - Call the CySysTimerDelay() function.
3145:Generated_Source\PSoC4/CyLFClk.c ****     *
3146:Generated_Source\PSoC4/CyLFClk.c ****     * \param counterNum Valid range [0-1]. The number of the WDT or DeepSleep 
3147:Generated_Source\PSoC4/CyLFClk.c ****     * Timer.
3148:Generated_Source\PSoC4/CyLFClk.c ****     * counter (Timer0 or Timer1).
3149:Generated_Source\PSoC4/CyLFClk.c ****     * \param delayType  CY_SYS_TIMER_WAIT - "WAIT" mode.<br>
3150:Generated_Source\PSoC4/CyLFClk.c ****     * CY_SYS_TIMER_INTERRUPT - "INTERRUPT" mode.
3151:Generated_Source\PSoC4/CyLFClk.c ****     * \param delay The delay value in the LFCLK ticks
3152:Generated_Source\PSoC4/CyLFClk.c ****     * (allowable range - 16-bit value).
3153:Generated_Source\PSoC4/CyLFClk.c ****     *
3154:Generated_Source\PSoC4/CyLFClk.c ****     * \details
3155:Generated_Source\PSoC4/CyLFClk.c ****     * In the "INTERRUPT" mode, this function enables ISR callback servicing
3156:Generated_Source\PSoC4/CyLFClk.c ****     * from the corresponding WDT counter. Servicing of this ISR callback will be
3157:Generated_Source\PSoC4/CyLFClk.c ****     * disabled after the expiration of the delay time.
3158:Generated_Source\PSoC4/CyLFClk.c ****     *
3159:Generated_Source\PSoC4/CyLFClk.c ****     *******************************************************************************/
3160:Generated_Source\PSoC4/CyLFClk.c ****     void CySysTimerDelayUntilMatch(uint32 counterNum, cy_sys_timer_delaytype_enum delayType, uint32
3161:Generated_Source\PSoC4/CyLFClk.c ****     {
 2834              		.loc 2 3161 0
 2835              		.cfi_startproc
 2836              		@ args = 0, pretend = 0, frame = 0
 2837              		@ frame_needed = 0, uses_anonymous_args = 0
ARM GAS  C:\Users\user\AppData\Local\Temp\ccsPNKJ0.s 			page 125


 2838              	.LVL227:
 2839 0000 70B5     		push	{r4, r5, r6, lr}
 2840              		.cfi_def_cfa_offset 16
 2841              		.cfi_offset 4, -16
 2842              		.cfi_offset 5, -12
 2843              		.cfi_offset 6, -8
 2844              		.cfi_offset 14, -4
 2845              		.loc 2 3161 0
 2846 0002 0400     		movs	r4, r0
 2847 0004 0E00     		movs	r6, r1
 2848 0006 1500     		movs	r5, r2
3162:Generated_Source\PSoC4/CyLFClk.c ****         uint32 tmpValue;
3163:Generated_Source\PSoC4/CyLFClk.c **** 
3164:Generated_Source\PSoC4/CyLFClk.c ****         #if(CY_IP_SRSSV2)
3165:Generated_Source\PSoC4/CyLFClk.c ****             if((counterNum < CY_SYS_WDT_COUNTER2) && (0uL == CySysWdtGetClearOnMatch(counterNum)) &
 2849              		.loc 2 3165 0
 2850 0008 0128     		cmp	r0, #1
 2851 000a 22D8     		bhi	.L316
 2852              		.loc 2 3165 0 is_stmt 0 discriminator 1
 2853 000c FFF7FEFF 		bl	CySysWdtGetClearOnMatch
 2854              	.LVL228:
 2855 0010 0028     		cmp	r0, #0
 2856 0012 1ED1     		bne	.L316
 2857              		.loc 2 3165 0 discriminator 2
 2858 0014 0F4B     		ldr	r3, .L326
 2859 0016 9D42     		cmp	r5, r3
 2860 0018 1BD8     		bhi	.L316
3166:Generated_Source\PSoC4/CyLFClk.c ****                                                                 (match <= CY_SYS_UINT16_MAX_VAL))
3167:Generated_Source\PSoC4/CyLFClk.c ****             {
3168:Generated_Source\PSoC4/CyLFClk.c ****                 if(delayType == CY_SYS_TIMER_WAIT)
 2861              		.loc 2 3168 0 is_stmt 1
 2862 001a 002E     		cmp	r6, #0
 2863 001c 0AD1     		bne	.L320
 2864              	.L321:
3169:Generated_Source\PSoC4/CyLFClk.c ****                 {
3170:Generated_Source\PSoC4/CyLFClk.c ****                     do
3171:Generated_Source\PSoC4/CyLFClk.c ****                     {
3172:Generated_Source\PSoC4/CyLFClk.c ****                         tmpValue = CySysWdtGetCount(counterNum);
 2865              		.loc 2 3172 0 discriminator 1
 2866 001e 2000     		movs	r0, r4
 2867 0020 FFF7FEFF 		bl	CySysWdtGetCount
 2868              	.LVL229:
3173:Generated_Source\PSoC4/CyLFClk.c ****                     }while(tmpValue > match);
 2869              		.loc 2 3173 0 discriminator 1
 2870 0024 8542     		cmp	r5, r0
 2871 0026 FAD3     		bcc	.L321
 2872              	.L323:
3174:Generated_Source\PSoC4/CyLFClk.c **** 
3175:Generated_Source\PSoC4/CyLFClk.c ****                     do
3176:Generated_Source\PSoC4/CyLFClk.c ****                     {
3177:Generated_Source\PSoC4/CyLFClk.c ****                         tmpValue = CySysWdtGetCount(counterNum);
 2873              		.loc 2 3177 0 discriminator 1
 2874 0028 2000     		movs	r0, r4
 2875              	.LVL230:
 2876 002a FFF7FEFF 		bl	CySysWdtGetCount
 2877              	.LVL231:
3178:Generated_Source\PSoC4/CyLFClk.c ****                     }while(tmpValue < match);
ARM GAS  C:\Users\user\AppData\Local\Temp\ccsPNKJ0.s 			page 126


 2878              		.loc 2 3178 0 discriminator 1
 2879 002e 8542     		cmp	r5, r0
 2880 0030 FAD8     		bhi	.L323
 2881 0032 0EE0     		b	.L316
 2882              	.LVL232:
 2883              	.L320:
 2884              	.LBB144:
 2885              	.LBB145:
3179:Generated_Source\PSoC4/CyLFClk.c ****                 }
3180:Generated_Source\PSoC4/CyLFClk.c ****                 else
3181:Generated_Source\PSoC4/CyLFClk.c ****                 {
3182:Generated_Source\PSoC4/CyLFClk.c ****                     tmpValue = counterIntMaskTbl[counterNum];
 2886              		.loc 2 3182 0
 2887 0034 084B     		ldr	r3, .L326+4
 2888 0036 A200     		lsls	r2, r4, #2
3183:Generated_Source\PSoC4/CyLFClk.c ****                     CySysWdtSetMatch(counterNum, match);
 2889              		.loc 2 3183 0
 2890 0038 2900     		movs	r1, r5
 2891 003a 2000     		movs	r0, r4
3182:Generated_Source\PSoC4/CyLFClk.c ****                     CySysWdtSetMatch(counterNum, match);
 2892              		.loc 2 3182 0
 2893 003c D658     		ldr	r6, [r2, r3]
 2894              	.LVL233:
 2895              		.loc 2 3183 0
 2896 003e FFF7FEFF 		bl	CySysWdtSetMatch
 2897              	.LVL234:
3184:Generated_Source\PSoC4/CyLFClk.c **** 
3185:Generated_Source\PSoC4/CyLFClk.c ****                     disableServicedIsr  |= tmpValue;
 2898              		.loc 2 3185 0
 2899 0042 064A     		ldr	r2, .L326+8
 2900 0044 536A     		ldr	r3, [r2, #36]
 2901 0046 3343     		orrs	r3, r6
 2902 0048 5362     		str	r3, [r2, #36]
3186:Generated_Source\PSoC4/CyLFClk.c ****                     wdtIsrMask |= tmpValue;
 2903              		.loc 2 3186 0
 2904 004a 054A     		ldr	r2, .L326+12
 2905 004c 5368     		ldr	r3, [r2, #4]
 2906 004e 3343     		orrs	r3, r6
 2907 0050 5360     		str	r3, [r2, #4]
 2908              	.LVL235:
 2909              	.L316:
 2910              	.LBE145:
 2911              	.LBE144:
3187:Generated_Source\PSoC4/CyLFClk.c ****                 }
3188:Generated_Source\PSoC4/CyLFClk.c ****             }
3189:Generated_Source\PSoC4/CyLFClk.c ****             else
3190:Generated_Source\PSoC4/CyLFClk.c ****             {
3191:Generated_Source\PSoC4/CyLFClk.c ****                 CYASSERT(0u != 0u);
3192:Generated_Source\PSoC4/CyLFClk.c ****             }
3193:Generated_Source\PSoC4/CyLFClk.c **** 
3194:Generated_Source\PSoC4/CyLFClk.c ****         #endif /* (CY_IP_SRSSV2) */  
3195:Generated_Source\PSoC4/CyLFClk.c **** 
3196:Generated_Source\PSoC4/CyLFClk.c ****         #if(CY_IP_WCO_WDT_EN && CY_IP_SRSSLT)
3197:Generated_Source\PSoC4/CyLFClk.c ****         if((counterNum < CY_SYS_TIMER2) && (0uL == CySysTimerGetClearOnMatch(counterNum)) &&
3198:Generated_Source\PSoC4/CyLFClk.c ****                                                         (match <= CY_SYS_UINT16_MAX_VAL))
3199:Generated_Source\PSoC4/CyLFClk.c ****         {
3200:Generated_Source\PSoC4/CyLFClk.c ****             if(delayType == CY_SYS_TIMER_WAIT)
ARM GAS  C:\Users\user\AppData\Local\Temp\ccsPNKJ0.s 			page 127


3201:Generated_Source\PSoC4/CyLFClk.c ****             {
3202:Generated_Source\PSoC4/CyLFClk.c ****                 do
3203:Generated_Source\PSoC4/CyLFClk.c ****                 {
3204:Generated_Source\PSoC4/CyLFClk.c ****                     tmpValue = CySysTimerGetCount(counterNum);
3205:Generated_Source\PSoC4/CyLFClk.c ****                 }while(tmpValue > match);
3206:Generated_Source\PSoC4/CyLFClk.c **** 
3207:Generated_Source\PSoC4/CyLFClk.c ****                 do
3208:Generated_Source\PSoC4/CyLFClk.c ****                 {
3209:Generated_Source\PSoC4/CyLFClk.c ****                     tmpValue = CySysTimerGetCount(counterNum);
3210:Generated_Source\PSoC4/CyLFClk.c ****                 }while(tmpValue < match);
3211:Generated_Source\PSoC4/CyLFClk.c ****             }
3212:Generated_Source\PSoC4/CyLFClk.c ****             else
3213:Generated_Source\PSoC4/CyLFClk.c ****             {
3214:Generated_Source\PSoC4/CyLFClk.c ****                 tmpValue = counterTimerIntMaskTbl[counterNum];
3215:Generated_Source\PSoC4/CyLFClk.c ****                 CySysTimerSetMatch(counterNum, match);
3216:Generated_Source\PSoC4/CyLFClk.c **** 
3217:Generated_Source\PSoC4/CyLFClk.c ****                 disableTimerServicedIsr  |= tmpValue;
3218:Generated_Source\PSoC4/CyLFClk.c ****                 timerIsrMask |= tmpValue;
3219:Generated_Source\PSoC4/CyLFClk.c ****             }
3220:Generated_Source\PSoC4/CyLFClk.c ****         }
3221:Generated_Source\PSoC4/CyLFClk.c ****         else
3222:Generated_Source\PSoC4/CyLFClk.c ****         {
3223:Generated_Source\PSoC4/CyLFClk.c ****             CYASSERT(0u != 0u);
3224:Generated_Source\PSoC4/CyLFClk.c ****         }
3225:Generated_Source\PSoC4/CyLFClk.c ****         #endif /* (CY_IP_WCO_WDT_EN && CY_IP_SRSSLT) */
3226:Generated_Source\PSoC4/CyLFClk.c ****     }
 2912              		.loc 2 3226 0
 2913              		@ sp needed
 2914              	.LVL236:
 2915              	.LVL237:
 2916 0052 70BD     		pop	{r4, r5, r6, pc}
 2917              	.L327:
 2918              		.align	2
 2919              	.L326:
 2920 0054 FFFF0000 		.word	65535
 2921 0058 00000000 		.word	.LANCHOR2
 2922 005c 00000000 		.word	.LANCHOR0
 2923 0060 00000000 		.word	.LANCHOR1
 2924              		.cfi_endproc
 2925              	.LFE47:
 2926              		.size	CySysTimerDelayUntilMatch, .-CySysTimerDelayUntilMatch
 2927              		.section	.text.CySysTimerDelay,"ax",%progbits
 2928              		.align	1
 2929              		.global	CySysTimerDelay
 2930              		.code	16
 2931              		.thumb_func
 2932              		.type	CySysTimerDelay, %function
 2933              	CySysTimerDelay:
 2934              	.LFB46:
3032:Generated_Source\PSoC4/CyLFClk.c ****         uint32 regValue;
 2935              		.loc 2 3032 0
 2936              		.cfi_startproc
 2937              		@ args = 0, pretend = 0, frame = 0
 2938              		@ frame_needed = 0, uses_anonymous_args = 0
 2939              	.LVL238:
 2940 0000 70B5     		push	{r4, r5, r6, lr}
 2941              		.cfi_def_cfa_offset 16
ARM GAS  C:\Users\user\AppData\Local\Temp\ccsPNKJ0.s 			page 128


 2942              		.cfi_offset 4, -16
 2943              		.cfi_offset 5, -12
 2944              		.cfi_offset 6, -8
 2945              		.cfi_offset 14, -4
3032:Generated_Source\PSoC4/CyLFClk.c ****         uint32 regValue;
 2946              		.loc 2 3032 0
 2947 0002 0400     		movs	r4, r0
 2948 0004 0D00     		movs	r5, r1
 2949 0006 1600     		movs	r6, r2
3037:Generated_Source\PSoC4/CyLFClk.c ****                                                                 (delay <= CY_SYS_UINT16_MAX_VAL))
 2950              		.loc 2 3037 0
 2951 0008 0128     		cmp	r0, #1
 2952 000a 0FD8     		bhi	.L328
3037:Generated_Source\PSoC4/CyLFClk.c ****                                                                 (delay <= CY_SYS_UINT16_MAX_VAL))
 2953              		.loc 2 3037 0 is_stmt 0 discriminator 1
 2954 000c FFF7FEFF 		bl	CySysWdtGetClearOnMatch
 2955              	.LVL239:
 2956 0010 0028     		cmp	r0, #0
 2957 0012 0BD1     		bne	.L328
3037:Generated_Source\PSoC4/CyLFClk.c ****                                                                 (delay <= CY_SYS_UINT16_MAX_VAL))
 2958              		.loc 2 3037 0 discriminator 2
 2959 0014 064B     		ldr	r3, .L332
 2960 0016 9E42     		cmp	r6, r3
 2961 0018 08D8     		bhi	.L328
3040:Generated_Source\PSoC4/CyLFClk.c ****                 matchValue = (regValue + delay) & (uint32)CY_SYS_UINT16_MAX_VAL;
 2962              		.loc 2 3040 0 is_stmt 1
 2963 001a 2000     		movs	r0, r4
 2964 001c FFF7FEFF 		bl	CySysWdtGetCount
 2965              	.LVL240:
3043:Generated_Source\PSoC4/CyLFClk.c ****             }
 2966              		.loc 2 3043 0
 2967 0020 3018     		adds	r0, r6, r0
 2968              	.LVL241:
 2969 0022 82B2     		uxth	r2, r0
 2970 0024 2900     		movs	r1, r5
 2971 0026 2000     		movs	r0, r4
 2972 0028 FFF7FEFF 		bl	CySysTimerDelayUntilMatch
 2973              	.LVL242:
 2974              	.L328:
3065:Generated_Source\PSoC4/CyLFClk.c **** 
 2975              		.loc 2 3065 0
 2976              		@ sp needed
 2977              	.LVL243:
 2978              	.LVL244:
 2979 002c 70BD     		pop	{r4, r5, r6, pc}
 2980              	.L333:
 2981 002e C046     		.align	2
 2982              	.L332:
 2983 0030 FFFF0000 		.word	65535
 2984              		.cfi_endproc
 2985              	.LFE46:
 2986              		.size	CySysTimerDelay, .-CySysTimerDelay
 2987              		.section	.rodata
 2988              		.align	2
 2989              		.set	.LANCHOR2,. + 0
 2990              		.type	counterIntMaskTbl, %object
 2991              		.size	counterIntMaskTbl, 12
ARM GAS  C:\Users\user\AppData\Local\Temp\ccsPNKJ0.s 			page 129


 2992              	counterIntMaskTbl:
 2993 0000 04000000 		.word	4
 2994 0004 00040000 		.word	1024
 2995 0008 00000400 		.word	262144
 2996              		.data
 2997              		.align	2
 2998              		.set	.LANCHOR1,. + 0
 2999              		.type	defaultIloTrimRegValue, %object
 3000              		.size	defaultIloTrimRegValue, 2
 3001              	defaultIloTrimRegValue:
 3002 0000 F000     		.short	240
 3003 0002 0000     		.space	2
 3004              		.type	wdtIsrMask, %object
 3005              		.size	wdtIsrMask, 4
 3006              	wdtIsrMask:
 3007 0004 04040400 		.word	263172
 3008              		.bss
 3009              		.align	2
 3010              		.set	.LANCHOR0,. + 0
 3011              		.type	iloTrimTrig.4876, %object
 3012              		.size	iloTrimTrig.4876, 1
 3013              	iloTrimTrig.4876:
 3014 0000 00       		.space	1
 3015 0001 000000   		.space	3
 3016              		.type	compensateRunningStatus.4886, %object
 3017              		.size	compensateRunningStatus.4886, 4
 3018              	compensateRunningStatus.4886:
 3019 0004 00000000 		.space	4
 3020              		.type	trimRunningStatus.4898, %object
 3021              		.size	trimRunningStatus.4898, 4
 3022              	trimRunningStatus.4898:
 3023 0008 00000000 		.space	4
 3024              		.type	lfclkPosedgeWdtCounter0Enabled, %object
 3025              		.size	lfclkPosedgeWdtCounter0Enabled, 4
 3026              	lfclkPosedgeWdtCounter0Enabled:
 3027 000c 00000000 		.space	4
 3028              		.type	lfclkPosedgeWdtCounter0Mode, %object
 3029              		.size	lfclkPosedgeWdtCounter0Mode, 4
 3030              	lfclkPosedgeWdtCounter0Mode:
 3031 0010 00000000 		.space	4
 3032              		.type	lfclkPosedgeEnabledWdtCounter.5072, %object
 3033              		.size	lfclkPosedgeEnabledWdtCounter.5072, 4
 3034              	lfclkPosedgeEnabledWdtCounter.5072:
 3035 0014 00000000 		.space	4
 3036              		.type	cySysWdtCallback, %object
 3037              		.size	cySysWdtCallback, 12
 3038              	cySysWdtCallback:
 3039 0018 00000000 		.space	12
 3039      00000000 
 3039      00000000 
 3040              		.type	disableServicedIsr, %object
 3041              		.size	disableServicedIsr, 4
 3042              	disableServicedIsr:
 3043 0024 00000000 		.space	4
 3044              		.text
 3045              	.Letext0:
 3046              		.file 3 "Generated_Source\\PSoC4\\cytypes.h"
ARM GAS  C:\Users\user\AppData\Local\Temp\ccsPNKJ0.s 			page 130


 3047              		.file 4 "Generated_Source\\PSoC4\\CyLib.h"
 3048              		.section	.debug_info,"",%progbits
 3049              	.Ldebug_info0:
 3050 0000 58110000 		.4byte	0x1158
 3051 0004 0400     		.2byte	0x4
 3052 0006 00000000 		.4byte	.Ldebug_abbrev0
 3053 000a 04       		.byte	0x4
 3054 000b 01       		.uleb128 0x1
 3055 000c 47050000 		.4byte	.LASF122
 3056 0010 0C       		.byte	0xc
 3057 0011 64070000 		.4byte	.LASF123
 3058 0015 0F080000 		.4byte	.LASF124
 3059 0019 90000000 		.4byte	.Ldebug_ranges0+0x90
 3060 001d 00000000 		.4byte	0
 3061 0021 00000000 		.4byte	.Ldebug_line0
 3062 0025 02       		.uleb128 0x2
 3063 0026 04       		.byte	0x4
 3064 0027 07       		.byte	0x7
 3065 0028 46030000 		.4byte	.LASF0
 3066 002c 02       		.uleb128 0x2
 3067 002d 01       		.byte	0x1
 3068 002e 06       		.byte	0x6
 3069 002f 96010000 		.4byte	.LASF1
 3070 0033 02       		.uleb128 0x2
 3071 0034 01       		.byte	0x1
 3072 0035 08       		.byte	0x8
 3073 0036 A5060000 		.4byte	.LASF2
 3074 003a 02       		.uleb128 0x2
 3075 003b 02       		.byte	0x2
 3076 003c 05       		.byte	0x5
 3077 003d 02070000 		.4byte	.LASF3
 3078 0041 02       		.uleb128 0x2
 3079 0042 02       		.byte	0x2
 3080 0043 07       		.byte	0x7
 3081 0044 F8030000 		.4byte	.LASF4
 3082 0048 02       		.uleb128 0x2
 3083 0049 04       		.byte	0x4
 3084 004a 05       		.byte	0x5
 3085 004b 08020000 		.4byte	.LASF5
 3086 004f 02       		.uleb128 0x2
 3087 0050 04       		.byte	0x4
 3088 0051 07       		.byte	0x7
 3089 0052 8E030000 		.4byte	.LASF6
 3090 0056 02       		.uleb128 0x2
 3091 0057 08       		.byte	0x8
 3092 0058 05       		.byte	0x5
 3093 0059 88010000 		.4byte	.LASF7
 3094 005d 02       		.uleb128 0x2
 3095 005e 08       		.byte	0x8
 3096 005f 07       		.byte	0x7
 3097 0060 05010000 		.4byte	.LASF8
 3098 0064 03       		.uleb128 0x3
 3099 0065 04       		.byte	0x4
 3100 0066 05       		.byte	0x5
 3101 0067 696E7400 		.ascii	"int\000"
 3102 006b 04       		.uleb128 0x4
 3103 006c 23020000 		.4byte	.LASF9
ARM GAS  C:\Users\user\AppData\Local\Temp\ccsPNKJ0.s 			page 131


 3104 0070 03       		.byte	0x3
 3105 0071 FC01     		.2byte	0x1fc
 3106 0073 33000000 		.4byte	0x33
 3107 0077 04       		.uleb128 0x4
 3108 0078 00000000 		.4byte	.LASF10
 3109 007c 03       		.byte	0x3
 3110 007d FD01     		.2byte	0x1fd
 3111 007f 41000000 		.4byte	0x41
 3112 0083 04       		.uleb128 0x4
 3113 0084 7B020000 		.4byte	.LASF11
 3114 0088 03       		.byte	0x3
 3115 0089 FE01     		.2byte	0x1fe
 3116 008b 4F000000 		.4byte	0x4f
 3117 008f 04       		.uleb128 0x4
 3118 0090 C6010000 		.4byte	.LASF12
 3119 0094 03       		.byte	0x3
 3120 0095 0102     		.2byte	0x201
 3121 0097 48000000 		.4byte	0x48
 3122 009b 02       		.uleb128 0x2
 3123 009c 04       		.byte	0x4
 3124 009d 04       		.byte	0x4
 3125 009e 66060000 		.4byte	.LASF13
 3126 00a2 02       		.uleb128 0x2
 3127 00a3 08       		.byte	0x8
 3128 00a4 04       		.byte	0x4
 3129 00a5 30020000 		.4byte	.LASF14
 3130 00a9 02       		.uleb128 0x2
 3131 00aa 01       		.byte	0x1
 3132 00ab 08       		.byte	0x8
 3133 00ac D8070000 		.4byte	.LASF15
 3134 00b0 04       		.uleb128 0x4
 3135 00b1 23090000 		.4byte	.LASF16
 3136 00b5 03       		.byte	0x3
 3137 00b6 9E02     		.2byte	0x29e
 3138 00b8 4F000000 		.4byte	0x4f
 3139 00bc 05       		.uleb128 0x5
 3140 00bd 77000000 		.4byte	0x77
 3141 00c1 04       		.uleb128 0x4
 3142 00c2 AE040000 		.4byte	.LASF17
 3143 00c6 03       		.byte	0x3
 3144 00c7 A802     		.2byte	0x2a8
 3145 00c9 CD000000 		.4byte	0xcd
 3146 00cd 05       		.uleb128 0x5
 3147 00ce 83000000 		.4byte	0x83
 3148 00d2 06       		.uleb128 0x6
 3149 00d3 04       		.byte	0x4
 3150 00d4 D8000000 		.4byte	0xd8
 3151 00d8 07       		.uleb128 0x7
 3152 00d9 08       		.uleb128 0x8
 3153 00da 01       		.byte	0x1
 3154 00db 33000000 		.4byte	0x33
 3155 00df 01       		.byte	0x1
 3156 00e0 1A       		.byte	0x1a
 3157 00e1 F2000000 		.4byte	0xf2
 3158 00e5 09       		.uleb128 0x9
 3159 00e6 F9050000 		.4byte	.LASF18
 3160 00ea 00       		.byte	0
ARM GAS  C:\Users\user\AppData\Local\Temp\ccsPNKJ0.s 			page 132


 3161 00eb 09       		.uleb128 0x9
 3162 00ec 63090000 		.4byte	.LASF19
 3163 00f0 01       		.byte	0x1
 3164 00f1 00       		.byte	0
 3165 00f2 0A       		.uleb128 0xa
 3166 00f3 E7010000 		.4byte	.LASF20
 3167 00f7 01       		.byte	0x1
 3168 00f8 1D       		.byte	0x1d
 3169 00f9 D9000000 		.4byte	0xd9
 3170 00fd 0A       		.uleb128 0xa
 3171 00fe B8010000 		.4byte	.LASF21
 3172 0102 01       		.byte	0x1
 3173 0103 58       		.byte	0x58
 3174 0104 D2000000 		.4byte	0xd2
 3175 0108 02       		.uleb128 0x2
 3176 0109 08       		.byte	0x8
 3177 010a 04       		.byte	0x4
 3178 010b 2A050000 		.4byte	.LASF22
 3179 010f 02       		.uleb128 0x2
 3180 0110 04       		.byte	0x4
 3181 0111 07       		.byte	0x7
 3182 0112 21050000 		.4byte	.LASF23
 3183 0116 0B       		.uleb128 0xb
 3184 0117 4D040000 		.4byte	.LASF33
 3185 011b 02       		.byte	0x2
 3186 011c 3B02     		.2byte	0x23b
 3187 011e B0000000 		.4byte	0xb0
 3188 0122 01       		.byte	0x1
 3189 0123 70010000 		.4byte	0x170
 3190 0127 0C       		.uleb128 0xc
 3191 0128 85070000 		.4byte	.LASF29
 3192 012c 02       		.byte	0x2
 3193 012d 3B02     		.2byte	0x23b
 3194 012f 70010000 		.4byte	0x170
 3195 0133 0D       		.uleb128 0xd
 3196 0134 6B000000 		.4byte	.LASF24
 3197 0138 02       		.byte	0x2
 3198 0139 3D02     		.2byte	0x23d
 3199 013b 83000000 		.4byte	0x83
 3200 013f 0D       		.uleb128 0xd
 3201 0140 34010000 		.4byte	.LASF25
 3202 0144 02       		.byte	0x2
 3203 0145 3E02     		.2byte	0x23e
 3204 0147 83000000 		.4byte	0x83
 3205 014b 0D       		.uleb128 0xd
 3206 014c D6010000 		.4byte	.LASF26
 3207 0150 02       		.byte	0x2
 3208 0151 3F02     		.2byte	0x23f
 3209 0153 8F000000 		.4byte	0x8f
 3210 0157 0D       		.uleb128 0xd
 3211 0158 EF030000 		.4byte	.LASF27
 3212 015c 02       		.byte	0x2
 3213 015d 4002     		.2byte	0x240
 3214 015f 8F000000 		.4byte	0x8f
 3215 0163 0D       		.uleb128 0xd
 3216 0164 5B010000 		.4byte	.LASF28
 3217 0168 02       		.byte	0x2
ARM GAS  C:\Users\user\AppData\Local\Temp\ccsPNKJ0.s 			page 133


 3218 0169 4102     		.2byte	0x241
 3219 016b B0000000 		.4byte	0xb0
 3220 016f 00       		.byte	0
 3221 0170 06       		.uleb128 0x6
 3222 0171 04       		.byte	0x4
 3223 0172 8F000000 		.4byte	0x8f
 3224 0176 0E       		.uleb128 0xe
 3225 0177 4C000000 		.4byte	.LASF35
 3226 017b 02       		.byte	0x2
 3227 017c 1704     		.2byte	0x417
 3228 017e 01       		.byte	0x1
 3229 017f A8010000 		.4byte	0x1a8
 3230 0183 0C       		.uleb128 0xc
 3231 0184 7B000000 		.4byte	.LASF30
 3232 0188 02       		.byte	0x2
 3233 0189 1704     		.2byte	0x417
 3234 018b 83000000 		.4byte	0x83
 3235 018f 0C       		.uleb128 0xc
 3236 0190 DD070000 		.4byte	.LASF31
 3237 0194 02       		.byte	0x2
 3238 0195 1704     		.2byte	0x417
 3239 0197 83000000 		.4byte	0x83
 3240 019b 0D       		.uleb128 0xd
 3241 019c DF080000 		.4byte	.LASF32
 3242 01a0 02       		.byte	0x2
 3243 01a1 1904     		.2byte	0x419
 3244 01a3 83000000 		.4byte	0x83
 3245 01a7 00       		.byte	0
 3246 01a8 0F       		.uleb128 0xf
 3247 01a9 BA030000 		.4byte	.LASF62
 3248 01ad 02       		.byte	0x2
 3249 01ae 6607     		.2byte	0x766
 3250 01b0 01       		.byte	0x1
 3251 01b1 0B       		.uleb128 0xb
 3252 01b2 0B040000 		.4byte	.LASF34
 3253 01b6 02       		.byte	0x2
 3254 01b7 F903     		.2byte	0x3f9
 3255 01b9 83000000 		.4byte	0x83
 3256 01bd 01       		.byte	0x1
 3257 01be CF010000 		.4byte	0x1cf
 3258 01c2 0C       		.uleb128 0xc
 3259 01c3 7B000000 		.4byte	.LASF30
 3260 01c7 02       		.byte	0x2
 3261 01c8 F903     		.2byte	0x3f9
 3262 01ca 83000000 		.4byte	0x83
 3263 01ce 00       		.byte	0
 3264 01cf 0E       		.uleb128 0xe
 3265 01d0 F6020000 		.4byte	.LASF36
 3266 01d4 02       		.byte	0x2
 3267 01d5 9A04     		.2byte	0x49a
 3268 01d7 01       		.byte	0x1
 3269 01d8 E9010000 		.4byte	0x1e9
 3270 01dc 0C       		.uleb128 0xc
 3271 01dd 22030000 		.4byte	.LASF37
 3272 01e1 02       		.byte	0x2
 3273 01e2 9A04     		.2byte	0x49a
 3274 01e4 83000000 		.4byte	0x83
ARM GAS  C:\Users\user\AppData\Local\Temp\ccsPNKJ0.s 			page 134


 3275 01e8 00       		.byte	0
 3276 01e9 0B       		.uleb128 0xb
 3277 01ea BA080000 		.4byte	.LASF38
 3278 01ee 02       		.byte	0x2
 3279 01ef 3304     		.2byte	0x433
 3280 01f1 83000000 		.4byte	0x83
 3281 01f5 01       		.byte	0x1
 3282 01f6 07020000 		.4byte	0x207
 3283 01fa 0C       		.uleb128 0xc
 3284 01fb 7B000000 		.4byte	.LASF30
 3285 01ff 02       		.byte	0x2
 3286 0200 3304     		.2byte	0x433
 3287 0202 83000000 		.4byte	0x83
 3288 0206 00       		.byte	0
 3289 0207 10       		.uleb128 0x10
 3290 0208 B3000000 		.4byte	.LASF125
 3291 020c 02       		.byte	0x2
 3292 020d AD02     		.2byte	0x2ad
 3293 020f 83000000 		.4byte	0x83
 3294 0213 01       		.byte	0x1
 3295 0214 25020000 		.4byte	0x225
 3296 0218 0D       		.uleb128 0xd
 3297 0219 1D000000 		.4byte	.LASF39
 3298 021d 02       		.byte	0x2
 3299 021e AF02     		.2byte	0x2af
 3300 0220 83000000 		.4byte	0x83
 3301 0224 00       		.byte	0
 3302 0225 0E       		.uleb128 0xe
 3303 0226 6C060000 		.4byte	.LASF40
 3304 022a 02       		.byte	0x2
 3305 022b 580C     		.2byte	0xc58
 3306 022d 01       		.byte	0x1
 3307 022e 63020000 		.4byte	0x263
 3308 0232 0C       		.uleb128 0xc
 3309 0233 7B000000 		.4byte	.LASF30
 3310 0237 02       		.byte	0x2
 3311 0238 580C     		.2byte	0xc58
 3312 023a 83000000 		.4byte	0x83
 3313 023e 0C       		.uleb128 0xc
 3314 023f 0C070000 		.4byte	.LASF41
 3315 0243 02       		.byte	0x2
 3316 0244 580C     		.2byte	0xc58
 3317 0246 F2000000 		.4byte	0xf2
 3318 024a 0C       		.uleb128 0xc
 3319 024b D5050000 		.4byte	.LASF42
 3320 024f 02       		.byte	0x2
 3321 0250 580C     		.2byte	0xc58
 3322 0252 83000000 		.4byte	0x83
 3323 0256 0D       		.uleb128 0xd
 3324 0257 06080000 		.4byte	.LASF43
 3325 025b 02       		.byte	0x2
 3326 025c 5A0C     		.2byte	0xc5a
 3327 025e 83000000 		.4byte	0x83
 3328 0262 00       		.byte	0
 3329 0263 11       		.uleb128 0x11
 3330 0264 6C010000 		.4byte	.LASF126
 3331 0268 01       		.byte	0x1
ARM GAS  C:\Users\user\AppData\Local\Temp\ccsPNKJ0.s 			page 135


 3332 0269 9202     		.2byte	0x292
 3333 026b 00000000 		.4byte	.LFB0
 3334 026f 34000000 		.4byte	.LFE0-.LFB0
 3335 0273 01       		.uleb128 0x1
 3336 0274 9C       		.byte	0x9c
 3337 0275 12       		.uleb128 0x12
 3338 0276 66040000 		.4byte	.LASF44
 3339 027a 02       		.byte	0x2
 3340 027b 53       		.byte	0x53
 3341 027c 00000000 		.4byte	.LFB2
 3342 0280 14000000 		.4byte	.LFE2-.LFB2
 3343 0284 01       		.uleb128 0x1
 3344 0285 9C       		.byte	0x9c
 3345 0286 13       		.uleb128 0x13
 3346 0287 CA000000 		.4byte	.LASF60
 3347 028b 02       		.byte	0x2
 3348 028c A8       		.byte	0xa8
 3349 028d 00000000 		.4byte	.LFB4
 3350 0291 58000000 		.4byte	.LFE4-.LFB4
 3351 0295 01       		.uleb128 0x1
 3352 0296 9C       		.byte	0x9c
 3353 0297 AD020000 		.4byte	0x2ad
 3354 029b 14       		.uleb128 0x14
 3355 029c 41040000 		.4byte	.LASF48
 3356 02a0 02       		.byte	0x2
 3357 02a1 AB       		.byte	0xab
 3358 02a2 6B000000 		.4byte	0x6b
 3359 02a6 05       		.uleb128 0x5
 3360 02a7 03       		.byte	0x3
 3361 02a8 00000000 		.4byte	iloTrimTrig.4876
 3362 02ac 00       		.byte	0
 3363 02ad 12       		.uleb128 0x12
 3364 02ae 82020000 		.4byte	.LASF45
 3365 02b2 02       		.byte	0x2
 3366 02b3 C9       		.byte	0xc9
 3367 02b4 00000000 		.4byte	.LFB5
 3368 02b8 14000000 		.4byte	.LFE5-.LFB5
 3369 02bc 01       		.uleb128 0x1
 3370 02bd 9C       		.byte	0x9c
 3371 02be 15       		.uleb128 0x15
 3372 02bf 4D090000 		.4byte	.LASF54
 3373 02c3 02       		.byte	0x2
 3374 02c4 0B01     		.2byte	0x10b
 3375 02c6 B0000000 		.4byte	0xb0
 3376 02ca 00000000 		.4byte	.LFB6
 3377 02ce E8000000 		.4byte	.LFE6-.LFB6
 3378 02d2 01       		.uleb128 0x1
 3379 02d3 9C       		.byte	0x9c
 3380 02d4 4B030000 		.4byte	0x34b
 3381 02d8 16       		.uleb128 0x16
 3382 02d9 81030000 		.4byte	.LASF46
 3383 02dd 02       		.byte	0x2
 3384 02de 0B01     		.2byte	0x10b
 3385 02e0 83000000 		.4byte	0x83
 3386 02e4 00000000 		.4byte	.LLST0
 3387 02e8 16       		.uleb128 0x16
 3388 02e9 37020000 		.4byte	.LASF47
ARM GAS  C:\Users\user\AppData\Local\Temp\ccsPNKJ0.s 			page 136


 3389 02ed 02       		.byte	0x2
 3390 02ee 0B01     		.2byte	0x10b
 3391 02f0 4B030000 		.4byte	0x34b
 3392 02f4 45000000 		.4byte	.LLST1
 3393 02f8 17       		.uleb128 0x17
 3394 02f9 59020000 		.4byte	.LASF49
 3395 02fd 02       		.byte	0x2
 3396 02fe 0D01     		.2byte	0x10d
 3397 0300 83000000 		.4byte	0x83
 3398 0304 71000000 		.4byte	.LLST2
 3399 0308 17       		.uleb128 0x17
 3400 0309 CA080000 		.4byte	.LASF50
 3401 030d 02       		.byte	0x2
 3402 030e 0E01     		.2byte	0x10e
 3403 0310 83000000 		.4byte	0x83
 3404 0314 9B000000 		.4byte	.LLST3
 3405 0318 18       		.uleb128 0x18
 3406 0319 B3060000 		.4byte	.LASF51
 3407 031d 02       		.byte	0x2
 3408 031e 0F01     		.2byte	0x10f
 3409 0320 83000000 		.4byte	0x83
 3410 0324 05       		.uleb128 0x5
 3411 0325 03       		.byte	0x3
 3412 0326 04000000 		.4byte	compensateRunningStatus.4886
 3413 032a 17       		.uleb128 0x17
 3414 032b 0B060000 		.4byte	.LASF52
 3415 032f 02       		.byte	0x2
 3416 0330 1001     		.2byte	0x110
 3417 0332 83000000 		.4byte	0x83
 3418 0336 F3000000 		.4byte	.LLST4
 3419 033a 17       		.uleb128 0x17
 3420 033b F3040000 		.4byte	.LASF53
 3421 033f 02       		.byte	0x2
 3422 0340 1101     		.2byte	0x111
 3423 0342 B0000000 		.4byte	0xb0
 3424 0346 17010000 		.4byte	.LLST5
 3425 034a 00       		.byte	0
 3426 034b 06       		.uleb128 0x6
 3427 034c 04       		.byte	0x4
 3428 034d 83000000 		.4byte	0x83
 3429 0351 19       		.uleb128 0x19
 3430 0352 16010000 		.4byte	0x116
 3431 0356 00000000 		.4byte	.LFB9
 3432 035a 90000000 		.4byte	.LFE9-.LFB9
 3433 035e 01       		.uleb128 0x1
 3434 035f 9C       		.byte	0x9c
 3435 0360 D3030000 		.4byte	0x3d3
 3436 0364 1A       		.uleb128 0x1a
 3437 0365 27010000 		.4byte	0x127
 3438 0369 36010000 		.4byte	.LLST6
 3439 036d 1B       		.uleb128 0x1b
 3440 036e 33010000 		.4byte	0x133
 3441 0372 1B       		.uleb128 0x1b
 3442 0373 3F010000 		.4byte	0x13f
 3443 0377 1B       		.uleb128 0x1b
 3444 0378 4B010000 		.4byte	0x14b
 3445 037c 1B       		.uleb128 0x1b
ARM GAS  C:\Users\user\AppData\Local\Temp\ccsPNKJ0.s 			page 137


 3446 037d 57010000 		.4byte	0x157
 3447 0381 1C       		.uleb128 0x1c
 3448 0382 63010000 		.4byte	0x163
 3449 0386 01       		.uleb128 0x1
 3450 0387 50       		.byte	0x50
 3451 0388 1D       		.uleb128 0x1d
 3452 0389 0E000000 		.4byte	.LBB44
 3453 038d 6C000000 		.4byte	.LBE44-.LBB44
 3454 0391 1A       		.uleb128 0x1a
 3455 0392 27010000 		.4byte	0x127
 3456 0396 62010000 		.4byte	.LLST7
 3457 039a 1D       		.uleb128 0x1d
 3458 039b 0E000000 		.4byte	.LBB45
 3459 039f 6C000000 		.4byte	.LBE45-.LBB45
 3460 03a3 1E       		.uleb128 0x1e
 3461 03a4 33010000 		.4byte	0x133
 3462 03a8 75010000 		.4byte	.LLST8
 3463 03ac 1E       		.uleb128 0x1e
 3464 03ad 3F010000 		.4byte	0x13f
 3465 03b1 98010000 		.4byte	.LLST9
 3466 03b5 1E       		.uleb128 0x1e
 3467 03b6 4B010000 		.4byte	0x14b
 3468 03ba BA010000 		.4byte	.LLST10
 3469 03be 1E       		.uleb128 0x1e
 3470 03bf 57010000 		.4byte	0x157
 3471 03c3 E3010000 		.4byte	.LLST11
 3472 03c7 1E       		.uleb128 0x1e
 3473 03c8 63010000 		.4byte	0x163
 3474 03cc 01020000 		.4byte	.LLST12
 3475 03d0 00       		.byte	0
 3476 03d1 00       		.byte	0
 3477 03d2 00       		.byte	0
 3478 03d3 1F       		.uleb128 0x1f
 3479 03d4 26070000 		.4byte	.LASF55
 3480 03d8 02       		.byte	0x2
 3481 03d9 C101     		.2byte	0x1c1
 3482 03db B0000000 		.4byte	0xb0
 3483 03df 00000000 		.4byte	.LFB8
 3484 03e3 BC000000 		.4byte	.LFE8-.LFB8
 3485 03e7 01       		.uleb128 0x1
 3486 03e8 9C       		.byte	0x9c
 3487 03e9 84040000 		.4byte	0x484
 3488 03ed 16       		.uleb128 0x16
 3489 03ee DD070000 		.4byte	.LASF31
 3490 03f2 02       		.byte	0x2
 3491 03f3 C101     		.2byte	0x1c1
 3492 03f5 83000000 		.4byte	0x83
 3493 03f9 21020000 		.4byte	.LLST13
 3494 03fd 16       		.uleb128 0x16
 3495 03fe 85070000 		.4byte	.LASF29
 3496 0402 02       		.byte	0x2
 3497 0403 C101     		.2byte	0x1c1
 3498 0405 70010000 		.4byte	0x170
 3499 0409 8D020000 		.4byte	.LLST14
 3500 040d 17       		.uleb128 0x17
 3501 040e 9A080000 		.4byte	.LASF56
 3502 0412 02       		.byte	0x2
ARM GAS  C:\Users\user\AppData\Local\Temp\ccsPNKJ0.s 			page 138


 3503 0413 C301     		.2byte	0x1c3
 3504 0415 83000000 		.4byte	0x83
 3505 0419 FB020000 		.4byte	.LLST15
 3506 041d 17       		.uleb128 0x17
 3507 041e 3B060000 		.4byte	.LASF57
 3508 0422 02       		.byte	0x2
 3509 0423 C401     		.2byte	0x1c4
 3510 0425 83000000 		.4byte	0x83
 3511 0429 3D030000 		.4byte	.LLST16
 3512 042d 18       		.uleb128 0x18
 3513 042e A8080000 		.4byte	.LASF58
 3514 0432 02       		.byte	0x2
 3515 0433 C501     		.2byte	0x1c5
 3516 0435 83000000 		.4byte	0x83
 3517 0439 05       		.uleb128 0x5
 3518 043a 03       		.byte	0x3
 3519 043b 08000000 		.4byte	trimRunningStatus.4898
 3520 043f 17       		.uleb128 0x17
 3521 0440 0B060000 		.4byte	.LASF52
 3522 0444 02       		.byte	0x2
 3523 0445 C601     		.2byte	0x1c6
 3524 0447 83000000 		.4byte	0x83
 3525 044b 74030000 		.4byte	.LLST17
 3526 044f 17       		.uleb128 0x17
 3527 0450 F3040000 		.4byte	.LASF53
 3528 0454 02       		.byte	0x2
 3529 0455 C701     		.2byte	0x1c7
 3530 0457 B0000000 		.4byte	0xb0
 3531 045b A3030000 		.4byte	.LLST18
 3532 045f 20       		.uleb128 0x20
 3533 0460 52000000 		.4byte	.LVL53
 3534 0464 16010000 		.4byte	0x116
 3535 0468 73040000 		.4byte	0x473
 3536 046c 21       		.uleb128 0x21
 3537 046d 01       		.uleb128 0x1
 3538 046e 50       		.byte	0x50
 3539 046f 02       		.uleb128 0x2
 3540 0470 77       		.byte	0x77
 3541 0471 00       		.sleb128 0
 3542 0472 00       		.byte	0
 3543 0473 22       		.uleb128 0x22
 3544 0474 82000000 		.4byte	.LVL58
 3545 0478 16010000 		.4byte	0x116
 3546 047c 21       		.uleb128 0x21
 3547 047d 01       		.uleb128 0x1
 3548 047e 50       		.byte	0x50
 3549 047f 02       		.uleb128 0x2
 3550 0480 77       		.byte	0x77
 3551 0481 00       		.sleb128 0
 3552 0482 00       		.byte	0
 3553 0483 00       		.byte	0
 3554 0484 1F       		.uleb128 0x1f
 3555 0485 DB050000 		.4byte	.LASF59
 3556 0489 02       		.byte	0x2
 3557 048a 8802     		.2byte	0x288
 3558 048c B0000000 		.4byte	0xb0
 3559 0490 00000000 		.4byte	.LFB10
ARM GAS  C:\Users\user\AppData\Local\Temp\ccsPNKJ0.s 			page 139


 3560 0494 2C000000 		.4byte	.LFE10-.LFB10
 3561 0498 01       		.uleb128 0x1
 3562 0499 9C       		.byte	0x9c
 3563 049a AF040000 		.4byte	0x4af
 3564 049e 17       		.uleb128 0x17
 3565 049f F3040000 		.4byte	.LASF53
 3566 04a3 02       		.byte	0x2
 3567 04a4 8A02     		.2byte	0x28a
 3568 04a6 B0000000 		.4byte	0xb0
 3569 04aa CE030000 		.4byte	.LLST19
 3570 04ae 00       		.byte	0
 3571 04af 23       		.uleb128 0x23
 3572 04b0 E2040000 		.4byte	.LASF61
 3573 04b4 02       		.byte	0x2
 3574 04b5 0303     		.2byte	0x303
 3575 04b7 00000000 		.4byte	.LFB13
 3576 04bb 18000000 		.4byte	.LFE13-.LFB13
 3577 04bf 01       		.uleb128 0x1
 3578 04c0 9C       		.byte	0x9c
 3579 04c1 CF040000 		.4byte	0x4cf
 3580 04c5 24       		.uleb128 0x24
 3581 04c6 06000000 		.4byte	.LVL67
 3582 04ca 63020000 		.4byte	0x263
 3583 04ce 00       		.byte	0
 3584 04cf 25       		.uleb128 0x25
 3585 04d0 48010000 		.4byte	.LASF78
 3586 04d4 02       		.byte	0x2
 3587 04d5 3803     		.2byte	0x338
 3588 04d7 83000000 		.4byte	0x83
 3589 04db 00000000 		.4byte	.LFB15
 3590 04df 0C000000 		.4byte	.LFE15-.LFB15
 3591 04e3 01       		.uleb128 0x1
 3592 04e4 9C       		.byte	0x9c
 3593 04e5 0F       		.uleb128 0xf
 3594 04e6 9D020000 		.4byte	.LASF63
 3595 04ea 01       		.byte	0x1
 3596 04eb AB02     		.2byte	0x2ab
 3597 04ed 03       		.byte	0x3
 3598 04ee 1F       		.uleb128 0x1f
 3599 04ef A6070000 		.4byte	.LASF64
 3600 04f3 02       		.byte	0x2
 3601 04f4 5303     		.2byte	0x353
 3602 04f6 83000000 		.4byte	0x83
 3603 04fa 00000000 		.4byte	.LFB16
 3604 04fe 4C000000 		.4byte	.LFE16-.LFB16
 3605 0502 01       		.uleb128 0x1
 3606 0503 9C       		.byte	0x9c
 3607 0504 42050000 		.4byte	0x542
 3608 0508 16       		.uleb128 0x16
 3609 0509 DD070000 		.4byte	.LASF31
 3610 050d 02       		.byte	0x2
 3611 050e 5303     		.2byte	0x353
 3612 0510 83000000 		.4byte	0x83
 3613 0514 ED030000 		.4byte	.LLST20
 3614 0518 17       		.uleb128 0x17
 3615 0519 8C040000 		.4byte	.LASF65
 3616 051d 02       		.byte	0x2
ARM GAS  C:\Users\user\AppData\Local\Temp\ccsPNKJ0.s 			page 140


 3617 051e 5503     		.2byte	0x355
 3618 0520 83000000 		.4byte	0x83
 3619 0524 27040000 		.4byte	.LLST21
 3620 0528 26       		.uleb128 0x26
 3621 0529 E5040000 		.4byte	0x4e5
 3622 052d 12000000 		.4byte	.LBB48
 3623 0531 28000000 		.4byte	.LBE48-.LBB48
 3624 0535 02       		.byte	0x2
 3625 0536 6103     		.2byte	0x361
 3626 0538 24       		.uleb128 0x24
 3627 0539 3E000000 		.4byte	.LVL72
 3628 053d 63020000 		.4byte	0x263
 3629 0541 00       		.byte	0
 3630 0542 23       		.uleb128 0x23
 3631 0543 07050000 		.4byte	.LASF66
 3632 0547 02       		.byte	0x2
 3633 0548 9603     		.2byte	0x396
 3634 054a 00000000 		.4byte	.LFB17
 3635 054e 24000000 		.4byte	.LFE17-.LFB17
 3636 0552 01       		.uleb128 0x1
 3637 0553 9C       		.byte	0x9c
 3638 0554 72050000 		.4byte	0x572
 3639 0558 16       		.uleb128 0x16
 3640 0559 1A020000 		.4byte	.LASF67
 3641 055d 02       		.byte	0x2
 3642 055e 9603     		.2byte	0x396
 3643 0560 83000000 		.4byte	0x83
 3644 0564 45040000 		.4byte	.LLST22
 3645 0568 24       		.uleb128 0x24
 3646 0569 08000000 		.4byte	.LVL75
 3647 056d CF040000 		.4byte	0x4cf
 3648 0571 00       		.byte	0
 3649 0572 23       		.uleb128 0x23
 3650 0573 AB010000 		.4byte	.LASF68
 3651 0577 02       		.byte	0x2
 3652 0578 B403     		.2byte	0x3b4
 3653 057a 00000000 		.4byte	.LFB18
 3654 057e 1C000000 		.4byte	.LFE18-.LFB18
 3655 0582 01       		.uleb128 0x1
 3656 0583 9C       		.byte	0x9c
 3657 0584 AB050000 		.4byte	0x5ab
 3658 0588 17       		.uleb128 0x17
 3659 0589 A0030000 		.4byte	.LASF69
 3660 058d 02       		.byte	0x2
 3661 058e B603     		.2byte	0x3b6
 3662 0590 6B000000 		.4byte	0x6b
 3663 0594 71040000 		.4byte	.LLST23
 3664 0598 24       		.uleb128 0x24
 3665 0599 06000000 		.4byte	.LVL77
 3666 059d 3A110000 		.4byte	0x113a
 3667 05a1 24       		.uleb128 0x24
 3668 05a2 16000000 		.4byte	.LVL78
 3669 05a6 45110000 		.4byte	0x1145
 3670 05aa 00       		.byte	0
 3671 05ab 23       		.uleb128 0x23
 3672 05ac 5C000000 		.4byte	.LASF70
 3673 05b0 02       		.byte	0x2
ARM GAS  C:\Users\user\AppData\Local\Temp\ccsPNKJ0.s 			page 141


 3674 05b1 D703     		.2byte	0x3d7
 3675 05b3 00000000 		.4byte	.LFB20
 3676 05b7 30000000 		.4byte	.LFE20-.LFB20
 3677 05bb 01       		.uleb128 0x1
 3678 05bc 9C       		.byte	0x9c
 3679 05bd E4050000 		.4byte	0x5e4
 3680 05c1 17       		.uleb128 0x17
 3681 05c2 A0030000 		.4byte	.LASF69
 3682 05c6 02       		.byte	0x2
 3683 05c7 D903     		.2byte	0x3d9
 3684 05c9 6B000000 		.4byte	0x6b
 3685 05cd 84040000 		.4byte	.LLST24
 3686 05d1 24       		.uleb128 0x24
 3687 05d2 08000000 		.4byte	.LVL79
 3688 05d6 3A110000 		.4byte	0x113a
 3689 05da 24       		.uleb128 0x24
 3690 05db 26000000 		.4byte	.LVL80
 3691 05df 45110000 		.4byte	0x1145
 3692 05e3 00       		.byte	0
 3693 05e4 27       		.uleb128 0x27
 3694 05e5 B1010000 		.4byte	0x1b1
 3695 05e9 00000000 		.4byte	.LFB21
 3696 05ed 18000000 		.4byte	.LFE21-.LFB21
 3697 05f1 01       		.uleb128 0x1
 3698 05f2 9C       		.byte	0x9c
 3699 05f3 01060000 		.4byte	0x601
 3700 05f7 1A       		.uleb128 0x1a
 3701 05f8 C2010000 		.4byte	0x1c2
 3702 05fc 97040000 		.4byte	.LLST25
 3703 0600 00       		.byte	0
 3704 0601 27       		.uleb128 0x27
 3705 0602 76010000 		.4byte	0x176
 3706 0606 00000000 		.4byte	.LFB22
 3707 060a 2C000000 		.4byte	.LFE22-.LFB22
 3708 060e 01       		.uleb128 0x1
 3709 060f 9C       		.byte	0x9c
 3710 0610 6F060000 		.4byte	0x66f
 3711 0614 1A       		.uleb128 0x1a
 3712 0615 83010000 		.4byte	0x183
 3713 0619 B8040000 		.4byte	.LLST26
 3714 061d 1A       		.uleb128 0x1a
 3715 061e 8F010000 		.4byte	0x18f
 3716 0622 E4040000 		.4byte	.LLST27
 3717 0626 1B       		.uleb128 0x1b
 3718 0627 9B010000 		.4byte	0x19b
 3719 062b 28       		.uleb128 0x28
 3720 062c 0E000000 		.4byte	.LBB52
 3721 0630 16000000 		.4byte	.LBE52-.LBB52
 3722 0634 5E060000 		.4byte	0x65e
 3723 0638 1A       		.uleb128 0x1a
 3724 0639 8F010000 		.4byte	0x18f
 3725 063d 10050000 		.4byte	.LLST28
 3726 0641 1A       		.uleb128 0x1a
 3727 0642 83010000 		.4byte	0x183
 3728 0646 23050000 		.4byte	.LLST29
 3729 064a 1D       		.uleb128 0x1d
 3730 064b 0E000000 		.4byte	.LBB53
ARM GAS  C:\Users\user\AppData\Local\Temp\ccsPNKJ0.s 			page 142


 3731 064f 16000000 		.4byte	.LBE53-.LBB53
 3732 0653 1E       		.uleb128 0x1e
 3733 0654 9B010000 		.4byte	0x19b
 3734 0658 44050000 		.4byte	.LLST30
 3735 065c 00       		.byte	0
 3736 065d 00       		.byte	0
 3737 065e 22       		.uleb128 0x22
 3738 065f 0A000000 		.4byte	.LVL84
 3739 0663 B1010000 		.4byte	0x1b1
 3740 0667 21       		.uleb128 0x21
 3741 0668 01       		.uleb128 0x1
 3742 0669 50       		.byte	0x50
 3743 066a 02       		.uleb128 0x2
 3744 066b 75       		.byte	0x75
 3745 066c 00       		.sleb128 0
 3746 066d 00       		.byte	0
 3747 066e 00       		.byte	0
 3748 066f 27       		.uleb128 0x27
 3749 0670 A8010000 		.4byte	0x1a8
 3750 0674 00000000 		.4byte	.LFB45
 3751 0678 2C000000 		.4byte	.LFE45-.LFB45
 3752 067c 01       		.uleb128 0x1
 3753 067d 9C       		.byte	0x9c
 3754 067e 92060000 		.4byte	0x692
 3755 0682 22       		.uleb128 0x22
 3756 0683 1C000000 		.4byte	.LVL91
 3757 0687 76010000 		.4byte	0x176
 3758 068b 21       		.uleb128 0x21
 3759 068c 01       		.uleb128 0x1
 3760 068d 50       		.byte	0x50
 3761 068e 01       		.uleb128 0x1
 3762 068f 30       		.byte	0x30
 3763 0690 00       		.byte	0
 3764 0691 00       		.byte	0
 3765 0692 27       		.uleb128 0x27
 3766 0693 E9010000 		.4byte	0x1e9
 3767 0697 00000000 		.4byte	.LFB23
 3768 069b 14000000 		.4byte	.LFE23-.LFB23
 3769 069f 01       		.uleb128 0x1
 3770 06a0 9C       		.byte	0x9c
 3771 06a1 AF060000 		.4byte	0x6af
 3772 06a5 1A       		.uleb128 0x1a
 3773 06a6 FA010000 		.4byte	0x1fa
 3774 06aa 62050000 		.4byte	.LLST31
 3775 06ae 00       		.byte	0
 3776 06af 23       		.uleb128 0x23
 3777 06b0 1C010000 		.4byte	.LASF71
 3778 06b4 02       		.byte	0x2
 3779 06b5 5004     		.2byte	0x450
 3780 06b7 00000000 		.4byte	.LFB24
 3781 06bb 2C000000 		.4byte	.LFE24-.LFB24
 3782 06bf 01       		.uleb128 0x1
 3783 06c0 9C       		.byte	0x9c
 3784 06c1 06070000 		.4byte	0x706
 3785 06c5 16       		.uleb128 0x16
 3786 06c6 7B000000 		.4byte	.LASF30
 3787 06ca 02       		.byte	0x2
ARM GAS  C:\Users\user\AppData\Local\Temp\ccsPNKJ0.s 			page 143


 3788 06cb 5004     		.2byte	0x450
 3789 06cd 83000000 		.4byte	0x83
 3790 06d1 83050000 		.4byte	.LLST32
 3791 06d5 16       		.uleb128 0x16
 3792 06d6 29020000 		.4byte	.LASF72
 3793 06da 02       		.byte	0x2
 3794 06db 5004     		.2byte	0x450
 3795 06dd 83000000 		.4byte	0x83
 3796 06e1 AF050000 		.4byte	.LLST33
 3797 06e5 17       		.uleb128 0x17
 3798 06e6 DF080000 		.4byte	.LASF32
 3799 06ea 02       		.byte	0x2
 3800 06eb 5204     		.2byte	0x452
 3801 06ed 83000000 		.4byte	0x83
 3802 06f1 DB050000 		.4byte	.LLST34
 3803 06f5 22       		.uleb128 0x22
 3804 06f6 0A000000 		.4byte	.LVL95
 3805 06fa B1010000 		.4byte	0x1b1
 3806 06fe 21       		.uleb128 0x21
 3807 06ff 01       		.uleb128 0x1
 3808 0700 50       		.byte	0x50
 3809 0701 02       		.uleb128 0x2
 3810 0702 74       		.byte	0x74
 3811 0703 00       		.sleb128 0
 3812 0704 00       		.byte	0
 3813 0705 00       		.byte	0
 3814 0706 1F       		.uleb128 0x1f
 3815 0707 2E030000 		.4byte	.LASF73
 3816 070b 02       		.byte	0x2
 3817 070c 7104     		.2byte	0x471
 3818 070e 83000000 		.4byte	0x83
 3819 0712 00000000 		.4byte	.LFB25
 3820 0716 18000000 		.4byte	.LFE25-.LFB25
 3821 071a 01       		.uleb128 0x1
 3822 071b 9C       		.byte	0x9c
 3823 071c 31070000 		.4byte	0x731
 3824 0720 16       		.uleb128 0x16
 3825 0721 7B000000 		.4byte	.LASF30
 3826 0725 02       		.byte	0x2
 3827 0726 7104     		.2byte	0x471
 3828 0728 83000000 		.4byte	0x83
 3829 072c 04060000 		.4byte	.LLST35
 3830 0730 00       		.byte	0
 3831 0731 27       		.uleb128 0x27
 3832 0732 CF010000 		.4byte	0x1cf
 3833 0736 00000000 		.4byte	.LFB26
 3834 073a 38000000 		.4byte	.LFE26-.LFB26
 3835 073e 01       		.uleb128 0x1
 3836 073f 9C       		.byte	0x9c
 3837 0740 B1070000 		.4byte	0x7b1
 3838 0744 29       		.uleb128 0x29
 3839 0745 DC010000 		.4byte	0x1dc
 3840 0749 01       		.uleb128 0x1
 3841 074a 50       		.byte	0x50
 3842 074b 2A       		.uleb128 0x2a
 3843 074c B1010000 		.4byte	0x1b1
 3844 0750 0E000000 		.4byte	.LBB70
ARM GAS  C:\Users\user\AppData\Local\Temp\ccsPNKJ0.s 			page 144


 3845 0754 02000000 		.4byte	.LBE70-.LBB70
 3846 0758 02       		.byte	0x2
 3847 0759 A404     		.2byte	0x4a4
 3848 075b 69070000 		.4byte	0x769
 3849 075f 1A       		.uleb128 0x1a
 3850 0760 C2010000 		.4byte	0x1c2
 3851 0764 25060000 		.4byte	.LLST36
 3852 0768 00       		.byte	0
 3853 0769 2A       		.uleb128 0x2a
 3854 076a B1010000 		.4byte	0x1b1
 3855 076e 1C000000 		.4byte	.LBB72
 3856 0772 02000000 		.4byte	.LBE72-.LBB72
 3857 0776 02       		.byte	0x2
 3858 0777 AC04     		.2byte	0x4ac
 3859 0779 87070000 		.4byte	0x787
 3860 077d 1A       		.uleb128 0x1a
 3861 077e C2010000 		.4byte	0x1c2
 3862 0782 39060000 		.4byte	.LLST37
 3863 0786 00       		.byte	0
 3864 0787 1D       		.uleb128 0x1d
 3865 0788 26000000 		.4byte	.LBB74
 3866 078c 0A000000 		.4byte	.LBE74-.LBB74
 3867 0790 2B       		.uleb128 0x2b
 3868 0791 DC010000 		.4byte	0x1dc
 3869 0795 2C       		.uleb128 0x2c
 3870 0796 B1010000 		.4byte	0x1b1
 3871 079a 2A000000 		.4byte	.LBB76
 3872 079e 02000000 		.4byte	.LBE76-.LBB76
 3873 07a2 02       		.byte	0x2
 3874 07a3 B404     		.2byte	0x4b4
 3875 07a5 1A       		.uleb128 0x1a
 3876 07a6 C2010000 		.4byte	0x1c2
 3877 07aa 4D060000 		.4byte	.LLST38
 3878 07ae 00       		.byte	0
 3879 07af 00       		.byte	0
 3880 07b0 00       		.byte	0
 3881 07b1 2D       		.uleb128 0x2d
 3882 07b2 96060000 		.4byte	.LASF89
 3883 07b6 02       		.byte	0x2
 3884 07b7 C903     		.2byte	0x3c9
 3885 07b9 83000000 		.4byte	0x83
 3886 07bd 01       		.byte	0x1
 3887 07be 23       		.uleb128 0x23
 3888 07bf 16070000 		.4byte	.LASF74
 3889 07c3 02       		.byte	0x2
 3890 07c4 CA04     		.2byte	0x4ca
 3891 07c6 00000000 		.4byte	.LFB27
 3892 07ca 48000000 		.4byte	.LFE27-.LFB27
 3893 07ce 01       		.uleb128 0x1
 3894 07cf 9C       		.byte	0x9c
 3895 07d0 49080000 		.4byte	0x849
 3896 07d4 2E       		.uleb128 0x2e
 3897 07d5 22030000 		.4byte	.LASF37
 3898 07d9 02       		.byte	0x2
 3899 07da CA04     		.2byte	0x4ca
 3900 07dc 83000000 		.4byte	0x83
 3901 07e0 01       		.uleb128 0x1
ARM GAS  C:\Users\user\AppData\Local\Temp\ccsPNKJ0.s 			page 145


 3902 07e1 50       		.byte	0x50
 3903 07e2 26       		.uleb128 0x26
 3904 07e3 B1070000 		.4byte	0x7b1
 3905 07e7 00000000 		.4byte	.LBB86
 3906 07eb 0C000000 		.4byte	.LBE86-.LBB86
 3907 07ef 02       		.byte	0x2
 3908 07f0 CC04     		.2byte	0x4cc
 3909 07f2 2A       		.uleb128 0x2a
 3910 07f3 B1010000 		.4byte	0x1b1
 3911 07f7 1A000000 		.4byte	.LBB88
 3912 07fb 02000000 		.4byte	.LBE88-.LBB88
 3913 07ff 02       		.byte	0x2
 3914 0800 D204     		.2byte	0x4d2
 3915 0802 10080000 		.4byte	0x810
 3916 0806 1A       		.uleb128 0x1a
 3917 0807 C2010000 		.4byte	0x1c2
 3918 080b 61060000 		.4byte	.LLST39
 3919 080f 00       		.byte	0
 3920 0810 2A       		.uleb128 0x2a
 3921 0811 B1010000 		.4byte	0x1b1
 3922 0815 28000000 		.4byte	.LBB90
 3923 0819 02000000 		.4byte	.LBE90-.LBB90
 3924 081d 02       		.byte	0x2
 3925 081e DA04     		.2byte	0x4da
 3926 0820 2E080000 		.4byte	0x82e
 3927 0824 1A       		.uleb128 0x1a
 3928 0825 C2010000 		.4byte	0x1c2
 3929 0829 75060000 		.4byte	.LLST40
 3930 082d 00       		.byte	0
 3931 082e 2C       		.uleb128 0x2c
 3932 082f B1010000 		.4byte	0x1b1
 3933 0833 36000000 		.4byte	.LBB92
 3934 0837 02000000 		.4byte	.LBE92-.LBB92
 3935 083b 02       		.byte	0x2
 3936 083c E204     		.2byte	0x4e2
 3937 083e 1A       		.uleb128 0x1a
 3938 083f C2010000 		.4byte	0x1c2
 3939 0843 89060000 		.4byte	.LLST41
 3940 0847 00       		.byte	0
 3941 0848 00       		.byte	0
 3942 0849 23       		.uleb128 0x23
 3943 084a EF060000 		.4byte	.LASF75
 3944 084e 02       		.byte	0x2
 3945 084f 0505     		.2byte	0x505
 3946 0851 00000000 		.4byte	.LFB28
 3947 0855 34000000 		.4byte	.LFE28-.LFB28
 3948 0859 01       		.uleb128 0x1
 3949 085a 9C       		.byte	0x9c
 3950 085b E6080000 		.4byte	0x8e6
 3951 085f 16       		.uleb128 0x16
 3952 0860 17090000 		.4byte	.LASF76
 3953 0864 02       		.byte	0x2
 3954 0865 0505     		.2byte	0x505
 3955 0867 83000000 		.4byte	0x83
 3956 086b 9D060000 		.4byte	.LLST42
 3957 086f 17       		.uleb128 0x17
 3958 0870 DF080000 		.4byte	.LASF32
ARM GAS  C:\Users\user\AppData\Local\Temp\ccsPNKJ0.s 			page 146


 3959 0874 02       		.byte	0x2
 3960 0875 0705     		.2byte	0x507
 3961 0877 83000000 		.4byte	0x83
 3962 087b BE060000 		.4byte	.LLST43
 3963 087f 17       		.uleb128 0x17
 3964 0880 D6020000 		.4byte	.LASF77
 3965 0884 02       		.byte	0x2
 3966 0885 0805     		.2byte	0x508
 3967 0887 83000000 		.4byte	0x83
 3968 088b E7060000 		.4byte	.LLST44
 3969 088f 2F       		.uleb128 0x2f
 3970 0890 B1010000 		.4byte	0x1b1
 3971 0894 00000000 		.4byte	.LBB94
 3972 0898 00000000 		.4byte	.Ldebug_ranges0+0
 3973 089c 02       		.byte	0x2
 3974 089d 0A05     		.2byte	0x50a
 3975 089f AD080000 		.4byte	0x8ad
 3976 08a3 1A       		.uleb128 0x1a
 3977 08a4 C2010000 		.4byte	0x1c2
 3978 08a8 0A070000 		.4byte	.LLST45
 3979 08ac 00       		.byte	0
 3980 08ad 2A       		.uleb128 0x2a
 3981 08ae B1010000 		.4byte	0x1b1
 3982 08b2 06000000 		.4byte	.LBB98
 3983 08b6 02000000 		.4byte	.LBE98-.LBB98
 3984 08ba 02       		.byte	0x2
 3985 08bb 0B05     		.2byte	0x50b
 3986 08bd CB080000 		.4byte	0x8cb
 3987 08c1 1A       		.uleb128 0x1a
 3988 08c2 C2010000 		.4byte	0x1c2
 3989 08c6 1E070000 		.4byte	.LLST46
 3990 08ca 00       		.byte	0
 3991 08cb 2C       		.uleb128 0x2c
 3992 08cc B1010000 		.4byte	0x1b1
 3993 08d0 08000000 		.4byte	.LBB100
 3994 08d4 02000000 		.4byte	.LBE100-.LBB100
 3995 08d8 02       		.byte	0x2
 3996 08d9 0C05     		.2byte	0x50c
 3997 08db 1A       		.uleb128 0x1a
 3998 08dc C2010000 		.4byte	0x1c2
 3999 08e0 32070000 		.4byte	.LLST47
 4000 08e4 00       		.byte	0
 4001 08e5 00       		.byte	0
 4002 08e6 25       		.uleb128 0x25
 4003 08e7 A0000000 		.4byte	.LASF79
 4004 08eb 02       		.byte	0x2
 4005 08ec 2405     		.2byte	0x524
 4006 08ee 83000000 		.4byte	0x83
 4007 08f2 00000000 		.4byte	.LFB29
 4008 08f6 14000000 		.4byte	.LFE29-.LFB29
 4009 08fa 01       		.uleb128 0x1
 4010 08fb 9C       		.byte	0x9c
 4011 08fc 23       		.uleb128 0x23
 4012 08fd C5020000 		.4byte	.LASF80
 4013 0901 02       		.byte	0x2
 4014 0902 3805     		.2byte	0x538
 4015 0904 00000000 		.4byte	.LFB30
ARM GAS  C:\Users\user\AppData\Local\Temp\ccsPNKJ0.s 			page 147


 4016 0908 48000000 		.4byte	.LFE30-.LFB30
 4017 090c 01       		.uleb128 0x1
 4018 090d 9C       		.byte	0x9c
 4019 090e 51090000 		.4byte	0x951
 4020 0912 16       		.uleb128 0x16
 4021 0913 7B000000 		.4byte	.LASF30
 4022 0917 02       		.byte	0x2
 4023 0918 3805     		.2byte	0x538
 4024 091a 83000000 		.4byte	0x83
 4025 091e 46070000 		.4byte	.LLST48
 4026 0922 16       		.uleb128 0x16
 4027 0923 D5050000 		.4byte	.LASF42
 4028 0927 02       		.byte	0x2
 4029 0928 3805     		.2byte	0x538
 4030 092a 83000000 		.4byte	0x83
 4031 092e 72070000 		.4byte	.LLST49
 4032 0932 0D       		.uleb128 0xd
 4033 0933 11020000 		.4byte	.LASF81
 4034 0937 02       		.byte	0x2
 4035 0938 3A05     		.2byte	0x53a
 4036 093a 83000000 		.4byte	0x83
 4037 093e 24       		.uleb128 0x24
 4038 093f 18000000 		.4byte	.LVL129
 4039 0943 50110000 		.4byte	0x1150
 4040 0947 24       		.uleb128 0x24
 4041 0948 38000000 		.4byte	.LVL132
 4042 094c 50110000 		.4byte	0x1150
 4043 0950 00       		.byte	0
 4044 0951 23       		.uleb128 0x23
 4045 0952 77040000 		.4byte	.LASF82
 4046 0956 02       		.byte	0x2
 4047 0957 5F05     		.2byte	0x55f
 4048 0959 00000000 		.4byte	.LFB31
 4049 095d 2C000000 		.4byte	.LFE31-.LFB31
 4050 0961 01       		.uleb128 0x1
 4051 0962 9C       		.byte	0x9c
 4052 0963 A2090000 		.4byte	0x9a2
 4053 0967 16       		.uleb128 0x16
 4054 0968 03020000 		.4byte	.LASF83
 4055 096c 02       		.byte	0x2
 4056 096d 5F05     		.2byte	0x55f
 4057 096f 83000000 		.4byte	0x83
 4058 0973 9E070000 		.4byte	.LLST50
 4059 0977 17       		.uleb128 0x17
 4060 0978 DF080000 		.4byte	.LASF32
 4061 097c 02       		.byte	0x2
 4062 097d 6105     		.2byte	0x561
 4063 097f 83000000 		.4byte	0x83
 4064 0983 BF070000 		.4byte	.LLST51
 4065 0987 2C       		.uleb128 0x2c
 4066 0988 B1010000 		.4byte	0x1b1
 4067 098c 00000000 		.4byte	.LBB102
 4068 0990 04000000 		.4byte	.LBE102-.LBB102
 4069 0994 02       		.byte	0x2
 4070 0995 6305     		.2byte	0x563
 4071 0997 1A       		.uleb128 0x1a
 4072 0998 C2010000 		.4byte	0x1c2
ARM GAS  C:\Users\user\AppData\Local\Temp\ccsPNKJ0.s 			page 148


 4073 099c E8070000 		.4byte	.LLST52
 4074 09a0 00       		.byte	0
 4075 09a1 00       		.byte	0
 4076 09a2 25       		.uleb128 0x25
 4077 09a3 38090000 		.4byte	.LASF84
 4078 09a7 02       		.byte	0x2
 4079 09a8 7605     		.2byte	0x576
 4080 09aa 83000000 		.4byte	0x83
 4081 09ae 00000000 		.4byte	.LFB32
 4082 09b2 10000000 		.4byte	.LFE32-.LFB32
 4083 09b6 01       		.uleb128 0x1
 4084 09b7 9C       		.byte	0x9c
 4085 09b8 1F       		.uleb128 0x1f
 4086 09b9 36050000 		.4byte	.LASF85
 4087 09bd 02       		.byte	0x2
 4088 09be 8805     		.2byte	0x588
 4089 09c0 83000000 		.4byte	0x83
 4090 09c4 00000000 		.4byte	.LFB33
 4091 09c8 14000000 		.4byte	.LFE33-.LFB33
 4092 09cc 01       		.uleb128 0x1
 4093 09cd 9C       		.byte	0x9c
 4094 09ce E3090000 		.4byte	0x9e3
 4095 09d2 16       		.uleb128 0x16
 4096 09d3 7B000000 		.4byte	.LASF30
 4097 09d7 02       		.byte	0x2
 4098 09d8 8805     		.2byte	0x588
 4099 09da 83000000 		.4byte	0x83
 4100 09de FC070000 		.4byte	.LLST53
 4101 09e2 00       		.byte	0
 4102 09e3 1F       		.uleb128 0x1f
 4103 09e4 E2070000 		.4byte	.LASF86
 4104 09e8 02       		.byte	0x2
 4105 09e9 9E05     		.2byte	0x59e
 4106 09eb 83000000 		.4byte	0x83
 4107 09ef 00000000 		.4byte	.LFB34
 4108 09f3 30000000 		.4byte	.LFE34-.LFB34
 4109 09f7 01       		.uleb128 0x1
 4110 09f8 9C       		.byte	0x9c
 4111 09f9 1E0A0000 		.4byte	0xa1e
 4112 09fd 16       		.uleb128 0x16
 4113 09fe 7B000000 		.4byte	.LASF30
 4114 0a02 02       		.byte	0x2
 4115 0a03 9E05     		.2byte	0x59e
 4116 0a05 83000000 		.4byte	0x83
 4117 0a09 1D080000 		.4byte	.LLST54
 4118 0a0d 17       		.uleb128 0x17
 4119 0a0e 11020000 		.4byte	.LASF81
 4120 0a12 02       		.byte	0x2
 4121 0a13 A005     		.2byte	0x5a0
 4122 0a15 83000000 		.4byte	0x83
 4123 0a19 89080000 		.4byte	.LLST55
 4124 0a1d 00       		.byte	0
 4125 0a1e 30       		.uleb128 0x30
 4126 0a1f 86000000 		.4byte	.LASF127
 4127 0a23 02       		.byte	0x2
 4128 0a24 3007     		.2byte	0x730
 4129 0a26 00000000 		.4byte	.LFB44
ARM GAS  C:\Users\user\AppData\Local\Temp\ccsPNKJ0.s 			page 149


 4130 0a2a 68000000 		.4byte	.LFE44-.LFB44
 4131 0a2e 01       		.uleb128 0x1
 4132 0a2f 9C       		.byte	0x9c
 4133 0a30 100B0000 		.4byte	0xb10
 4134 0a34 17       		.uleb128 0x17
 4135 0a35 6A030000 		.4byte	.LASF87
 4136 0a39 02       		.byte	0x2
 4137 0a3a 3207     		.2byte	0x732
 4138 0a3c 83000000 		.4byte	0x83
 4139 0a40 ED080000 		.4byte	.LLST56
 4140 0a44 18       		.uleb128 0x18
 4141 0a45 CB060000 		.4byte	.LASF88
 4142 0a49 02       		.byte	0x2
 4143 0a4a 3307     		.2byte	0x733
 4144 0a4c 83000000 		.4byte	0x83
 4145 0a50 05       		.uleb128 0x5
 4146 0a51 03       		.byte	0x3
 4147 0a52 14000000 		.4byte	lfclkPosedgeEnabledWdtCounter.5072
 4148 0a56 2F       		.uleb128 0x2f
 4149 0a57 B1010000 		.4byte	0x1b1
 4150 0a5b 00000000 		.4byte	.LBB104
 4151 0a5f 18000000 		.4byte	.Ldebug_ranges0+0x18
 4152 0a63 02       		.byte	0x2
 4153 0a64 3507     		.2byte	0x735
 4154 0a66 740A0000 		.4byte	0xa74
 4155 0a6a 1A       		.uleb128 0x1a
 4156 0a6b C2010000 		.4byte	0x1c2
 4157 0a6f 00090000 		.4byte	.LLST57
 4158 0a73 00       		.byte	0
 4159 0a74 2A       		.uleb128 0x2a
 4160 0a75 B1010000 		.4byte	0x1b1
 4161 0a79 12000000 		.4byte	.LBB108
 4162 0a7d 02000000 		.4byte	.LBE108-.LBB108
 4163 0a81 02       		.byte	0x2
 4164 0a82 3907     		.2byte	0x739
 4165 0a84 920A0000 		.4byte	0xa92
 4166 0a88 1A       		.uleb128 0x1a
 4167 0a89 C2010000 		.4byte	0x1c2
 4168 0a8d 14090000 		.4byte	.LLST58
 4169 0a91 00       		.byte	0
 4170 0a92 2A       		.uleb128 0x2a
 4171 0a93 B1010000 		.4byte	0x1b1
 4172 0a97 1E000000 		.4byte	.LBB110
 4173 0a9b 02000000 		.4byte	.LBE110-.LBB110
 4174 0a9f 02       		.byte	0x2
 4175 0aa0 3D07     		.2byte	0x73d
 4176 0aa2 B00A0000 		.4byte	0xab0
 4177 0aa6 1A       		.uleb128 0x1a
 4178 0aa7 C2010000 		.4byte	0x1c2
 4179 0aab 28090000 		.4byte	.LLST59
 4180 0aaf 00       		.byte	0
 4181 0ab0 2F       		.uleb128 0x2f
 4182 0ab1 E9010000 		.4byte	0x1e9
 4183 0ab5 2C000000 		.4byte	.LBB112
 4184 0ab9 30000000 		.4byte	.Ldebug_ranges0+0x30
 4185 0abd 02       		.byte	0x2
 4186 0abe 4707     		.2byte	0x747
ARM GAS  C:\Users\user\AppData\Local\Temp\ccsPNKJ0.s 			page 150


 4187 0ac0 CE0A0000 		.4byte	0xace
 4188 0ac4 1A       		.uleb128 0x1a
 4189 0ac5 FA010000 		.4byte	0x1fa
 4190 0ac9 3C090000 		.4byte	.LLST60
 4191 0acd 00       		.byte	0
 4192 0ace 24       		.uleb128 0x24
 4193 0acf 40000000 		.4byte	.LVL161
 4194 0ad3 76010000 		.4byte	0x176
 4195 0ad7 20       		.uleb128 0x20
 4196 0ad8 46000000 		.4byte	.LVL162
 4197 0adc CF010000 		.4byte	0x1cf
 4198 0ae0 EB0A0000 		.4byte	0xaeb
 4199 0ae4 21       		.uleb128 0x21
 4200 0ae5 01       		.uleb128 0x1
 4201 0ae6 50       		.byte	0x50
 4202 0ae7 02       		.uleb128 0x2
 4203 0ae8 75       		.byte	0x75
 4204 0ae9 00       		.sleb128 0
 4205 0aea 00       		.byte	0
 4206 0aeb 20       		.uleb128 0x20
 4207 0aec 4E000000 		.4byte	.LVL163
 4208 0af0 E3090000 		.4byte	0x9e3
 4209 0af4 FF0A0000 		.4byte	0xaff
 4210 0af8 21       		.uleb128 0x21
 4211 0af9 01       		.uleb128 0x1
 4212 0afa 50       		.byte	0x50
 4213 0afb 02       		.uleb128 0x2
 4214 0afc 74       		.byte	0x74
 4215 0afd 00       		.sleb128 0
 4216 0afe 00       		.byte	0
 4217 0aff 22       		.uleb128 0x22
 4218 0b00 56000000 		.4byte	.LVL165
 4219 0b04 E3090000 		.4byte	0x9e3
 4220 0b08 21       		.uleb128 0x21
 4221 0b09 01       		.uleb128 0x1
 4222 0b0a 50       		.byte	0x50
 4223 0b0b 02       		.uleb128 0x2
 4224 0b0c 74       		.byte	0x74
 4225 0b0d 00       		.sleb128 0
 4226 0b0e 00       		.byte	0
 4227 0b0f 00       		.byte	0
 4228 0b10 2D       		.uleb128 0x2d
 4229 0b11 36070000 		.4byte	.LASF90
 4230 0b15 02       		.byte	0x2
 4231 0b16 7201     		.2byte	0x172
 4232 0b18 83000000 		.4byte	0x83
 4233 0b1c 01       		.byte	0x1
 4234 0b1d 13       		.uleb128 0x13
 4235 0b1e 49020000 		.4byte	.LASF91
 4236 0b22 02       		.byte	0x2
 4237 0b23 6C       		.byte	0x6c
 4238 0b24 00000000 		.4byte	.LFB3
 4239 0b28 54000000 		.4byte	.LFE3-.LFB3
 4240 0b2c 01       		.uleb128 0x1
 4241 0b2d 9C       		.byte	0x9c
 4242 0b2e AE0B0000 		.4byte	0xbae
 4243 0b32 31       		.uleb128 0x31
ARM GAS  C:\Users\user\AppData\Local\Temp\ccsPNKJ0.s 			page 151


 4244 0b33 A0030000 		.4byte	.LASF69
 4245 0b37 02       		.byte	0x2
 4246 0b38 6F       		.byte	0x6f
 4247 0b39 6B000000 		.4byte	0x6b
 4248 0b3d 50090000 		.4byte	.LLST61
 4249 0b41 32       		.uleb128 0x32
 4250 0b42 B1070000 		.4byte	0x7b1
 4251 0b46 00000000 		.4byte	.LBB122
 4252 0b4a 48000000 		.4byte	.Ldebug_ranges0+0x48
 4253 0b4e 02       		.byte	0x2
 4254 0b4f 72       		.byte	0x72
 4255 0b50 33       		.uleb128 0x33
 4256 0b51 100B0000 		.4byte	0xb10
 4257 0b55 0E000000 		.4byte	.LBB126
 4258 0b59 08000000 		.4byte	.LBE126-.LBB126
 4259 0b5d 02       		.byte	0x2
 4260 0b5e 74       		.byte	0x74
 4261 0b5f 34       		.uleb128 0x34
 4262 0b60 07020000 		.4byte	0x207
 4263 0b64 16000000 		.4byte	.LBB128
 4264 0b68 04000000 		.4byte	.LBE128-.LBB128
 4265 0b6c 02       		.byte	0x2
 4266 0b6d 78       		.byte	0x78
 4267 0b6e 820B0000 		.4byte	0xb82
 4268 0b72 1D       		.uleb128 0x1d
 4269 0b73 16000000 		.4byte	.LBB129
 4270 0b77 04000000 		.4byte	.LBE129-.LBB129
 4271 0b7b 1B       		.uleb128 0x1b
 4272 0b7c 18020000 		.4byte	0x218
 4273 0b80 00       		.byte	0
 4274 0b81 00       		.byte	0
 4275 0b82 24       		.uleb128 0x24
 4276 0b83 22000000 		.4byte	.LVL167
 4277 0b87 3A110000 		.4byte	0x113a
 4278 0b8b 24       		.uleb128 0x24
 4279 0b8c 28000000 		.4byte	.LVL169
 4280 0b90 1E0A0000 		.4byte	0xa1e
 4281 0b94 24       		.uleb128 0x24
 4282 0b95 34000000 		.4byte	.LVL170
 4283 0b99 A8010000 		.4byte	0x1a8
 4284 0b9d 22       		.uleb128 0x22
 4285 0b9e 3A000000 		.4byte	.LVL171
 4286 0ba2 45110000 		.4byte	0x1145
 4287 0ba6 21       		.uleb128 0x21
 4288 0ba7 01       		.uleb128 0x1
 4289 0ba8 50       		.byte	0x50
 4290 0ba9 02       		.uleb128 0x2
 4291 0baa 75       		.byte	0x75
 4292 0bab 00       		.sleb128 0
 4293 0bac 00       		.byte	0
 4294 0bad 00       		.byte	0
 4295 0bae 23       		.uleb128 0x23
 4296 0baf 53030000 		.4byte	.LASF92
 4297 0bb3 02       		.byte	0x2
 4298 0bb4 DE02     		.2byte	0x2de
 4299 0bb6 00000000 		.4byte	.LFB12
 4300 0bba 38000000 		.4byte	.LFE12-.LFB12
ARM GAS  C:\Users\user\AppData\Local\Temp\ccsPNKJ0.s 			page 152


 4301 0bbe 01       		.uleb128 0x1
 4302 0bbf 9C       		.byte	0x9c
 4303 0bc0 300C0000 		.4byte	0xc30
 4304 0bc4 16       		.uleb128 0x16
 4305 0bc5 00050000 		.4byte	.LASF93
 4306 0bc9 02       		.byte	0x2
 4307 0bca DE02     		.2byte	0x2de
 4308 0bcc 83000000 		.4byte	0x83
 4309 0bd0 63090000 		.4byte	.LLST62
 4310 0bd4 17       		.uleb128 0x17
 4311 0bd5 A0030000 		.4byte	.LASF69
 4312 0bd9 02       		.byte	0x2
 4313 0bda E002     		.2byte	0x2e0
 4314 0bdc 6B000000 		.4byte	0x6b
 4315 0be0 8F090000 		.4byte	.LLST63
 4316 0be4 2F       		.uleb128 0x2f
 4317 0be5 07020000 		.4byte	0x207
 4318 0be9 02000000 		.4byte	.LBB130
 4319 0bed 60000000 		.4byte	.Ldebug_ranges0+0x60
 4320 0bf1 02       		.byte	0x2
 4321 0bf2 E202     		.2byte	0x2e2
 4322 0bf4 040C0000 		.4byte	0xc04
 4323 0bf8 35       		.uleb128 0x35
 4324 0bf9 60000000 		.4byte	.Ldebug_ranges0+0x60
 4325 0bfd 1B       		.uleb128 0x1b
 4326 0bfe 18020000 		.4byte	0x218
 4327 0c02 00       		.byte	0
 4328 0c03 00       		.byte	0
 4329 0c04 24       		.uleb128 0x24
 4330 0c05 14000000 		.4byte	.LVL174
 4331 0c09 3A110000 		.4byte	0x113a
 4332 0c0d 24       		.uleb128 0x24
 4333 0c0e 1A000000 		.4byte	.LVL176
 4334 0c12 1E0A0000 		.4byte	0xa1e
 4335 0c16 24       		.uleb128 0x24
 4336 0c17 2C000000 		.4byte	.LVL178
 4337 0c1b A8010000 		.4byte	0x1a8
 4338 0c1f 22       		.uleb128 0x22
 4339 0c20 32000000 		.4byte	.LVL179
 4340 0c24 45110000 		.4byte	0x1145
 4341 0c28 21       		.uleb128 0x21
 4342 0c29 01       		.uleb128 0x1
 4343 0c2a 50       		.byte	0x50
 4344 0c2b 02       		.uleb128 0x2
 4345 0c2c 76       		.byte	0x76
 4346 0c2d 00       		.sleb128 0
 4347 0c2e 00       		.byte	0
 4348 0c2f 00       		.byte	0
 4349 0c30 23       		.uleb128 0x23
 4350 0c31 96070000 		.4byte	.LASF94
 4351 0c35 02       		.byte	0x2
 4352 0c36 1503     		.2byte	0x315
 4353 0c38 00000000 		.4byte	.LFB14
 4354 0c3c 48000000 		.4byte	.LFE14-.LFB14
 4355 0c40 01       		.uleb128 0x1
 4356 0c41 9C       		.byte	0x9c
 4357 0c42 AF0C0000 		.4byte	0xcaf
ARM GAS  C:\Users\user\AppData\Local\Temp\ccsPNKJ0.s 			page 153


 4358 0c46 17       		.uleb128 0x17
 4359 0c47 A0030000 		.4byte	.LASF69
 4360 0c4b 02       		.byte	0x2
 4361 0c4c 1803     		.2byte	0x318
 4362 0c4e 6B000000 		.4byte	0x6b
 4363 0c52 A2090000 		.4byte	.LLST64
 4364 0c56 2A       		.uleb128 0x2a
 4365 0c57 07020000 		.4byte	0x207
 4366 0c5b 0A000000 		.4byte	.LBB134
 4367 0c5f 06000000 		.4byte	.LBE134-.LBB134
 4368 0c63 02       		.byte	0x2
 4369 0c64 1E03     		.2byte	0x31e
 4370 0c66 7A0C0000 		.4byte	0xc7a
 4371 0c6a 1D       		.uleb128 0x1d
 4372 0c6b 0A000000 		.4byte	.LBB135
 4373 0c6f 06000000 		.4byte	.LBE135-.LBB135
 4374 0c73 1B       		.uleb128 0x1b
 4375 0c74 18020000 		.4byte	0x218
 4376 0c78 00       		.byte	0
 4377 0c79 00       		.byte	0
 4378 0c7a 24       		.uleb128 0x24
 4379 0c7b 06000000 		.4byte	.LVL180
 4380 0c7f CF040000 		.4byte	0x4cf
 4381 0c83 24       		.uleb128 0x24
 4382 0c84 1A000000 		.4byte	.LVL181
 4383 0c88 3A110000 		.4byte	0x113a
 4384 0c8c 24       		.uleb128 0x24
 4385 0c8d 20000000 		.4byte	.LVL183
 4386 0c91 1E0A0000 		.4byte	0xa1e
 4387 0c95 24       		.uleb128 0x24
 4388 0c96 2C000000 		.4byte	.LVL184
 4389 0c9a A8010000 		.4byte	0x1a8
 4390 0c9e 22       		.uleb128 0x22
 4391 0c9f 32000000 		.4byte	.LVL185
 4392 0ca3 45110000 		.4byte	0x1145
 4393 0ca7 21       		.uleb128 0x21
 4394 0ca8 01       		.uleb128 0x1
 4395 0ca9 50       		.byte	0x50
 4396 0caa 02       		.uleb128 0x2
 4397 0cab 75       		.byte	0x75
 4398 0cac 00       		.sleb128 0
 4399 0cad 00       		.byte	0
 4400 0cae 00       		.byte	0
 4401 0caf 25       		.uleb128 0x25
 4402 0cb0 49070000 		.4byte	.LASF95
 4403 0cb4 02       		.byte	0x2
 4404 0cb5 C905     		.2byte	0x5c9
 4405 0cb7 83000000 		.4byte	0x83
 4406 0cbb 00000000 		.4byte	.LFB35
 4407 0cbf 14000000 		.4byte	.LFE35-.LFB35
 4408 0cc3 01       		.uleb128 0x1
 4409 0cc4 9C       		.byte	0x9c
 4410 0cc5 23       		.uleb128 0x23
 4411 0cc6 4F060000 		.4byte	.LASF96
 4412 0cca 02       		.byte	0x2
 4413 0ccb E605     		.2byte	0x5e6
 4414 0ccd 00000000 		.4byte	.LFB36
ARM GAS  C:\Users\user\AppData\Local\Temp\ccsPNKJ0.s 			page 154


 4415 0cd1 54000000 		.4byte	.LFE36-.LFB36
 4416 0cd5 01       		.uleb128 0x1
 4417 0cd6 9C       		.byte	0x9c
 4418 0cd7 4B0D0000 		.4byte	0xd4b
 4419 0cdb 16       		.uleb128 0x16
 4420 0cdc 22030000 		.4byte	.LASF37
 4421 0ce0 02       		.byte	0x2
 4422 0ce1 E605     		.2byte	0x5e6
 4423 0ce3 83000000 		.4byte	0x83
 4424 0ce7 B5090000 		.4byte	.LLST65
 4425 0ceb 17       		.uleb128 0x17
 4426 0cec A0030000 		.4byte	.LASF69
 4427 0cf0 02       		.byte	0x2
 4428 0cf1 E805     		.2byte	0x5e8
 4429 0cf3 6B000000 		.4byte	0x6b
 4430 0cf7 FC090000 		.4byte	.LLST66
 4431 0cfb 17       		.uleb128 0x17
 4432 0cfc EE080000 		.4byte	.LASF97
 4433 0d00 02       		.byte	0x2
 4434 0d01 E905     		.2byte	0x5e9
 4435 0d03 83000000 		.4byte	0x83
 4436 0d07 1A0A0000 		.4byte	.LLST67
 4437 0d0b 36       		.uleb128 0x36
 4438 0d0c B1070000 		.4byte	0x7b1
 4439 0d10 08000000 		.4byte	.LBB138
 4440 0d14 78000000 		.4byte	.Ldebug_ranges0+0x78
 4441 0d18 02       		.byte	0x2
 4442 0d19 ED05     		.2byte	0x5ed
 4443 0d1b 24       		.uleb128 0x24
 4444 0d1c 08000000 		.4byte	.LVL188
 4445 0d20 3A110000 		.4byte	0x113a
 4446 0d24 24       		.uleb128 0x24
 4447 0d25 32000000 		.4byte	.LVL193
 4448 0d29 72050000 		.4byte	0x572
 4449 0d2d 20       		.uleb128 0x20
 4450 0d2e 38000000 		.4byte	.LVL194
 4451 0d32 45110000 		.4byte	0x1145
 4452 0d36 410D0000 		.4byte	0xd41
 4453 0d3a 21       		.uleb128 0x21
 4454 0d3b 01       		.uleb128 0x1
 4455 0d3c 50       		.byte	0x50
 4456 0d3d 02       		.uleb128 0x2
 4457 0d3e 74       		.byte	0x74
 4458 0d3f 00       		.sleb128 0
 4459 0d40 00       		.byte	0
 4460 0d41 24       		.uleb128 0x24
 4461 0d42 3E000000 		.4byte	.LVL197
 4462 0d46 AB050000 		.4byte	0x5ab
 4463 0d4a 00       		.byte	0
 4464 0d4b 23       		.uleb128 0x23
 4465 0d4c 25060000 		.4byte	.LASF98
 4466 0d50 02       		.byte	0x2
 4467 0d51 2006     		.2byte	0x620
 4468 0d53 00000000 		.4byte	.LFB37
 4469 0d57 1C000000 		.4byte	.LFE37-.LFB37
 4470 0d5b 01       		.uleb128 0x1
 4471 0d5c 9C       		.byte	0x9c
ARM GAS  C:\Users\user\AppData\Local\Temp\ccsPNKJ0.s 			page 155


 4472 0d5d 720D0000 		.4byte	0xd72
 4473 0d61 16       		.uleb128 0x16
 4474 0d62 6E020000 		.4byte	.LASF99
 4475 0d66 02       		.byte	0x2
 4476 0d67 2006     		.2byte	0x620
 4477 0d69 83000000 		.4byte	0x83
 4478 0d6d 450A0000 		.4byte	.LLST68
 4479 0d71 00       		.byte	0
 4480 0d72 1F       		.uleb128 0x1f
 4481 0d73 05030000 		.4byte	.LASF100
 4482 0d77 02       		.byte	0x2
 4483 0d78 3A06     		.2byte	0x63a
 4484 0d7a FD000000 		.4byte	0xfd
 4485 0d7e 00000000 		.4byte	.LFB38
 4486 0d82 18000000 		.4byte	.LFE38-.LFB38
 4487 0d86 01       		.uleb128 0x1
 4488 0d87 9C       		.byte	0x9c
 4489 0d88 BB0D0000 		.4byte	0xdbb
 4490 0d8c 16       		.uleb128 0x16
 4491 0d8d 7B000000 		.4byte	.LASF30
 4492 0d91 02       		.byte	0x2
 4493 0d92 3A06     		.2byte	0x63a
 4494 0d94 83000000 		.4byte	0x83
 4495 0d98 660A0000 		.4byte	.LLST69
 4496 0d9c 2E       		.uleb128 0x2e
 4497 0d9d A2010000 		.4byte	.LASF101
 4498 0da1 02       		.byte	0x2
 4499 0da2 3A06     		.2byte	0x63a
 4500 0da4 FD000000 		.4byte	0xfd
 4501 0da8 01       		.uleb128 0x1
 4502 0da9 51       		.byte	0x51
 4503 0daa 17       		.uleb128 0x17
 4504 0dab B8020000 		.4byte	.LASF102
 4505 0daf 02       		.byte	0x2
 4506 0db0 3C06     		.2byte	0x63c
 4507 0db2 FD000000 		.4byte	0xfd
 4508 0db6 870A0000 		.4byte	.LLST70
 4509 0dba 00       		.byte	0
 4510 0dbb 1F       		.uleb128 0x1f
 4511 0dbc 24040000 		.4byte	.LASF103
 4512 0dc0 02       		.byte	0x2
 4513 0dc1 5806     		.2byte	0x658
 4514 0dc3 FD000000 		.4byte	0xfd
 4515 0dc7 00000000 		.4byte	.LFB39
 4516 0dcb 18000000 		.4byte	.LFE39-.LFB39
 4517 0dcf 01       		.uleb128 0x1
 4518 0dd0 9C       		.byte	0x9c
 4519 0dd1 F60D0000 		.4byte	0xdf6
 4520 0dd5 16       		.uleb128 0x16
 4521 0dd6 7B000000 		.4byte	.LASF30
 4522 0dda 02       		.byte	0x2
 4523 0ddb 5806     		.2byte	0x658
 4524 0ddd 83000000 		.4byte	0x83
 4525 0de1 A60A0000 		.4byte	.LLST71
 4526 0de5 17       		.uleb128 0x17
 4527 0de6 75030000 		.4byte	.LASF104
 4528 0dea 02       		.byte	0x2
ARM GAS  C:\Users\user\AppData\Local\Temp\ccsPNKJ0.s 			page 156


 4529 0deb 5A06     		.2byte	0x65a
 4530 0ded FD000000 		.4byte	0xfd
 4531 0df1 C70A0000 		.4byte	.LLST72
 4532 0df5 00       		.byte	0
 4533 0df6 23       		.uleb128 0x23
 4534 0df7 D6030000 		.4byte	.LASF105
 4535 0dfb 02       		.byte	0x2
 4536 0dfc 7506     		.2byte	0x675
 4537 0dfe 00000000 		.4byte	.LFB40
 4538 0e02 28000000 		.4byte	.LFE40-.LFB40
 4539 0e06 01       		.uleb128 0x1
 4540 0e07 9C       		.byte	0x9c
 4541 0e08 1D0E0000 		.4byte	0xe1d
 4542 0e0c 16       		.uleb128 0x16
 4543 0e0d 7B000000 		.4byte	.LASF30
 4544 0e11 02       		.byte	0x2
 4545 0e12 7506     		.2byte	0x675
 4546 0e14 83000000 		.4byte	0x83
 4547 0e18 E60A0000 		.4byte	.LLST73
 4548 0e1c 00       		.byte	0
 4549 0e1d 23       		.uleb128 0x23
 4550 0e1e BE070000 		.4byte	.LASF106
 4551 0e22 02       		.byte	0x2
 4552 0e23 8C06     		.2byte	0x68c
 4553 0e25 00000000 		.4byte	.LFB41
 4554 0e29 1C000000 		.4byte	.LFE41-.LFB41
 4555 0e2d 01       		.uleb128 0x1
 4556 0e2e 9C       		.byte	0x9c
 4557 0e2f 440E0000 		.4byte	0xe44
 4558 0e33 16       		.uleb128 0x16
 4559 0e34 7B000000 		.4byte	.LASF30
 4560 0e38 02       		.byte	0x2
 4561 0e39 8C06     		.2byte	0x68c
 4562 0e3b 83000000 		.4byte	0x83
 4563 0e3f 070B0000 		.4byte	.LLST74
 4564 0e43 00       		.byte	0
 4565 0e44 37       		.uleb128 0x37
 4566 0e45 2C090000 		.4byte	.LASF107
 4567 0e49 02       		.byte	0x2
 4568 0e4a AD06     		.2byte	0x6ad
 4569 0e4c 00000000 		.4byte	.LFB42
 4570 0e50 A0000000 		.4byte	.LFE42-.LFB42
 4571 0e54 01       		.uleb128 0x1
 4572 0e55 9C       		.byte	0x9c
 4573 0e56 940E0000 		.4byte	0xe94
 4574 0e5a 20       		.uleb128 0x20
 4575 0e5b 34000000 		.4byte	.LVL212
 4576 0e5f C50C0000 		.4byte	0xcc5
 4577 0e63 6D0E0000 		.4byte	0xe6d
 4578 0e67 21       		.uleb128 0x21
 4579 0e68 01       		.uleb128 0x1
 4580 0e69 50       		.byte	0x50
 4581 0e6a 01       		.uleb128 0x1
 4582 0e6b 34       		.byte	0x34
 4583 0e6c 00       		.byte	0
 4584 0e6d 20       		.uleb128 0x20
 4585 0e6e 6A000000 		.4byte	.LVL214
ARM GAS  C:\Users\user\AppData\Local\Temp\ccsPNKJ0.s 			page 157


 4586 0e72 C50C0000 		.4byte	0xcc5
 4587 0e76 820E0000 		.4byte	0xe82
 4588 0e7a 21       		.uleb128 0x21
 4589 0e7b 01       		.uleb128 0x1
 4590 0e7c 50       		.byte	0x50
 4591 0e7d 03       		.uleb128 0x3
 4592 0e7e 0A       		.byte	0xa
 4593 0e7f 0004     		.2byte	0x400
 4594 0e81 00       		.byte	0
 4595 0e82 22       		.uleb128 0x22
 4596 0e83 8E000000 		.4byte	.LVL216
 4597 0e87 C50C0000 		.4byte	0xcc5
 4598 0e8b 21       		.uleb128 0x21
 4599 0e8c 01       		.uleb128 0x1
 4600 0e8d 50       		.byte	0x50
 4601 0e8e 03       		.uleb128 0x3
 4602 0e8f 40       		.byte	0x40
 4603 0e90 3E       		.byte	0x3e
 4604 0e91 24       		.byte	0x24
 4605 0e92 00       		.byte	0
 4606 0e93 00       		.byte	0
 4607 0e94 23       		.uleb128 0x23
 4608 0e95 9C040000 		.4byte	.LASF108
 4609 0e99 02       		.byte	0x2
 4610 0e9a EE06     		.2byte	0x6ee
 4611 0e9c 00000000 		.4byte	.LFB43
 4612 0ea0 4E000000 		.4byte	.LFE43-.LFB43
 4613 0ea4 01       		.uleb128 0x1
 4614 0ea5 9C       		.byte	0x9c
 4615 0ea6 270F0000 		.4byte	0xf27
 4616 0eaa 16       		.uleb128 0x16
 4617 0eab 7B000000 		.4byte	.LASF30
 4618 0eaf 02       		.byte	0x2
 4619 0eb0 EE06     		.2byte	0x6ee
 4620 0eb2 83000000 		.4byte	0x83
 4621 0eb6 280B0000 		.4byte	.LLST75
 4622 0eba 20       		.uleb128 0x20
 4623 0ebb 0A000000 		.4byte	.LVL218
 4624 0ebf E9010000 		.4byte	0x1e9
 4625 0ec3 CE0E0000 		.4byte	0xece
 4626 0ec7 21       		.uleb128 0x21
 4627 0ec8 01       		.uleb128 0x1
 4628 0ec9 50       		.byte	0x50
 4629 0eca 02       		.uleb128 0x2
 4630 0ecb 74       		.byte	0x74
 4631 0ecc 00       		.sleb128 0
 4632 0ecd 00       		.byte	0
 4633 0ece 20       		.uleb128 0x20
 4634 0ecf 18000000 		.4byte	.LVL219
 4635 0ed3 E9010000 		.4byte	0x1e9
 4636 0ed7 E20E0000 		.4byte	0xee2
 4637 0edb 21       		.uleb128 0x21
 4638 0edc 01       		.uleb128 0x1
 4639 0edd 50       		.byte	0x50
 4640 0ede 02       		.uleb128 0x2
 4641 0edf 74       		.byte	0x74
 4642 0ee0 00       		.sleb128 0
ARM GAS  C:\Users\user\AppData\Local\Temp\ccsPNKJ0.s 			page 158


 4643 0ee1 00       		.byte	0
 4644 0ee2 24       		.uleb128 0x24
 4645 0ee3 22000000 		.4byte	.LVL220
 4646 0ee7 4B0D0000 		.4byte	0xd4b
 4647 0eeb 24       		.uleb128 0x24
 4648 0eec 2E000000 		.4byte	.LVL222
 4649 0ef0 E9010000 		.4byte	0x1e9
 4650 0ef4 20       		.uleb128 0x20
 4651 0ef5 38000000 		.4byte	.LVL223
 4652 0ef9 E9010000 		.4byte	0x1e9
 4653 0efd 080F0000 		.4byte	0xf08
 4654 0f01 21       		.uleb128 0x21
 4655 0f02 01       		.uleb128 0x1
 4656 0f03 50       		.byte	0x50
 4657 0f04 02       		.uleb128 0x2
 4658 0f05 74       		.byte	0x74
 4659 0f06 00       		.sleb128 0
 4660 0f07 00       		.byte	0
 4661 0f08 20       		.uleb128 0x20
 4662 0f09 44000000 		.4byte	.LVL224
 4663 0f0d 4B0D0000 		.4byte	0xd4b
 4664 0f11 1D0F0000 		.4byte	0xf1d
 4665 0f15 21       		.uleb128 0x21
 4666 0f16 01       		.uleb128 0x1
 4667 0f17 50       		.byte	0x50
 4668 0f18 03       		.uleb128 0x3
 4669 0f19 0A       		.byte	0xa
 4670 0f1a 0008     		.2byte	0x800
 4671 0f1c 00       		.byte	0
 4672 0f1d 24       		.uleb128 0x24
 4673 0f1e 4C000000 		.4byte	.LVL225
 4674 0f22 C50C0000 		.4byte	0xcc5
 4675 0f26 00       		.byte	0
 4676 0f27 27       		.uleb128 0x27
 4677 0f28 25020000 		.4byte	0x225
 4678 0f2c 00000000 		.4byte	.LFB47
 4679 0f30 64000000 		.4byte	.LFE47-.LFB47
 4680 0f34 01       		.uleb128 0x1
 4681 0f35 9C       		.byte	0x9c
 4682 0f36 E90F0000 		.4byte	0xfe9
 4683 0f3a 1A       		.uleb128 0x1a
 4684 0f3b 32020000 		.4byte	0x232
 4685 0f3f 6A0B0000 		.4byte	.LLST76
 4686 0f43 1A       		.uleb128 0x1a
 4687 0f44 3E020000 		.4byte	0x23e
 4688 0f48 960B0000 		.4byte	.LLST77
 4689 0f4c 1A       		.uleb128 0x1a
 4690 0f4d 4A020000 		.4byte	0x24a
 4691 0f51 B70B0000 		.4byte	.LLST78
 4692 0f55 1E       		.uleb128 0x1e
 4693 0f56 56020000 		.4byte	0x256
 4694 0f5a E30B0000 		.4byte	.LLST79
 4695 0f5e 28       		.uleb128 0x28
 4696 0f5f 34000000 		.4byte	.LBB144
 4697 0f63 1E000000 		.4byte	.LBE144-.LBB144
 4698 0f67 B00F0000 		.4byte	0xfb0
 4699 0f6b 1A       		.uleb128 0x1a
ARM GAS  C:\Users\user\AppData\Local\Temp\ccsPNKJ0.s 			page 159


 4700 0f6c 3E020000 		.4byte	0x23e
 4701 0f70 010C0000 		.4byte	.LLST80
 4702 0f74 1A       		.uleb128 0x1a
 4703 0f75 4A020000 		.4byte	0x24a
 4704 0f79 140C0000 		.4byte	.LLST81
 4705 0f7d 1A       		.uleb128 0x1a
 4706 0f7e 32020000 		.4byte	0x232
 4707 0f82 270C0000 		.4byte	.LLST82
 4708 0f86 1D       		.uleb128 0x1d
 4709 0f87 34000000 		.4byte	.LBB145
 4710 0f8b 1E000000 		.4byte	.LBE145-.LBB145
 4711 0f8f 1E       		.uleb128 0x1e
 4712 0f90 56020000 		.4byte	0x256
 4713 0f94 3A0C0000 		.4byte	.LLST83
 4714 0f98 22       		.uleb128 0x22
 4715 0f99 42000000 		.4byte	.LVL234
 4716 0f9d FC080000 		.4byte	0x8fc
 4717 0fa1 21       		.uleb128 0x21
 4718 0fa2 01       		.uleb128 0x1
 4719 0fa3 50       		.byte	0x50
 4720 0fa4 02       		.uleb128 0x2
 4721 0fa5 74       		.byte	0x74
 4722 0fa6 00       		.sleb128 0
 4723 0fa7 21       		.uleb128 0x21
 4724 0fa8 01       		.uleb128 0x1
 4725 0fa9 51       		.byte	0x51
 4726 0faa 02       		.uleb128 0x2
 4727 0fab 75       		.byte	0x75
 4728 0fac 00       		.sleb128 0
 4729 0fad 00       		.byte	0
 4730 0fae 00       		.byte	0
 4731 0faf 00       		.byte	0
 4732 0fb0 20       		.uleb128 0x20
 4733 0fb1 10000000 		.4byte	.LVL228
 4734 0fb5 06070000 		.4byte	0x706
 4735 0fb9 C40F0000 		.4byte	0xfc4
 4736 0fbd 21       		.uleb128 0x21
 4737 0fbe 01       		.uleb128 0x1
 4738 0fbf 50       		.byte	0x50
 4739 0fc0 02       		.uleb128 0x2
 4740 0fc1 74       		.byte	0x74
 4741 0fc2 00       		.sleb128 0
 4742 0fc3 00       		.byte	0
 4743 0fc4 20       		.uleb128 0x20
 4744 0fc5 24000000 		.4byte	.LVL229
 4745 0fc9 E3090000 		.4byte	0x9e3
 4746 0fcd D80F0000 		.4byte	0xfd8
 4747 0fd1 21       		.uleb128 0x21
 4748 0fd2 01       		.uleb128 0x1
 4749 0fd3 50       		.byte	0x50
 4750 0fd4 02       		.uleb128 0x2
 4751 0fd5 74       		.byte	0x74
 4752 0fd6 00       		.sleb128 0
 4753 0fd7 00       		.byte	0
 4754 0fd8 22       		.uleb128 0x22
 4755 0fd9 2E000000 		.4byte	.LVL231
 4756 0fdd E3090000 		.4byte	0x9e3
ARM GAS  C:\Users\user\AppData\Local\Temp\ccsPNKJ0.s 			page 160


 4757 0fe1 21       		.uleb128 0x21
 4758 0fe2 01       		.uleb128 0x1
 4759 0fe3 50       		.byte	0x50
 4760 0fe4 02       		.uleb128 0x2
 4761 0fe5 74       		.byte	0x74
 4762 0fe6 00       		.sleb128 0
 4763 0fe7 00       		.byte	0
 4764 0fe8 00       		.byte	0
 4765 0fe9 23       		.uleb128 0x23
 4766 0fea 86060000 		.4byte	.LASF109
 4767 0fee 02       		.byte	0x2
 4768 0fef D70B     		.2byte	0xbd7
 4769 0ff1 00000000 		.4byte	.LFB46
 4770 0ff5 34000000 		.4byte	.LFE46-.LFB46
 4771 0ff9 01       		.uleb128 0x1
 4772 0ffa 9C       		.byte	0x9c
 4773 0ffb 8E100000 		.4byte	0x108e
 4774 0fff 16       		.uleb128 0x16
 4775 1000 7B000000 		.4byte	.LASF30
 4776 1004 02       		.byte	0x2
 4777 1005 D70B     		.2byte	0xbd7
 4778 1007 83000000 		.4byte	0x83
 4779 100b 4D0C0000 		.4byte	.LLST84
 4780 100f 16       		.uleb128 0x16
 4781 1010 0C070000 		.4byte	.LASF41
 4782 1014 02       		.byte	0x2
 4783 1015 D70B     		.2byte	0xbd7
 4784 1017 F2000000 		.4byte	0xf2
 4785 101b 790C0000 		.4byte	.LLST85
 4786 101f 16       		.uleb128 0x16
 4787 1020 E9060000 		.4byte	.LASF110
 4788 1024 02       		.byte	0x2
 4789 1025 D70B     		.2byte	0xbd7
 4790 1027 83000000 		.4byte	0x83
 4791 102b 9A0C0000 		.4byte	.LLST86
 4792 102f 17       		.uleb128 0x17
 4793 1030 11020000 		.4byte	.LASF81
 4794 1034 02       		.byte	0x2
 4795 1035 D90B     		.2byte	0xbd9
 4796 1037 83000000 		.4byte	0x83
 4797 103b C60C0000 		.4byte	.LLST87
 4798 103f 17       		.uleb128 0x17
 4799 1040 AF030000 		.4byte	.LASF111
 4800 1044 02       		.byte	0x2
 4801 1045 DA0B     		.2byte	0xbda
 4802 1047 83000000 		.4byte	0x83
 4803 104b D90C0000 		.4byte	.LLST88
 4804 104f 20       		.uleb128 0x20
 4805 1050 10000000 		.4byte	.LVL239
 4806 1054 06070000 		.4byte	0x706
 4807 1058 63100000 		.4byte	0x1063
 4808 105c 21       		.uleb128 0x21
 4809 105d 01       		.uleb128 0x1
 4810 105e 50       		.byte	0x50
 4811 105f 02       		.uleb128 0x2
 4812 1060 74       		.byte	0x74
 4813 1061 00       		.sleb128 0
ARM GAS  C:\Users\user\AppData\Local\Temp\ccsPNKJ0.s 			page 161


 4814 1062 00       		.byte	0
 4815 1063 20       		.uleb128 0x20
 4816 1064 20000000 		.4byte	.LVL240
 4817 1068 E3090000 		.4byte	0x9e3
 4818 106c 77100000 		.4byte	0x1077
 4819 1070 21       		.uleb128 0x21
 4820 1071 01       		.uleb128 0x1
 4821 1072 50       		.byte	0x50
 4822 1073 02       		.uleb128 0x2
 4823 1074 74       		.byte	0x74
 4824 1075 00       		.sleb128 0
 4825 1076 00       		.byte	0
 4826 1077 22       		.uleb128 0x22
 4827 1078 2C000000 		.4byte	.LVL242
 4828 107c 25020000 		.4byte	0x225
 4829 1080 21       		.uleb128 0x21
 4830 1081 01       		.uleb128 0x1
 4831 1082 50       		.byte	0x50
 4832 1083 02       		.uleb128 0x2
 4833 1084 74       		.byte	0x74
 4834 1085 00       		.sleb128 0
 4835 1086 21       		.uleb128 0x21
 4836 1087 01       		.uleb128 0x1
 4837 1088 51       		.byte	0x51
 4838 1089 02       		.uleb128 0x2
 4839 108a 75       		.byte	0x75
 4840 108b 00       		.sleb128 0
 4841 108c 00       		.byte	0
 4842 108d 00       		.byte	0
 4843 108e 14       		.uleb128 0x14
 4844 108f B4040000 		.4byte	.LASF112
 4845 1093 02       		.byte	0x2
 4846 1094 1D       		.byte	0x1d
 4847 1095 BC000000 		.4byte	0xbc
 4848 1099 05       		.uleb128 0x5
 4849 109a 03       		.byte	0x3
 4850 109b 00000000 		.4byte	defaultIloTrimRegValue
 4851 109f 14       		.uleb128 0x14
 4852 10a0 E6000000 		.4byte	.LASF113
 4853 10a4 02       		.byte	0x2
 4854 10a5 22       		.byte	0x22
 4855 10a6 83000000 		.4byte	0x83
 4856 10aa 05       		.uleb128 0x5
 4857 10ab 03       		.byte	0x3
 4858 10ac 0C000000 		.4byte	lfclkPosedgeWdtCounter0Enabled
 4859 10b0 14       		.uleb128 0x14
 4860 10b1 FB080000 		.4byte	.LASF114
 4861 10b5 02       		.byte	0x2
 4862 10b6 23       		.byte	0x23
 4863 10b7 83000000 		.4byte	0x83
 4864 10bb 05       		.uleb128 0x5
 4865 10bc 03       		.byte	0x3
 4866 10bd 10000000 		.4byte	lfclkPosedgeWdtCounter0Mode
 4867 10c1 14       		.uleb128 0x14
 4868 10c2 F3070000 		.4byte	.LASF115
 4869 10c6 02       		.byte	0x2
 4870 10c7 25       		.byte	0x25
ARM GAS  C:\Users\user\AppData\Local\Temp\ccsPNKJ0.s 			page 162


 4871 10c8 CD000000 		.4byte	0xcd
 4872 10cc 05       		.uleb128 0x5
 4873 10cd 03       		.byte	0x3
 4874 10ce 24000000 		.4byte	disableServicedIsr
 4875 10d2 14       		.uleb128 0x14
 4876 10d3 EB020000 		.4byte	.LASF116
 4877 10d7 02       		.byte	0x2
 4878 10d8 26       		.byte	0x26
 4879 10d9 CD000000 		.4byte	0xcd
 4880 10dd 05       		.uleb128 0x5
 4881 10de 03       		.byte	0x3
 4882 10df 04000000 		.4byte	wdtIsrMask
 4883 10e3 38       		.uleb128 0x38
 4884 10e4 F3100000 		.4byte	0x10f3
 4885 10e8 F3100000 		.4byte	0x10f3
 4886 10ec 39       		.uleb128 0x39
 4887 10ed 0F010000 		.4byte	0x10f
 4888 10f1 02       		.byte	0x2
 4889 10f2 00       		.byte	0
 4890 10f3 3A       		.uleb128 0x3a
 4891 10f4 83000000 		.4byte	0x83
 4892 10f8 14       		.uleb128 0x14
 4893 10f9 29000000 		.4byte	.LASF117
 4894 10fd 02       		.byte	0x2
 4895 10fe 2A       		.byte	0x2a
 4896 10ff 09110000 		.4byte	0x1109
 4897 1103 05       		.uleb128 0x5
 4898 1104 03       		.byte	0x3
 4899 1105 00000000 		.4byte	counterIntMaskTbl
 4900 1109 3A       		.uleb128 0x3a
 4901 110a E3100000 		.4byte	0x10e3
 4902 110e 38       		.uleb128 0x38
 4903 110f FD000000 		.4byte	0xfd
 4904 1113 1E110000 		.4byte	0x111e
 4905 1117 39       		.uleb128 0x39
 4906 1118 0F010000 		.4byte	0x10f
 4907 111c 02       		.byte	0x2
 4908 111d 00       		.byte	0
 4909 111e 14       		.uleb128 0x14
 4910 111f 3B000000 		.4byte	.LASF118
 4911 1123 02       		.byte	0x2
 4912 1124 44       		.byte	0x44
 4913 1125 0E110000 		.4byte	0x110e
 4914 1129 05       		.uleb128 0x5
 4915 112a 03       		.byte	0x3
 4916 112b 18000000 		.4byte	cySysWdtCallback
 4917 112f 3B       		.uleb128 0x3b
 4918 1130 17060000 		.4byte	.LASF128
 4919 1134 04       		.byte	0x4
 4920 1135 E7       		.byte	0xe7
 4921 1136 83000000 		.4byte	0x83
 4922 113a 3C       		.uleb128 0x3c
 4923 113b CB040000 		.4byte	.LASF119
 4924 113f CB040000 		.4byte	.LASF119
 4925 1143 04       		.byte	0x4
 4926 1144 F8       		.byte	0xf8
 4927 1145 3C       		.uleb128 0x3c
ARM GAS  C:\Users\user\AppData\Local\Temp\ccsPNKJ0.s 			page 163


 4928 1146 07000000 		.4byte	.LASF120
 4929 114a 07000000 		.4byte	.LASF120
 4930 114e 04       		.byte	0x4
 4931 114f F9       		.byte	0xf9
 4932 1150 3C       		.uleb128 0x3c
 4933 1151 CC010000 		.4byte	.LASF121
 4934 1155 CC010000 		.4byte	.LASF121
 4935 1159 04       		.byte	0x4
 4936 115a ED       		.byte	0xed
 4937 115b 00       		.byte	0
 4938              		.section	.debug_abbrev,"",%progbits
 4939              	.Ldebug_abbrev0:
 4940 0000 01       		.uleb128 0x1
 4941 0001 11       		.uleb128 0x11
 4942 0002 01       		.byte	0x1
 4943 0003 25       		.uleb128 0x25
 4944 0004 0E       		.uleb128 0xe
 4945 0005 13       		.uleb128 0x13
 4946 0006 0B       		.uleb128 0xb
 4947 0007 03       		.uleb128 0x3
 4948 0008 0E       		.uleb128 0xe
 4949 0009 1B       		.uleb128 0x1b
 4950 000a 0E       		.uleb128 0xe
 4951 000b 55       		.uleb128 0x55
 4952 000c 17       		.uleb128 0x17
 4953 000d 11       		.uleb128 0x11
 4954 000e 01       		.uleb128 0x1
 4955 000f 10       		.uleb128 0x10
 4956 0010 17       		.uleb128 0x17
 4957 0011 00       		.byte	0
 4958 0012 00       		.byte	0
 4959 0013 02       		.uleb128 0x2
 4960 0014 24       		.uleb128 0x24
 4961 0015 00       		.byte	0
 4962 0016 0B       		.uleb128 0xb
 4963 0017 0B       		.uleb128 0xb
 4964 0018 3E       		.uleb128 0x3e
 4965 0019 0B       		.uleb128 0xb
 4966 001a 03       		.uleb128 0x3
 4967 001b 0E       		.uleb128 0xe
 4968 001c 00       		.byte	0
 4969 001d 00       		.byte	0
 4970 001e 03       		.uleb128 0x3
 4971 001f 24       		.uleb128 0x24
 4972 0020 00       		.byte	0
 4973 0021 0B       		.uleb128 0xb
 4974 0022 0B       		.uleb128 0xb
 4975 0023 3E       		.uleb128 0x3e
 4976 0024 0B       		.uleb128 0xb
 4977 0025 03       		.uleb128 0x3
 4978 0026 08       		.uleb128 0x8
 4979 0027 00       		.byte	0
 4980 0028 00       		.byte	0
 4981 0029 04       		.uleb128 0x4
 4982 002a 16       		.uleb128 0x16
 4983 002b 00       		.byte	0
 4984 002c 03       		.uleb128 0x3
ARM GAS  C:\Users\user\AppData\Local\Temp\ccsPNKJ0.s 			page 164


 4985 002d 0E       		.uleb128 0xe
 4986 002e 3A       		.uleb128 0x3a
 4987 002f 0B       		.uleb128 0xb
 4988 0030 3B       		.uleb128 0x3b
 4989 0031 05       		.uleb128 0x5
 4990 0032 49       		.uleb128 0x49
 4991 0033 13       		.uleb128 0x13
 4992 0034 00       		.byte	0
 4993 0035 00       		.byte	0
 4994 0036 05       		.uleb128 0x5
 4995 0037 35       		.uleb128 0x35
 4996 0038 00       		.byte	0
 4997 0039 49       		.uleb128 0x49
 4998 003a 13       		.uleb128 0x13
 4999 003b 00       		.byte	0
 5000 003c 00       		.byte	0
 5001 003d 06       		.uleb128 0x6
 5002 003e 0F       		.uleb128 0xf
 5003 003f 00       		.byte	0
 5004 0040 0B       		.uleb128 0xb
 5005 0041 0B       		.uleb128 0xb
 5006 0042 49       		.uleb128 0x49
 5007 0043 13       		.uleb128 0x13
 5008 0044 00       		.byte	0
 5009 0045 00       		.byte	0
 5010 0046 07       		.uleb128 0x7
 5011 0047 15       		.uleb128 0x15
 5012 0048 00       		.byte	0
 5013 0049 27       		.uleb128 0x27
 5014 004a 19       		.uleb128 0x19
 5015 004b 00       		.byte	0
 5016 004c 00       		.byte	0
 5017 004d 08       		.uleb128 0x8
 5018 004e 04       		.uleb128 0x4
 5019 004f 01       		.byte	0x1
 5020 0050 0B       		.uleb128 0xb
 5021 0051 0B       		.uleb128 0xb
 5022 0052 49       		.uleb128 0x49
 5023 0053 13       		.uleb128 0x13
 5024 0054 3A       		.uleb128 0x3a
 5025 0055 0B       		.uleb128 0xb
 5026 0056 3B       		.uleb128 0x3b
 5027 0057 0B       		.uleb128 0xb
 5028 0058 01       		.uleb128 0x1
 5029 0059 13       		.uleb128 0x13
 5030 005a 00       		.byte	0
 5031 005b 00       		.byte	0
 5032 005c 09       		.uleb128 0x9
 5033 005d 28       		.uleb128 0x28
 5034 005e 00       		.byte	0
 5035 005f 03       		.uleb128 0x3
 5036 0060 0E       		.uleb128 0xe
 5037 0061 1C       		.uleb128 0x1c
 5038 0062 0B       		.uleb128 0xb
 5039 0063 00       		.byte	0
 5040 0064 00       		.byte	0
 5041 0065 0A       		.uleb128 0xa
ARM GAS  C:\Users\user\AppData\Local\Temp\ccsPNKJ0.s 			page 165


 5042 0066 16       		.uleb128 0x16
 5043 0067 00       		.byte	0
 5044 0068 03       		.uleb128 0x3
 5045 0069 0E       		.uleb128 0xe
 5046 006a 3A       		.uleb128 0x3a
 5047 006b 0B       		.uleb128 0xb
 5048 006c 3B       		.uleb128 0x3b
 5049 006d 0B       		.uleb128 0xb
 5050 006e 49       		.uleb128 0x49
 5051 006f 13       		.uleb128 0x13
 5052 0070 00       		.byte	0
 5053 0071 00       		.byte	0
 5054 0072 0B       		.uleb128 0xb
 5055 0073 2E       		.uleb128 0x2e
 5056 0074 01       		.byte	0x1
 5057 0075 3F       		.uleb128 0x3f
 5058 0076 19       		.uleb128 0x19
 5059 0077 03       		.uleb128 0x3
 5060 0078 0E       		.uleb128 0xe
 5061 0079 3A       		.uleb128 0x3a
 5062 007a 0B       		.uleb128 0xb
 5063 007b 3B       		.uleb128 0x3b
 5064 007c 05       		.uleb128 0x5
 5065 007d 27       		.uleb128 0x27
 5066 007e 19       		.uleb128 0x19
 5067 007f 49       		.uleb128 0x49
 5068 0080 13       		.uleb128 0x13
 5069 0081 20       		.uleb128 0x20
 5070 0082 0B       		.uleb128 0xb
 5071 0083 01       		.uleb128 0x1
 5072 0084 13       		.uleb128 0x13
 5073 0085 00       		.byte	0
 5074 0086 00       		.byte	0
 5075 0087 0C       		.uleb128 0xc
 5076 0088 05       		.uleb128 0x5
 5077 0089 00       		.byte	0
 5078 008a 03       		.uleb128 0x3
 5079 008b 0E       		.uleb128 0xe
 5080 008c 3A       		.uleb128 0x3a
 5081 008d 0B       		.uleb128 0xb
 5082 008e 3B       		.uleb128 0x3b
 5083 008f 05       		.uleb128 0x5
 5084 0090 49       		.uleb128 0x49
 5085 0091 13       		.uleb128 0x13
 5086 0092 00       		.byte	0
 5087 0093 00       		.byte	0
 5088 0094 0D       		.uleb128 0xd
 5089 0095 34       		.uleb128 0x34
 5090 0096 00       		.byte	0
 5091 0097 03       		.uleb128 0x3
 5092 0098 0E       		.uleb128 0xe
 5093 0099 3A       		.uleb128 0x3a
 5094 009a 0B       		.uleb128 0xb
 5095 009b 3B       		.uleb128 0x3b
 5096 009c 05       		.uleb128 0x5
 5097 009d 49       		.uleb128 0x49
 5098 009e 13       		.uleb128 0x13
ARM GAS  C:\Users\user\AppData\Local\Temp\ccsPNKJ0.s 			page 166


 5099 009f 00       		.byte	0
 5100 00a0 00       		.byte	0
 5101 00a1 0E       		.uleb128 0xe
 5102 00a2 2E       		.uleb128 0x2e
 5103 00a3 01       		.byte	0x1
 5104 00a4 3F       		.uleb128 0x3f
 5105 00a5 19       		.uleb128 0x19
 5106 00a6 03       		.uleb128 0x3
 5107 00a7 0E       		.uleb128 0xe
 5108 00a8 3A       		.uleb128 0x3a
 5109 00a9 0B       		.uleb128 0xb
 5110 00aa 3B       		.uleb128 0x3b
 5111 00ab 05       		.uleb128 0x5
 5112 00ac 27       		.uleb128 0x27
 5113 00ad 19       		.uleb128 0x19
 5114 00ae 20       		.uleb128 0x20
 5115 00af 0B       		.uleb128 0xb
 5116 00b0 01       		.uleb128 0x1
 5117 00b1 13       		.uleb128 0x13
 5118 00b2 00       		.byte	0
 5119 00b3 00       		.byte	0
 5120 00b4 0F       		.uleb128 0xf
 5121 00b5 2E       		.uleb128 0x2e
 5122 00b6 00       		.byte	0
 5123 00b7 03       		.uleb128 0x3
 5124 00b8 0E       		.uleb128 0xe
 5125 00b9 3A       		.uleb128 0x3a
 5126 00ba 0B       		.uleb128 0xb
 5127 00bb 3B       		.uleb128 0x3b
 5128 00bc 05       		.uleb128 0x5
 5129 00bd 27       		.uleb128 0x27
 5130 00be 19       		.uleb128 0x19
 5131 00bf 20       		.uleb128 0x20
 5132 00c0 0B       		.uleb128 0xb
 5133 00c1 00       		.byte	0
 5134 00c2 00       		.byte	0
 5135 00c3 10       		.uleb128 0x10
 5136 00c4 2E       		.uleb128 0x2e
 5137 00c5 01       		.byte	0x1
 5138 00c6 03       		.uleb128 0x3
 5139 00c7 0E       		.uleb128 0xe
 5140 00c8 3A       		.uleb128 0x3a
 5141 00c9 0B       		.uleb128 0xb
 5142 00ca 3B       		.uleb128 0x3b
 5143 00cb 05       		.uleb128 0x5
 5144 00cc 27       		.uleb128 0x27
 5145 00cd 19       		.uleb128 0x19
 5146 00ce 49       		.uleb128 0x49
 5147 00cf 13       		.uleb128 0x13
 5148 00d0 20       		.uleb128 0x20
 5149 00d1 0B       		.uleb128 0xb
 5150 00d2 01       		.uleb128 0x1
 5151 00d3 13       		.uleb128 0x13
 5152 00d4 00       		.byte	0
 5153 00d5 00       		.byte	0
 5154 00d6 11       		.uleb128 0x11
 5155 00d7 2E       		.uleb128 0x2e
ARM GAS  C:\Users\user\AppData\Local\Temp\ccsPNKJ0.s 			page 167


 5156 00d8 00       		.byte	0
 5157 00d9 03       		.uleb128 0x3
 5158 00da 0E       		.uleb128 0xe
 5159 00db 3A       		.uleb128 0x3a
 5160 00dc 0B       		.uleb128 0xb
 5161 00dd 3B       		.uleb128 0x3b
 5162 00de 05       		.uleb128 0x5
 5163 00df 27       		.uleb128 0x27
 5164 00e0 19       		.uleb128 0x19
 5165 00e1 11       		.uleb128 0x11
 5166 00e2 01       		.uleb128 0x1
 5167 00e3 12       		.uleb128 0x12
 5168 00e4 06       		.uleb128 0x6
 5169 00e5 40       		.uleb128 0x40
 5170 00e6 18       		.uleb128 0x18
 5171 00e7 9742     		.uleb128 0x2117
 5172 00e9 19       		.uleb128 0x19
 5173 00ea 00       		.byte	0
 5174 00eb 00       		.byte	0
 5175 00ec 12       		.uleb128 0x12
 5176 00ed 2E       		.uleb128 0x2e
 5177 00ee 00       		.byte	0
 5178 00ef 3F       		.uleb128 0x3f
 5179 00f0 19       		.uleb128 0x19
 5180 00f1 03       		.uleb128 0x3
 5181 00f2 0E       		.uleb128 0xe
 5182 00f3 3A       		.uleb128 0x3a
 5183 00f4 0B       		.uleb128 0xb
 5184 00f5 3B       		.uleb128 0x3b
 5185 00f6 0B       		.uleb128 0xb
 5186 00f7 27       		.uleb128 0x27
 5187 00f8 19       		.uleb128 0x19
 5188 00f9 11       		.uleb128 0x11
 5189 00fa 01       		.uleb128 0x1
 5190 00fb 12       		.uleb128 0x12
 5191 00fc 06       		.uleb128 0x6
 5192 00fd 40       		.uleb128 0x40
 5193 00fe 18       		.uleb128 0x18
 5194 00ff 9742     		.uleb128 0x2117
 5195 0101 19       		.uleb128 0x19
 5196 0102 00       		.byte	0
 5197 0103 00       		.byte	0
 5198 0104 13       		.uleb128 0x13
 5199 0105 2E       		.uleb128 0x2e
 5200 0106 01       		.byte	0x1
 5201 0107 3F       		.uleb128 0x3f
 5202 0108 19       		.uleb128 0x19
 5203 0109 03       		.uleb128 0x3
 5204 010a 0E       		.uleb128 0xe
 5205 010b 3A       		.uleb128 0x3a
 5206 010c 0B       		.uleb128 0xb
 5207 010d 3B       		.uleb128 0x3b
 5208 010e 0B       		.uleb128 0xb
 5209 010f 27       		.uleb128 0x27
 5210 0110 19       		.uleb128 0x19
 5211 0111 11       		.uleb128 0x11
 5212 0112 01       		.uleb128 0x1
ARM GAS  C:\Users\user\AppData\Local\Temp\ccsPNKJ0.s 			page 168


 5213 0113 12       		.uleb128 0x12
 5214 0114 06       		.uleb128 0x6
 5215 0115 40       		.uleb128 0x40
 5216 0116 18       		.uleb128 0x18
 5217 0117 9742     		.uleb128 0x2117
 5218 0119 19       		.uleb128 0x19
 5219 011a 01       		.uleb128 0x1
 5220 011b 13       		.uleb128 0x13
 5221 011c 00       		.byte	0
 5222 011d 00       		.byte	0
 5223 011e 14       		.uleb128 0x14
 5224 011f 34       		.uleb128 0x34
 5225 0120 00       		.byte	0
 5226 0121 03       		.uleb128 0x3
 5227 0122 0E       		.uleb128 0xe
 5228 0123 3A       		.uleb128 0x3a
 5229 0124 0B       		.uleb128 0xb
 5230 0125 3B       		.uleb128 0x3b
 5231 0126 0B       		.uleb128 0xb
 5232 0127 49       		.uleb128 0x49
 5233 0128 13       		.uleb128 0x13
 5234 0129 02       		.uleb128 0x2
 5235 012a 18       		.uleb128 0x18
 5236 012b 00       		.byte	0
 5237 012c 00       		.byte	0
 5238 012d 15       		.uleb128 0x15
 5239 012e 2E       		.uleb128 0x2e
 5240 012f 01       		.byte	0x1
 5241 0130 3F       		.uleb128 0x3f
 5242 0131 19       		.uleb128 0x19
 5243 0132 03       		.uleb128 0x3
 5244 0133 0E       		.uleb128 0xe
 5245 0134 3A       		.uleb128 0x3a
 5246 0135 0B       		.uleb128 0xb
 5247 0136 3B       		.uleb128 0x3b
 5248 0137 05       		.uleb128 0x5
 5249 0138 27       		.uleb128 0x27
 5250 0139 19       		.uleb128 0x19
 5251 013a 49       		.uleb128 0x49
 5252 013b 13       		.uleb128 0x13
 5253 013c 11       		.uleb128 0x11
 5254 013d 01       		.uleb128 0x1
 5255 013e 12       		.uleb128 0x12
 5256 013f 06       		.uleb128 0x6
 5257 0140 40       		.uleb128 0x40
 5258 0141 18       		.uleb128 0x18
 5259 0142 9642     		.uleb128 0x2116
 5260 0144 19       		.uleb128 0x19
 5261 0145 01       		.uleb128 0x1
 5262 0146 13       		.uleb128 0x13
 5263 0147 00       		.byte	0
 5264 0148 00       		.byte	0
 5265 0149 16       		.uleb128 0x16
 5266 014a 05       		.uleb128 0x5
 5267 014b 00       		.byte	0
 5268 014c 03       		.uleb128 0x3
 5269 014d 0E       		.uleb128 0xe
ARM GAS  C:\Users\user\AppData\Local\Temp\ccsPNKJ0.s 			page 169


 5270 014e 3A       		.uleb128 0x3a
 5271 014f 0B       		.uleb128 0xb
 5272 0150 3B       		.uleb128 0x3b
 5273 0151 05       		.uleb128 0x5
 5274 0152 49       		.uleb128 0x49
 5275 0153 13       		.uleb128 0x13
 5276 0154 02       		.uleb128 0x2
 5277 0155 17       		.uleb128 0x17
 5278 0156 00       		.byte	0
 5279 0157 00       		.byte	0
 5280 0158 17       		.uleb128 0x17
 5281 0159 34       		.uleb128 0x34
 5282 015a 00       		.byte	0
 5283 015b 03       		.uleb128 0x3
 5284 015c 0E       		.uleb128 0xe
 5285 015d 3A       		.uleb128 0x3a
 5286 015e 0B       		.uleb128 0xb
 5287 015f 3B       		.uleb128 0x3b
 5288 0160 05       		.uleb128 0x5
 5289 0161 49       		.uleb128 0x49
 5290 0162 13       		.uleb128 0x13
 5291 0163 02       		.uleb128 0x2
 5292 0164 17       		.uleb128 0x17
 5293 0165 00       		.byte	0
 5294 0166 00       		.byte	0
 5295 0167 18       		.uleb128 0x18
 5296 0168 34       		.uleb128 0x34
 5297 0169 00       		.byte	0
 5298 016a 03       		.uleb128 0x3
 5299 016b 0E       		.uleb128 0xe
 5300 016c 3A       		.uleb128 0x3a
 5301 016d 0B       		.uleb128 0xb
 5302 016e 3B       		.uleb128 0x3b
 5303 016f 05       		.uleb128 0x5
 5304 0170 49       		.uleb128 0x49
 5305 0171 13       		.uleb128 0x13
 5306 0172 02       		.uleb128 0x2
 5307 0173 18       		.uleb128 0x18
 5308 0174 00       		.byte	0
 5309 0175 00       		.byte	0
 5310 0176 19       		.uleb128 0x19
 5311 0177 2E       		.uleb128 0x2e
 5312 0178 01       		.byte	0x1
 5313 0179 31       		.uleb128 0x31
 5314 017a 13       		.uleb128 0x13
 5315 017b 11       		.uleb128 0x11
 5316 017c 01       		.uleb128 0x1
 5317 017d 12       		.uleb128 0x12
 5318 017e 06       		.uleb128 0x6
 5319 017f 40       		.uleb128 0x40
 5320 0180 18       		.uleb128 0x18
 5321 0181 9642     		.uleb128 0x2116
 5322 0183 19       		.uleb128 0x19
 5323 0184 01       		.uleb128 0x1
 5324 0185 13       		.uleb128 0x13
 5325 0186 00       		.byte	0
 5326 0187 00       		.byte	0
ARM GAS  C:\Users\user\AppData\Local\Temp\ccsPNKJ0.s 			page 170


 5327 0188 1A       		.uleb128 0x1a
 5328 0189 05       		.uleb128 0x5
 5329 018a 00       		.byte	0
 5330 018b 31       		.uleb128 0x31
 5331 018c 13       		.uleb128 0x13
 5332 018d 02       		.uleb128 0x2
 5333 018e 17       		.uleb128 0x17
 5334 018f 00       		.byte	0
 5335 0190 00       		.byte	0
 5336 0191 1B       		.uleb128 0x1b
 5337 0192 34       		.uleb128 0x34
 5338 0193 00       		.byte	0
 5339 0194 31       		.uleb128 0x31
 5340 0195 13       		.uleb128 0x13
 5341 0196 00       		.byte	0
 5342 0197 00       		.byte	0
 5343 0198 1C       		.uleb128 0x1c
 5344 0199 34       		.uleb128 0x34
 5345 019a 00       		.byte	0
 5346 019b 31       		.uleb128 0x31
 5347 019c 13       		.uleb128 0x13
 5348 019d 02       		.uleb128 0x2
 5349 019e 18       		.uleb128 0x18
 5350 019f 00       		.byte	0
 5351 01a0 00       		.byte	0
 5352 01a1 1D       		.uleb128 0x1d
 5353 01a2 0B       		.uleb128 0xb
 5354 01a3 01       		.byte	0x1
 5355 01a4 11       		.uleb128 0x11
 5356 01a5 01       		.uleb128 0x1
 5357 01a6 12       		.uleb128 0x12
 5358 01a7 06       		.uleb128 0x6
 5359 01a8 00       		.byte	0
 5360 01a9 00       		.byte	0
 5361 01aa 1E       		.uleb128 0x1e
 5362 01ab 34       		.uleb128 0x34
 5363 01ac 00       		.byte	0
 5364 01ad 31       		.uleb128 0x31
 5365 01ae 13       		.uleb128 0x13
 5366 01af 02       		.uleb128 0x2
 5367 01b0 17       		.uleb128 0x17
 5368 01b1 00       		.byte	0
 5369 01b2 00       		.byte	0
 5370 01b3 1F       		.uleb128 0x1f
 5371 01b4 2E       		.uleb128 0x2e
 5372 01b5 01       		.byte	0x1
 5373 01b6 3F       		.uleb128 0x3f
 5374 01b7 19       		.uleb128 0x19
 5375 01b8 03       		.uleb128 0x3
 5376 01b9 0E       		.uleb128 0xe
 5377 01ba 3A       		.uleb128 0x3a
 5378 01bb 0B       		.uleb128 0xb
 5379 01bc 3B       		.uleb128 0x3b
 5380 01bd 05       		.uleb128 0x5
 5381 01be 27       		.uleb128 0x27
 5382 01bf 19       		.uleb128 0x19
 5383 01c0 49       		.uleb128 0x49
ARM GAS  C:\Users\user\AppData\Local\Temp\ccsPNKJ0.s 			page 171


 5384 01c1 13       		.uleb128 0x13
 5385 01c2 11       		.uleb128 0x11
 5386 01c3 01       		.uleb128 0x1
 5387 01c4 12       		.uleb128 0x12
 5388 01c5 06       		.uleb128 0x6
 5389 01c6 40       		.uleb128 0x40
 5390 01c7 18       		.uleb128 0x18
 5391 01c8 9742     		.uleb128 0x2117
 5392 01ca 19       		.uleb128 0x19
 5393 01cb 01       		.uleb128 0x1
 5394 01cc 13       		.uleb128 0x13
 5395 01cd 00       		.byte	0
 5396 01ce 00       		.byte	0
 5397 01cf 20       		.uleb128 0x20
 5398 01d0 898201   		.uleb128 0x4109
 5399 01d3 01       		.byte	0x1
 5400 01d4 11       		.uleb128 0x11
 5401 01d5 01       		.uleb128 0x1
 5402 01d6 31       		.uleb128 0x31
 5403 01d7 13       		.uleb128 0x13
 5404 01d8 01       		.uleb128 0x1
 5405 01d9 13       		.uleb128 0x13
 5406 01da 00       		.byte	0
 5407 01db 00       		.byte	0
 5408 01dc 21       		.uleb128 0x21
 5409 01dd 8A8201   		.uleb128 0x410a
 5410 01e0 00       		.byte	0
 5411 01e1 02       		.uleb128 0x2
 5412 01e2 18       		.uleb128 0x18
 5413 01e3 9142     		.uleb128 0x2111
 5414 01e5 18       		.uleb128 0x18
 5415 01e6 00       		.byte	0
 5416 01e7 00       		.byte	0
 5417 01e8 22       		.uleb128 0x22
 5418 01e9 898201   		.uleb128 0x4109
 5419 01ec 01       		.byte	0x1
 5420 01ed 11       		.uleb128 0x11
 5421 01ee 01       		.uleb128 0x1
 5422 01ef 31       		.uleb128 0x31
 5423 01f0 13       		.uleb128 0x13
 5424 01f1 00       		.byte	0
 5425 01f2 00       		.byte	0
 5426 01f3 23       		.uleb128 0x23
 5427 01f4 2E       		.uleb128 0x2e
 5428 01f5 01       		.byte	0x1
 5429 01f6 3F       		.uleb128 0x3f
 5430 01f7 19       		.uleb128 0x19
 5431 01f8 03       		.uleb128 0x3
 5432 01f9 0E       		.uleb128 0xe
 5433 01fa 3A       		.uleb128 0x3a
 5434 01fb 0B       		.uleb128 0xb
 5435 01fc 3B       		.uleb128 0x3b
 5436 01fd 05       		.uleb128 0x5
 5437 01fe 27       		.uleb128 0x27
 5438 01ff 19       		.uleb128 0x19
 5439 0200 11       		.uleb128 0x11
 5440 0201 01       		.uleb128 0x1
ARM GAS  C:\Users\user\AppData\Local\Temp\ccsPNKJ0.s 			page 172


 5441 0202 12       		.uleb128 0x12
 5442 0203 06       		.uleb128 0x6
 5443 0204 40       		.uleb128 0x40
 5444 0205 18       		.uleb128 0x18
 5445 0206 9742     		.uleb128 0x2117
 5446 0208 19       		.uleb128 0x19
 5447 0209 01       		.uleb128 0x1
 5448 020a 13       		.uleb128 0x13
 5449 020b 00       		.byte	0
 5450 020c 00       		.byte	0
 5451 020d 24       		.uleb128 0x24
 5452 020e 898201   		.uleb128 0x4109
 5453 0211 00       		.byte	0
 5454 0212 11       		.uleb128 0x11
 5455 0213 01       		.uleb128 0x1
 5456 0214 31       		.uleb128 0x31
 5457 0215 13       		.uleb128 0x13
 5458 0216 00       		.byte	0
 5459 0217 00       		.byte	0
 5460 0218 25       		.uleb128 0x25
 5461 0219 2E       		.uleb128 0x2e
 5462 021a 00       		.byte	0
 5463 021b 3F       		.uleb128 0x3f
 5464 021c 19       		.uleb128 0x19
 5465 021d 03       		.uleb128 0x3
 5466 021e 0E       		.uleb128 0xe
 5467 021f 3A       		.uleb128 0x3a
 5468 0220 0B       		.uleb128 0xb
 5469 0221 3B       		.uleb128 0x3b
 5470 0222 05       		.uleb128 0x5
 5471 0223 27       		.uleb128 0x27
 5472 0224 19       		.uleb128 0x19
 5473 0225 49       		.uleb128 0x49
 5474 0226 13       		.uleb128 0x13
 5475 0227 11       		.uleb128 0x11
 5476 0228 01       		.uleb128 0x1
 5477 0229 12       		.uleb128 0x12
 5478 022a 06       		.uleb128 0x6
 5479 022b 40       		.uleb128 0x40
 5480 022c 18       		.uleb128 0x18
 5481 022d 9742     		.uleb128 0x2117
 5482 022f 19       		.uleb128 0x19
 5483 0230 00       		.byte	0
 5484 0231 00       		.byte	0
 5485 0232 26       		.uleb128 0x26
 5486 0233 1D       		.uleb128 0x1d
 5487 0234 00       		.byte	0
 5488 0235 31       		.uleb128 0x31
 5489 0236 13       		.uleb128 0x13
 5490 0237 11       		.uleb128 0x11
 5491 0238 01       		.uleb128 0x1
 5492 0239 12       		.uleb128 0x12
 5493 023a 06       		.uleb128 0x6
 5494 023b 58       		.uleb128 0x58
 5495 023c 0B       		.uleb128 0xb
 5496 023d 59       		.uleb128 0x59
 5497 023e 05       		.uleb128 0x5
ARM GAS  C:\Users\user\AppData\Local\Temp\ccsPNKJ0.s 			page 173


 5498 023f 00       		.byte	0
 5499 0240 00       		.byte	0
 5500 0241 27       		.uleb128 0x27
 5501 0242 2E       		.uleb128 0x2e
 5502 0243 01       		.byte	0x1
 5503 0244 31       		.uleb128 0x31
 5504 0245 13       		.uleb128 0x13
 5505 0246 11       		.uleb128 0x11
 5506 0247 01       		.uleb128 0x1
 5507 0248 12       		.uleb128 0x12
 5508 0249 06       		.uleb128 0x6
 5509 024a 40       		.uleb128 0x40
 5510 024b 18       		.uleb128 0x18
 5511 024c 9742     		.uleb128 0x2117
 5512 024e 19       		.uleb128 0x19
 5513 024f 01       		.uleb128 0x1
 5514 0250 13       		.uleb128 0x13
 5515 0251 00       		.byte	0
 5516 0252 00       		.byte	0
 5517 0253 28       		.uleb128 0x28
 5518 0254 0B       		.uleb128 0xb
 5519 0255 01       		.byte	0x1
 5520 0256 11       		.uleb128 0x11
 5521 0257 01       		.uleb128 0x1
 5522 0258 12       		.uleb128 0x12
 5523 0259 06       		.uleb128 0x6
 5524 025a 01       		.uleb128 0x1
 5525 025b 13       		.uleb128 0x13
 5526 025c 00       		.byte	0
 5527 025d 00       		.byte	0
 5528 025e 29       		.uleb128 0x29
 5529 025f 05       		.uleb128 0x5
 5530 0260 00       		.byte	0
 5531 0261 31       		.uleb128 0x31
 5532 0262 13       		.uleb128 0x13
 5533 0263 02       		.uleb128 0x2
 5534 0264 18       		.uleb128 0x18
 5535 0265 00       		.byte	0
 5536 0266 00       		.byte	0
 5537 0267 2A       		.uleb128 0x2a
 5538 0268 1D       		.uleb128 0x1d
 5539 0269 01       		.byte	0x1
 5540 026a 31       		.uleb128 0x31
 5541 026b 13       		.uleb128 0x13
 5542 026c 11       		.uleb128 0x11
 5543 026d 01       		.uleb128 0x1
 5544 026e 12       		.uleb128 0x12
 5545 026f 06       		.uleb128 0x6
 5546 0270 58       		.uleb128 0x58
 5547 0271 0B       		.uleb128 0xb
 5548 0272 59       		.uleb128 0x59
 5549 0273 05       		.uleb128 0x5
 5550 0274 01       		.uleb128 0x1
 5551 0275 13       		.uleb128 0x13
 5552 0276 00       		.byte	0
 5553 0277 00       		.byte	0
 5554 0278 2B       		.uleb128 0x2b
ARM GAS  C:\Users\user\AppData\Local\Temp\ccsPNKJ0.s 			page 174


 5555 0279 05       		.uleb128 0x5
 5556 027a 00       		.byte	0
 5557 027b 31       		.uleb128 0x31
 5558 027c 13       		.uleb128 0x13
 5559 027d 00       		.byte	0
 5560 027e 00       		.byte	0
 5561 027f 2C       		.uleb128 0x2c
 5562 0280 1D       		.uleb128 0x1d
 5563 0281 01       		.byte	0x1
 5564 0282 31       		.uleb128 0x31
 5565 0283 13       		.uleb128 0x13
 5566 0284 11       		.uleb128 0x11
 5567 0285 01       		.uleb128 0x1
 5568 0286 12       		.uleb128 0x12
 5569 0287 06       		.uleb128 0x6
 5570 0288 58       		.uleb128 0x58
 5571 0289 0B       		.uleb128 0xb
 5572 028a 59       		.uleb128 0x59
 5573 028b 05       		.uleb128 0x5
 5574 028c 00       		.byte	0
 5575 028d 00       		.byte	0
 5576 028e 2D       		.uleb128 0x2d
 5577 028f 2E       		.uleb128 0x2e
 5578 0290 00       		.byte	0
 5579 0291 03       		.uleb128 0x3
 5580 0292 0E       		.uleb128 0xe
 5581 0293 3A       		.uleb128 0x3a
 5582 0294 0B       		.uleb128 0xb
 5583 0295 3B       		.uleb128 0x3b
 5584 0296 05       		.uleb128 0x5
 5585 0297 27       		.uleb128 0x27
 5586 0298 19       		.uleb128 0x19
 5587 0299 49       		.uleb128 0x49
 5588 029a 13       		.uleb128 0x13
 5589 029b 20       		.uleb128 0x20
 5590 029c 0B       		.uleb128 0xb
 5591 029d 00       		.byte	0
 5592 029e 00       		.byte	0
 5593 029f 2E       		.uleb128 0x2e
 5594 02a0 05       		.uleb128 0x5
 5595 02a1 00       		.byte	0
 5596 02a2 03       		.uleb128 0x3
 5597 02a3 0E       		.uleb128 0xe
 5598 02a4 3A       		.uleb128 0x3a
 5599 02a5 0B       		.uleb128 0xb
 5600 02a6 3B       		.uleb128 0x3b
 5601 02a7 05       		.uleb128 0x5
 5602 02a8 49       		.uleb128 0x49
 5603 02a9 13       		.uleb128 0x13
 5604 02aa 02       		.uleb128 0x2
 5605 02ab 18       		.uleb128 0x18
 5606 02ac 00       		.byte	0
 5607 02ad 00       		.byte	0
 5608 02ae 2F       		.uleb128 0x2f
 5609 02af 1D       		.uleb128 0x1d
 5610 02b0 01       		.byte	0x1
 5611 02b1 31       		.uleb128 0x31
ARM GAS  C:\Users\user\AppData\Local\Temp\ccsPNKJ0.s 			page 175


 5612 02b2 13       		.uleb128 0x13
 5613 02b3 52       		.uleb128 0x52
 5614 02b4 01       		.uleb128 0x1
 5615 02b5 55       		.uleb128 0x55
 5616 02b6 17       		.uleb128 0x17
 5617 02b7 58       		.uleb128 0x58
 5618 02b8 0B       		.uleb128 0xb
 5619 02b9 59       		.uleb128 0x59
 5620 02ba 05       		.uleb128 0x5
 5621 02bb 01       		.uleb128 0x1
 5622 02bc 13       		.uleb128 0x13
 5623 02bd 00       		.byte	0
 5624 02be 00       		.byte	0
 5625 02bf 30       		.uleb128 0x30
 5626 02c0 2E       		.uleb128 0x2e
 5627 02c1 01       		.byte	0x1
 5628 02c2 03       		.uleb128 0x3
 5629 02c3 0E       		.uleb128 0xe
 5630 02c4 3A       		.uleb128 0x3a
 5631 02c5 0B       		.uleb128 0xb
 5632 02c6 3B       		.uleb128 0x3b
 5633 02c7 05       		.uleb128 0x5
 5634 02c8 27       		.uleb128 0x27
 5635 02c9 19       		.uleb128 0x19
 5636 02ca 11       		.uleb128 0x11
 5637 02cb 01       		.uleb128 0x1
 5638 02cc 12       		.uleb128 0x12
 5639 02cd 06       		.uleb128 0x6
 5640 02ce 40       		.uleb128 0x40
 5641 02cf 18       		.uleb128 0x18
 5642 02d0 9742     		.uleb128 0x2117
 5643 02d2 19       		.uleb128 0x19
 5644 02d3 01       		.uleb128 0x1
 5645 02d4 13       		.uleb128 0x13
 5646 02d5 00       		.byte	0
 5647 02d6 00       		.byte	0
 5648 02d7 31       		.uleb128 0x31
 5649 02d8 34       		.uleb128 0x34
 5650 02d9 00       		.byte	0
 5651 02da 03       		.uleb128 0x3
 5652 02db 0E       		.uleb128 0xe
 5653 02dc 3A       		.uleb128 0x3a
 5654 02dd 0B       		.uleb128 0xb
 5655 02de 3B       		.uleb128 0x3b
 5656 02df 0B       		.uleb128 0xb
 5657 02e0 49       		.uleb128 0x49
 5658 02e1 13       		.uleb128 0x13
 5659 02e2 02       		.uleb128 0x2
 5660 02e3 17       		.uleb128 0x17
 5661 02e4 00       		.byte	0
 5662 02e5 00       		.byte	0
 5663 02e6 32       		.uleb128 0x32
 5664 02e7 1D       		.uleb128 0x1d
 5665 02e8 00       		.byte	0
 5666 02e9 31       		.uleb128 0x31
 5667 02ea 13       		.uleb128 0x13
 5668 02eb 52       		.uleb128 0x52
ARM GAS  C:\Users\user\AppData\Local\Temp\ccsPNKJ0.s 			page 176


 5669 02ec 01       		.uleb128 0x1
 5670 02ed 55       		.uleb128 0x55
 5671 02ee 17       		.uleb128 0x17
 5672 02ef 58       		.uleb128 0x58
 5673 02f0 0B       		.uleb128 0xb
 5674 02f1 59       		.uleb128 0x59
 5675 02f2 0B       		.uleb128 0xb
 5676 02f3 00       		.byte	0
 5677 02f4 00       		.byte	0
 5678 02f5 33       		.uleb128 0x33
 5679 02f6 1D       		.uleb128 0x1d
 5680 02f7 00       		.byte	0
 5681 02f8 31       		.uleb128 0x31
 5682 02f9 13       		.uleb128 0x13
 5683 02fa 11       		.uleb128 0x11
 5684 02fb 01       		.uleb128 0x1
 5685 02fc 12       		.uleb128 0x12
 5686 02fd 06       		.uleb128 0x6
 5687 02fe 58       		.uleb128 0x58
 5688 02ff 0B       		.uleb128 0xb
 5689 0300 59       		.uleb128 0x59
 5690 0301 0B       		.uleb128 0xb
 5691 0302 00       		.byte	0
 5692 0303 00       		.byte	0
 5693 0304 34       		.uleb128 0x34
 5694 0305 1D       		.uleb128 0x1d
 5695 0306 01       		.byte	0x1
 5696 0307 31       		.uleb128 0x31
 5697 0308 13       		.uleb128 0x13
 5698 0309 11       		.uleb128 0x11
 5699 030a 01       		.uleb128 0x1
 5700 030b 12       		.uleb128 0x12
 5701 030c 06       		.uleb128 0x6
 5702 030d 58       		.uleb128 0x58
 5703 030e 0B       		.uleb128 0xb
 5704 030f 59       		.uleb128 0x59
 5705 0310 0B       		.uleb128 0xb
 5706 0311 01       		.uleb128 0x1
 5707 0312 13       		.uleb128 0x13
 5708 0313 00       		.byte	0
 5709 0314 00       		.byte	0
 5710 0315 35       		.uleb128 0x35
 5711 0316 0B       		.uleb128 0xb
 5712 0317 01       		.byte	0x1
 5713 0318 55       		.uleb128 0x55
 5714 0319 17       		.uleb128 0x17
 5715 031a 00       		.byte	0
 5716 031b 00       		.byte	0
 5717 031c 36       		.uleb128 0x36
 5718 031d 1D       		.uleb128 0x1d
 5719 031e 00       		.byte	0
 5720 031f 31       		.uleb128 0x31
 5721 0320 13       		.uleb128 0x13
 5722 0321 52       		.uleb128 0x52
 5723 0322 01       		.uleb128 0x1
 5724 0323 55       		.uleb128 0x55
 5725 0324 17       		.uleb128 0x17
ARM GAS  C:\Users\user\AppData\Local\Temp\ccsPNKJ0.s 			page 177


 5726 0325 58       		.uleb128 0x58
 5727 0326 0B       		.uleb128 0xb
 5728 0327 59       		.uleb128 0x59
 5729 0328 05       		.uleb128 0x5
 5730 0329 00       		.byte	0
 5731 032a 00       		.byte	0
 5732 032b 37       		.uleb128 0x37
 5733 032c 2E       		.uleb128 0x2e
 5734 032d 01       		.byte	0x1
 5735 032e 3F       		.uleb128 0x3f
 5736 032f 19       		.uleb128 0x19
 5737 0330 03       		.uleb128 0x3
 5738 0331 0E       		.uleb128 0xe
 5739 0332 3A       		.uleb128 0x3a
 5740 0333 0B       		.uleb128 0xb
 5741 0334 3B       		.uleb128 0x3b
 5742 0335 05       		.uleb128 0x5
 5743 0336 27       		.uleb128 0x27
 5744 0337 19       		.uleb128 0x19
 5745 0338 11       		.uleb128 0x11
 5746 0339 01       		.uleb128 0x1
 5747 033a 12       		.uleb128 0x12
 5748 033b 06       		.uleb128 0x6
 5749 033c 40       		.uleb128 0x40
 5750 033d 18       		.uleb128 0x18
 5751 033e 9642     		.uleb128 0x2116
 5752 0340 19       		.uleb128 0x19
 5753 0341 01       		.uleb128 0x1
 5754 0342 13       		.uleb128 0x13
 5755 0343 00       		.byte	0
 5756 0344 00       		.byte	0
 5757 0345 38       		.uleb128 0x38
 5758 0346 01       		.uleb128 0x1
 5759 0347 01       		.byte	0x1
 5760 0348 49       		.uleb128 0x49
 5761 0349 13       		.uleb128 0x13
 5762 034a 01       		.uleb128 0x1
 5763 034b 13       		.uleb128 0x13
 5764 034c 00       		.byte	0
 5765 034d 00       		.byte	0
 5766 034e 39       		.uleb128 0x39
 5767 034f 21       		.uleb128 0x21
 5768 0350 00       		.byte	0
 5769 0351 49       		.uleb128 0x49
 5770 0352 13       		.uleb128 0x13
 5771 0353 2F       		.uleb128 0x2f
 5772 0354 0B       		.uleb128 0xb
 5773 0355 00       		.byte	0
 5774 0356 00       		.byte	0
 5775 0357 3A       		.uleb128 0x3a
 5776 0358 26       		.uleb128 0x26
 5777 0359 00       		.byte	0
 5778 035a 49       		.uleb128 0x49
 5779 035b 13       		.uleb128 0x13
 5780 035c 00       		.byte	0
 5781 035d 00       		.byte	0
 5782 035e 3B       		.uleb128 0x3b
ARM GAS  C:\Users\user\AppData\Local\Temp\ccsPNKJ0.s 			page 178


 5783 035f 34       		.uleb128 0x34
 5784 0360 00       		.byte	0
 5785 0361 03       		.uleb128 0x3
 5786 0362 0E       		.uleb128 0xe
 5787 0363 3A       		.uleb128 0x3a
 5788 0364 0B       		.uleb128 0xb
 5789 0365 3B       		.uleb128 0x3b
 5790 0366 0B       		.uleb128 0xb
 5791 0367 49       		.uleb128 0x49
 5792 0368 13       		.uleb128 0x13
 5793 0369 3F       		.uleb128 0x3f
 5794 036a 19       		.uleb128 0x19
 5795 036b 3C       		.uleb128 0x3c
 5796 036c 19       		.uleb128 0x19
 5797 036d 00       		.byte	0
 5798 036e 00       		.byte	0
 5799 036f 3C       		.uleb128 0x3c
 5800 0370 2E       		.uleb128 0x2e
 5801 0371 00       		.byte	0
 5802 0372 3F       		.uleb128 0x3f
 5803 0373 19       		.uleb128 0x19
 5804 0374 3C       		.uleb128 0x3c
 5805 0375 19       		.uleb128 0x19
 5806 0376 6E       		.uleb128 0x6e
 5807 0377 0E       		.uleb128 0xe
 5808 0378 03       		.uleb128 0x3
 5809 0379 0E       		.uleb128 0xe
 5810 037a 3A       		.uleb128 0x3a
 5811 037b 0B       		.uleb128 0xb
 5812 037c 3B       		.uleb128 0x3b
 5813 037d 0B       		.uleb128 0xb
 5814 037e 00       		.byte	0
 5815 037f 00       		.byte	0
 5816 0380 00       		.byte	0
 5817              		.section	.debug_loc,"",%progbits
 5818              	.Ldebug_loc0:
 5819              	.LLST0:
 5820 0000 00000000 		.4byte	.LVL0
 5821 0004 14000000 		.4byte	.LVL3
 5822 0008 0100     		.2byte	0x1
 5823 000a 50       		.byte	0x50
 5824 000b 14000000 		.4byte	.LVL3
 5825 000f 86000000 		.4byte	.LVL12
 5826 0013 0100     		.2byte	0x1
 5827 0015 55       		.byte	0x55
 5828 0016 86000000 		.4byte	.LVL12
 5829 001a A2000000 		.4byte	.LVL17
 5830 001e 0400     		.2byte	0x4
 5831 0020 F3       		.byte	0xf3
 5832 0021 01       		.uleb128 0x1
 5833 0022 50       		.byte	0x50
 5834 0023 9F       		.byte	0x9f
 5835 0024 A2000000 		.4byte	.LVL17
 5836 0028 B0000000 		.4byte	.LVL18
 5837 002c 0100     		.2byte	0x1
 5838 002e 55       		.byte	0x55
 5839 002f B0000000 		.4byte	.LVL18
ARM GAS  C:\Users\user\AppData\Local\Temp\ccsPNKJ0.s 			page 179


 5840 0033 E8000000 		.4byte	.LFE6
 5841 0037 0400     		.2byte	0x4
 5842 0039 F3       		.byte	0xf3
 5843 003a 01       		.uleb128 0x1
 5844 003b 50       		.byte	0x50
 5845 003c 9F       		.byte	0x9f
 5846 003d 00000000 		.4byte	0
 5847 0041 00000000 		.4byte	0
 5848              	.LLST1:
 5849 0045 00000000 		.4byte	.LVL0
 5850 0049 34000000 		.4byte	.LVL5
 5851 004d 0100     		.2byte	0x1
 5852 004f 51       		.byte	0x51
 5853 0050 34000000 		.4byte	.LVL5
 5854 0054 B0000000 		.4byte	.LVL19
 5855 0058 0100     		.2byte	0x1
 5856 005a 56       		.byte	0x56
 5857 005b B0000000 		.4byte	.LVL19
 5858 005f E8000000 		.4byte	.LFE6
 5859 0063 0400     		.2byte	0x4
 5860 0065 F3       		.byte	0xf3
 5861 0066 01       		.uleb128 0x1
 5862 0067 51       		.byte	0x51
 5863 0068 9F       		.byte	0x9f
 5864 0069 00000000 		.4byte	0
 5865 006d 00000000 		.4byte	0
 5866              	.LLST2:
 5867 0071 6E000000 		.4byte	.LVL9
 5868 0075 70000000 		.4byte	.LVL10
 5869 0079 0100     		.2byte	0x1
 5870 007b 50       		.byte	0x50
 5871 007c 9A000000 		.4byte	.LVL14
 5872 0080 9E000000 		.4byte	.LVL15
 5873 0084 0100     		.2byte	0x1
 5874 0086 50       		.byte	0x50
 5875 0087 9E000000 		.4byte	.LVL15
 5876 008b A2000000 		.4byte	.LVL17
 5877 008f 0200     		.2byte	0x2
 5878 0091 76       		.byte	0x76
 5879 0092 00       		.sleb128 0
 5880 0093 00000000 		.4byte	0
 5881 0097 00000000 		.4byte	0
 5882              	.LLST3:
 5883 009b 56000000 		.4byte	.LVL6
 5884 009f 70000000 		.4byte	.LVL10
 5885 00a3 0B00     		.2byte	0xb
 5886 00a5 75       		.byte	0x75
 5887 00a6 00       		.sleb128 0
 5888 00a7 F7       		.byte	0xf7
 5889 00a8 25       		.uleb128 0x25
 5890 00a9 4F       		.byte	0x4f
 5891 00aa F7       		.byte	0xf7
 5892 00ab 25       		.uleb128 0x25
 5893 00ac 1B       		.byte	0x1b
 5894 00ad F7       		.byte	0xf7
 5895 00ae 00       		.uleb128 0
 5896 00af 9F       		.byte	0x9f
ARM GAS  C:\Users\user\AppData\Local\Temp\ccsPNKJ0.s 			page 180


 5897 00b0 70000000 		.4byte	.LVL10
 5898 00b4 86000000 		.4byte	.LVL12
 5899 00b8 1300     		.2byte	0x13
 5900 00ba 75       		.byte	0x75
 5901 00bb 00       		.sleb128 0
 5902 00bc 08       		.byte	0x8
 5903 00bd 64       		.byte	0x64
 5904 00be 1E       		.byte	0x1e
 5905 00bf 23       		.byte	0x23
 5906 00c0 8D06     		.uleb128 0x30d
 5907 00c2 F7       		.byte	0xf7
 5908 00c3 25       		.uleb128 0x25
 5909 00c4 0A       		.byte	0xa
 5910 00c5 350C     		.2byte	0xc35
 5911 00c7 F7       		.byte	0xf7
 5912 00c8 25       		.uleb128 0x25
 5913 00c9 1B       		.byte	0x1b
 5914 00ca F7       		.byte	0xf7
 5915 00cb 00       		.uleb128 0
 5916 00cc 9F       		.byte	0x9f
 5917 00cd 86000000 		.4byte	.LVL12
 5918 00d1 9A000000 		.4byte	.LVL14
 5919 00d5 1400     		.2byte	0x14
 5920 00d7 F3       		.byte	0xf3
 5921 00d8 01       		.uleb128 0x1
 5922 00d9 50       		.byte	0x50
 5923 00da 08       		.byte	0x8
 5924 00db 64       		.byte	0x64
 5925 00dc 1E       		.byte	0x1e
 5926 00dd 23       		.byte	0x23
 5927 00de 8D06     		.uleb128 0x30d
 5928 00e0 F7       		.byte	0xf7
 5929 00e1 25       		.uleb128 0x25
 5930 00e2 0A       		.byte	0xa
 5931 00e3 350C     		.2byte	0xc35
 5932 00e5 F7       		.byte	0xf7
 5933 00e6 25       		.uleb128 0x25
 5934 00e7 1B       		.byte	0x1b
 5935 00e8 F7       		.byte	0xf7
 5936 00e9 00       		.uleb128 0
 5937 00ea 9F       		.byte	0x9f
 5938 00eb 00000000 		.4byte	0
 5939 00ef 00000000 		.4byte	0
 5940              	.LLST4:
 5941 00f3 06000000 		.4byte	.LVL1
 5942 00f7 0C000000 		.4byte	.LVL2
 5943 00fb 0700     		.2byte	0x7
 5944 00fd 72       		.byte	0x72
 5945 00fe 00       		.sleb128 0
 5946 00ff 0A       		.byte	0xa
 5947 0100 3F3F     		.2byte	0x3f3f
 5948 0102 1A       		.byte	0x1a
 5949 0103 9F       		.byte	0x9f
 5950 0104 0C000000 		.4byte	.LVL2
 5951 0108 1A000000 		.4byte	.LVL4
 5952 010c 0100     		.2byte	0x1
 5953 010e 53       		.byte	0x53
ARM GAS  C:\Users\user\AppData\Local\Temp\ccsPNKJ0.s 			page 181


 5954 010f 00000000 		.4byte	0
 5955 0113 00000000 		.4byte	0
 5956              	.LLST5:
 5957 0117 A0000000 		.4byte	.LVL16
 5958 011b A2000000 		.4byte	.LVL17
 5959 011f 0200     		.2byte	0x2
 5960 0121 30       		.byte	0x30
 5961 0122 9F       		.byte	0x9f
 5962 0123 B0000000 		.4byte	.LVL18
 5963 0127 E8000000 		.4byte	.LFE6
 5964 012b 0100     		.2byte	0x1
 5965 012d 50       		.byte	0x50
 5966 012e 00000000 		.4byte	0
 5967 0132 00000000 		.4byte	0
 5968              	.LLST6:
 5969 0136 00000000 		.4byte	.LVL20
 5970 013a 0A000000 		.4byte	.LVL21
 5971 013e 0100     		.2byte	0x1
 5972 0140 50       		.byte	0x50
 5973 0141 0A000000 		.4byte	.LVL21
 5974 0145 7A000000 		.4byte	.LVL43
 5975 0149 0100     		.2byte	0x1
 5976 014b 54       		.byte	0x54
 5977 014c 7A000000 		.4byte	.LVL43
 5978 0150 90000000 		.4byte	.LFE9
 5979 0154 0400     		.2byte	0x4
 5980 0156 F3       		.byte	0xf3
 5981 0157 01       		.uleb128 0x1
 5982 0158 50       		.byte	0x50
 5983 0159 9F       		.byte	0x9f
 5984 015a 00000000 		.4byte	0
 5985 015e 00000000 		.4byte	0
 5986              	.LLST7:
 5987 0162 0E000000 		.4byte	.LVL22
 5988 0166 7A000000 		.4byte	.LVL42
 5989 016a 0100     		.2byte	0x1
 5990 016c 54       		.byte	0x54
 5991 016d 00000000 		.4byte	0
 5992 0171 00000000 		.4byte	0
 5993              	.LLST8:
 5994 0175 14000000 		.4byte	.LVL23
 5995 0179 16000000 		.4byte	.LVL24
 5996 017d 1100     		.2byte	0x11
 5997 017f 70       		.byte	0x70
 5998 0180 00       		.sleb128 0
 5999 0181 71       		.byte	0x71
 6000 0182 00       		.sleb128 0
 6001 0183 1E       		.byte	0x1e
 6002 0184 F7       		.byte	0xf7
 6003 0185 25       		.uleb128 0x25
 6004 0186 71       		.byte	0x71
 6005 0187 00       		.sleb128 0
 6006 0188 3A       		.byte	0x3a
 6007 0189 25       		.byte	0x25
 6008 018a F7       		.byte	0xf7
 6009 018b 25       		.uleb128 0x25
 6010 018c 1B       		.byte	0x1b
ARM GAS  C:\Users\user\AppData\Local\Temp\ccsPNKJ0.s 			page 182


 6011 018d F7       		.byte	0xf7
 6012 018e 00       		.uleb128 0
 6013 018f 9F       		.byte	0x9f
 6014 0190 00000000 		.4byte	0
 6015 0194 00000000 		.4byte	0
 6016              	.LLST9:
 6017 0198 54000000 		.4byte	.LVL31
 6018 019c 56000000 		.4byte	.LVL32
 6019 01a0 0500     		.2byte	0x5
 6020 01a2 73       		.byte	0x73
 6021 01a3 00       		.sleb128 0
 6022 01a4 3F       		.byte	0x3f
 6023 01a5 1A       		.byte	0x1a
 6024 01a6 9F       		.byte	0x9f
 6025 01a7 56000000 		.4byte	.LVL32
 6026 01ab 5A000000 		.4byte	.LVL34
 6027 01af 0100     		.2byte	0x1
 6028 01b1 53       		.byte	0x53
 6029 01b2 00000000 		.4byte	0
 6030 01b6 00000000 		.4byte	0
 6031              	.LLST10:
 6032 01ba 2A000000 		.4byte	.LVL26
 6033 01be 3C000000 		.4byte	.LVL27
 6034 01c2 0100     		.2byte	0x1
 6035 01c4 50       		.byte	0x50
 6036 01c5 42000000 		.4byte	.LVL28
 6037 01c9 44000000 		.4byte	.LVL29
 6038 01cd 0100     		.2byte	0x1
 6039 01cf 50       		.byte	0x50
 6040 01d0 76000000 		.4byte	.LVL40
 6041 01d4 7A000000 		.4byte	.LVL42
 6042 01d8 0100     		.2byte	0x1
 6043 01da 50       		.byte	0x50
 6044 01db 00000000 		.4byte	0
 6045 01df 00000000 		.4byte	0
 6046              	.LLST11:
 6047 01e3 4E000000 		.4byte	.LVL30
 6048 01e7 64000000 		.4byte	.LVL35
 6049 01eb 0100     		.2byte	0x1
 6050 01ed 50       		.byte	0x50
 6051 01ee 66000000 		.4byte	.LVL36
 6052 01f2 70000000 		.4byte	.LVL38
 6053 01f6 0100     		.2byte	0x1
 6054 01f8 50       		.byte	0x50
 6055 01f9 00000000 		.4byte	0
 6056 01fd 00000000 		.4byte	0
 6057              	.LLST12:
 6058 0201 72000000 		.4byte	.LVL39
 6059 0205 76000000 		.4byte	.LVL40
 6060 0209 0200     		.2byte	0x2
 6061 020b 37       		.byte	0x37
 6062 020c 9F       		.byte	0x9f
 6063 020d 78000000 		.4byte	.LVL41
 6064 0211 7A000000 		.4byte	.LVL42
 6065 0215 0200     		.2byte	0x2
 6066 0217 30       		.byte	0x30
 6067 0218 9F       		.byte	0x9f
ARM GAS  C:\Users\user\AppData\Local\Temp\ccsPNKJ0.s 			page 183


 6068 0219 00000000 		.4byte	0
 6069 021d 00000000 		.4byte	0
 6070              	.LLST13:
 6071 0221 00000000 		.4byte	.LVL44
 6072 0225 14000000 		.4byte	.LVL47
 6073 0229 0100     		.2byte	0x1
 6074 022b 50       		.byte	0x50
 6075 022c 14000000 		.4byte	.LVL47
 6076 0230 18000000 		.4byte	.LVL48
 6077 0234 0400     		.2byte	0x4
 6078 0236 F3       		.byte	0xf3
 6079 0237 01       		.uleb128 0x1
 6080 0238 50       		.byte	0x50
 6081 0239 9F       		.byte	0x9f
 6082 023a 18000000 		.4byte	.LVL48
 6083 023e 36000000 		.4byte	.LVL50
 6084 0242 0100     		.2byte	0x1
 6085 0244 50       		.byte	0x50
 6086 0245 36000000 		.4byte	.LVL50
 6087 0249 6C000000 		.4byte	.LVL56
 6088 024d 0400     		.2byte	0x4
 6089 024f F3       		.byte	0xf3
 6090 0250 01       		.uleb128 0x1
 6091 0251 50       		.byte	0x50
 6092 0252 9F       		.byte	0x9f
 6093 0253 6C000000 		.4byte	.LVL56
 6094 0257 78000000 		.4byte	.LVL57
 6095 025b 0100     		.2byte	0x1
 6096 025d 50       		.byte	0x50
 6097 025e 78000000 		.4byte	.LVL57
 6098 0262 88000000 		.4byte	.LVL59
 6099 0266 0400     		.2byte	0x4
 6100 0268 F3       		.byte	0xf3
 6101 0269 01       		.uleb128 0x1
 6102 026a 50       		.byte	0x50
 6103 026b 9F       		.byte	0x9f
 6104 026c 88000000 		.4byte	.LVL59
 6105 0270 8C000000 		.4byte	.LVL60
 6106 0274 0100     		.2byte	0x1
 6107 0276 50       		.byte	0x50
 6108 0277 8C000000 		.4byte	.LVL60
 6109 027b BC000000 		.4byte	.LFE8
 6110 027f 0400     		.2byte	0x4
 6111 0281 F3       		.byte	0xf3
 6112 0282 01       		.uleb128 0x1
 6113 0283 50       		.byte	0x50
 6114 0284 9F       		.byte	0x9f
 6115 0285 00000000 		.4byte	0
 6116 0289 00000000 		.4byte	0
 6117              	.LLST14:
 6118 028d 00000000 		.4byte	.LVL44
 6119 0291 14000000 		.4byte	.LVL47
 6120 0295 0100     		.2byte	0x1
 6121 0297 51       		.byte	0x51
 6122 0298 14000000 		.4byte	.LVL47
 6123 029c 18000000 		.4byte	.LVL48
 6124 02a0 0100     		.2byte	0x1
ARM GAS  C:\Users\user\AppData\Local\Temp\ccsPNKJ0.s 			page 184


 6125 02a2 57       		.byte	0x57
 6126 02a3 18000000 		.4byte	.LVL48
 6127 02a7 36000000 		.4byte	.LVL50
 6128 02ab 0100     		.2byte	0x1
 6129 02ad 51       		.byte	0x51
 6130 02ae 36000000 		.4byte	.LVL50
 6131 02b2 6C000000 		.4byte	.LVL56
 6132 02b6 0100     		.2byte	0x1
 6133 02b8 57       		.byte	0x57
 6134 02b9 6C000000 		.4byte	.LVL56
 6135 02bd 81000000 		.4byte	.LVL58-1
 6136 02c1 0100     		.2byte	0x1
 6137 02c3 51       		.byte	0x51
 6138 02c4 81000000 		.4byte	.LVL58-1
 6139 02c8 88000000 		.4byte	.LVL59
 6140 02cc 0100     		.2byte	0x1
 6141 02ce 57       		.byte	0x57
 6142 02cf 88000000 		.4byte	.LVL59
 6143 02d3 98000000 		.4byte	.LVL62
 6144 02d7 0100     		.2byte	0x1
 6145 02d9 51       		.byte	0x51
 6146 02da 98000000 		.4byte	.LVL62
 6147 02de 9E000000 		.4byte	.LVL64
 6148 02e2 0100     		.2byte	0x1
 6149 02e4 57       		.byte	0x57
 6150 02e5 9E000000 		.4byte	.LVL64
 6151 02e9 BC000000 		.4byte	.LFE8
 6152 02ed 0400     		.2byte	0x4
 6153 02ef F3       		.byte	0xf3
 6154 02f0 01       		.uleb128 0x1
 6155 02f1 51       		.byte	0x51
 6156 02f2 9F       		.byte	0x9f
 6157 02f3 00000000 		.4byte	0
 6158 02f7 00000000 		.4byte	0
 6159              	.LLST15:
 6160 02fb 00000000 		.4byte	.LVL44
 6161 02ff 14000000 		.4byte	.LVL47
 6162 0303 0200     		.2byte	0x2
 6163 0305 35       		.byte	0x35
 6164 0306 9F       		.byte	0x9f
 6165 0307 18000000 		.4byte	.LVL48
 6166 030b 36000000 		.4byte	.LVL50
 6167 030f 0200     		.2byte	0x2
 6168 0311 35       		.byte	0x35
 6169 0312 9F       		.byte	0x9f
 6170 0313 36000000 		.4byte	.LVL50
 6171 0317 6C000000 		.4byte	.LVL56
 6172 031b 0100     		.2byte	0x1
 6173 031d 54       		.byte	0x54
 6174 031e 6C000000 		.4byte	.LVL56
 6175 0322 98000000 		.4byte	.LVL62
 6176 0326 0200     		.2byte	0x2
 6177 0328 35       		.byte	0x35
 6178 0329 9F       		.byte	0x9f
 6179 032a 98000000 		.4byte	.LVL62
 6180 032e 9E000000 		.4byte	.LVL63
 6181 0332 0100     		.2byte	0x1
ARM GAS  C:\Users\user\AppData\Local\Temp\ccsPNKJ0.s 			page 185


 6182 0334 54       		.byte	0x54
 6183 0335 00000000 		.4byte	0
 6184 0339 00000000 		.4byte	0
 6185              	.LLST16:
 6186 033d 36000000 		.4byte	.LVL50
 6187 0341 48000000 		.4byte	.LVL51
 6188 0345 0200     		.2byte	0x2
 6189 0347 91       		.byte	0x91
 6190 0348 64       		.sleb128 -28
 6191 0349 48000000 		.4byte	.LVL51
 6192 034d 4C000000 		.4byte	.LVL52
 6193 0351 0100     		.2byte	0x1
 6194 0353 53       		.byte	0x53
 6195 0354 4C000000 		.4byte	.LVL52
 6196 0358 6C000000 		.4byte	.LVL56
 6197 035c 0200     		.2byte	0x2
 6198 035e 91       		.byte	0x91
 6199 035f 64       		.sleb128 -28
 6200 0360 98000000 		.4byte	.LVL62
 6201 0364 9E000000 		.4byte	.LVL63
 6202 0368 0200     		.2byte	0x2
 6203 036a 91       		.byte	0x91
 6204 036b 64       		.sleb128 -28
 6205 036c 00000000 		.4byte	0
 6206 0370 00000000 		.4byte	0
 6207              	.LLST17:
 6208 0374 06000000 		.4byte	.LVL45
 6209 0378 0C000000 		.4byte	.LVL46
 6210 037c 0700     		.2byte	0x7
 6211 037e 72       		.byte	0x72
 6212 037f 00       		.sleb128 0
 6213 0380 0A       		.byte	0xa
 6214 0381 3F3F     		.2byte	0x3f3f
 6215 0383 1A       		.byte	0x1a
 6216 0384 9F       		.byte	0x9f
 6217 0385 0C000000 		.4byte	.LVL46
 6218 0389 14000000 		.4byte	.LVL47
 6219 038d 0100     		.2byte	0x1
 6220 038f 53       		.byte	0x53
 6221 0390 18000000 		.4byte	.LVL48
 6222 0394 1A000000 		.4byte	.LVL49
 6223 0398 0100     		.2byte	0x1
 6224 039a 53       		.byte	0x53
 6225 039b 00000000 		.4byte	0
 6226 039f 00000000 		.4byte	0
 6227              	.LLST18:
 6228 03a3 6A000000 		.4byte	.LVL55
 6229 03a7 6C000000 		.4byte	.LVL56
 6230 03ab 0200     		.2byte	0x2
 6231 03ad 40       		.byte	0x40
 6232 03ae 9F       		.byte	0x9f
 6233 03af 82000000 		.4byte	.LVL58
 6234 03b3 88000000 		.4byte	.LVL59
 6235 03b7 0100     		.2byte	0x1
 6236 03b9 50       		.byte	0x50
 6237 03ba 96000000 		.4byte	.LVL61
 6238 03be 98000000 		.4byte	.LVL62
ARM GAS  C:\Users\user\AppData\Local\Temp\ccsPNKJ0.s 			page 186


 6239 03c2 0200     		.2byte	0x2
 6240 03c4 37       		.byte	0x37
 6241 03c5 9F       		.byte	0x9f
 6242 03c6 00000000 		.4byte	0
 6243 03ca 00000000 		.4byte	0
 6244              	.LLST19:
 6245 03ce 00000000 		.4byte	.LVL65
 6246 03d2 20000000 		.4byte	.LVL66
 6247 03d6 0200     		.2byte	0x2
 6248 03d8 30       		.byte	0x30
 6249 03d9 9F       		.byte	0x9f
 6250 03da 20000000 		.4byte	.LVL66
 6251 03de 2C000000 		.4byte	.LFE10
 6252 03e2 0100     		.2byte	0x1
 6253 03e4 50       		.byte	0x50
 6254 03e5 00000000 		.4byte	0
 6255 03e9 00000000 		.4byte	0
 6256              	.LLST20:
 6257 03ed 00000000 		.4byte	.LVL68
 6258 03f1 36000000 		.4byte	.LVL70
 6259 03f5 0100     		.2byte	0x1
 6260 03f7 50       		.byte	0x50
 6261 03f8 36000000 		.4byte	.LVL70
 6262 03fc 3A000000 		.4byte	.LVL71
 6263 0400 0400     		.2byte	0x4
 6264 0402 F3       		.byte	0xf3
 6265 0403 01       		.uleb128 0x1
 6266 0404 50       		.byte	0x50
 6267 0405 9F       		.byte	0x9f
 6268 0406 3A000000 		.4byte	.LVL71
 6269 040a 3D000000 		.4byte	.LVL72-1
 6270 040e 0100     		.2byte	0x1
 6271 0410 50       		.byte	0x50
 6272 0411 3D000000 		.4byte	.LVL72-1
 6273 0415 4C000000 		.4byte	.LFE16
 6274 0419 0400     		.2byte	0x4
 6275 041b F3       		.byte	0xf3
 6276 041c 01       		.uleb128 0x1
 6277 041d 50       		.byte	0x50
 6278 041e 9F       		.byte	0x9f
 6279 041f 00000000 		.4byte	0
 6280 0423 00000000 		.4byte	0
 6281              	.LLST21:
 6282 0427 0A000000 		.4byte	.LVL69
 6283 042b 40000000 		.4byte	.LVL73
 6284 042f 0100     		.2byte	0x1
 6285 0431 54       		.byte	0x54
 6286 0432 40000000 		.4byte	.LVL73
 6287 0436 4C000000 		.4byte	.LFE16
 6288 043a 0100     		.2byte	0x1
 6289 043c 50       		.byte	0x50
 6290 043d 00000000 		.4byte	0
 6291 0441 00000000 		.4byte	0
 6292              	.LLST22:
 6293 0445 00000000 		.4byte	.LVL74
 6294 0449 07000000 		.4byte	.LVL75-1
 6295 044d 0100     		.2byte	0x1
ARM GAS  C:\Users\user\AppData\Local\Temp\ccsPNKJ0.s 			page 187


 6296 044f 50       		.byte	0x50
 6297 0450 07000000 		.4byte	.LVL75-1
 6298 0454 16000000 		.4byte	.LVL76
 6299 0458 0100     		.2byte	0x1
 6300 045a 54       		.byte	0x54
 6301 045b 16000000 		.4byte	.LVL76
 6302 045f 24000000 		.4byte	.LFE17
 6303 0463 0400     		.2byte	0x4
 6304 0465 F3       		.byte	0xf3
 6305 0466 01       		.uleb128 0x1
 6306 0467 50       		.byte	0x50
 6307 0468 9F       		.byte	0x9f
 6308 0469 00000000 		.4byte	0
 6309 046d 00000000 		.4byte	0
 6310              	.LLST23:
 6311 0471 06000000 		.4byte	.LVL77
 6312 0475 15000000 		.4byte	.LVL78-1
 6313 0479 0100     		.2byte	0x1
 6314 047b 50       		.byte	0x50
 6315 047c 00000000 		.4byte	0
 6316 0480 00000000 		.4byte	0
 6317              	.LLST24:
 6318 0484 08000000 		.4byte	.LVL79
 6319 0488 25000000 		.4byte	.LVL80-1
 6320 048c 0100     		.2byte	0x1
 6321 048e 50       		.byte	0x50
 6322 048f 00000000 		.4byte	0
 6323 0493 00000000 		.4byte	0
 6324              	.LLST25:
 6325 0497 00000000 		.4byte	.LVL81
 6326 049b 08000000 		.4byte	.LVL82
 6327 049f 0100     		.2byte	0x1
 6328 04a1 50       		.byte	0x50
 6329 04a2 08000000 		.4byte	.LVL82
 6330 04a6 18000000 		.4byte	.LFE21
 6331 04aa 0400     		.2byte	0x4
 6332 04ac F3       		.byte	0xf3
 6333 04ad 01       		.uleb128 0x1
 6334 04ae 50       		.byte	0x50
 6335 04af 9F       		.byte	0x9f
 6336 04b0 00000000 		.4byte	0
 6337 04b4 00000000 		.4byte	0
 6338              	.LLST26:
 6339 04b8 00000000 		.4byte	.LVL83
 6340 04bc 09000000 		.4byte	.LVL84-1
 6341 04c0 0100     		.2byte	0x1
 6342 04c2 50       		.byte	0x50
 6343 04c3 09000000 		.4byte	.LVL84-1
 6344 04c7 14000000 		.4byte	.LVL86
 6345 04cb 0100     		.2byte	0x1
 6346 04cd 55       		.byte	0x55
 6347 04ce 14000000 		.4byte	.LVL86
 6348 04d2 2C000000 		.4byte	.LFE22
 6349 04d6 0400     		.2byte	0x4
 6350 04d8 F3       		.byte	0xf3
 6351 04d9 01       		.uleb128 0x1
 6352 04da 50       		.byte	0x50
ARM GAS  C:\Users\user\AppData\Local\Temp\ccsPNKJ0.s 			page 188


 6353 04db 9F       		.byte	0x9f
 6354 04dc 00000000 		.4byte	0
 6355 04e0 00000000 		.4byte	0
 6356              	.LLST27:
 6357 04e4 00000000 		.4byte	.LVL83
 6358 04e8 09000000 		.4byte	.LVL84-1
 6359 04ec 0100     		.2byte	0x1
 6360 04ee 51       		.byte	0x51
 6361 04ef 09000000 		.4byte	.LVL84-1
 6362 04f3 24000000 		.4byte	.LVL90
 6363 04f7 0100     		.2byte	0x1
 6364 04f9 54       		.byte	0x54
 6365 04fa 24000000 		.4byte	.LVL90
 6366 04fe 2C000000 		.4byte	.LFE22
 6367 0502 0400     		.2byte	0x4
 6368 0504 F3       		.byte	0xf3
 6369 0505 01       		.uleb128 0x1
 6370 0506 51       		.byte	0x51
 6371 0507 9F       		.byte	0x9f
 6372 0508 00000000 		.4byte	0
 6373 050c 00000000 		.4byte	0
 6374              	.LLST28:
 6375 0510 0E000000 		.4byte	.LVL85
 6376 0514 24000000 		.4byte	.LVL89
 6377 0518 0100     		.2byte	0x1
 6378 051a 54       		.byte	0x54
 6379 051b 00000000 		.4byte	0
 6380 051f 00000000 		.4byte	0
 6381              	.LLST29:
 6382 0523 0E000000 		.4byte	.LVL85
 6383 0527 14000000 		.4byte	.LVL86
 6384 052b 0100     		.2byte	0x1
 6385 052d 55       		.byte	0x55
 6386 052e 14000000 		.4byte	.LVL86
 6387 0532 24000000 		.4byte	.LVL89
 6388 0536 0400     		.2byte	0x4
 6389 0538 F3       		.byte	0xf3
 6390 0539 01       		.uleb128 0x1
 6391 053a 50       		.byte	0x50
 6392 053b 9F       		.byte	0x9f
 6393 053c 00000000 		.4byte	0
 6394 0540 00000000 		.4byte	0
 6395              	.LLST30:
 6396 0544 20000000 		.4byte	.LVL87
 6397 0548 22000000 		.4byte	.LVL88
 6398 054c 0100     		.2byte	0x1
 6399 054e 53       		.byte	0x53
 6400 054f 22000000 		.4byte	.LVL88
 6401 0553 24000000 		.4byte	.LVL89
 6402 0557 0100     		.2byte	0x1
 6403 0559 51       		.byte	0x51
 6404 055a 00000000 		.4byte	0
 6405 055e 00000000 		.4byte	0
 6406              	.LLST31:
 6407 0562 00000000 		.4byte	.LVL92
 6408 0566 08000000 		.4byte	.LVL93
 6409 056a 0100     		.2byte	0x1
ARM GAS  C:\Users\user\AppData\Local\Temp\ccsPNKJ0.s 			page 189


 6410 056c 50       		.byte	0x50
 6411 056d 08000000 		.4byte	.LVL93
 6412 0571 14000000 		.4byte	.LFE23
 6413 0575 0400     		.2byte	0x4
 6414 0577 F3       		.byte	0xf3
 6415 0578 01       		.uleb128 0x1
 6416 0579 50       		.byte	0x50
 6417 057a 9F       		.byte	0x9f
 6418 057b 00000000 		.4byte	0
 6419 057f 00000000 		.4byte	0
 6420              	.LLST32:
 6421 0583 00000000 		.4byte	.LVL94
 6422 0587 09000000 		.4byte	.LVL95-1
 6423 058b 0100     		.2byte	0x1
 6424 058d 50       		.byte	0x50
 6425 058e 09000000 		.4byte	.LVL95-1
 6426 0592 12000000 		.4byte	.LVL96
 6427 0596 0100     		.2byte	0x1
 6428 0598 54       		.byte	0x54
 6429 0599 12000000 		.4byte	.LVL96
 6430 059d 2C000000 		.4byte	.LFE24
 6431 05a1 0400     		.2byte	0x4
 6432 05a3 F3       		.byte	0xf3
 6433 05a4 01       		.uleb128 0x1
 6434 05a5 50       		.byte	0x50
 6435 05a6 9F       		.byte	0x9f
 6436 05a7 00000000 		.4byte	0
 6437 05ab 00000000 		.4byte	0
 6438              	.LLST33:
 6439 05af 00000000 		.4byte	.LVL94
 6440 05b3 09000000 		.4byte	.LVL95-1
 6441 05b7 0100     		.2byte	0x1
 6442 05b9 51       		.byte	0x51
 6443 05ba 09000000 		.4byte	.LVL95-1
 6444 05be 26000000 		.4byte	.LVL101
 6445 05c2 0100     		.2byte	0x1
 6446 05c4 55       		.byte	0x55
 6447 05c5 26000000 		.4byte	.LVL101
 6448 05c9 2C000000 		.4byte	.LFE24
 6449 05cd 0400     		.2byte	0x4
 6450 05cf F3       		.byte	0xf3
 6451 05d0 01       		.uleb128 0x1
 6452 05d1 51       		.byte	0x51
 6453 05d2 9F       		.byte	0x9f
 6454 05d3 00000000 		.4byte	0
 6455 05d7 00000000 		.4byte	0
 6456              	.LLST34:
 6457 05db 1E000000 		.4byte	.LVL97
 6458 05df 20000000 		.4byte	.LVL98
 6459 05e3 0100     		.2byte	0x1
 6460 05e5 51       		.byte	0x51
 6461 05e6 20000000 		.4byte	.LVL98
 6462 05ea 24000000 		.4byte	.LVL99
 6463 05ee 0100     		.2byte	0x1
 6464 05f0 53       		.byte	0x53
 6465 05f1 24000000 		.4byte	.LVL99
 6466 05f5 26000000 		.4byte	.LVL100
ARM GAS  C:\Users\user\AppData\Local\Temp\ccsPNKJ0.s 			page 190


 6467 05f9 0100     		.2byte	0x1
 6468 05fb 51       		.byte	0x51
 6469 05fc 00000000 		.4byte	0
 6470 0600 00000000 		.4byte	0
 6471              	.LLST35:
 6472 0604 00000000 		.4byte	.LVL102
 6473 0608 08000000 		.4byte	.LVL103
 6474 060c 0100     		.2byte	0x1
 6475 060e 50       		.byte	0x50
 6476 060f 08000000 		.4byte	.LVL103
 6477 0613 18000000 		.4byte	.LFE25
 6478 0617 0400     		.2byte	0x4
 6479 0619 F3       		.byte	0xf3
 6480 061a 01       		.uleb128 0x1
 6481 061b 50       		.byte	0x50
 6482 061c 9F       		.byte	0x9f
 6483 061d 00000000 		.4byte	0
 6484 0621 00000000 		.4byte	0
 6485              	.LLST36:
 6486 0625 0E000000 		.4byte	.LVL105
 6487 0629 10000000 		.4byte	.LVL106
 6488 062d 0200     		.2byte	0x2
 6489 062f 30       		.byte	0x30
 6490 0630 9F       		.byte	0x9f
 6491 0631 00000000 		.4byte	0
 6492 0635 00000000 		.4byte	0
 6493              	.LLST37:
 6494 0639 1C000000 		.4byte	.LVL107
 6495 063d 1E000000 		.4byte	.LVL108
 6496 0641 0200     		.2byte	0x2
 6497 0643 31       		.byte	0x31
 6498 0644 9F       		.byte	0x9f
 6499 0645 00000000 		.4byte	0
 6500 0649 00000000 		.4byte	0
 6501              	.LLST38:
 6502 064d 2A000000 		.4byte	.LVL109
 6503 0651 2C000000 		.4byte	.LVL110
 6504 0655 0200     		.2byte	0x2
 6505 0657 32       		.byte	0x32
 6506 0658 9F       		.byte	0x9f
 6507 0659 00000000 		.4byte	0
 6508 065d 00000000 		.4byte	0
 6509              	.LLST39:
 6510 0661 1A000000 		.4byte	.LVL112
 6511 0665 1C000000 		.4byte	.LVL113
 6512 0669 0200     		.2byte	0x2
 6513 066b 30       		.byte	0x30
 6514 066c 9F       		.byte	0x9f
 6515 066d 00000000 		.4byte	0
 6516 0671 00000000 		.4byte	0
 6517              	.LLST40:
 6518 0675 28000000 		.4byte	.LVL114
 6519 0679 2A000000 		.4byte	.LVL115
 6520 067d 0200     		.2byte	0x2
 6521 067f 31       		.byte	0x31
 6522 0680 9F       		.byte	0x9f
 6523 0681 00000000 		.4byte	0
ARM GAS  C:\Users\user\AppData\Local\Temp\ccsPNKJ0.s 			page 191


 6524 0685 00000000 		.4byte	0
 6525              	.LLST41:
 6526 0689 36000000 		.4byte	.LVL116
 6527 068d 38000000 		.4byte	.LVL117
 6528 0691 0200     		.2byte	0x2
 6529 0693 32       		.byte	0x32
 6530 0694 9F       		.byte	0x9f
 6531 0695 00000000 		.4byte	0
 6532 0699 00000000 		.4byte	0
 6533              	.LLST42:
 6534 069d 00000000 		.4byte	.LVL118
 6535 06a1 22000000 		.4byte	.LVL125
 6536 06a5 0100     		.2byte	0x1
 6537 06a7 50       		.byte	0x50
 6538 06a8 22000000 		.4byte	.LVL125
 6539 06ac 34000000 		.4byte	.LFE28
 6540 06b0 0400     		.2byte	0x4
 6541 06b2 F3       		.byte	0xf3
 6542 06b3 01       		.uleb128 0x1
 6543 06b4 50       		.byte	0x50
 6544 06b5 9F       		.byte	0x9f
 6545 06b6 00000000 		.4byte	0
 6546 06ba 00000000 		.4byte	0
 6547              	.LLST43:
 6548 06be 1E000000 		.4byte	.LVL123
 6549 06c2 20000000 		.4byte	.LVL124
 6550 06c6 0100     		.2byte	0x1
 6551 06c8 51       		.byte	0x51
 6552 06c9 20000000 		.4byte	.LVL124
 6553 06cd 22000000 		.4byte	.LVL125
 6554 06d1 0100     		.2byte	0x1
 6555 06d3 53       		.byte	0x53
 6556 06d4 22000000 		.4byte	.LVL125
 6557 06d8 24000000 		.4byte	.LVL126
 6558 06dc 0100     		.2byte	0x1
 6559 06de 50       		.byte	0x50
 6560 06df 00000000 		.4byte	0
 6561 06e3 00000000 		.4byte	0
 6562              	.LLST44:
 6563 06e7 0A000000 		.4byte	.LVL121
 6564 06eb 0E000000 		.4byte	.LVL122
 6565 06ef 1100     		.2byte	0x11
 6566 06f1 73       		.byte	0x73
 6567 06f2 00       		.sleb128 0
 6568 06f3 39       		.byte	0x39
 6569 06f4 25       		.byte	0x25
 6570 06f5 71       		.byte	0x71
 6571 06f6 00       		.sleb128 0
 6572 06f7 31       		.byte	0x31
 6573 06f8 25       		.byte	0x25
 6574 06f9 21       		.byte	0x21
 6575 06fa 72       		.byte	0x72
 6576 06fb 00       		.sleb128 0
 6577 06fc 41       		.byte	0x41
 6578 06fd 25       		.byte	0x25
 6579 06fe 21       		.byte	0x21
 6580 06ff 31       		.byte	0x31
ARM GAS  C:\Users\user\AppData\Local\Temp\ccsPNKJ0.s 			page 192


 6581 0700 1A       		.byte	0x1a
 6582 0701 9F       		.byte	0x9f
 6583 0702 00000000 		.4byte	0
 6584 0706 00000000 		.4byte	0
 6585              	.LLST45:
 6586 070a 00000000 		.4byte	.LVL118
 6587 070e 06000000 		.4byte	.LVL119
 6588 0712 0200     		.2byte	0x2
 6589 0714 30       		.byte	0x30
 6590 0715 9F       		.byte	0x9f
 6591 0716 00000000 		.4byte	0
 6592 071a 00000000 		.4byte	0
 6593              	.LLST46:
 6594 071e 06000000 		.4byte	.LVL119
 6595 0722 08000000 		.4byte	.LVL120
 6596 0726 0200     		.2byte	0x2
 6597 0728 31       		.byte	0x31
 6598 0729 9F       		.byte	0x9f
 6599 072a 00000000 		.4byte	0
 6600 072e 00000000 		.4byte	0
 6601              	.LLST47:
 6602 0732 08000000 		.4byte	.LVL120
 6603 0736 0A000000 		.4byte	.LVL121
 6604 073a 0200     		.2byte	0x2
 6605 073c 32       		.byte	0x32
 6606 073d 9F       		.byte	0x9f
 6607 073e 00000000 		.4byte	0
 6608 0742 00000000 		.4byte	0
 6609              	.LLST48:
 6610 0746 00000000 		.4byte	.LVL127
 6611 074a 0E000000 		.4byte	.LVL128
 6612 074e 0100     		.2byte	0x1
 6613 0750 50       		.byte	0x50
 6614 0751 0E000000 		.4byte	.LVL128
 6615 0755 38000000 		.4byte	.LVL133
 6616 0759 0100     		.2byte	0x1
 6617 075b 56       		.byte	0x56
 6618 075c 38000000 		.4byte	.LVL133
 6619 0760 48000000 		.4byte	.LFE30
 6620 0764 0400     		.2byte	0x4
 6621 0766 F3       		.byte	0xf3
 6622 0767 01       		.uleb128 0x1
 6623 0768 50       		.byte	0x50
 6624 0769 9F       		.byte	0x9f
 6625 076a 00000000 		.4byte	0
 6626 076e 00000000 		.4byte	0
 6627              	.LLST49:
 6628 0772 00000000 		.4byte	.LVL127
 6629 0776 17000000 		.4byte	.LVL129-1
 6630 077a 0100     		.2byte	0x1
 6631 077c 51       		.byte	0x51
 6632 077d 17000000 		.4byte	.LVL129-1
 6633 0781 20000000 		.4byte	.LVL130
 6634 0785 0100     		.2byte	0x1
 6635 0787 54       		.byte	0x54
 6636 0788 20000000 		.4byte	.LVL130
 6637 078c 48000000 		.4byte	.LFE30
ARM GAS  C:\Users\user\AppData\Local\Temp\ccsPNKJ0.s 			page 193


 6638 0790 0400     		.2byte	0x4
 6639 0792 F3       		.byte	0xf3
 6640 0793 01       		.uleb128 0x1
 6641 0794 51       		.byte	0x51
 6642 0795 9F       		.byte	0x9f
 6643 0796 00000000 		.4byte	0
 6644 079a 00000000 		.4byte	0
 6645              	.LLST50:
 6646 079e 00000000 		.4byte	.LVL134
 6647 07a2 10000000 		.4byte	.LVL137
 6648 07a6 0100     		.2byte	0x1
 6649 07a8 50       		.byte	0x50
 6650 07a9 10000000 		.4byte	.LVL137
 6651 07ad 2C000000 		.4byte	.LFE31
 6652 07b1 0400     		.2byte	0x4
 6653 07b3 F3       		.byte	0xf3
 6654 07b4 01       		.uleb128 0x1
 6655 07b5 50       		.byte	0x50
 6656 07b6 9F       		.byte	0x9f
 6657 07b7 00000000 		.4byte	0
 6658 07bb 00000000 		.4byte	0
 6659              	.LLST51:
 6660 07bf 0E000000 		.4byte	.LVL136
 6661 07c3 12000000 		.4byte	.LVL138
 6662 07c7 0100     		.2byte	0x1
 6663 07c9 52       		.byte	0x52
 6664 07ca 12000000 		.4byte	.LVL138
 6665 07ce 1A000000 		.4byte	.LVL139
 6666 07d2 0100     		.2byte	0x1
 6667 07d4 53       		.byte	0x53
 6668 07d5 1A000000 		.4byte	.LVL139
 6669 07d9 1C000000 		.4byte	.LVL140
 6670 07dd 0100     		.2byte	0x1
 6671 07df 50       		.byte	0x50
 6672 07e0 00000000 		.4byte	0
 6673 07e4 00000000 		.4byte	0
 6674              	.LLST52:
 6675 07e8 00000000 		.4byte	.LVL134
 6676 07ec 04000000 		.4byte	.LVL135
 6677 07f0 0200     		.2byte	0x2
 6678 07f2 32       		.byte	0x32
 6679 07f3 9F       		.byte	0x9f
 6680 07f4 00000000 		.4byte	0
 6681 07f8 00000000 		.4byte	0
 6682              	.LLST53:
 6683 07fc 00000000 		.4byte	.LVL141
 6684 0800 08000000 		.4byte	.LVL142
 6685 0804 0100     		.2byte	0x1
 6686 0806 50       		.byte	0x50
 6687 0807 08000000 		.4byte	.LVL142
 6688 080b 14000000 		.4byte	.LFE33
 6689 080f 0400     		.2byte	0x4
 6690 0811 F3       		.byte	0xf3
 6691 0812 01       		.uleb128 0x1
 6692 0813 50       		.byte	0x50
 6693 0814 9F       		.byte	0x9f
 6694 0815 00000000 		.4byte	0
ARM GAS  C:\Users\user\AppData\Local\Temp\ccsPNKJ0.s 			page 194


 6695 0819 00000000 		.4byte	0
 6696              	.LLST54:
 6697 081d 00000000 		.4byte	.LVL143
 6698 0821 10000000 		.4byte	.LVL144
 6699 0825 0100     		.2byte	0x1
 6700 0827 50       		.byte	0x50
 6701 0828 10000000 		.4byte	.LVL144
 6702 082c 12000000 		.4byte	.LVL145
 6703 0830 0400     		.2byte	0x4
 6704 0832 F3       		.byte	0xf3
 6705 0833 01       		.uleb128 0x1
 6706 0834 50       		.byte	0x50
 6707 0835 9F       		.byte	0x9f
 6708 0836 12000000 		.4byte	.LVL145
 6709 083a 16000000 		.4byte	.LVL146
 6710 083e 0100     		.2byte	0x1
 6711 0840 50       		.byte	0x50
 6712 0841 16000000 		.4byte	.LVL146
 6713 0845 1A000000 		.4byte	.LVL148
 6714 0849 0400     		.2byte	0x4
 6715 084b F3       		.byte	0xf3
 6716 084c 01       		.uleb128 0x1
 6717 084d 50       		.byte	0x50
 6718 084e 9F       		.byte	0x9f
 6719 084f 1A000000 		.4byte	.LVL148
 6720 0853 1E000000 		.4byte	.LVL149
 6721 0857 0100     		.2byte	0x1
 6722 0859 50       		.byte	0x50
 6723 085a 1E000000 		.4byte	.LVL149
 6724 085e 22000000 		.4byte	.LVL151
 6725 0862 0400     		.2byte	0x4
 6726 0864 F3       		.byte	0xf3
 6727 0865 01       		.uleb128 0x1
 6728 0866 50       		.byte	0x50
 6729 0867 9F       		.byte	0x9f
 6730 0868 22000000 		.4byte	.LVL151
 6731 086c 24000000 		.4byte	.LVL152
 6732 0870 0100     		.2byte	0x1
 6733 0872 50       		.byte	0x50
 6734 0873 24000000 		.4byte	.LVL152
 6735 0877 30000000 		.4byte	.LFE34
 6736 087b 0400     		.2byte	0x4
 6737 087d F3       		.byte	0xf3
 6738 087e 01       		.uleb128 0x1
 6739 087f 50       		.byte	0x50
 6740 0880 9F       		.byte	0x9f
 6741 0881 00000000 		.4byte	0
 6742 0885 00000000 		.4byte	0
 6743              	.LLST55:
 6744 0889 00000000 		.4byte	.LVL143
 6745 088d 10000000 		.4byte	.LVL144
 6746 0891 0200     		.2byte	0x2
 6747 0893 30       		.byte	0x30
 6748 0894 9F       		.byte	0x9f
 6749 0895 10000000 		.4byte	.LVL144
 6750 0899 12000000 		.4byte	.LVL145
 6751 089d 0100     		.2byte	0x1
ARM GAS  C:\Users\user\AppData\Local\Temp\ccsPNKJ0.s 			page 195


 6752 089f 50       		.byte	0x50
 6753 08a0 12000000 		.4byte	.LVL145
 6754 08a4 18000000 		.4byte	.LVL147
 6755 08a8 0200     		.2byte	0x2
 6756 08aa 30       		.byte	0x30
 6757 08ab 9F       		.byte	0x9f
 6758 08ac 18000000 		.4byte	.LVL147
 6759 08b0 1A000000 		.4byte	.LVL148
 6760 08b4 0100     		.2byte	0x1
 6761 08b6 50       		.byte	0x50
 6762 08b7 1A000000 		.4byte	.LVL148
 6763 08bb 20000000 		.4byte	.LVL150
 6764 08bf 0200     		.2byte	0x2
 6765 08c1 30       		.byte	0x30
 6766 08c2 9F       		.byte	0x9f
 6767 08c3 20000000 		.4byte	.LVL150
 6768 08c7 22000000 		.4byte	.LVL151
 6769 08cb 0100     		.2byte	0x1
 6770 08cd 50       		.byte	0x50
 6771 08ce 22000000 		.4byte	.LVL151
 6772 08d2 24000000 		.4byte	.LVL152
 6773 08d6 0200     		.2byte	0x2
 6774 08d8 30       		.byte	0x30
 6775 08d9 9F       		.byte	0x9f
 6776 08da 24000000 		.4byte	.LVL152
 6777 08de 30000000 		.4byte	.LFE34
 6778 08e2 0100     		.2byte	0x1
 6779 08e4 50       		.byte	0x50
 6780 08e5 00000000 		.4byte	0
 6781 08e9 00000000 		.4byte	0
 6782              	.LLST56:
 6783 08ed 50000000 		.4byte	.LVL164
 6784 08f1 5A000000 		.4byte	.LVL166
 6785 08f5 0100     		.2byte	0x1
 6786 08f7 55       		.byte	0x55
 6787 08f8 00000000 		.4byte	0
 6788 08fc 00000000 		.4byte	0
 6789              	.LLST57:
 6790 0900 00000000 		.4byte	.LVL153
 6791 0904 06000000 		.4byte	.LVL154
 6792 0908 0200     		.2byte	0x2
 6793 090a 30       		.byte	0x30
 6794 090b 9F       		.byte	0x9f
 6795 090c 00000000 		.4byte	0
 6796 0910 00000000 		.4byte	0
 6797              	.LLST58:
 6798 0914 12000000 		.4byte	.LVL155
 6799 0918 14000000 		.4byte	.LVL156
 6800 091c 0200     		.2byte	0x2
 6801 091e 31       		.byte	0x31
 6802 091f 9F       		.byte	0x9f
 6803 0920 00000000 		.4byte	0
 6804 0924 00000000 		.4byte	0
 6805              	.LLST59:
 6806 0928 1E000000 		.4byte	.LVL157
 6807 092c 20000000 		.4byte	.LVL158
 6808 0930 0200     		.2byte	0x2
ARM GAS  C:\Users\user\AppData\Local\Temp\ccsPNKJ0.s 			page 196


 6809 0932 32       		.byte	0x32
 6810 0933 9F       		.byte	0x9f
 6811 0934 00000000 		.4byte	0
 6812 0938 00000000 		.4byte	0
 6813              	.LLST60:
 6814 093c 30000000 		.4byte	.LVL159
 6815 0940 34000000 		.4byte	.LVL160
 6816 0944 0200     		.2byte	0x2
 6817 0946 30       		.byte	0x30
 6818 0947 9F       		.byte	0x9f
 6819 0948 00000000 		.4byte	0
 6820 094c 00000000 		.4byte	0
 6821              	.LLST61:
 6822 0950 24000000 		.4byte	.LVL168
 6823 0954 3C000000 		.4byte	.LVL172
 6824 0958 0100     		.2byte	0x1
 6825 095a 55       		.byte	0x55
 6826 095b 00000000 		.4byte	0
 6827 095f 00000000 		.4byte	0
 6828              	.LLST62:
 6829 0963 00000000 		.4byte	.LVL173
 6830 0967 13000000 		.4byte	.LVL174-1
 6831 096b 0100     		.2byte	0x1
 6832 096d 50       		.byte	0x50
 6833 096e 13000000 		.4byte	.LVL174-1
 6834 0972 1E000000 		.4byte	.LVL177
 6835 0976 0100     		.2byte	0x1
 6836 0978 54       		.byte	0x54
 6837 0979 1E000000 		.4byte	.LVL177
 6838 097d 38000000 		.4byte	.LFE12
 6839 0981 0400     		.2byte	0x4
 6840 0983 F3       		.byte	0xf3
 6841 0984 01       		.uleb128 0x1
 6842 0985 50       		.byte	0x50
 6843 0986 9F       		.byte	0x9f
 6844 0987 00000000 		.4byte	0
 6845 098b 00000000 		.4byte	0
 6846              	.LLST63:
 6847 098f 16000000 		.4byte	.LVL175
 6848 0993 32000000 		.4byte	.LVL179
 6849 0997 0100     		.2byte	0x1
 6850 0999 56       		.byte	0x56
 6851 099a 00000000 		.4byte	0
 6852 099e 00000000 		.4byte	0
 6853              	.LLST64:
 6854 09a2 1C000000 		.4byte	.LVL182
 6855 09a6 34000000 		.4byte	.LVL186
 6856 09aa 0100     		.2byte	0x1
 6857 09ac 55       		.byte	0x55
 6858 09ad 00000000 		.4byte	0
 6859 09b1 00000000 		.4byte	0
 6860              	.LLST65:
 6861 09b5 00000000 		.4byte	.LVL187
 6862 09b9 07000000 		.4byte	.LVL188-1
 6863 09bd 0100     		.2byte	0x1
 6864 09bf 50       		.byte	0x50
 6865 09c0 07000000 		.4byte	.LVL188-1
ARM GAS  C:\Users\user\AppData\Local\Temp\ccsPNKJ0.s 			page 197


 6866 09c4 16000000 		.4byte	.LVL190
 6867 09c8 0100     		.2byte	0x1
 6868 09ca 55       		.byte	0x55
 6869 09cb 16000000 		.4byte	.LVL190
 6870 09cf 1C000000 		.4byte	.LVL191
 6871 09d3 0900     		.2byte	0x9
 6872 09d5 75       		.byte	0x75
 6873 09d6 00       		.sleb128 0
 6874 09d7 0C       		.byte	0xc
 6875 09d8 04040400 		.4byte	0x40404
 6876 09dc 1A       		.byte	0x1a
 6877 09dd 9F       		.byte	0x9f
 6878 09de 1C000000 		.4byte	.LVL191
 6879 09e2 2E000000 		.4byte	.LVL192
 6880 09e6 0100     		.2byte	0x1
 6881 09e8 55       		.byte	0x55
 6882 09e9 3A000000 		.4byte	.LVL196
 6883 09ed 54000000 		.4byte	.LFE36
 6884 09f1 0100     		.2byte	0x1
 6885 09f3 55       		.byte	0x55
 6886 09f4 00000000 		.4byte	0
 6887 09f8 00000000 		.4byte	0
 6888              	.LLST66:
 6889 09fc 0C000000 		.4byte	.LVL189
 6890 0a00 38000000 		.4byte	.LVL195
 6891 0a04 0100     		.2byte	0x1
 6892 0a06 54       		.byte	0x54
 6893 0a07 3A000000 		.4byte	.LVL196
 6894 0a0b 54000000 		.4byte	.LFE36
 6895 0a0f 0100     		.2byte	0x1
 6896 0a11 54       		.byte	0x54
 6897 0a12 00000000 		.4byte	0
 6898 0a16 00000000 		.4byte	0
 6899              	.LLST67:
 6900 0a1a 16000000 		.4byte	.LVL190
 6901 0a1e 2E000000 		.4byte	.LVL192
 6902 0a22 0100     		.2byte	0x1
 6903 0a24 53       		.byte	0x53
 6904 0a25 2E000000 		.4byte	.LVL192
 6905 0a29 32000000 		.4byte	.LVL193
 6906 0a2d 0200     		.2byte	0x2
 6907 0a2f 31       		.byte	0x31
 6908 0a30 9F       		.byte	0x9f
 6909 0a31 3A000000 		.4byte	.LVL196
 6910 0a35 54000000 		.4byte	.LFE36
 6911 0a39 0200     		.2byte	0x2
 6912 0a3b 31       		.byte	0x31
 6913 0a3c 9F       		.byte	0x9f
 6914 0a3d 00000000 		.4byte	0
 6915 0a41 00000000 		.4byte	0
 6916              	.LLST68:
 6917 0a45 00000000 		.4byte	.LVL198
 6918 0a49 08000000 		.4byte	.LVL199
 6919 0a4d 0100     		.2byte	0x1
 6920 0a4f 50       		.byte	0x50
 6921 0a50 08000000 		.4byte	.LVL199
 6922 0a54 1C000000 		.4byte	.LFE37
ARM GAS  C:\Users\user\AppData\Local\Temp\ccsPNKJ0.s 			page 198


 6923 0a58 0400     		.2byte	0x4
 6924 0a5a F3       		.byte	0xf3
 6925 0a5b 01       		.uleb128 0x1
 6926 0a5c 50       		.byte	0x50
 6927 0a5d 9F       		.byte	0x9f
 6928 0a5e 00000000 		.4byte	0
 6929 0a62 00000000 		.4byte	0
 6930              	.LLST69:
 6931 0a66 00000000 		.4byte	.LVL200
 6932 0a6a 0A000000 		.4byte	.LVL201
 6933 0a6e 0100     		.2byte	0x1
 6934 0a70 50       		.byte	0x50
 6935 0a71 0A000000 		.4byte	.LVL201
 6936 0a75 18000000 		.4byte	.LFE38
 6937 0a79 0400     		.2byte	0x4
 6938 0a7b F3       		.byte	0xf3
 6939 0a7c 01       		.uleb128 0x1
 6940 0a7d 50       		.byte	0x50
 6941 0a7e 9F       		.byte	0x9f
 6942 0a7f 00000000 		.4byte	0
 6943 0a83 00000000 		.4byte	0
 6944              	.LLST70:
 6945 0a87 00000000 		.4byte	.LVL200
 6946 0a8b 0E000000 		.4byte	.LVL202
 6947 0a8f 0200     		.2byte	0x2
 6948 0a91 30       		.byte	0x30
 6949 0a92 9F       		.byte	0x9f
 6950 0a93 0E000000 		.4byte	.LVL202
 6951 0a97 18000000 		.4byte	.LFE38
 6952 0a9b 0100     		.2byte	0x1
 6953 0a9d 52       		.byte	0x52
 6954 0a9e 00000000 		.4byte	0
 6955 0aa2 00000000 		.4byte	0
 6956              	.LLST71:
 6957 0aa6 00000000 		.4byte	.LVL204
 6958 0aaa 0A000000 		.4byte	.LVL205
 6959 0aae 0100     		.2byte	0x1
 6960 0ab0 50       		.byte	0x50
 6961 0ab1 0A000000 		.4byte	.LVL205
 6962 0ab5 18000000 		.4byte	.LFE39
 6963 0ab9 0400     		.2byte	0x4
 6964 0abb F3       		.byte	0xf3
 6965 0abc 01       		.uleb128 0x1
 6966 0abd 50       		.byte	0x50
 6967 0abe 9F       		.byte	0x9f
 6968 0abf 00000000 		.4byte	0
 6969 0ac3 00000000 		.4byte	0
 6970              	.LLST72:
 6971 0ac7 00000000 		.4byte	.LVL204
 6972 0acb 0E000000 		.4byte	.LVL206
 6973 0acf 0200     		.2byte	0x2
 6974 0ad1 30       		.byte	0x30
 6975 0ad2 9F       		.byte	0x9f
 6976 0ad3 0E000000 		.4byte	.LVL206
 6977 0ad7 18000000 		.4byte	.LFE39
 6978 0adb 0100     		.2byte	0x1
 6979 0add 53       		.byte	0x53
ARM GAS  C:\Users\user\AppData\Local\Temp\ccsPNKJ0.s 			page 199


 6980 0ade 00000000 		.4byte	0
 6981 0ae2 00000000 		.4byte	0
 6982              	.LLST73:
 6983 0ae6 00000000 		.4byte	.LVL207
 6984 0aea 08000000 		.4byte	.LVL208
 6985 0aee 0100     		.2byte	0x1
 6986 0af0 50       		.byte	0x50
 6987 0af1 08000000 		.4byte	.LVL208
 6988 0af5 28000000 		.4byte	.LFE40
 6989 0af9 0400     		.2byte	0x4
 6990 0afb F3       		.byte	0xf3
 6991 0afc 01       		.uleb128 0x1
 6992 0afd 50       		.byte	0x50
 6993 0afe 9F       		.byte	0x9f
 6994 0aff 00000000 		.4byte	0
 6995 0b03 00000000 		.4byte	0
 6996              	.LLST74:
 6997 0b07 00000000 		.4byte	.LVL209
 6998 0b0b 0A000000 		.4byte	.LVL210
 6999 0b0f 0100     		.2byte	0x1
 7000 0b11 50       		.byte	0x50
 7001 0b12 0A000000 		.4byte	.LVL210
 7002 0b16 1C000000 		.4byte	.LFE41
 7003 0b1a 0400     		.2byte	0x4
 7004 0b1c F3       		.byte	0xf3
 7005 0b1d 01       		.uleb128 0x1
 7006 0b1e 50       		.byte	0x50
 7007 0b1f 9F       		.byte	0x9f
 7008 0b20 00000000 		.4byte	0
 7009 0b24 00000000 		.4byte	0
 7010              	.LLST75:
 7011 0b28 00000000 		.4byte	.LVL217
 7012 0b2c 09000000 		.4byte	.LVL218-1
 7013 0b30 0100     		.2byte	0x1
 7014 0b32 50       		.byte	0x50
 7015 0b33 09000000 		.4byte	.LVL218-1
 7016 0b37 26000000 		.4byte	.LVL221
 7017 0b3b 0100     		.2byte	0x1
 7018 0b3d 54       		.byte	0x54
 7019 0b3e 26000000 		.4byte	.LVL221
 7020 0b42 2D000000 		.4byte	.LVL222-1
 7021 0b46 0100     		.2byte	0x1
 7022 0b48 50       		.byte	0x50
 7023 0b49 2D000000 		.4byte	.LVL222-1
 7024 0b4d 4C000000 		.4byte	.LVL226
 7025 0b51 0100     		.2byte	0x1
 7026 0b53 54       		.byte	0x54
 7027 0b54 4C000000 		.4byte	.LVL226
 7028 0b58 4E000000 		.4byte	.LFE43
 7029 0b5c 0400     		.2byte	0x4
 7030 0b5e F3       		.byte	0xf3
 7031 0b5f 01       		.uleb128 0x1
 7032 0b60 50       		.byte	0x50
 7033 0b61 9F       		.byte	0x9f
 7034 0b62 00000000 		.4byte	0
 7035 0b66 00000000 		.4byte	0
 7036              	.LLST76:
ARM GAS  C:\Users\user\AppData\Local\Temp\ccsPNKJ0.s 			page 200


 7037 0b6a 00000000 		.4byte	.LVL227
 7038 0b6e 0F000000 		.4byte	.LVL228-1
 7039 0b72 0100     		.2byte	0x1
 7040 0b74 50       		.byte	0x50
 7041 0b75 0F000000 		.4byte	.LVL228-1
 7042 0b79 52000000 		.4byte	.LVL236
 7043 0b7d 0100     		.2byte	0x1
 7044 0b7f 54       		.byte	0x54
 7045 0b80 52000000 		.4byte	.LVL236
 7046 0b84 64000000 		.4byte	.LFE47
 7047 0b88 0400     		.2byte	0x4
 7048 0b8a F3       		.byte	0xf3
 7049 0b8b 01       		.uleb128 0x1
 7050 0b8c 50       		.byte	0x50
 7051 0b8d 9F       		.byte	0x9f
 7052 0b8e 00000000 		.4byte	0
 7053 0b92 00000000 		.4byte	0
 7054              	.LLST77:
 7055 0b96 00000000 		.4byte	.LVL227
 7056 0b9a 0F000000 		.4byte	.LVL228-1
 7057 0b9e 0100     		.2byte	0x1
 7058 0ba0 51       		.byte	0x51
 7059 0ba1 0F000000 		.4byte	.LVL228-1
 7060 0ba5 64000000 		.4byte	.LFE47
 7061 0ba9 0400     		.2byte	0x4
 7062 0bab F3       		.byte	0xf3
 7063 0bac 01       		.uleb128 0x1
 7064 0bad 51       		.byte	0x51
 7065 0bae 9F       		.byte	0x9f
 7066 0baf 00000000 		.4byte	0
 7067 0bb3 00000000 		.4byte	0
 7068              	.LLST78:
 7069 0bb7 00000000 		.4byte	.LVL227
 7070 0bbb 0F000000 		.4byte	.LVL228-1
 7071 0bbf 0100     		.2byte	0x1
 7072 0bc1 52       		.byte	0x52
 7073 0bc2 0F000000 		.4byte	.LVL228-1
 7074 0bc6 52000000 		.4byte	.LVL237
 7075 0bca 0100     		.2byte	0x1
 7076 0bcc 55       		.byte	0x55
 7077 0bcd 52000000 		.4byte	.LVL237
 7078 0bd1 64000000 		.4byte	.LFE47
 7079 0bd5 0400     		.2byte	0x4
 7080 0bd7 F3       		.byte	0xf3
 7081 0bd8 01       		.uleb128 0x1
 7082 0bd9 52       		.byte	0x52
 7083 0bda 9F       		.byte	0x9f
 7084 0bdb 00000000 		.4byte	0
 7085 0bdf 00000000 		.4byte	0
 7086              	.LLST79:
 7087 0be3 24000000 		.4byte	.LVL229
 7088 0be7 2A000000 		.4byte	.LVL230
 7089 0beb 0100     		.2byte	0x1
 7090 0bed 50       		.byte	0x50
 7091 0bee 2E000000 		.4byte	.LVL231
 7092 0bf2 34000000 		.4byte	.LVL232
 7093 0bf6 0100     		.2byte	0x1
ARM GAS  C:\Users\user\AppData\Local\Temp\ccsPNKJ0.s 			page 201


 7094 0bf8 50       		.byte	0x50
 7095 0bf9 00000000 		.4byte	0
 7096 0bfd 00000000 		.4byte	0
 7097              	.LLST80:
 7098 0c01 34000000 		.4byte	.LVL232
 7099 0c05 3E000000 		.4byte	.LVL233
 7100 0c09 0100     		.2byte	0x1
 7101 0c0b 56       		.byte	0x56
 7102 0c0c 00000000 		.4byte	0
 7103 0c10 00000000 		.4byte	0
 7104              	.LLST81:
 7105 0c14 34000000 		.4byte	.LVL232
 7106 0c18 52000000 		.4byte	.LVL235
 7107 0c1c 0100     		.2byte	0x1
 7108 0c1e 55       		.byte	0x55
 7109 0c1f 00000000 		.4byte	0
 7110 0c23 00000000 		.4byte	0
 7111              	.LLST82:
 7112 0c27 34000000 		.4byte	.LVL232
 7113 0c2b 52000000 		.4byte	.LVL235
 7114 0c2f 0100     		.2byte	0x1
 7115 0c31 54       		.byte	0x54
 7116 0c32 00000000 		.4byte	0
 7117 0c36 00000000 		.4byte	0
 7118              	.LLST83:
 7119 0c3a 3E000000 		.4byte	.LVL233
 7120 0c3e 52000000 		.4byte	.LVL235
 7121 0c42 0100     		.2byte	0x1
 7122 0c44 56       		.byte	0x56
 7123 0c45 00000000 		.4byte	0
 7124 0c49 00000000 		.4byte	0
 7125              	.LLST84:
 7126 0c4d 00000000 		.4byte	.LVL238
 7127 0c51 0F000000 		.4byte	.LVL239-1
 7128 0c55 0100     		.2byte	0x1
 7129 0c57 50       		.byte	0x50
 7130 0c58 0F000000 		.4byte	.LVL239-1
 7131 0c5c 2C000000 		.4byte	.LVL243
 7132 0c60 0100     		.2byte	0x1
 7133 0c62 54       		.byte	0x54
 7134 0c63 2C000000 		.4byte	.LVL243
 7135 0c67 34000000 		.4byte	.LFE46
 7136 0c6b 0400     		.2byte	0x4
 7137 0c6d F3       		.byte	0xf3
 7138 0c6e 01       		.uleb128 0x1
 7139 0c6f 50       		.byte	0x50
 7140 0c70 9F       		.byte	0x9f
 7141 0c71 00000000 		.4byte	0
 7142 0c75 00000000 		.4byte	0
 7143              	.LLST85:
 7144 0c79 00000000 		.4byte	.LVL238
 7145 0c7d 0F000000 		.4byte	.LVL239-1
 7146 0c81 0100     		.2byte	0x1
 7147 0c83 51       		.byte	0x51
 7148 0c84 0F000000 		.4byte	.LVL239-1
 7149 0c88 34000000 		.4byte	.LFE46
 7150 0c8c 0400     		.2byte	0x4
ARM GAS  C:\Users\user\AppData\Local\Temp\ccsPNKJ0.s 			page 202


 7151 0c8e F3       		.byte	0xf3
 7152 0c8f 01       		.uleb128 0x1
 7153 0c90 51       		.byte	0x51
 7154 0c91 9F       		.byte	0x9f
 7155 0c92 00000000 		.4byte	0
 7156 0c96 00000000 		.4byte	0
 7157              	.LLST86:
 7158 0c9a 00000000 		.4byte	.LVL238
 7159 0c9e 0F000000 		.4byte	.LVL239-1
 7160 0ca2 0100     		.2byte	0x1
 7161 0ca4 52       		.byte	0x52
 7162 0ca5 0F000000 		.4byte	.LVL239-1
 7163 0ca9 2C000000 		.4byte	.LVL244
 7164 0cad 0100     		.2byte	0x1
 7165 0caf 56       		.byte	0x56
 7166 0cb0 2C000000 		.4byte	.LVL244
 7167 0cb4 34000000 		.4byte	.LFE46
 7168 0cb8 0400     		.2byte	0x4
 7169 0cba F3       		.byte	0xf3
 7170 0cbb 01       		.uleb128 0x1
 7171 0cbc 52       		.byte	0x52
 7172 0cbd 9F       		.byte	0x9f
 7173 0cbe 00000000 		.4byte	0
 7174 0cc2 00000000 		.4byte	0
 7175              	.LLST87:
 7176 0cc6 20000000 		.4byte	.LVL240
 7177 0cca 22000000 		.4byte	.LVL241
 7178 0cce 0100     		.2byte	0x1
 7179 0cd0 50       		.byte	0x50
 7180 0cd1 00000000 		.4byte	0
 7181 0cd5 00000000 		.4byte	0
 7182              	.LLST88:
 7183 0cd9 20000000 		.4byte	.LVL240
 7184 0cdd 22000000 		.4byte	.LVL241
 7185 0ce1 0A00     		.2byte	0xa
 7186 0ce3 76       		.byte	0x76
 7187 0ce4 00       		.sleb128 0
 7188 0ce5 70       		.byte	0x70
 7189 0ce6 00       		.sleb128 0
 7190 0ce7 22       		.byte	0x22
 7191 0ce8 0A       		.byte	0xa
 7192 0ce9 FFFF     		.2byte	0xffff
 7193 0ceb 1A       		.byte	0x1a
 7194 0cec 9F       		.byte	0x9f
 7195 0ced 00000000 		.4byte	0
 7196 0cf1 00000000 		.4byte	0
 7197              		.section	.debug_aranges,"",%progbits
 7198 0000 74010000 		.4byte	0x174
 7199 0004 0200     		.2byte	0x2
 7200 0006 00000000 		.4byte	.Ldebug_info0
 7201 000a 04       		.byte	0x4
 7202 000b 00       		.byte	0
 7203 000c 0000     		.2byte	0
 7204 000e 0000     		.2byte	0
 7205 0010 00000000 		.4byte	.LFB0
 7206 0014 34000000 		.4byte	.LFE0-.LFB0
 7207 0018 00000000 		.4byte	.LFB2
ARM GAS  C:\Users\user\AppData\Local\Temp\ccsPNKJ0.s 			page 203


 7208 001c 14000000 		.4byte	.LFE2-.LFB2
 7209 0020 00000000 		.4byte	.LFB4
 7210 0024 58000000 		.4byte	.LFE4-.LFB4
 7211 0028 00000000 		.4byte	.LFB5
 7212 002c 14000000 		.4byte	.LFE5-.LFB5
 7213 0030 00000000 		.4byte	.LFB6
 7214 0034 E8000000 		.4byte	.LFE6-.LFB6
 7215 0038 00000000 		.4byte	.LFB9
 7216 003c 90000000 		.4byte	.LFE9-.LFB9
 7217 0040 00000000 		.4byte	.LFB8
 7218 0044 BC000000 		.4byte	.LFE8-.LFB8
 7219 0048 00000000 		.4byte	.LFB10
 7220 004c 2C000000 		.4byte	.LFE10-.LFB10
 7221 0050 00000000 		.4byte	.LFB13
 7222 0054 18000000 		.4byte	.LFE13-.LFB13
 7223 0058 00000000 		.4byte	.LFB15
 7224 005c 0C000000 		.4byte	.LFE15-.LFB15
 7225 0060 00000000 		.4byte	.LFB16
 7226 0064 4C000000 		.4byte	.LFE16-.LFB16
 7227 0068 00000000 		.4byte	.LFB17
 7228 006c 24000000 		.4byte	.LFE17-.LFB17
 7229 0070 00000000 		.4byte	.LFB18
 7230 0074 1C000000 		.4byte	.LFE18-.LFB18
 7231 0078 00000000 		.4byte	.LFB20
 7232 007c 30000000 		.4byte	.LFE20-.LFB20
 7233 0080 00000000 		.4byte	.LFB21
 7234 0084 18000000 		.4byte	.LFE21-.LFB21
 7235 0088 00000000 		.4byte	.LFB22
 7236 008c 2C000000 		.4byte	.LFE22-.LFB22
 7237 0090 00000000 		.4byte	.LFB45
 7238 0094 2C000000 		.4byte	.LFE45-.LFB45
 7239 0098 00000000 		.4byte	.LFB23
 7240 009c 14000000 		.4byte	.LFE23-.LFB23
 7241 00a0 00000000 		.4byte	.LFB24
 7242 00a4 2C000000 		.4byte	.LFE24-.LFB24
 7243 00a8 00000000 		.4byte	.LFB25
 7244 00ac 18000000 		.4byte	.LFE25-.LFB25
 7245 00b0 00000000 		.4byte	.LFB26
 7246 00b4 38000000 		.4byte	.LFE26-.LFB26
 7247 00b8 00000000 		.4byte	.LFB27
 7248 00bc 48000000 		.4byte	.LFE27-.LFB27
 7249 00c0 00000000 		.4byte	.LFB28
 7250 00c4 34000000 		.4byte	.LFE28-.LFB28
 7251 00c8 00000000 		.4byte	.LFB29
 7252 00cc 14000000 		.4byte	.LFE29-.LFB29
 7253 00d0 00000000 		.4byte	.LFB30
 7254 00d4 48000000 		.4byte	.LFE30-.LFB30
 7255 00d8 00000000 		.4byte	.LFB31
 7256 00dc 2C000000 		.4byte	.LFE31-.LFB31
 7257 00e0 00000000 		.4byte	.LFB32
 7258 00e4 10000000 		.4byte	.LFE32-.LFB32
 7259 00e8 00000000 		.4byte	.LFB33
 7260 00ec 14000000 		.4byte	.LFE33-.LFB33
 7261 00f0 00000000 		.4byte	.LFB34
 7262 00f4 30000000 		.4byte	.LFE34-.LFB34
 7263 00f8 00000000 		.4byte	.LFB44
 7264 00fc 68000000 		.4byte	.LFE44-.LFB44
ARM GAS  C:\Users\user\AppData\Local\Temp\ccsPNKJ0.s 			page 204


 7265 0100 00000000 		.4byte	.LFB3
 7266 0104 54000000 		.4byte	.LFE3-.LFB3
 7267 0108 00000000 		.4byte	.LFB12
 7268 010c 38000000 		.4byte	.LFE12-.LFB12
 7269 0110 00000000 		.4byte	.LFB14
 7270 0114 48000000 		.4byte	.LFE14-.LFB14
 7271 0118 00000000 		.4byte	.LFB35
 7272 011c 14000000 		.4byte	.LFE35-.LFB35
 7273 0120 00000000 		.4byte	.LFB36
 7274 0124 54000000 		.4byte	.LFE36-.LFB36
 7275 0128 00000000 		.4byte	.LFB37
 7276 012c 1C000000 		.4byte	.LFE37-.LFB37
 7277 0130 00000000 		.4byte	.LFB38
 7278 0134 18000000 		.4byte	.LFE38-.LFB38
 7279 0138 00000000 		.4byte	.LFB39
 7280 013c 18000000 		.4byte	.LFE39-.LFB39
 7281 0140 00000000 		.4byte	.LFB40
 7282 0144 28000000 		.4byte	.LFE40-.LFB40
 7283 0148 00000000 		.4byte	.LFB41
 7284 014c 1C000000 		.4byte	.LFE41-.LFB41
 7285 0150 00000000 		.4byte	.LFB42
 7286 0154 A0000000 		.4byte	.LFE42-.LFB42
 7287 0158 00000000 		.4byte	.LFB43
 7288 015c 4E000000 		.4byte	.LFE43-.LFB43
 7289 0160 00000000 		.4byte	.LFB47
 7290 0164 64000000 		.4byte	.LFE47-.LFB47
 7291 0168 00000000 		.4byte	.LFB46
 7292 016c 34000000 		.4byte	.LFE46-.LFB46
 7293 0170 00000000 		.4byte	0
 7294 0174 00000000 		.4byte	0
 7295              		.section	.debug_ranges,"",%progbits
 7296              	.Ldebug_ranges0:
 7297 0000 00000000 		.4byte	.LBB94
 7298 0004 02000000 		.4byte	.LBE94
 7299 0008 04000000 		.4byte	.LBB97
 7300 000c 06000000 		.4byte	.LBE97
 7301 0010 00000000 		.4byte	0
 7302 0014 00000000 		.4byte	0
 7303 0018 00000000 		.4byte	.LBB104
 7304 001c 02000000 		.4byte	.LBE104
 7305 0020 04000000 		.4byte	.LBB107
 7306 0024 06000000 		.4byte	.LBE107
 7307 0028 00000000 		.4byte	0
 7308 002c 00000000 		.4byte	0
 7309 0030 2C000000 		.4byte	.LBB112
 7310 0034 2E000000 		.4byte	.LBE112
 7311 0038 32000000 		.4byte	.LBB115
 7312 003c 34000000 		.4byte	.LBE115
 7313 0040 00000000 		.4byte	0
 7314 0044 00000000 		.4byte	0
 7315 0048 00000000 		.4byte	.LBB122
 7316 004c 02000000 		.4byte	.LBE122
 7317 0050 04000000 		.4byte	.LBB125
 7318 0054 0E000000 		.4byte	.LBE125
 7319 0058 00000000 		.4byte	0
 7320 005c 00000000 		.4byte	0
 7321 0060 02000000 		.4byte	.LBB130
ARM GAS  C:\Users\user\AppData\Local\Temp\ccsPNKJ0.s 			page 205


 7322 0064 04000000 		.4byte	.LBE130
 7323 0068 06000000 		.4byte	.LBB133
 7324 006c 08000000 		.4byte	.LBE133
 7325 0070 00000000 		.4byte	0
 7326 0074 00000000 		.4byte	0
 7327 0078 08000000 		.4byte	.LBB138
 7328 007c 0A000000 		.4byte	.LBE138
 7329 0080 0C000000 		.4byte	.LBB141
 7330 0084 16000000 		.4byte	.LBE141
 7331 0088 00000000 		.4byte	0
 7332 008c 00000000 		.4byte	0
 7333 0090 00000000 		.4byte	.LFB0
 7334 0094 34000000 		.4byte	.LFE0
 7335 0098 00000000 		.4byte	.LFB2
 7336 009c 14000000 		.4byte	.LFE2
 7337 00a0 00000000 		.4byte	.LFB4
 7338 00a4 58000000 		.4byte	.LFE4
 7339 00a8 00000000 		.4byte	.LFB5
 7340 00ac 14000000 		.4byte	.LFE5
 7341 00b0 00000000 		.4byte	.LFB6
 7342 00b4 E8000000 		.4byte	.LFE6
 7343 00b8 00000000 		.4byte	.LFB9
 7344 00bc 90000000 		.4byte	.LFE9
 7345 00c0 00000000 		.4byte	.LFB8
 7346 00c4 BC000000 		.4byte	.LFE8
 7347 00c8 00000000 		.4byte	.LFB10
 7348 00cc 2C000000 		.4byte	.LFE10
 7349 00d0 00000000 		.4byte	.LFB13
 7350 00d4 18000000 		.4byte	.LFE13
 7351 00d8 00000000 		.4byte	.LFB15
 7352 00dc 0C000000 		.4byte	.LFE15
 7353 00e0 00000000 		.4byte	.LFB16
 7354 00e4 4C000000 		.4byte	.LFE16
 7355 00e8 00000000 		.4byte	.LFB17
 7356 00ec 24000000 		.4byte	.LFE17
 7357 00f0 00000000 		.4byte	.LFB18
 7358 00f4 1C000000 		.4byte	.LFE18
 7359 00f8 00000000 		.4byte	.LFB20
 7360 00fc 30000000 		.4byte	.LFE20
 7361 0100 00000000 		.4byte	.LFB21
 7362 0104 18000000 		.4byte	.LFE21
 7363 0108 00000000 		.4byte	.LFB22
 7364 010c 2C000000 		.4byte	.LFE22
 7365 0110 00000000 		.4byte	.LFB45
 7366 0114 2C000000 		.4byte	.LFE45
 7367 0118 00000000 		.4byte	.LFB23
 7368 011c 14000000 		.4byte	.LFE23
 7369 0120 00000000 		.4byte	.LFB24
 7370 0124 2C000000 		.4byte	.LFE24
 7371 0128 00000000 		.4byte	.LFB25
 7372 012c 18000000 		.4byte	.LFE25
 7373 0130 00000000 		.4byte	.LFB26
 7374 0134 38000000 		.4byte	.LFE26
 7375 0138 00000000 		.4byte	.LFB27
 7376 013c 48000000 		.4byte	.LFE27
 7377 0140 00000000 		.4byte	.LFB28
 7378 0144 34000000 		.4byte	.LFE28
ARM GAS  C:\Users\user\AppData\Local\Temp\ccsPNKJ0.s 			page 206


 7379 0148 00000000 		.4byte	.LFB29
 7380 014c 14000000 		.4byte	.LFE29
 7381 0150 00000000 		.4byte	.LFB30
 7382 0154 48000000 		.4byte	.LFE30
 7383 0158 00000000 		.4byte	.LFB31
 7384 015c 2C000000 		.4byte	.LFE31
 7385 0160 00000000 		.4byte	.LFB32
 7386 0164 10000000 		.4byte	.LFE32
 7387 0168 00000000 		.4byte	.LFB33
 7388 016c 14000000 		.4byte	.LFE33
 7389 0170 00000000 		.4byte	.LFB34
 7390 0174 30000000 		.4byte	.LFE34
 7391 0178 00000000 		.4byte	.LFB44
 7392 017c 68000000 		.4byte	.LFE44
 7393 0180 00000000 		.4byte	.LFB3
 7394 0184 54000000 		.4byte	.LFE3
 7395 0188 00000000 		.4byte	.LFB12
 7396 018c 38000000 		.4byte	.LFE12
 7397 0190 00000000 		.4byte	.LFB14
 7398 0194 48000000 		.4byte	.LFE14
 7399 0198 00000000 		.4byte	.LFB35
 7400 019c 14000000 		.4byte	.LFE35
 7401 01a0 00000000 		.4byte	.LFB36
 7402 01a4 54000000 		.4byte	.LFE36
 7403 01a8 00000000 		.4byte	.LFB37
 7404 01ac 1C000000 		.4byte	.LFE37
 7405 01b0 00000000 		.4byte	.LFB38
 7406 01b4 18000000 		.4byte	.LFE38
 7407 01b8 00000000 		.4byte	.LFB39
 7408 01bc 18000000 		.4byte	.LFE39
 7409 01c0 00000000 		.4byte	.LFB40
 7410 01c4 28000000 		.4byte	.LFE40
 7411 01c8 00000000 		.4byte	.LFB41
 7412 01cc 1C000000 		.4byte	.LFE41
 7413 01d0 00000000 		.4byte	.LFB42
 7414 01d4 A0000000 		.4byte	.LFE42
 7415 01d8 00000000 		.4byte	.LFB43
 7416 01dc 4E000000 		.4byte	.LFE43
 7417 01e0 00000000 		.4byte	.LFB47
 7418 01e4 64000000 		.4byte	.LFE47
 7419 01e8 00000000 		.4byte	.LFB46
 7420 01ec 34000000 		.4byte	.LFE46
 7421 01f0 00000000 		.4byte	0
 7422 01f4 00000000 		.4byte	0
 7423              		.section	.debug_line,"",%progbits
 7424              	.Ldebug_line0:
 7425 0000 DE060000 		.section	.debug_str,"MS",%progbits,1
 7425      02005C00 
 7425      00000201 
 7425      FB0E0D00 
 7425      01010101 
 7426              	.LASF10:
 7427 0000 75696E74 		.ascii	"uint16\000"
 7427      313600
 7428              	.LASF120:
 7429 0007 43794578 		.ascii	"CyExitCriticalSection\000"
 7429      69744372 
ARM GAS  C:\Users\user\AppData\Local\Temp\ccsPNKJ0.s 			page 207


 7429      69746963 
 7429      616C5365 
 7429      6374696F 
 7430              	.LASF39:
 7431 001d 6C66636C 		.ascii	"lfclkSource\000"
 7431      6B536F75 
 7431      72636500 
 7432              	.LASF117:
 7433 0029 636F756E 		.ascii	"counterIntMaskTbl\000"
 7433      74657249 
 7433      6E744D61 
 7433      736B5462 
 7433      6C00
 7434              	.LASF118:
 7435 003b 63795379 		.ascii	"cySysWdtCallback\000"
 7435      73576474 
 7435      43616C6C 
 7435      6261636B 
 7435      00
 7436              	.LASF35:
 7437 004c 43795379 		.ascii	"CySysWdtSetMode\000"
 7437      73576474 
 7437      5365744D 
 7437      6F646500 
 7438              	.LASF70:
 7439 005c 43795379 		.ascii	"CySysWdtUnlock\000"
 7439      73576474 
 7439      556E6C6F 
 7439      636B00
 7440              	.LASF24:
 7441 006b 6D656173 		.ascii	"measuredIloFreq\000"
 7441      75726564 
 7441      496C6F46 
 7441      72657100 
 7442              	.LASF30:
 7443 007b 636F756E 		.ascii	"counterNum\000"
 7443      7465724E 
 7443      756D00
 7444              	.LASF127:
 7445 0086 43795379 		.ascii	"CySysClkLfclkPosedgeCatch\000"
 7445      73436C6B 
 7445      4C66636C 
 7445      6B506F73 
 7445      65646765 
 7446              	.LASF79:
 7447 00a0 43795379 		.ascii	"CySysWdtGetCascade\000"
 7447      73576474 
 7447      47657443 
 7447      61736361 
 7447      646500
 7448              	.LASF125:
 7449 00b3 43795379 		.ascii	"CySysClkGetLfclkSource\000"
 7449      73436C6B 
 7449      4765744C 
 7449      66636C6B 
 7449      536F7572 
 7450              	.LASF60:
ARM GAS  C:\Users\user\AppData\Local\Temp\ccsPNKJ0.s 			page 208


 7451 00ca 43795379 		.ascii	"CySysClkIloStartMeasurement\000"
 7451      73436C6B 
 7451      496C6F53 
 7451      74617274 
 7451      4D656173 
 7452              	.LASF113:
 7453 00e6 6C66636C 		.ascii	"lfclkPosedgeWdtCounter0Enabled\000"
 7453      6B506F73 
 7453      65646765 
 7453      57647443 
 7453      6F756E74 
 7454              	.LASF8:
 7455 0105 6C6F6E67 		.ascii	"long long unsigned int\000"
 7455      206C6F6E 
 7455      6720756E 
 7455      7369676E 
 7455      65642069 
 7456              	.LASF71:
 7457 011c 43795379 		.ascii	"CySysWdtSetClearOnMatch\000"
 7457      73576474 
 7457      53657443 
 7457      6C656172 
 7457      4F6E4D61 
 7458              	.LASF25:
 7459 0134 63757272 		.ascii	"currentIloTrimValue\000"
 7459      656E7449 
 7459      6C6F5472 
 7459      696D5661 
 7459      6C756500 
 7460              	.LASF78:
 7461 0148 43795379 		.ascii	"CySysClkWcoEnabled\000"
 7461      73436C6B 
 7461      57636F45 
 7461      6E61626C 
 7461      656400
 7462              	.LASF28:
 7463 015b 6572726F 		.ascii	"errorRangeStatus\000"
 7463      7252616E 
 7463      67655374 
 7463      61747573 
 7463      00
 7464              	.LASF126:
 7465 016c 43795379 		.ascii	"CySysClkWcoSetHighPowerMode\000"
 7465      73436C6B 
 7465      57636F53 
 7465      65744869 
 7465      6768506F 
 7466              	.LASF7:
 7467 0188 6C6F6E67 		.ascii	"long long int\000"
 7467      206C6F6E 
 7467      6720696E 
 7467      7400
 7468              	.LASF1:
 7469 0196 7369676E 		.ascii	"signed char\000"
 7469      65642063 
 7469      68617200 
 7470              	.LASF101:
ARM GAS  C:\Users\user\AppData\Local\Temp\ccsPNKJ0.s 			page 209


 7471 01a2 66756E63 		.ascii	"function\000"
 7471      74696F6E 
 7471      00
 7472              	.LASF68:
 7473 01ab 43795379 		.ascii	"CySysWdtLock\000"
 7473      73576474 
 7473      4C6F636B 
 7473      00
 7474              	.LASF21:
 7475 01b8 63795764 		.ascii	"cyWdtCallback\000"
 7475      7443616C 
 7475      6C626163 
 7475      6B00
 7476              	.LASF12:
 7477 01c6 696E7433 		.ascii	"int32\000"
 7477      3200
 7478              	.LASF121:
 7479 01cc 43794465 		.ascii	"CyDelayUs\000"
 7479      6C617955 
 7479      7300
 7480              	.LASF26:
 7481 01d6 696C6F41 		.ascii	"iloAccuracyValue\000"
 7481      63637572 
 7481      61637956 
 7481      616C7565 
 7481      00
 7482              	.LASF20:
 7483 01e7 63795F73 		.ascii	"cy_sys_timer_delaytype_enum\000"
 7483      79735F74 
 7483      696D6572 
 7483      5F64656C 
 7483      61797479 
 7484              	.LASF83:
 7485 0203 62697473 		.ascii	"bits\000"
 7485      00
 7486              	.LASF5:
 7487 0208 6C6F6E67 		.ascii	"long int\000"
 7487      20696E74 
 7487      00
 7488              	.LASF81:
 7489 0211 72656756 		.ascii	"regValue\000"
 7489      616C7565 
 7489      00
 7490              	.LASF67:
 7491 021a 636C6F63 		.ascii	"clockSel\000"
 7491      6B53656C 
 7491      00
 7492              	.LASF9:
 7493 0223 75696E74 		.ascii	"uint8\000"
 7493      3800
 7494              	.LASF72:
 7495 0229 656E6162 		.ascii	"enable\000"
 7495      6C6500
 7496              	.LASF14:
 7497 0230 646F7562 		.ascii	"double\000"
 7497      6C6500
 7498              	.LASF47:
ARM GAS  C:\Users\user\AppData\Local\Temp\ccsPNKJ0.s 			page 210


 7499 0237 636F6D70 		.ascii	"compensatedCycles\000"
 7499      656E7361 
 7499      74656443 
 7499      79636C65 
 7499      7300
 7500              	.LASF91:
 7501 0249 43795379 		.ascii	"CySysClkIloStop\000"
 7501      73436C6B 
 7501      496C6F53 
 7501      746F7000 
 7502              	.LASF49:
 7503 0259 696C6F43 		.ascii	"iloCompensatedCycles\000"
 7503      6F6D7065 
 7503      6E736174 
 7503      65644379 
 7503      636C6573 
 7504              	.LASF99:
 7505 026e 636F756E 		.ascii	"countersMask\000"
 7505      74657273 
 7505      4D61736B 
 7505      00
 7506              	.LASF11:
 7507 027b 75696E74 		.ascii	"uint32\000"
 7507      333200
 7508              	.LASF45:
 7509 0282 43795379 		.ascii	"CySysClkIloStopMeasurement\000"
 7509      73436C6B 
 7509      496C6F53 
 7509      746F704D 
 7509      65617375 
 7510              	.LASF63:
 7511 029d 43795379 		.ascii	"CySysClkWcoSetLowPowerMode\000"
 7511      73436C6B 
 7511      57636F53 
 7511      65744C6F 
 7511      77506F77 
 7512              	.LASF102:
 7513 02b8 70726576 		.ascii	"prevCallback\000"
 7513      43616C6C 
 7513      6261636B 
 7513      00
 7514              	.LASF80:
 7515 02c5 43795379 		.ascii	"CySysWdtSetMatch\000"
 7515      73576474 
 7515      5365744D 
 7515      61746368 
 7515      00
 7516              	.LASF77:
 7517 02d6 636F756E 		.ascii	"countersEnableStatus\000"
 7517      74657273 
 7517      456E6162 
 7517      6C655374 
 7517      61747573 
 7518              	.LASF116:
 7519 02eb 77647449 		.ascii	"wdtIsrMask\000"
 7519      73724D61 
 7519      736B00
ARM GAS  C:\Users\user\AppData\Local\Temp\ccsPNKJ0.s 			page 211


 7520              	.LASF36:
 7521 02f6 43795379 		.ascii	"CySysWdtEnable\000"
 7521      73576474 
 7521      456E6162 
 7521      6C6500
 7522              	.LASF100:
 7523 0305 43795379 		.ascii	"CySysWdtSetInterruptCallback\000"
 7523      73576474 
 7523      53657449 
 7523      6E746572 
 7523      72757074 
 7524              	.LASF37:
 7525 0322 636F756E 		.ascii	"counterMask\000"
 7525      7465724D 
 7525      61736B00 
 7526              	.LASF73:
 7527 032e 43795379 		.ascii	"CySysWdtGetClearOnMatch\000"
 7527      73576474 
 7527      47657443 
 7527      6C656172 
 7527      4F6E4D61 
 7528              	.LASF0:
 7529 0346 756E7369 		.ascii	"unsigned int\000"
 7529      676E6564 
 7529      20696E74 
 7529      00
 7530              	.LASF92:
 7531 0353 43795379 		.ascii	"CySysClkSetLfclkSource\000"
 7531      73436C6B 
 7531      5365744C 
 7531      66636C6B 
 7531      536F7572 
 7532              	.LASF87:
 7533 036a 66697273 		.ascii	"firstCount\000"
 7533      74436F75 
 7533      6E7400
 7534              	.LASF104:
 7535 0375 72657443 		.ascii	"retCallback\000"
 7535      616C6C62 
 7535      61636B00 
 7536              	.LASF46:
 7537 0381 64657369 		.ascii	"desiredDelay\000"
 7537      72656444 
 7537      656C6179 
 7537      00
 7538              	.LASF6:
 7539 038e 6C6F6E67 		.ascii	"long unsigned int\000"
 7539      20756E73 
 7539      69676E65 
 7539      6420696E 
 7539      7400
 7540              	.LASF69:
 7541 03a0 696E7465 		.ascii	"interruptState\000"
 7541      72727570 
 7541      74537461 
 7541      746500
 7542              	.LASF111:
ARM GAS  C:\Users\user\AppData\Local\Temp\ccsPNKJ0.s 			page 212


 7543 03af 6D617463 		.ascii	"matchValue\000"
 7543      6856616C 
 7543      756500
 7544              	.LASF62:
 7545 03ba 43795379 		.ascii	"CySysClkLfclkPosedgeRestore\000"
 7545      73436C6B 
 7545      4C66636C 
 7545      6B506F73 
 7545      65646765 
 7546              	.LASF105:
 7547 03d6 43795379 		.ascii	"CySysWdtEnableCounterIsr\000"
 7547      73576474 
 7547      456E6162 
 7547      6C65436F 
 7547      756E7465 
 7548              	.LASF27:
 7549 03ef 7472696D 		.ascii	"trimStep\000"
 7549      53746570 
 7549      00
 7550              	.LASF4:
 7551 03f8 73686F72 		.ascii	"short unsigned int\000"
 7551      7420756E 
 7551      7369676E 
 7551      65642069 
 7551      6E7400
 7552              	.LASF34:
 7553 040b 43795379 		.ascii	"CySysWdtGetEnabledStatus\000"
 7553      73576474 
 7553      47657445 
 7553      6E61626C 
 7553      65645374 
 7554              	.LASF103:
 7555 0424 43795379 		.ascii	"CySysWdtGetInterruptCallback\000"
 7555      73576474 
 7555      47657449 
 7555      6E746572 
 7555      72757074 
 7556              	.LASF48:
 7557 0441 696C6F54 		.ascii	"iloTrimTrig\000"
 7557      72696D54 
 7557      72696700 
 7558              	.LASF33:
 7559 044d 43795379 		.ascii	"CySysClkIloUpdateTrimReg\000"
 7559      73436C6B 
 7559      496C6F55 
 7559      70646174 
 7559      65547269 
 7560              	.LASF44:
 7561 0466 43795379 		.ascii	"CySysClkIloStart\000"
 7561      73436C6B 
 7561      496C6F53 
 7561      74617274 
 7561      00
 7562              	.LASF82:
 7563 0477 43795379 		.ascii	"CySysWdtSetToggleBit\000"
 7563      73576474 
 7563      53657454 
ARM GAS  C:\Users\user\AppData\Local\Temp\ccsPNKJ0.s 			page 213


 7563      6F67676C 
 7563      65426974 
 7564              	.LASF65:
 7565 048c 706F7765 		.ascii	"powerModeStatus\000"
 7565      724D6F64 
 7565      65537461 
 7565      74757300 
 7566              	.LASF108:
 7567 049c 43795379 		.ascii	"CySysWatchdogFeed\000"
 7567      73576174 
 7567      6368646F 
 7567      67466565 
 7567      6400
 7568              	.LASF17:
 7569 04ae 72656733 		.ascii	"reg32\000"
 7569      3200
 7570              	.LASF112:
 7571 04b4 64656661 		.ascii	"defaultIloTrimRegValue\000"
 7571      756C7449 
 7571      6C6F5472 
 7571      696D5265 
 7571      6756616C 
 7572              	.LASF119:
 7573 04cb 4379456E 		.ascii	"CyEnterCriticalSection\000"
 7573      74657243 
 7573      72697469 
 7573      63616C53 
 7573      65637469 
 7574              	.LASF61:
 7575 04e2 43795379 		.ascii	"CySysClkWcoStart\000"
 7575      73436C6B 
 7575      57636F53 
 7575      74617274 
 7575      00
 7576              	.LASF53:
 7577 04f3 72657475 		.ascii	"returnStatus\000"
 7577      726E5374 
 7577      61747573 
 7577      00
 7578              	.LASF93:
 7579 0500 736F7572 		.ascii	"source\000"
 7579      636500
 7580              	.LASF66:
 7581 0507 43795379 		.ascii	"CySysClkWcoClockOutSelect\000"
 7581      73436C6B 
 7581      57636F43 
 7581      6C6F636B 
 7581      4F757453 
 7582              	.LASF23:
 7583 0521 73697A65 		.ascii	"sizetype\000"
 7583      74797065 
 7583      00
 7584              	.LASF22:
 7585 052a 6C6F6E67 		.ascii	"long double\000"
 7585      20646F75 
 7585      626C6500 
 7586              	.LASF85:
ARM GAS  C:\Users\user\AppData\Local\Temp\ccsPNKJ0.s 			page 214


 7587 0536 43795379 		.ascii	"CySysWdtGetMatch\000"
 7587      73576474 
 7587      4765744D 
 7587      61746368 
 7587      00
 7588              	.LASF122:
 7589 0547 474E5520 		.ascii	"GNU C11 5.4.1 20160609 (release) [ARM/embedded-5-br"
 7589      43313120 
 7589      352E342E 
 7589      31203230 
 7589      31363036 
 7590 057a 616E6368 		.ascii	"anch revision 237715] -mcpu=cortex-m0 -mthumb -g -O"
 7590      20726576 
 7590      6973696F 
 7590      6E203233 
 7590      37373135 
 7591 05ad 73202D66 		.ascii	"s -ffunction-sections -ffat-lto-objects\000"
 7591      66756E63 
 7591      74696F6E 
 7591      2D736563 
 7591      74696F6E 
 7592              	.LASF42:
 7593 05d5 6D617463 		.ascii	"match\000"
 7593      6800
 7594              	.LASF59:
 7595 05db 43795379 		.ascii	"CySysClkIloRestoreFactoryTrim\000"
 7595      73436C6B 
 7595      496C6F52 
 7595      6573746F 
 7595      72654661 
 7596              	.LASF18:
 7597 05f9 43595F53 		.ascii	"CY_SYS_TIMER_WAIT\000"
 7597      59535F54 
 7597      494D4552 
 7597      5F574149 
 7597      5400
 7598              	.LASF52:
 7599 060b 63686563 		.ascii	"checkStatus\000"
 7599      6B537461 
 7599      74757300 
 7600              	.LASF128:
 7601 0617 63796465 		.ascii	"cydelayFreqHz\000"
 7601      6C617946 
 7601      72657148 
 7601      7A00
 7602              	.LASF98:
 7603 0625 43795379 		.ascii	"CySysWdtResetCounters\000"
 7603      73576474 
 7603      52657365 
 7603      74436F75 
 7603      6E746572 
 7604              	.LASF57:
 7605 063b 77616974 		.ascii	"waitUntilCntr1Stops\000"
 7605      556E7469 
 7605      6C436E74 
 7605      72315374 
 7605      6F707300 
ARM GAS  C:\Users\user\AppData\Local\Temp\ccsPNKJ0.s 			page 215


 7606              	.LASF96:
 7607 064f 43795379 		.ascii	"CySysWdtClearInterrupt\000"
 7607      73576474 
 7607      436C6561 
 7607      72496E74 
 7607      65727275 
 7608              	.LASF13:
 7609 0666 666C6F61 		.ascii	"float\000"
 7609      7400
 7610              	.LASF40:
 7611 066c 43795379 		.ascii	"CySysTimerDelayUntilMatch\000"
 7611      7354696D 
 7611      65724465 
 7611      6C617955 
 7611      6E74696C 
 7612              	.LASF109:
 7613 0686 43795379 		.ascii	"CySysTimerDelay\000"
 7613      7354696D 
 7613      65724465 
 7613      6C617900 
 7614              	.LASF89:
 7615 0696 43795379 		.ascii	"CySysWdtLocked\000"
 7615      73576474 
 7615      4C6F636B 
 7615      656400
 7616              	.LASF2:
 7617 06a5 756E7369 		.ascii	"unsigned char\000"
 7617      676E6564 
 7617      20636861 
 7617      7200
 7618              	.LASF51:
 7619 06b3 636F6D70 		.ascii	"compensateRunningStatus\000"
 7619      656E7361 
 7619      74655275 
 7619      6E6E696E 
 7619      67537461 
 7620              	.LASF88:
 7621 06cb 6C66636C 		.ascii	"lfclkPosedgeEnabledWdtCounter\000"
 7621      6B506F73 
 7621      65646765 
 7621      456E6162 
 7621      6C656457 
 7622              	.LASF110:
 7623 06e9 64656C61 		.ascii	"delay\000"
 7623      7900
 7624              	.LASF75:
 7625 06ef 43795379 		.ascii	"CySysWdtSetCascade\000"
 7625      73576474 
 7625      53657443 
 7625      61736361 
 7625      646500
 7626              	.LASF3:
 7627 0702 73686F72 		.ascii	"short int\000"
 7627      7420696E 
 7627      7400
 7628              	.LASF41:
 7629 070c 64656C61 		.ascii	"delayType\000"
ARM GAS  C:\Users\user\AppData\Local\Temp\ccsPNKJ0.s 			page 216


 7629      79547970 
 7629      6500
 7630              	.LASF74:
 7631 0716 43795379 		.ascii	"CySysWdtDisable\000"
 7631      73576474 
 7631      44697361 
 7631      626C6500 
 7632              	.LASF55:
 7633 0726 43795379 		.ascii	"CySysClkIloTrim\000"
 7633      73436C6B 
 7633      496C6F54 
 7633      72696D00 
 7634              	.LASF90:
 7635 0736 43795379 		.ascii	"CySysClkIloEnabled\000"
 7635      73436C6B 
 7635      496C6F45 
 7635      6E61626C 
 7635      656400
 7636              	.LASF95:
 7637 0749 43795379 		.ascii	"CySysWdtGetInterruptSource\000"
 7637      73576474 
 7637      47657449 
 7637      6E746572 
 7637      72757074 
 7638              	.LASF123:
 7639 0764 47656E65 		.ascii	"Generated_Source\\PSoC4\\CyLFClk.c\000"
 7639      72617465 
 7639      645F536F 
 7639      75726365 
 7639      5C50536F 
 7640              	.LASF29:
 7641 0785 696C6F41 		.ascii	"iloAccuracyInPPT\000"
 7641      63637572 
 7641      61637949 
 7641      6E505054 
 7641      00
 7642              	.LASF94:
 7643 0796 43795379 		.ascii	"CySysClkWcoStop\000"
 7643      73436C6B 
 7643      57636F53 
 7643      746F7000 
 7644              	.LASF64:
 7645 07a6 43795379 		.ascii	"CySysClkWcoSetPowerMode\000"
 7645      73436C6B 
 7645      57636F53 
 7645      6574506F 
 7645      7765724D 
 7646              	.LASF106:
 7647 07be 43795379 		.ascii	"CySysWdtDisableCounterIsr\000"
 7647      73576474 
 7647      44697361 
 7647      626C6543 
 7647      6F756E74 
 7648              	.LASF15:
 7649 07d8 63686172 		.ascii	"char\000"
 7649      00
 7650              	.LASF31:
ARM GAS  C:\Users\user\AppData\Local\Temp\ccsPNKJ0.s 			page 217


 7651 07dd 6D6F6465 		.ascii	"mode\000"
 7651      00
 7652              	.LASF86:
 7653 07e2 43795379 		.ascii	"CySysWdtGetCount\000"
 7653      73576474 
 7653      47657443 
 7653      6F756E74 
 7653      00
 7654              	.LASF115:
 7655 07f3 64697361 		.ascii	"disableServicedIsr\000"
 7655      626C6553 
 7655      65727669 
 7655      63656449 
 7655      737200
 7656              	.LASF43:
 7657 0806 746D7056 		.ascii	"tmpValue\000"
 7657      616C7565 
 7657      00
 7658              	.LASF124:
 7659 080f 433A5C55 		.ascii	"C:\\Users\\user\\Desktop\\__Testy 740G\\BLE projekt"
 7659      73657273 
 7659      5C757365 
 7659      725C4465 
 7659      736B746F 
 7660 083d 5C424C45 		.ascii	"\\BLE_Continuous_Glucose_Monitoring_Sensor01\\BLE_C"
 7660      5F436F6E 
 7660      74696E75 
 7660      6F75735F 
 7660      476C7563 
 7661 086e 6F6E7469 		.ascii	"ontinuous_Glucose_Monitoring_Sensor01.cydsn\000"
 7661      6E756F75 
 7661      735F476C 
 7661      75636F73 
 7661      655F4D6F 
 7662              	.LASF56:
 7663 089a 74696D65 		.ascii	"timeOutClocks\000"
 7663      4F757443 
 7663      6C6F636B 
 7663      7300
 7664              	.LASF58:
 7665 08a8 7472696D 		.ascii	"trimRunningStatus\000"
 7665      52756E6E 
 7665      696E6753 
 7665      74617475 
 7665      7300
 7666              	.LASF38:
 7667 08ba 43795379 		.ascii	"CySysWdtGetMode\000"
 7667      73576474 
 7667      4765744D 
 7667      6F646500 
 7668              	.LASF50:
 7669 08ca 64657369 		.ascii	"desiredDelayInCounts\000"
 7669      72656444 
 7669      656C6179 
 7669      496E436F 
 7669      756E7473 
 7670              	.LASF32:
ARM GAS  C:\Users\user\AppData\Local\Temp\ccsPNKJ0.s 			page 218


 7671 08df 636F6E66 		.ascii	"configRegValue\000"
 7671      69675265 
 7671      6756616C 
 7671      756500
 7672              	.LASF97:
 7673 08ee 7764744C 		.ascii	"wdtLockState\000"
 7673      6F636B53 
 7673      74617465 
 7673      00
 7674              	.LASF114:
 7675 08fb 6C66636C 		.ascii	"lfclkPosedgeWdtCounter0Mode\000"
 7675      6B506F73 
 7675      65646765 
 7675      57647443 
 7675      6F756E74 
 7676              	.LASF76:
 7677 0917 63617363 		.ascii	"cascadeMask\000"
 7677      6164654D 
 7677      61736B00 
 7678              	.LASF16:
 7679 0923 63797374 		.ascii	"cystatus\000"
 7679      61747573 
 7679      00
 7680              	.LASF107:
 7681 092c 43795379 		.ascii	"CySysWdtIsr\000"
 7681      73576474 
 7681      49737200 
 7682              	.LASF84:
 7683 0938 43795379 		.ascii	"CySysWdtGetToggleBit\000"
 7683      73576474 
 7683      47657454 
 7683      6F67676C 
 7683      65426974 
 7684              	.LASF54:
 7685 094d 43795379 		.ascii	"CySysClkIloCompensate\000"
 7685      73436C6B 
 7685      496C6F43 
 7685      6F6D7065 
 7685      6E736174 
 7686              	.LASF19:
 7687 0963 43595F53 		.ascii	"CY_SYS_TIMER_INTERRUPT\000"
 7687      59535F54 
 7687      494D4552 
 7687      5F494E54 
 7687      45525255 
 7688              		.ident	"GCC: (GNU Tools for ARM Embedded Processors) 5.4.1 20160609 (release) [ARM/embedded-5-bran
