ARM GAS  C:\Users\user\AppData\Local\Temp\cciWLeSC.s 			page 1


   1              		.syntax unified
   2              		.cpu cortex-m0
   3              		.fpu softvfp
   4              		.eabi_attribute 20, 1
   5              		.eabi_attribute 21, 1
   6              		.eabi_attribute 23, 3
   7              		.eabi_attribute 24, 1
   8              		.eabi_attribute 25, 1
   9              		.eabi_attribute 26, 1
  10              		.eabi_attribute 30, 4
  11              		.eabi_attribute 34, 0
  12              		.eabi_attribute 18, 4
  13              		.thumb
  14              		.syntax unified
  15              		.file	"debug.c"
  16              		.text
  17              	.Ltext0:
  18              		.cfi_sections	.debug_frame
  19              		.section	.text._write,"ax",%progbits
  20              		.align	1
  21              		.global	_write
  22              		.code	16
  23              		.thumb_func
  24              		.type	_write, %function
  25              	_write:
  26              	.LFB36:
  27              		.file 1 "debug.c"
   1:debug.c       **** /*******************************************************************************
   2:debug.c       **** * File Name: debug.c
   3:debug.c       **** *
   4:debug.c       **** * Version 1.0
   5:debug.c       **** *
   6:debug.c       **** * Description:
   7:debug.c       **** *  Common BLE application code for printout debug messages.
   8:debug.c       **** *
   9:debug.c       **** * Hardware Dependency:
  10:debug.c       **** *  CY8CKIT-042 BLE
  11:debug.c       **** *
  12:debug.c       **** ********************************************************************************
  13:debug.c       **** * Copyright 2016, Cypress Semiconductor Corporation.  All rights reserved.
  14:debug.c       **** * You may use this file only in accordance with the license, terms, conditions,
  15:debug.c       **** * disclaimers, and limitations in the end user license agreement accompanying
  16:debug.c       **** * the software package with which this file was provided.
  17:debug.c       **** *******************************************************************************/
  18:debug.c       **** 
  19:debug.c       **** #include "main.h"
  20:debug.c       **** 
  21:debug.c       **** #if (DEBUG_UART_ENABLED == ENABLED)
  22:debug.c       **** 
  23:debug.c       **** #if defined(__ARMCC_VERSION)
  24:debug.c       **** 
  25:debug.c       **** /* For MDK/RVDS compiler, revise fputc function for printf functionality */
  26:debug.c       **** struct __FILE
  27:debug.c       **** {
  28:debug.c       ****     int handle;
  29:debug.c       **** };
  30:debug.c       **** 
ARM GAS  C:\Users\user\AppData\Local\Temp\cciWLeSC.s 			page 2


  31:debug.c       **** enum
  32:debug.c       **** {
  33:debug.c       ****     STDIN_HANDLE,
  34:debug.c       ****     STDOUT_HANDLE,
  35:debug.c       ****     STDERR_HANDLE
  36:debug.c       **** };
  37:debug.c       **** 
  38:debug.c       **** FILE __stdin = {STDIN_HANDLE};
  39:debug.c       **** FILE __stdout = {STDOUT_HANDLE};
  40:debug.c       **** FILE __stderr = {STDERR_HANDLE};
  41:debug.c       **** 
  42:debug.c       **** int fputc(int ch, FILE *file)
  43:debug.c       **** {
  44:debug.c       ****     int ret = EOF;
  45:debug.c       **** 
  46:debug.c       ****     switch( file->handle )
  47:debug.c       ****     {
  48:debug.c       ****         case STDOUT_HANDLE:
  49:debug.c       ****             UART_DEB_UartPutChar(ch);
  50:debug.c       ****             ret = ch ;
  51:debug.c       ****             break ;
  52:debug.c       **** 
  53:debug.c       ****         case STDERR_HANDLE:
  54:debug.c       ****             ret = ch ;
  55:debug.c       ****             break ;
  56:debug.c       **** 
  57:debug.c       ****         default:
  58:debug.c       ****             file = file;
  59:debug.c       ****             break ;
  60:debug.c       ****     }
  61:debug.c       ****     return ret ;
  62:debug.c       **** }
  63:debug.c       **** 
  64:debug.c       **** #elif defined (__ICCARM__)      /* IAR */
  65:debug.c       **** 
  66:debug.c       **** /* For IAR compiler, revise __write() function for printf functionality */
  67:debug.c       **** size_t __write(int handle, const unsigned char * buffer, size_t size)
  68:debug.c       **** {
  69:debug.c       ****     size_t nChars = 0;
  70:debug.c       **** 
  71:debug.c       ****     if (buffer == 0)
  72:debug.c       ****     {
  73:debug.c       ****         /*
  74:debug.c       ****          * This means that we should flush internal buffers.  Since we
  75:debug.c       ****          * don't, we just return.  (Remember, "handle" == -1 means that all
  76:debug.c       ****          * handles should be flushed.)
  77:debug.c       ****          */
  78:debug.c       ****         return (0);
  79:debug.c       ****     }
  80:debug.c       **** 
  81:debug.c       ****     for (/* Empty */; size != 0; --size)
  82:debug.c       ****     {
  83:debug.c       ****         UART_DEB_UartPutChar(*buffer++);
  84:debug.c       ****         ++nChars;
  85:debug.c       ****     }
  86:debug.c       **** 
  87:debug.c       ****     return (nChars);
ARM GAS  C:\Users\user\AppData\Local\Temp\cciWLeSC.s 			page 3


  88:debug.c       **** }
  89:debug.c       **** 
  90:debug.c       **** #else  /* (__GNUC__)  GCC */
  91:debug.c       **** 
  92:debug.c       **** /* For GCC compiler, revise _write() function for printf functionality */
  93:debug.c       **** int _write(int file, char *ptr, int len)
  94:debug.c       **** {
  28              		.loc 1 94 0
  29              		.cfi_startproc
  30              		@ args = 0, pretend = 0, frame = 0
  31              		@ frame_needed = 0, uses_anonymous_args = 0
  32              	.LVL0:
  33 0000 70B5     		push	{r4, r5, r6, lr}
  34              		.cfi_def_cfa_offset 16
  35              		.cfi_offset 4, -16
  36              		.cfi_offset 5, -12
  37              		.cfi_offset 6, -8
  38              		.cfi_offset 14, -4
  39              		.loc 1 94 0
  40 0002 0E00     		movs	r6, r1
  41 0004 1500     		movs	r5, r2
  95:debug.c       ****     int x;
  96:debug.c       ****     file = file;
  97:debug.c       ****     for (x = 0; x < len; x++)
  42              		.loc 1 97 0
  43 0006 0C00     		movs	r4, r1
  44              	.LVL1:
  45              	.L2:
  46              		.loc 1 97 0 is_stmt 0 discriminator 1
  47 0008 A31B     		subs	r3, r4, r6
  48 000a 9D42     		cmp	r5, r3
  49 000c 04DD     		ble	.L5
  50              	.LVL2:
  98:debug.c       ****     {
  99:debug.c       ****         UART_DEB_UartPutChar(*ptr++);
  51              		.loc 1 99 0 is_stmt 1 discriminator 3
  52 000e 2078     		ldrb	r0, [r4]
  53 0010 FFF7FEFF 		bl	UART_DEB_SpiUartWriteTxData
  54              	.LVL3:
  55 0014 0134     		adds	r4, r4, #1
  56              	.LVL4:
  57 0016 F7E7     		b	.L2
  58              	.L5:
 100:debug.c       ****     }
 101:debug.c       ****     return len;
 102:debug.c       **** }
  59              		.loc 1 102 0
  60 0018 2800     		movs	r0, r5
  61              		@ sp needed
  62              	.LVL5:
  63              	.LVL6:
  64 001a 70BD     		pop	{r4, r5, r6, pc}
  65              		.cfi_endproc
  66              	.LFE36:
  67              		.size	_write, .-_write
  68              		.section	.text.PrintState,"ax",%progbits
  69              		.align	1
ARM GAS  C:\Users\user\AppData\Local\Temp\cciWLeSC.s 			page 4


  70              		.global	PrintState
  71              		.code	16
  72              		.thumb_func
  73              		.type	PrintState, %function
  74              	PrintState:
  75              	.LFB38:
 103:debug.c       **** 
 104:debug.c       **** #endif  /* (__ARMCC_VERSION) */
 105:debug.c       **** 
 106:debug.c       **** #endif /* DEBUG_UART_ENABLED == ENABLED */
 107:debug.c       **** 
 108:debug.c       **** 
 109:debug.c       **** /*******************************************************************************
 110:debug.c       **** * Function Name: PrintStackVersion
 111:debug.c       **** ********************************************************************************
 112:debug.c       **** *
 113:debug.c       **** * Summary:
 114:debug.c       **** *   Prints the BLE Stack version if the PRINT_STACK_VERSION is defined.
 115:debug.c       **** *
 116:debug.c       **** * Parameters:
 117:debug.c       **** *   None.
 118:debug.c       **** *
 119:debug.c       **** * Return:
 120:debug.c       **** *   None.
 121:debug.c       **** *
 122:debug.c       **** *******************************************************************************/
 123:debug.c       **** void PrintStackVersion(void)
 124:debug.c       **** {
 125:debug.c       ****     CYBLE_STACK_LIB_VERSION_T stackVersion;
 126:debug.c       ****     
 127:debug.c       ****     apiResult = CyBle_GetStackLibraryVersion(&stackVersion);
 128:debug.c       ****     if(apiResult != CYBLE_ERROR_OK)
 129:debug.c       ****     {
 130:debug.c       ****         DBG_PRINTF("CyBle_GetStackLibraryVersion API Error: ");
 131:debug.c       ****         PrintApiResult();
 132:debug.c       ****     }
 133:debug.c       ****     else
 134:debug.c       ****     {
 135:debug.c       ****         DBG_PRINTF("BLE Stack Version: %d.%d.%d.%d\r\n", stackVersion.majorVersion, 
 136:debug.c       ****                                                          stackVersion.minorVersion,
 137:debug.c       ****                                                          stackVersion.patch,
 138:debug.c       ****                                                          stackVersion.buildNumber);
 139:debug.c       ****     }
 140:debug.c       **** }
 141:debug.c       **** 
 142:debug.c       **** /*******************************************************************************
 143:debug.c       **** * Function Name: PrintState
 144:debug.c       **** ********************************************************************************
 145:debug.c       **** *
 146:debug.c       **** * Summary:
 147:debug.c       **** *   Decodes and prints the cyBle_state global variable value.
 148:debug.c       **** *
 149:debug.c       **** * Parameters:
 150:debug.c       **** *   None.
 151:debug.c       **** *
 152:debug.c       **** * Return:
 153:debug.c       **** *   None.
ARM GAS  C:\Users\user\AppData\Local\Temp\cciWLeSC.s 			page 5


 154:debug.c       **** *
 155:debug.c       **** *******************************************************************************/
 156:debug.c       **** void PrintState(void)
 157:debug.c       **** {
  76              		.loc 1 157 0
  77              		.cfi_startproc
  78              		@ args = 0, pretend = 0, frame = 0
  79              		@ frame_needed = 0, uses_anonymous_args = 0
  80 0000 10B5     		push	{r4, lr}
  81              		.cfi_def_cfa_offset 8
  82              		.cfi_offset 4, -8
  83              		.cfi_offset 14, -4
 158:debug.c       ****     DBG_PRINTF("state: ");
  84              		.loc 1 158 0
  85 0002 0D48     		ldr	r0, .L16
  86 0004 FFF7FEFF 		bl	printf
  87              	.LVL7:
 159:debug.c       ****     switch(CyBle_GetState())
  88              		.loc 1 159 0
  89 0008 0C4B     		ldr	r3, .L16+4
  90 000a 1878     		ldrb	r0, [r3]
  91 000c 0428     		cmp	r0, #4
  92 000e 0ED8     		bhi	.L7
  93 0010 FFF7FEFF 		bl	__gnu_thumb1_case_uqi
  94              	.L9:
  95 0014 03       		.byte	(.L8-.L9)/2
  96 0015 05       		.byte	(.L10-.L9)/2
  97 0016 07       		.byte	(.L11-.L9)/2
  98 0017 0B       		.byte	(.L12-.L9)/2
  99 0018 09       		.byte	(.L13-.L9)/2
 100 0019 00       		.p2align 1
 101              	.L8:
 160:debug.c       ****     {
 161:debug.c       ****         case CYBLE_STATE_STOPPED:
 162:debug.c       ****             DBG_PRINTF("stopped\r\n");
 102              		.loc 1 162 0
 103 001a 0948     		ldr	r0, .L16+8
 104 001c 08E0     		b	.L15
 105              	.L10:
 163:debug.c       ****             break;
 164:debug.c       ****             
 165:debug.c       ****         case CYBLE_STATE_INITIALIZING:
 166:debug.c       ****             DBG_PRINTF("initializing\r\n");
 106              		.loc 1 166 0
 107 001e 0948     		ldr	r0, .L16+12
 108 0020 06E0     		b	.L15
 109              	.L11:
 167:debug.c       ****             break;
 168:debug.c       ****             
 169:debug.c       ****         case CYBLE_STATE_CONNECTED:
 170:debug.c       ****             DBG_PRINTF("connected\r\n");
 110              		.loc 1 170 0
 111 0022 0948     		ldr	r0, .L16+16
 112 0024 04E0     		b	.L15
 113              	.L13:
 171:debug.c       ****             break;
 172:debug.c       ****             
ARM GAS  C:\Users\user\AppData\Local\Temp\cciWLeSC.s 			page 6


 173:debug.c       ****         case CYBLE_STATE_DISCONNECTED:
 174:debug.c       ****             DBG_PRINTF("disconnected\r\n");
 114              		.loc 1 174 0
 115 0026 0948     		ldr	r0, .L16+20
 116 0028 02E0     		b	.L15
 117              	.L12:
 175:debug.c       ****             break;
 176:debug.c       ****             
 177:debug.c       ****         case CYBLE_STATE_ADVERTISING:
 178:debug.c       ****             DBG_PRINTF("advertising\r\n");
 118              		.loc 1 178 0
 119 002a 0948     		ldr	r0, .L16+24
 120 002c 00E0     		b	.L15
 121              	.L7:
 179:debug.c       ****             break;
 180:debug.c       **** 
 181:debug.c       ****         default:
 182:debug.c       ****             DBG_PRINTF("unknown\r\n");
 122              		.loc 1 182 0
 123 002e 0948     		ldr	r0, .L16+28
 124              	.L15:
 125 0030 FFF7FEFF 		bl	puts
 126              	.LVL8:
 183:debug.c       ****             break;
 184:debug.c       ****     }
 185:debug.c       **** }
 127              		.loc 1 185 0
 128              		@ sp needed
 129 0034 10BD     		pop	{r4, pc}
 130              	.L17:
 131 0036 C046     		.align	2
 132              	.L16:
 133 0038 00000000 		.word	.LC2
 134 003c 00000000 		.word	cyBle_state
 135 0040 08000000 		.word	.LC5
 136 0044 11000000 		.word	.LC7
 137 0048 1F000000 		.word	.LC9
 138 004c 2A000000 		.word	.LC11
 139 0050 38000000 		.word	.LC13
 140 0054 45000000 		.word	.LC15
 141              		.cfi_endproc
 142              	.LFE38:
 143              		.size	PrintState, .-PrintState
 144              		.section	.text.PrintApiResult,"ax",%progbits
 145              		.align	1
 146              		.global	PrintApiResult
 147              		.code	16
 148              		.thumb_func
 149              		.type	PrintApiResult, %function
 150              	PrintApiResult:
 151              	.LFB39:
 186:debug.c       **** 
 187:debug.c       **** 
 188:debug.c       **** /*******************************************************************************
 189:debug.c       **** * Function Name: PrintApiResult
 190:debug.c       **** ********************************************************************************
 191:debug.c       **** *
ARM GAS  C:\Users\user\AppData\Local\Temp\cciWLeSC.s 			page 7


 192:debug.c       **** * Summary:
 193:debug.c       **** *   Decodes and prints the apiResult global variable value.
 194:debug.c       **** *
 195:debug.c       **** * Parameters:
 196:debug.c       **** *   None.
 197:debug.c       **** *
 198:debug.c       **** * Return:
 199:debug.c       **** *   None.
 200:debug.c       **** *
 201:debug.c       **** *******************************************************************************/
 202:debug.c       **** void PrintApiResult(void)
 203:debug.c       **** {
 152              		.loc 1 203 0
 153              		.cfi_startproc
 154              		@ args = 0, pretend = 0, frame = 0
 155              		@ frame_needed = 0, uses_anonymous_args = 0
 156 0000 10B5     		push	{r4, lr}
 157              		.cfi_def_cfa_offset 8
 158              		.cfi_offset 4, -8
 159              		.cfi_offset 14, -4
 204:debug.c       ****     DBG_PRINTF("0x%2.2x ", apiResult);
 160              		.loc 1 204 0
 161 0002 1D4C     		ldr	r4, .L34
 162 0004 1D48     		ldr	r0, .L34+4
 163 0006 2188     		ldrh	r1, [r4]
 164 0008 FFF7FEFF 		bl	printf
 165              	.LVL9:
 205:debug.c       ****     
 206:debug.c       ****     switch(apiResult)
 166              		.loc 1 206 0
 167 000c 2388     		ldrh	r3, [r4]
 168 000e 132B     		cmp	r3, #19
 169 0010 2CD0     		beq	.L20
 170 0012 0CD8     		bhi	.L21
 207:debug.c       ****     {
 208:debug.c       ****         case CYBLE_ERROR_OK:
 209:debug.c       ****             DBG_PRINTF("ok\r\n");
 210:debug.c       ****             break;
 211:debug.c       ****             
 212:debug.c       ****         case CYBLE_ERROR_INVALID_PARAMETER:
 213:debug.c       ****             DBG_PRINTF("invalid parameter\r\n");
 171              		.loc 1 213 0
 172 0014 1A48     		ldr	r0, .L34+8
 206:debug.c       ****     {
 173              		.loc 1 206 0
 174 0016 012B     		cmp	r3, #1
 175 0018 2BD0     		beq	.L33
 209:debug.c       ****             break;
 176              		.loc 1 209 0
 177 001a 1A48     		ldr	r0, .L34+12
 206:debug.c       ****     {
 178              		.loc 1 206 0
 179 001c 002B     		cmp	r3, #0
 180 001e 28D0     		beq	.L33
 214:debug.c       ****             break;
 215:debug.c       ****             
 216:debug.c       ****         case CYBLE_ERROR_INVALID_OPERATION:
ARM GAS  C:\Users\user\AppData\Local\Temp\cciWLeSC.s 			page 8


 217:debug.c       ****             DBG_PRINTF("invalid operation\r\n");
 181              		.loc 1 217 0
 182 0020 1948     		ldr	r0, .L34+16
 206:debug.c       ****     {
 183              		.loc 1 206 0
 184 0022 022B     		cmp	r3, #2
 185 0024 25D0     		beq	.L33
 218:debug.c       ****             break;
 219:debug.c       ****             
 220:debug.c       ****         case CYBLE_ERROR_NO_DEVICE_ENTITY:
 221:debug.c       ****             DBG_PRINTF("no device entity\r\n");
 186              		.loc 1 221 0
 187 0026 1948     		ldr	r0, .L34+20
 206:debug.c       ****     {
 188              		.loc 1 206 0
 189 0028 072B     		cmp	r3, #7
 190 002a 22D0     		beq	.L33
 191 002c 20E0     		b	.L19
 192              	.L21:
 193 002e 0222     		movs	r2, #2
 194 0030 FF32     		adds	r2, r2, #255
 195 0032 9342     		cmp	r3, r2
 196 0034 16D0     		beq	.L26
 197 0036 07D8     		bhi	.L27
 222:debug.c       ****             break;
 223:debug.c       ****             
 224:debug.c       ****         case CYBLE_ERROR_NTF_DISABLED:
 225:debug.c       ****             DBG_PRINTF("notification is disabled\r\n");
 226:debug.c       ****             break;
 227:debug.c       ****             
 228:debug.c       ****         case CYBLE_ERROR_IND_DISABLED:
 229:debug.c       ****             DBG_PRINTF("indication is disabled\r\n");
 230:debug.c       ****             break;
 231:debug.c       ****             
 232:debug.c       ****         case CYBLE_ERROR_CHAR_IS_NOT_DISCOVERED:
 233:debug.c       ****             DBG_PRINTF("characteristic is not discovered\r\n");
 234:debug.c       ****             break;
 235:debug.c       ****             
 236:debug.c       ****         case CYBLE_ERROR_INVALID_STATE:
 237:debug.c       ****             DBG_PRINTF("invalid state: ");
 238:debug.c       ****             PrintState();
 239:debug.c       ****             break;
 240:debug.c       ****             
 241:debug.c       ****         case CYBLE_ERROR_GATT_DB_INVALID_ATTR_HANDLE:
 242:debug.c       ****             DBG_PRINTF("invalid attribute handle\r\n");
 243:debug.c       ****             break;
 244:debug.c       ****             
 245:debug.c       ****         case CYBLE_ERROR_FLASH_WRITE_NOT_PERMITED:
 246:debug.c       ****             DBG_PRINTF("flash write not permitted\r\n");
 198              		.loc 1 246 0
 199 0038 1548     		ldr	r0, .L34+24
 206:debug.c       ****     {
 200              		.loc 1 206 0
 201 003a 282B     		cmp	r3, #40
 202 003c 19D0     		beq	.L33
 203 003e 013A     		subs	r2, r2, #1
 225:debug.c       ****             break;
ARM GAS  C:\Users\user\AppData\Local\Temp\cciWLeSC.s 			page 9


 204              		.loc 1 225 0
 205 0040 1448     		ldr	r0, .L34+28
 206:debug.c       ****     {
 206              		.loc 1 206 0
 207 0042 9342     		cmp	r3, r2
 208 0044 15D0     		beq	.L33
 209 0046 13E0     		b	.L19
 210              	.L27:
 211 0048 8122     		movs	r2, #129
 212 004a 5200     		lsls	r2, r2, #1
 213 004c 9342     		cmp	r3, r2
 214 004e 0BD0     		beq	.L30
 215 0050 0422     		movs	r2, #4
 216 0052 FF32     		adds	r2, r2, #255
 217 0054 9342     		cmp	r3, r2
 218 0056 0BD1     		bne	.L19
 237:debug.c       ****             PrintState();
 219              		.loc 1 237 0
 220 0058 0F48     		ldr	r0, .L34+32
 221 005a FFF7FEFF 		bl	printf
 222              	.LVL10:
 238:debug.c       ****             break;
 223              		.loc 1 238 0
 224 005e FFF7FEFF 		bl	PrintState
 225              	.LVL11:
 239:debug.c       ****             
 226              		.loc 1 239 0
 227 0062 08E0     		b	.L18
 228              	.L26:
 229:debug.c       ****             break;
 229              		.loc 1 229 0
 230 0064 0D48     		ldr	r0, .L34+36
 231 0066 04E0     		b	.L33
 232              	.L30:
 233:debug.c       ****             break;
 233              		.loc 1 233 0
 234 0068 0D48     		ldr	r0, .L34+40
 235 006a 02E0     		b	.L33
 236              	.L20:
 242:debug.c       ****             break;
 237              		.loc 1 242 0
 238 006c 0D48     		ldr	r0, .L34+44
 239 006e 00E0     		b	.L33
 240              	.L19:
 247:debug.c       ****             break;
 248:debug.c       ****             
 249:debug.c       ****         default:
 250:debug.c       ****             DBG_PRINTF("other api result\r\n");
 241              		.loc 1 250 0
 242 0070 0D48     		ldr	r0, .L34+48
 243              	.L33:
 244 0072 FFF7FEFF 		bl	puts
 245              	.LVL12:
 246              	.L18:
 251:debug.c       ****             break;
 252:debug.c       ****     }
 253:debug.c       **** }
ARM GAS  C:\Users\user\AppData\Local\Temp\cciWLeSC.s 			page 10


 247              		.loc 1 253 0
 248              		@ sp needed
 249 0076 10BD     		pop	{r4, pc}
 250              	.L35:
 251              		.align	2
 252              	.L34:
 253 0078 00000000 		.word	apiResult
 254 007c 4E000000 		.word	.LC18
 255 0080 5B000000 		.word	.LC22
 256 0084 57000000 		.word	.LC20
 257 0088 6E000000 		.word	.LC24
 258 008c 81000000 		.word	.LC26
 259 0090 11010000 		.word	.LC38
 260 0094 93000000 		.word	.LC28
 261 0098 E7000000 		.word	.LC34
 262 009c AD000000 		.word	.LC30
 263 00a0 C5000000 		.word	.LC32
 264 00a4 F7000000 		.word	.LC36
 265 00a8 2C010000 		.word	.LC40
 266              		.cfi_endproc
 267              	.LFE39:
 268              		.size	PrintApiResult, .-PrintApiResult
 269              		.section	.text.PrintStackVersion,"ax",%progbits
 270              		.align	1
 271              		.global	PrintStackVersion
 272              		.code	16
 273              		.thumb_func
 274              		.type	PrintStackVersion, %function
 275              	PrintStackVersion:
 276              	.LFB37:
 124:debug.c       ****     CYBLE_STACK_LIB_VERSION_T stackVersion;
 277              		.loc 1 124 0
 278              		.cfi_startproc
 279              		@ args = 0, pretend = 0, frame = 8
 280              		@ frame_needed = 0, uses_anonymous_args = 0
 281 0000 1FB5     		push	{r0, r1, r2, r3, r4, lr}
 282              		.cfi_def_cfa_offset 24
 283              		.cfi_offset 0, -24
 284              		.cfi_offset 1, -20
 285              		.cfi_offset 2, -16
 286              		.cfi_offset 3, -12
 287              		.cfi_offset 4, -8
 288              		.cfi_offset 14, -4
 127:debug.c       ****     if(apiResult != CYBLE_ERROR_OK)
 289              		.loc 1 127 0
 290 0002 02AC     		add	r4, sp, #8
 291 0004 2000     		movs	r0, r4
 292 0006 FFF7FEFF 		bl	CyBle_GetStackLibraryVersion
 293              	.LVL13:
 294 000a 094B     		ldr	r3, .L39
 295 000c 1880     		strh	r0, [r3]
 128:debug.c       ****     {
 296              		.loc 1 128 0
 297 000e 0028     		cmp	r0, #0
 298 0010 05D0     		beq	.L37
 130:debug.c       ****         PrintApiResult();
 299              		.loc 1 130 0
ARM GAS  C:\Users\user\AppData\Local\Temp\cciWLeSC.s 			page 11


 300 0012 0848     		ldr	r0, .L39+4
 301 0014 FFF7FEFF 		bl	printf
 302              	.LVL14:
 131:debug.c       ****     }
 303              		.loc 1 131 0
 304 0018 FFF7FEFF 		bl	PrintApiResult
 305              	.LVL15:
 306 001c 07E0     		b	.L36
 307              	.L37:
 135:debug.c       ****                                                          stackVersion.minorVersion,
 308              		.loc 1 135 0
 309 001e E088     		ldrh	r0, [r4, #6]
 310 0020 A388     		ldrh	r3, [r4, #4]
 311 0022 6288     		ldrh	r2, [r4, #2]
 312 0024 2188     		ldrh	r1, [r4]
 313 0026 0090     		str	r0, [sp]
 314 0028 0348     		ldr	r0, .L39+8
 315 002a FFF7FEFF 		bl	printf
 316              	.LVL16:
 317              	.L36:
 140:debug.c       **** 
 318              		.loc 1 140 0
 319              		@ sp needed
 320 002e 1FBD     		pop	{r0, r1, r2, r3, r4, pc}
 321              	.L40:
 322              		.align	2
 323              	.L39:
 324 0030 00000000 		.word	apiResult
 325 0034 3E010000 		.word	.LC43
 326 0038 67010000 		.word	.LC45
 327              		.cfi_endproc
 328              	.LFE37:
 329              		.size	PrintStackVersion, .-PrintStackVersion
 330              		.section	.rodata.str1.1,"aMS",%progbits,1
 331              	.LC2:
 332 0000 73746174 		.ascii	"state: \000"
 332      653A2000 
 333              	.LC5:
 334 0008 73746F70 		.ascii	"stopped\015\000"
 334      7065640D 
 334      00
 335              	.LC7:
 336 0011 696E6974 		.ascii	"initializing\015\000"
 336      69616C69 
 336      7A696E67 
 336      0D00
 337              	.LC9:
 338 001f 636F6E6E 		.ascii	"connected\015\000"
 338      65637465 
 338      640D00
 339              	.LC11:
 340 002a 64697363 		.ascii	"disconnected\015\000"
 340      6F6E6E65 
 340      63746564 
 340      0D00
 341              	.LC13:
 342 0038 61647665 		.ascii	"advertising\015\000"
ARM GAS  C:\Users\user\AppData\Local\Temp\cciWLeSC.s 			page 12


 342      72746973 
 342      696E670D 
 342      00
 343              	.LC15:
 344 0045 756E6B6E 		.ascii	"unknown\015\000"
 344      6F776E0D 
 344      00
 345              	.LC18:
 346 004e 30782532 		.ascii	"0x%2.2x \000"
 346      2E327820 
 346      00
 347              	.LC20:
 348 0057 6F6B0D00 		.ascii	"ok\015\000"
 349              	.LC22:
 350 005b 696E7661 		.ascii	"invalid parameter\015\000"
 350      6C696420 
 350      70617261 
 350      6D657465 
 350      720D00
 351              	.LC24:
 352 006e 696E7661 		.ascii	"invalid operation\015\000"
 352      6C696420 
 352      6F706572 
 352      6174696F 
 352      6E0D00
 353              	.LC26:
 354 0081 6E6F2064 		.ascii	"no device entity\015\000"
 354      65766963 
 354      6520656E 
 354      74697479 
 354      0D00
 355              	.LC28:
 356 0093 6E6F7469 		.ascii	"notification is disabled\015\000"
 356      66696361 
 356      74696F6E 
 356      20697320 
 356      64697361 
 357              	.LC30:
 358 00ad 696E6469 		.ascii	"indication is disabled\015\000"
 358      63617469 
 358      6F6E2069 
 358      73206469 
 358      7361626C 
 359              	.LC32:
 360 00c5 63686172 		.ascii	"characteristic is not discovered\015\000"
 360      61637465 
 360      72697374 
 360      69632069 
 360      73206E6F 
 361              	.LC34:
 362 00e7 696E7661 		.ascii	"invalid state: \000"
 362      6C696420 
 362      73746174 
 362      653A2000 
 363              	.LC36:
 364 00f7 696E7661 		.ascii	"invalid attribute handle\015\000"
 364      6C696420 
ARM GAS  C:\Users\user\AppData\Local\Temp\cciWLeSC.s 			page 13


 364      61747472 
 364      69627574 
 364      65206861 
 365              	.LC38:
 366 0111 666C6173 		.ascii	"flash write not permitted\015\000"
 366      68207772 
 366      69746520 
 366      6E6F7420 
 366      7065726D 
 367              	.LC40:
 368 012c 6F746865 		.ascii	"other api result\015\000"
 368      72206170 
 368      69207265 
 368      73756C74 
 368      0D00
 369              	.LC43:
 370 013e 4379426C 		.ascii	"CyBle_GetStackLibraryVersion API Error: \000"
 370      655F4765 
 370      74537461 
 370      636B4C69 
 370      62726172 
 371              	.LC45:
 372 0167 424C4520 		.ascii	"BLE Stack Version: %d.%d.%d.%d\015\012\000"
 372      53746163 
 372      6B205665 
 372      7273696F 
 372      6E3A2025 
 373              		.text
 374              	.Letext0:
 375              		.file 2 "Generated_Source\\PSoC4/cytypes.h"
 376              		.file 3 "Generated_Source\\PSoC4/BLE_Stack.h"
 377              		.file 4 "Generated_Source\\PSoC4/BLE_eventHandler.h"
 378              		.file 5 "main.h"
 379              		.file 6 "Generated_Source\\PSoC4/UART_DEB_SPI_UART.h"
 380              		.file 7 "c:\\program files (x86)\\cypress\\psoc creator\\4.4\\psoc creator\\import\\gnu\\arm\\5.4.
 381              		.file 8 "<built-in>"